ARM GAS  C:\Users\JamesN4\AppData\Local\Temp\cchLhQl1.s 			page 1


   1              		.syntax unified
   2              		.cpu cortex-m0
   3              		.fpu softvfp
   4              		.eabi_attribute 20, 1
   5              		.eabi_attribute 21, 1
   6              		.eabi_attribute 23, 3
   7              		.eabi_attribute 24, 1
   8              		.eabi_attribute 25, 1
   9              		.eabi_attribute 26, 1
  10              		.eabi_attribute 30, 1
  11              		.eabi_attribute 34, 0
  12              		.eabi_attribute 18, 4
  13              		.thumb
  14              		.syntax unified
  15              		.file	"ADC.c"
  16              		.text
  17              	.Ltext0:
  18              		.cfi_sections	.debug_frame
  19              		.section	.text.ADC_Init,"ax",%progbits
  20              		.align	2
  21              		.global	ADC_Init
  22              		.code	16
  23              		.thumb_func
  24              		.type	ADC_Init, %function
  25              	ADC_Init:
  26              	.LFB2:
  27              		.file 1 "Generated_Source\\PSoC4\\ADC.c"
   1:Generated_Source\PSoC4/ADC.c **** /*******************************************************************************
   2:Generated_Source\PSoC4/ADC.c **** * File Name: ADC.c
   3:Generated_Source\PSoC4/ADC.c **** * Version 2.50
   4:Generated_Source\PSoC4/ADC.c **** *
   5:Generated_Source\PSoC4/ADC.c **** * Description:
   6:Generated_Source\PSoC4/ADC.c **** *  This file provides the source code to the API for the Sequencing Successive
   7:Generated_Source\PSoC4/ADC.c **** *  Approximation ADC Component Component.
   8:Generated_Source\PSoC4/ADC.c **** *
   9:Generated_Source\PSoC4/ADC.c **** * Note:
  10:Generated_Source\PSoC4/ADC.c **** *
  11:Generated_Source\PSoC4/ADC.c **** ********************************************************************************
  12:Generated_Source\PSoC4/ADC.c **** * Copyright 2008-2017, Cypress Semiconductor Corporation.  All rights reserved.
  13:Generated_Source\PSoC4/ADC.c **** * You may use this file only in accordance with the license, terms, conditions,
  14:Generated_Source\PSoC4/ADC.c **** * disclaimers, and limitations in the end user license agreement accompanying
  15:Generated_Source\PSoC4/ADC.c **** * the software package with which this file was provided.
  16:Generated_Source\PSoC4/ADC.c **** *******************************************************************************/
  17:Generated_Source\PSoC4/ADC.c **** 
  18:Generated_Source\PSoC4/ADC.c **** #include "ADC.h"
  19:Generated_Source\PSoC4/ADC.c **** 
  20:Generated_Source\PSoC4/ADC.c **** 
  21:Generated_Source\PSoC4/ADC.c **** /***************************************
  22:Generated_Source\PSoC4/ADC.c **** * Global data allocation
  23:Generated_Source\PSoC4/ADC.c **** ***************************************/
  24:Generated_Source\PSoC4/ADC.c **** uint8 ADC_initVar = 0u;
  25:Generated_Source\PSoC4/ADC.c **** volatile int16 ADC_offset[ADC_TOTAL_CHANNELS_NUM];
  26:Generated_Source\PSoC4/ADC.c **** volatile int32 ADC_countsPer10Volt[ADC_TOTAL_CHANNELS_NUM];   /* Gain compensation */
  27:Generated_Source\PSoC4/ADC.c **** 
  28:Generated_Source\PSoC4/ADC.c **** 
  29:Generated_Source\PSoC4/ADC.c **** /***************************************
  30:Generated_Source\PSoC4/ADC.c **** * Local data allocation
ARM GAS  C:\Users\JamesN4\AppData\Local\Temp\cchLhQl1.s 			page 2


  31:Generated_Source\PSoC4/ADC.c **** ***************************************/
  32:Generated_Source\PSoC4/ADC.c **** /* Channels configuration generated by customiser */
  33:Generated_Source\PSoC4/ADC.c **** static const uint32 CYCODE ADC_channelsConfig[] = { 0x00000400u, 0x00000500u, 0x00001400u, 0x000014
  34:Generated_Source\PSoC4/ADC.c **** 
  35:Generated_Source\PSoC4/ADC.c **** 
  36:Generated_Source\PSoC4/ADC.c **** /*******************************************************************************
  37:Generated_Source\PSoC4/ADC.c **** * Function Name: ADC_Start
  38:Generated_Source\PSoC4/ADC.c **** ********************************************************************************
  39:Generated_Source\PSoC4/ADC.c **** *
  40:Generated_Source\PSoC4/ADC.c **** * Summary:
  41:Generated_Source\PSoC4/ADC.c **** *  Performs all required initialization for this component
  42:Generated_Source\PSoC4/ADC.c **** *  and enables the power. The power will be set to the appropriate
  43:Generated_Source\PSoC4/ADC.c **** *  power based on the clock frequency.
  44:Generated_Source\PSoC4/ADC.c **** *
  45:Generated_Source\PSoC4/ADC.c **** * Parameters:
  46:Generated_Source\PSoC4/ADC.c **** *  None.
  47:Generated_Source\PSoC4/ADC.c **** *
  48:Generated_Source\PSoC4/ADC.c **** * Return:
  49:Generated_Source\PSoC4/ADC.c **** *  None.
  50:Generated_Source\PSoC4/ADC.c **** *
  51:Generated_Source\PSoC4/ADC.c **** * Global variables:
  52:Generated_Source\PSoC4/ADC.c **** *  The ADC_initVar variable is used to indicate when/if initial
  53:Generated_Source\PSoC4/ADC.c **** *  configuration of this component has happened. The variable is initialized to
  54:Generated_Source\PSoC4/ADC.c **** *  zero and set to 1 the first time ADC_Start() is called. This allows for
  55:Generated_Source\PSoC4/ADC.c **** *  component Re-Start without re-initialization in all subsequent calls to the
  56:Generated_Source\PSoC4/ADC.c **** *  ADC_Start() routine.
  57:Generated_Source\PSoC4/ADC.c **** *  If re-initialization of the component is required the variable should be set
  58:Generated_Source\PSoC4/ADC.c **** *  to zero before call of ADC_Start() routine, or the user may call
  59:Generated_Source\PSoC4/ADC.c **** *  ADC_Init() and ADC_Enable() as done in the
  60:Generated_Source\PSoC4/ADC.c **** *  ADC_Start() routine.
  61:Generated_Source\PSoC4/ADC.c **** *
  62:Generated_Source\PSoC4/ADC.c **** *******************************************************************************/
  63:Generated_Source\PSoC4/ADC.c **** void ADC_Start(void)
  64:Generated_Source\PSoC4/ADC.c **** {
  65:Generated_Source\PSoC4/ADC.c ****     /* If not Initialized then initialize all required hardware and software */
  66:Generated_Source\PSoC4/ADC.c ****     if(ADC_initVar == 0u)
  67:Generated_Source\PSoC4/ADC.c ****     {
  68:Generated_Source\PSoC4/ADC.c ****         ADC_Init();
  69:Generated_Source\PSoC4/ADC.c ****         ADC_initVar = 1u;
  70:Generated_Source\PSoC4/ADC.c ****     }
  71:Generated_Source\PSoC4/ADC.c ****     ADC_Enable();
  72:Generated_Source\PSoC4/ADC.c **** }
  73:Generated_Source\PSoC4/ADC.c **** 
  74:Generated_Source\PSoC4/ADC.c **** 
  75:Generated_Source\PSoC4/ADC.c **** /*******************************************************************************
  76:Generated_Source\PSoC4/ADC.c **** * Function Name: ADC_Init
  77:Generated_Source\PSoC4/ADC.c **** ********************************************************************************
  78:Generated_Source\PSoC4/ADC.c **** *
  79:Generated_Source\PSoC4/ADC.c **** * Summary:
  80:Generated_Source\PSoC4/ADC.c **** *  Initialize component's parameters to the parameters set by user in the
  81:Generated_Source\PSoC4/ADC.c **** *  customizer of the component placed onto schematic. Usually called in
  82:Generated_Source\PSoC4/ADC.c **** *  ADC_Start().
  83:Generated_Source\PSoC4/ADC.c **** *
  84:Generated_Source\PSoC4/ADC.c **** * Parameters:
  85:Generated_Source\PSoC4/ADC.c **** *  None.
  86:Generated_Source\PSoC4/ADC.c **** *
  87:Generated_Source\PSoC4/ADC.c **** * Return:
ARM GAS  C:\Users\JamesN4\AppData\Local\Temp\cchLhQl1.s 			page 3


  88:Generated_Source\PSoC4/ADC.c **** *  None.
  89:Generated_Source\PSoC4/ADC.c **** *
  90:Generated_Source\PSoC4/ADC.c **** * Global variables:
  91:Generated_Source\PSoC4/ADC.c **** *  The ADC_offset variable is initialized.
  92:Generated_Source\PSoC4/ADC.c **** *
  93:Generated_Source\PSoC4/ADC.c **** *******************************************************************************/
  94:Generated_Source\PSoC4/ADC.c **** void ADC_Init(void)
  95:Generated_Source\PSoC4/ADC.c **** {
  28              		.loc 1 95 0
  29              		.cfi_startproc
  30              		@ args = 0, pretend = 0, frame = 0
  31              		@ frame_needed = 0, uses_anonymous_args = 0
  32 0000 10B5     		push	{r4, lr}
  33              		.cfi_def_cfa_offset 8
  34              		.cfi_offset 4, -8
  35              		.cfi_offset 14, -4
  96:Generated_Source\PSoC4/ADC.c ****     uint32 chNum;
  97:Generated_Source\PSoC4/ADC.c ****     uint32 tmpRegVal;
  98:Generated_Source\PSoC4/ADC.c ****     int32 counts;
  99:Generated_Source\PSoC4/ADC.c **** 
 100:Generated_Source\PSoC4/ADC.c ****     #if(ADC_TOTAL_CHANNELS_NUM > 1u)
 101:Generated_Source\PSoC4/ADC.c ****         static const uint8 CYCODE ADC_InputsPlacement[] =
 102:Generated_Source\PSoC4/ADC.c ****         {
 103:Generated_Source\PSoC4/ADC.c ****             (uint8)(ADC_cy_psoc4_sarmux_8__CH_0_PORT << 4u) |
 104:Generated_Source\PSoC4/ADC.c ****             (uint8)ADC_cy_psoc4_sarmux_8__CH_0_PIN
 105:Generated_Source\PSoC4/ADC.c ****             ,(uint8)(ADC_cy_psoc4_sarmux_8__CH_1_PORT << 4u) |
 106:Generated_Source\PSoC4/ADC.c ****              (uint8)ADC_cy_psoc4_sarmux_8__CH_1_PIN
 107:Generated_Source\PSoC4/ADC.c ****             #if(ADC_TOTAL_CHANNELS_NUM > 2u)
 108:Generated_Source\PSoC4/ADC.c ****                 ,(uint8)(ADC_cy_psoc4_sarmux_8__CH_2_PORT << 4u) |
 109:Generated_Source\PSoC4/ADC.c ****                  (uint8)ADC_cy_psoc4_sarmux_8__CH_2_PIN
 110:Generated_Source\PSoC4/ADC.c ****             #endif /* End ADC_TOTAL_CHANNELS_NUM > 2u */
 111:Generated_Source\PSoC4/ADC.c ****             #if(ADC_TOTAL_CHANNELS_NUM > 3u)
 112:Generated_Source\PSoC4/ADC.c ****                 ,(uint8)(ADC_cy_psoc4_sarmux_8__CH_3_PORT << 4u) |
 113:Generated_Source\PSoC4/ADC.c ****                  (uint8)ADC_cy_psoc4_sarmux_8__CH_3_PIN
 114:Generated_Source\PSoC4/ADC.c ****             #endif /* End ADC_TOTAL_CHANNELS_NUM > 3u */
 115:Generated_Source\PSoC4/ADC.c ****             #if(ADC_TOTAL_CHANNELS_NUM > 4u)
 116:Generated_Source\PSoC4/ADC.c ****                 ,(uint8)(ADC_cy_psoc4_sarmux_8__CH_4_PORT << 4u) |
 117:Generated_Source\PSoC4/ADC.c ****                  (uint8)ADC_cy_psoc4_sarmux_8__CH_4_PIN
 118:Generated_Source\PSoC4/ADC.c ****             #endif /* End ADC_TOTAL_CHANNELS_NUM > 4u */
 119:Generated_Source\PSoC4/ADC.c ****             #if(ADC_TOTAL_CHANNELS_NUM > 5u)
 120:Generated_Source\PSoC4/ADC.c ****                 ,(uint8)(ADC_cy_psoc4_sarmux_8__CH_5_PORT << 4u) |
 121:Generated_Source\PSoC4/ADC.c ****                  (uint8)ADC_cy_psoc4_sarmux_8__CH_5_PIN
 122:Generated_Source\PSoC4/ADC.c ****             #endif /* End ADC_TOTAL_CHANNELS_NUM > 5u */
 123:Generated_Source\PSoC4/ADC.c ****             #if(ADC_TOTAL_CHANNELS_NUM > 6u)
 124:Generated_Source\PSoC4/ADC.c ****                 ,(uint8)(ADC_cy_psoc4_sarmux_8__CH_6_PORT << 4u) |
 125:Generated_Source\PSoC4/ADC.c ****                  (uint8)ADC_cy_psoc4_sarmux_8__CH_6_PIN
 126:Generated_Source\PSoC4/ADC.c ****             #endif /* End ADC_TOTAL_CHANNELS_NUM > 6u */
 127:Generated_Source\PSoC4/ADC.c ****             #if(ADC_TOTAL_CHANNELS_NUM > 7u)
 128:Generated_Source\PSoC4/ADC.c ****                 ,(uint8)(ADC_cy_psoc4_sarmux_8__CH_7_PORT << 4u) |
 129:Generated_Source\PSoC4/ADC.c ****                  (uint8)ADC_cy_psoc4_sarmux_8__CH_7_PIN
 130:Generated_Source\PSoC4/ADC.c ****             #endif /* End ADC_TOTAL_CHANNELS_NUM > 7u */
 131:Generated_Source\PSoC4/ADC.c ****             #if(ADC_TOTAL_CHANNELS_NUM > 8u)
 132:Generated_Source\PSoC4/ADC.c ****                 ,(uint8)(ADC_cy_psoc4_sarmux_8__CH_8_PORT << 4u) |
 133:Generated_Source\PSoC4/ADC.c ****                  (uint8)ADC_cy_psoc4_sarmux_8__CH_8_PIN
 134:Generated_Source\PSoC4/ADC.c ****             #endif /* End ADC_TOTAL_CHANNELS_NUM > 8u */
 135:Generated_Source\PSoC4/ADC.c ****             #if(ADC_TOTAL_CHANNELS_NUM > 9u)
 136:Generated_Source\PSoC4/ADC.c ****                 ,(uint8)(ADC_cy_psoc4_sarmux_8__CH_9_PORT << 4u) |
ARM GAS  C:\Users\JamesN4\AppData\Local\Temp\cchLhQl1.s 			page 4


 137:Generated_Source\PSoC4/ADC.c ****                  (uint8)ADC_cy_psoc4_sarmux_8__CH_9_PIN
 138:Generated_Source\PSoC4/ADC.c ****             #endif /* End ADC_TOTAL_CHANNELS_NUM > 9u */
 139:Generated_Source\PSoC4/ADC.c ****             #if(ADC_TOTAL_CHANNELS_NUM > 10u)
 140:Generated_Source\PSoC4/ADC.c ****                 ,(uint8)(ADC_cy_psoc4_sarmux_8__CH_10_PORT << 4u) |
 141:Generated_Source\PSoC4/ADC.c ****                  (uint8)ADC_cy_psoc4_sarmux_8__CH_10_PIN
 142:Generated_Source\PSoC4/ADC.c ****             #endif /* End ADC_TOTAL_CHANNELS_NUM > 10u */
 143:Generated_Source\PSoC4/ADC.c ****             #if(ADC_TOTAL_CHANNELS_NUM > 11u)
 144:Generated_Source\PSoC4/ADC.c ****                 ,(uint8)(ADC_cy_psoc4_sarmux_8__CH_11_PORT << 4u) |
 145:Generated_Source\PSoC4/ADC.c ****                  (uint8)ADC_cy_psoc4_sarmux_8__CH_11_PIN
 146:Generated_Source\PSoC4/ADC.c ****             #endif /* End ADC_TOTAL_CHANNELS_NUM > 11u */
 147:Generated_Source\PSoC4/ADC.c ****             #if(ADC_TOTAL_CHANNELS_NUM > 12u)
 148:Generated_Source\PSoC4/ADC.c ****                 ,(uint8)(ADC_cy_psoc4_sarmux_8__CH_12_PORT << 4u) |
 149:Generated_Source\PSoC4/ADC.c ****                  (uint8)ADC_cy_psoc4_sarmux_8__CH_12_PIN
 150:Generated_Source\PSoC4/ADC.c ****             #endif /* End ADC_TOTAL_CHANNELS_NUM > 12u */
 151:Generated_Source\PSoC4/ADC.c ****             #if(ADC_TOTAL_CHANNELS_NUM > 13u)
 152:Generated_Source\PSoC4/ADC.c ****                 ,(uint8)(ADC_cy_psoc4_sarmux_8__CH_13_PORT << 4u) |
 153:Generated_Source\PSoC4/ADC.c ****                  (uint8)ADC_cy_psoc4_sarmux_8__CH_13_PIN
 154:Generated_Source\PSoC4/ADC.c ****             #endif /* End ADC_TOTAL_CHANNELS_NUM > 13u */
 155:Generated_Source\PSoC4/ADC.c ****             #if(ADC_TOTAL_CHANNELS_NUM > 14u)
 156:Generated_Source\PSoC4/ADC.c ****                 ,(uint8)(ADC_cy_psoc4_sarmux_8__CH_14_PORT << 4u) |
 157:Generated_Source\PSoC4/ADC.c ****                  (uint8)ADC_cy_psoc4_sarmux_8__CH_14_PIN
 158:Generated_Source\PSoC4/ADC.c ****             #endif /* End ADC_TOTAL_CHANNELS_NUM > 14u */
 159:Generated_Source\PSoC4/ADC.c ****             #if(ADC_TOTAL_CHANNELS_NUM > 15u)
 160:Generated_Source\PSoC4/ADC.c ****                 ,(uint8)(ADC_cy_psoc4_sarmux_8__CH_15_PORT << 4u) |
 161:Generated_Source\PSoC4/ADC.c ****                  (uint8)ADC_cy_psoc4_sarmux_8__CH_15_PIN
 162:Generated_Source\PSoC4/ADC.c ****             #endif /* End ADC_TOTAL_CHANNELS_NUM > 15u */
 163:Generated_Source\PSoC4/ADC.c ****             #if(ADC_TOTAL_CHANNELS_NUM > 16u)
 164:Generated_Source\PSoC4/ADC.c ****                 ,(uint8)(ADC_cy_psoc4_sarmux_8__CH_16_PORT << 4u) |
 165:Generated_Source\PSoC4/ADC.c ****                  (uint8)ADC_cy_psoc4_sarmux_8__CH_16_PIN
 166:Generated_Source\PSoC4/ADC.c ****             #endif /* End ADC_TOTAL_CHANNELS_NUM > 16u */
 167:Generated_Source\PSoC4/ADC.c ****         };
 168:Generated_Source\PSoC4/ADC.c ****     #endif /* End ADC_TOTAL_CHANNELS_NUM > 1u */
 169:Generated_Source\PSoC4/ADC.c **** 
 170:Generated_Source\PSoC4/ADC.c ****     #if(ADC_IRQ_REMOVE == 0u)
 171:Generated_Source\PSoC4/ADC.c ****         /* Start and set interrupt vector */
 172:Generated_Source\PSoC4/ADC.c ****         CyIntSetPriority(ADC_INTC_NUMBER, ADC_INTC_PRIOR_NUMBER);
  36              		.loc 1 172 0
  37 0002 0321     		movs	r1, #3
  38 0004 1020     		movs	r0, #16
  39 0006 FFF7FEFF 		bl	CyIntSetPriority
  40              	.LVL0:
 173:Generated_Source\PSoC4/ADC.c ****         (void)CyIntSetVector(ADC_INTC_NUMBER, &ADC_ISR);
  41              		.loc 1 173 0
  42 000a 3E49     		ldr	r1, .L12
  43 000c 1020     		movs	r0, #16
  44 000e FFF7FEFF 		bl	CyIntSetVector
  45              	.LVL1:
 174:Generated_Source\PSoC4/ADC.c ****     #endif   /* End ADC_IRQ_REMOVE */
 175:Generated_Source\PSoC4/ADC.c **** 
 176:Generated_Source\PSoC4/ADC.c ****     /* Init SAR and MUX registers */
 177:Generated_Source\PSoC4/ADC.c ****     ADC_SAR_CHAN_EN_REG = ADC_DEFAULT_EN_CHANNELS;
  46              		.loc 1 177 0
  47 0012 0F22     		movs	r2, #15
  48 0014 3C4B     		ldr	r3, .L12+4
  49 0016 1A60     		str	r2, [r3]
 178:Generated_Source\PSoC4/ADC.c ****     ADC_SAR_CTRL_REG |= ADC_DEFAULT_CTRL_REG_CFG | 
 179:Generated_Source\PSoC4/ADC.c ****         /* Enable the SAR internal pump when global pump is enabled */
ARM GAS  C:\Users\JamesN4\AppData\Local\Temp\cchLhQl1.s 			page 5


 180:Generated_Source\PSoC4/ADC.c ****         (((ADC_PUMP_CTRL_REG & ADC_PUMP_CTRL_ENABLED) != 0u) ? 
  50              		.loc 1 180 0
  51 0018 3C4B     		ldr	r3, .L12+8
  52 001a 1B68     		ldr	r3, [r3]
 178:Generated_Source\PSoC4/ADC.c ****     ADC_SAR_CTRL_REG |= ADC_DEFAULT_CTRL_REG_CFG | 
  53              		.loc 1 178 0
  54 001c 002B     		cmp	r3, #0
  55 001e 01DA     		bge	.L10
  56 0020 3B49     		ldr	r1, .L12+12
  57 0022 00E0     		b	.L2
  58              	.L10:
  59 0024 3B49     		ldr	r1, .L12+16
  60              	.L2:
 178:Generated_Source\PSoC4/ADC.c ****     ADC_SAR_CTRL_REG |= ADC_DEFAULT_CTRL_REG_CFG | 
  61              		.loc 1 178 0 is_stmt 0 discriminator 4
  62 0026 3C4A     		ldr	r2, .L12+20
  63 0028 1368     		ldr	r3, [r2]
  64 002a 0B43     		orrs	r3, r1
  65 002c 1360     		str	r3, [r2]
 181:Generated_Source\PSoC4/ADC.c ****         ADC_BOOSTPUMP_EN : 0u);
 182:Generated_Source\PSoC4/ADC.c ****     ADC_SAR_SAMPLE_CTRL_REG = ADC_DEFAULT_SAMPLE_CTRL_REG_CFG;
  66              		.loc 1 182 0 is_stmt 1 discriminator 4
  67 002e 3B4A     		ldr	r2, .L12+24
  68 0030 3B4B     		ldr	r3, .L12+28
  69 0032 1A60     		str	r2, [r3]
 183:Generated_Source\PSoC4/ADC.c ****     ADC_SAR_RANGE_THRES_REG = ADC_DEFAULT_RANGE_THRES_REG_CFG;
  70              		.loc 1 183 0 discriminator 4
  71 0034 3B4A     		ldr	r2, .L12+32
  72 0036 3C4B     		ldr	r3, .L12+36
  73 0038 1A60     		str	r2, [r3]
 184:Generated_Source\PSoC4/ADC.c ****     ADC_SAR_RANGE_COND_REG  = ADC_COMPARE_MODE;
  74              		.loc 1 184 0 discriminator 4
  75 003a 0023     		movs	r3, #0
  76 003c 3B4A     		ldr	r2, .L12+40
  77 003e 1360     		str	r3, [r2]
 185:Generated_Source\PSoC4/ADC.c ****     ADC_SAR_SAMPLE_TIME01_REG = ADC_DEFAULT_SAMPLE_TIME01_REG_CFG;
  78              		.loc 1 185 0 discriminator 4
  79 0040 3B49     		ldr	r1, .L12+44
  80 0042 3C4A     		ldr	r2, .L12+48
  81 0044 1160     		str	r1, [r2]
 186:Generated_Source\PSoC4/ADC.c ****     ADC_SAR_SAMPLE_TIME23_REG = ADC_DEFAULT_SAMPLE_TIME23_REG_CFG;
  82              		.loc 1 186 0 discriminator 4
  83 0046 3C49     		ldr	r1, .L12+52
  84 0048 3C4A     		ldr	r2, .L12+56
  85 004a 1160     		str	r1, [r2]
 187:Generated_Source\PSoC4/ADC.c ****     
 188:Generated_Source\PSoC4/ADC.c ****     /* Connect Vm to VSSA when even one channel is single-ended or multiple channels configured */
 189:Generated_Source\PSoC4/ADC.c ****     #if(ADC_DEFAULT_MUX_SWITCH0 != 0u)
 190:Generated_Source\PSoC4/ADC.c ****         ADC_MUX_SWITCH0_REG |= ADC_DEFAULT_MUX_SWITCH0;
 191:Generated_Source\PSoC4/ADC.c ****         /* Set MUX_HW_CTRL_VSSA in MUX_SWITCH_HW_CTRL when multiple channels enabled */
 192:Generated_Source\PSoC4/ADC.c ****         #if(ADC_TOTAL_CHANNELS_NUM > 1u)
 193:Generated_Source\PSoC4/ADC.c ****             ADC_MUX_SWITCH_HW_CTRL_REG |= ADC_DEFAULT_MUX_SWITCH0;
 194:Generated_Source\PSoC4/ADC.c ****         #endif /* ADC_TOTAL_CHANNELS_NUM > 1u */
 195:Generated_Source\PSoC4/ADC.c ****     #endif /*ADC_CHANNELS_MODE !=0 */
 196:Generated_Source\PSoC4/ADC.c **** 
 197:Generated_Source\PSoC4/ADC.c ****     ADC_SAR_SATURATE_INTR_MASK_REG = 0u;
  86              		.loc 1 197 0 discriminator 4
ARM GAS  C:\Users\JamesN4\AppData\Local\Temp\cchLhQl1.s 			page 6


  87 004c 3C4A     		ldr	r2, .L12+60
  88 004e 1360     		str	r3, [r2]
 198:Generated_Source\PSoC4/ADC.c ****     ADC_SAR_RANGE_INTR_MASK_REG = 0u;
  89              		.loc 1 198 0 discriminator 4
  90 0050 3C4A     		ldr	r2, .L12+64
  91 0052 1360     		str	r3, [r2]
 199:Generated_Source\PSoC4/ADC.c ****     ADC_SAR_INTR_MASK_REG = ADC_SAR_INTR_MASK;
  92              		.loc 1 199 0 discriminator 4
  93 0054 0133     		adds	r3, r3, #1
  94 0056 3C4A     		ldr	r2, .L12+68
  95 0058 1360     		str	r3, [r2]
 200:Generated_Source\PSoC4/ADC.c **** 
 201:Generated_Source\PSoC4/ADC.c ****     #if(ADC_CY_SAR_IP_VER == ADC_CY_SAR_IP_VER0)
 202:Generated_Source\PSoC4/ADC.c ****         ADC_ANA_TRIM_REG = ADC_TRIM_COEF;
 203:Generated_Source\PSoC4/ADC.c ****     #endif /* (ADC_CY_SAR_IP_VER == ADC_CY_SAR_IP_VER0) */
 204:Generated_Source\PSoC4/ADC.c **** 
 205:Generated_Source\PSoC4/ADC.c ****     /* Read and modify default configuration based on characterization */
 206:Generated_Source\PSoC4/ADC.c ****     tmpRegVal = ADC_SAR_DFT_CTRL_REG;
  96              		.loc 1 206 0 discriminator 4
  97 005a 3C49     		ldr	r1, .L12+72
  98 005c 0868     		ldr	r0, [r1]
  99              	.LVL2:
 207:Generated_Source\PSoC4/ADC.c ****     tmpRegVal &= (uint32)~ADC_DCEN;
 100              		.loc 1 207 0 discriminator 4
 101 005e 3C4A     		ldr	r2, .L12+76
 102 0060 0240     		ands	r2, r0
 103              	.LVL3:
 208:Generated_Source\PSoC4/ADC.c ****     
 209:Generated_Source\PSoC4/ADC.c ****     #if(ADC_CY_SAR_IP_VER == ADC_CY_SAR_IP_VER0)
 210:Generated_Source\PSoC4/ADC.c ****         #if(ADC_NOMINAL_CLOCK_FREQ > (ADC_MAX_FREQUENCY / 2))
 211:Generated_Source\PSoC4/ADC.c ****             tmpRegVal |= ADC_SEL_CSEL_DFT_CHAR;
 212:Generated_Source\PSoC4/ADC.c ****         #else  /* clock speed < 9 Mhz */
 213:Generated_Source\PSoC4/ADC.c ****             tmpRegVal |= ADC_DLY_INC;
 214:Generated_Source\PSoC4/ADC.c ****         #endif /* clock speed > 9 Mhz */
 215:Generated_Source\PSoC4/ADC.c ****     #else
 216:Generated_Source\PSoC4/ADC.c ****         #if ((ADC_DEFAULT_VREF_SEL == ADC__INTERNAL1024) || \
 217:Generated_Source\PSoC4/ADC.c ****              (ADC_DEFAULT_VREF_SEL == ADC__INTERNALVREF))
 218:Generated_Source\PSoC4/ADC.c ****             tmpRegVal |= ADC_DLY_INC;
 104              		.loc 1 218 0 discriminator 4
 105 0062 1343     		orrs	r3, r2
 106              	.LVL4:
 219:Generated_Source\PSoC4/ADC.c ****         #else
 220:Generated_Source\PSoC4/ADC.c ****             tmpRegVal |= ADC_DCEN;
 221:Generated_Source\PSoC4/ADC.c ****             tmpRegVal &= (uint32)~ADC_DLY_INC;
 222:Generated_Source\PSoC4/ADC.c ****         #endif /* ((ADC_DEFAULT_VREF_SEL == ADC__INTERNAL1024) || \
 223:Generated_Source\PSoC4/ADC.c ****                    (ADC_DEFAULT_VREF_SEL == ADC__INTERNALVREF)) */
 224:Generated_Source\PSoC4/ADC.c ****     #endif /* (ADC_CY_SAR_IP_VER == ADC_CY_SAR_IP_VER0) */
 225:Generated_Source\PSoC4/ADC.c ****     
 226:Generated_Source\PSoC4/ADC.c ****     ADC_SAR_DFT_CTRL_REG = tmpRegVal;
 107              		.loc 1 226 0 discriminator 4
 108 0064 0B60     		str	r3, [r1]
 109              	.LVL5:
 227:Generated_Source\PSoC4/ADC.c **** 
 228:Generated_Source\PSoC4/ADC.c ****     #if(ADC_MAX_RESOLUTION != ADC_RESOLUTION_12)
 229:Generated_Source\PSoC4/ADC.c ****         ADC_WOUNDING_REG = ADC_ALT_WOUNDING;
 230:Generated_Source\PSoC4/ADC.c ****     #endif /* ADC_MAX_RESOLUTION != ADC_RESOLUTION_12 */
 231:Generated_Source\PSoC4/ADC.c **** 
ARM GAS  C:\Users\JamesN4\AppData\Local\Temp\cchLhQl1.s 			page 7


 232:Generated_Source\PSoC4/ADC.c ****     for(chNum = 0u; chNum < ADC_TOTAL_CHANNELS_NUM; chNum++)
 110              		.loc 1 232 0 discriminator 4
 111 0066 0022     		movs	r2, #0
 112 0068 48E0     		b	.L3
 113              	.LVL6:
 114              	.L9:
 233:Generated_Source\PSoC4/ADC.c ****     {
 234:Generated_Source\PSoC4/ADC.c ****         tmpRegVal = (ADC_channelsConfig[chNum] & ADC_CHANNEL_CONFIG_MASK);
 115              		.loc 1 234 0
 116 006a 3A48     		ldr	r0, .L12+80
 117 006c 9100     		lsls	r1, r2, #2
 118 006e 0C58     		ldr	r4, [r1, r0]
 119 0070 DC23     		movs	r3, #220
 120 0072 9B01     		lsls	r3, r3, #6
 121 0074 2340     		ands	r3, r4
 122              	.LVL7:
 235:Generated_Source\PSoC4/ADC.c ****         #if(ADC_TOTAL_CHANNELS_NUM > 1u)
 236:Generated_Source\PSoC4/ADC.c ****             tmpRegVal |= ADC_InputsPlacement[chNum];
 123              		.loc 1 236 0
 124 0076 8018     		adds	r0, r0, r2
 125 0078 007C     		ldrb	r0, [r0, #16]
 126 007a 0343     		orrs	r3, r0
 127              	.LVL8:
 237:Generated_Source\PSoC4/ADC.c ****         #endif /* End ADC_TOTAL_CHANNELS_NUM > 1u */
 238:Generated_Source\PSoC4/ADC.c ****         
 239:Generated_Source\PSoC4/ADC.c ****         
 240:Generated_Source\PSoC4/ADC.c ****         /* When the part is limited to 10-bit then the SUB_RESOLUTION bit
 241:Generated_Source\PSoC4/ADC.c ****         *  will be ignored and the RESOLUTION bit selects between 10-bit
 242:Generated_Source\PSoC4/ADC.c ****         *  (0) and 8-bit (1) resolution.
 243:Generated_Source\PSoC4/ADC.c ****         */
 244:Generated_Source\PSoC4/ADC.c ****         #if((ADC_MAX_RESOLUTION != ADC_RESOLUTION_12) && \
 245:Generated_Source\PSoC4/ADC.c ****             (ADC_ALT_WOUNDING == ADC_WOUNDING_10BIT))
 246:Generated_Source\PSoC4/ADC.c ****             tmpRegVal &= (uint32)(~ADC_ALT_RESOLUTION_ON);
 247:Generated_Source\PSoC4/ADC.c ****         #endif /* ADC_MAX_RESOLUTION != ADC_RESOLUTION_12 */
 248:Generated_Source\PSoC4/ADC.c **** 
 249:Generated_Source\PSoC4/ADC.c ****         #if(ADC_INJ_CHANNEL_ENABLED)
 250:Generated_Source\PSoC4/ADC.c ****         if(chNum < ADC_SEQUENCED_CHANNELS_NUM)
 251:Generated_Source\PSoC4/ADC.c ****         #endif /* ADC_INJ_CHANNEL_ENABLED */
 252:Generated_Source\PSoC4/ADC.c ****         {
 253:Generated_Source\PSoC4/ADC.c ****             CY_SET_REG32((reg32 *)(ADC_SAR_CHAN_CONFIG_IND + (uint32)(chNum << 2)), tmpRegVal);
 128              		.loc 1 253 0
 129 007c 3648     		ldr	r0, .L12+84
 130 007e 8446     		mov	ip, r0
 131 0080 6144     		add	r1, r1, ip
 132 0082 0B60     		str	r3, [r1]
 254:Generated_Source\PSoC4/ADC.c **** 
 255:Generated_Source\PSoC4/ADC.c ****             if((ADC_channelsConfig[chNum] & ADC_IS_SATURATE_EN_MASK) != 0u)
 133              		.loc 1 255 0
 134 0084 E307     		lsls	r3, r4, #31
 135 0086 07D5     		bpl	.L4
 136              	.LVL9:
 256:Generated_Source\PSoC4/ADC.c ****             {
 257:Generated_Source\PSoC4/ADC.c ****                 ADC_SAR_SATURATE_INTR_MASK_REG |= (uint16)((uint16)1 << chNum);
 137              		.loc 1 257 0
 138 0088 2D48     		ldr	r0, .L12+60
 139 008a 0168     		ldr	r1, [r0]
 140              	.LVL10:
ARM GAS  C:\Users\JamesN4\AppData\Local\Temp\cchLhQl1.s 			page 8


 141 008c 0123     		movs	r3, #1
 142 008e 9340     		lsls	r3, r3, r2
 143 0090 1B04     		lsls	r3, r3, #16
 144 0092 1B0C     		lsrs	r3, r3, #16
 145 0094 0B43     		orrs	r3, r1
 146 0096 0360     		str	r3, [r0]
 147              	.LVL11:
 148              	.L4:
 258:Generated_Source\PSoC4/ADC.c ****             }
 259:Generated_Source\PSoC4/ADC.c **** 
 260:Generated_Source\PSoC4/ADC.c ****             if((ADC_channelsConfig[chNum] & ADC_IS_RANGE_CTRL_EN_MASK) != 0u)
 149              		.loc 1 260 0
 150 0098 9300     		lsls	r3, r2, #2
 151 009a 2E49     		ldr	r1, .L12+80
 152              	.LVL12:
 153 009c 5B58     		ldr	r3, [r3, r1]
 154 009e 9B07     		lsls	r3, r3, #30
 155 00a0 07D5     		bpl	.L5
 261:Generated_Source\PSoC4/ADC.c ****             {
 262:Generated_Source\PSoC4/ADC.c ****                 ADC_SAR_RANGE_INTR_MASK_REG |= (uint16)((uint16)1 << chNum);
 156              		.loc 1 262 0
 157 00a2 2848     		ldr	r0, .L12+64
 158 00a4 0168     		ldr	r1, [r0]
 159              	.LVL13:
 160 00a6 0123     		movs	r3, #1
 161 00a8 9340     		lsls	r3, r3, r2
 162 00aa 1B04     		lsls	r3, r3, #16
 163 00ac 1B0C     		lsrs	r3, r3, #16
 164 00ae 0B43     		orrs	r3, r1
 165 00b0 0360     		str	r3, [r0]
 166              	.L5:
 263:Generated_Source\PSoC4/ADC.c ****             }
 264:Generated_Source\PSoC4/ADC.c ****         }
 265:Generated_Source\PSoC4/ADC.c ****         #if(ADC_INJ_CHANNEL_ENABLED)
 266:Generated_Source\PSoC4/ADC.c ****             else
 267:Generated_Source\PSoC4/ADC.c ****             {
 268:Generated_Source\PSoC4/ADC.c ****                 CY_SET_REG32(ADC_SAR_INJ_CHAN_CONFIG_PTR, tmpRegVal | ADC_INJ_TAILGATING);
 269:Generated_Source\PSoC4/ADC.c **** 
 270:Generated_Source\PSoC4/ADC.c ****                 if((ADC_channelsConfig[chNum] & ADC_IS_SATURATE_EN_MASK) != 0u)
 271:Generated_Source\PSoC4/ADC.c ****                 {
 272:Generated_Source\PSoC4/ADC.c ****                     ADC_SAR_INTR_MASK_REG |= ADC_INJ_SATURATE_MASK;
 273:Generated_Source\PSoC4/ADC.c ****                 }
 274:Generated_Source\PSoC4/ADC.c **** 
 275:Generated_Source\PSoC4/ADC.c ****                 if((ADC_channelsConfig[chNum] & ADC_IS_RANGE_CTRL_EN_MASK) != 0u)
 276:Generated_Source\PSoC4/ADC.c ****                 {
 277:Generated_Source\PSoC4/ADC.c ****                     ADC_SAR_INTR_MASK_REG |= ADC_INJ_RANGE_MASK;
 278:Generated_Source\PSoC4/ADC.c ****                 }
 279:Generated_Source\PSoC4/ADC.c ****             }
 280:Generated_Source\PSoC4/ADC.c ****         #endif /* ADC_INJ_CHANNEL_ENABLED */
 281:Generated_Source\PSoC4/ADC.c **** 
 282:Generated_Source\PSoC4/ADC.c ****         if((ADC_channelsConfig[chNum] & ADC_ALT_RESOLUTION_ON) != 0u)
 167              		.loc 1 282 0
 168 00b2 9300     		lsls	r3, r2, #2
 169 00b4 2749     		ldr	r1, .L12+80
 170              	.LVL14:
 171 00b6 5958     		ldr	r1, [r3, r1]
 172              	.LVL15:
ARM GAS  C:\Users\JamesN4\AppData\Local\Temp\cchLhQl1.s 			page 9


 173 00b8 8B05     		lsls	r3, r1, #22
 174 00ba 02D5     		bpl	.L11
 283:Generated_Source\PSoC4/ADC.c ****         {
 284:Generated_Source\PSoC4/ADC.c ****                counts = (int32)ADC_DEFAULT_MAX_WRK_ALT;
 175              		.loc 1 284 0
 176 00bc 8020     		movs	r0, #128
 177 00be 4000     		lsls	r0, r0, #1
 178 00c0 01E0     		b	.L6
 179              	.L11:
 285:Generated_Source\PSoC4/ADC.c ****         }
 286:Generated_Source\PSoC4/ADC.c ****         else
 287:Generated_Source\PSoC4/ADC.c ****         {
 288:Generated_Source\PSoC4/ADC.c ****                counts = (int32)ADC_SAR_WRK_MAX_12BIT;
 180              		.loc 1 288 0
 181 00c2 8020     		movs	r0, #128
 182 00c4 4001     		lsls	r0, r0, #5
 183              	.L6:
 184              	.LVL16:
 289:Generated_Source\PSoC4/ADC.c ****         }
 290:Generated_Source\PSoC4/ADC.c **** 
 291:Generated_Source\PSoC4/ADC.c ****         if((ADC_channelsConfig[chNum] & ADC_DIFFERENTIAL_EN) == 0u)
 185              		.loc 1 291 0
 186 00c6 CB05     		lsls	r3, r1, #23
 187 00c8 04D4     		bmi	.L7
 292:Generated_Source\PSoC4/ADC.c ****         {
 293:Generated_Source\PSoC4/ADC.c ****             #if((ADC_DEFAULT_SE_RESULT_FORMAT_SEL == ADC__FSIGNED) && \
 294:Generated_Source\PSoC4/ADC.c ****                 (ADC_DEFAULT_NEG_INPUT_SEL == ADC__VREF))
 295:Generated_Source\PSoC4/ADC.c ****                 /* Set offset to the minus half scale to convert results to unsigned format */
 296:Generated_Source\PSoC4/ADC.c ****                 ADC_offset[chNum] = (int16)(counts / -2);
 297:Generated_Source\PSoC4/ADC.c ****             #else
 298:Generated_Source\PSoC4/ADC.c ****                 ADC_offset[chNum] = 0;
 188              		.loc 1 298 0
 189 00ca 5300     		lsls	r3, r2, #1
 190 00cc 0024     		movs	r4, #0
 191              	.LVL17:
 192 00ce 2349     		ldr	r1, .L12+88
 193 00d0 5C52     		strh	r4, [r3, r1]
 194 00d2 03E0     		b	.L8
 195              	.LVL18:
 196              	.L7:
 299:Generated_Source\PSoC4/ADC.c ****             #endif /* end DEFAULT_SE_RESULT_FORMAT_SEL == ADC__FSIGNED */
 300:Generated_Source\PSoC4/ADC.c ****         }
 301:Generated_Source\PSoC4/ADC.c ****         else    /* Differential channel */
 302:Generated_Source\PSoC4/ADC.c ****         {
 303:Generated_Source\PSoC4/ADC.c ****             #if(ADC_DEFAULT_DIFF_RESULT_FORMAT_SEL == ADC__FUNSIGNED)
 304:Generated_Source\PSoC4/ADC.c ****                 /* Set offset to the half scale to convert results to signed format */
 305:Generated_Source\PSoC4/ADC.c ****                 ADC_offset[chNum] = (int16)(counts / 2);
 306:Generated_Source\PSoC4/ADC.c ****             #else
 307:Generated_Source\PSoC4/ADC.c ****                 ADC_offset[chNum] = 0;
 197              		.loc 1 307 0
 198 00d4 5300     		lsls	r3, r2, #1
 199 00d6 0024     		movs	r4, #0
 200              	.LVL19:
 201 00d8 2049     		ldr	r1, .L12+88
 202 00da 5C52     		strh	r4, [r3, r1]
 203              	.L8:
 308:Generated_Source\PSoC4/ADC.c ****             #endif /* end ADC_DEFAULT_DIFF_RESULT_FORMAT_SEL == ADC__FUNSIGNED */
ARM GAS  C:\Users\JamesN4\AppData\Local\Temp\cchLhQl1.s 			page 10


 309:Generated_Source\PSoC4/ADC.c ****         }
 310:Generated_Source\PSoC4/ADC.c ****         /* Calculate gain in counts per 10 volts with rounding */
 311:Generated_Source\PSoC4/ADC.c ****         ADC_countsPer10Volt[chNum] = (int16)(((counts * ADC_10MV_COUNTS) +
 204              		.loc 1 311 0 discriminator 2
 205 00dc 204B     		ldr	r3, .L12+92
 206 00de 4343     		muls	r3, r0
 207 00e0 8021     		movs	r1, #128
 208 00e2 C900     		lsls	r1, r1, #3
 209 00e4 8C46     		mov	ip, r1
 210 00e6 6344     		add	r3, r3, ip
 312:Generated_Source\PSoC4/ADC.c ****                             ADC_DEFAULT_VREF_MV_VALUE) / (ADC_DEFAULT_VREF_MV_VALUE * 2));
 211              		.loc 1 312 0 discriminator 2
 212 00e8 D917     		asrs	r1, r3, #31
 213 00ea 4905     		lsls	r1, r1, #21
 214 00ec 490D     		lsrs	r1, r1, #21
 215 00ee CB18     		adds	r3, r1, r3
 216 00f0 DB12     		asrs	r3, r3, #11
 311:Generated_Source\PSoC4/ADC.c ****                             ADC_DEFAULT_VREF_MV_VALUE) / (ADC_DEFAULT_VREF_MV_VALUE * 2));
 217              		.loc 1 311 0 discriminator 2
 218 00f2 1BB2     		sxth	r3, r3
 219 00f4 9000     		lsls	r0, r2, #2
 220              	.LVL20:
 221 00f6 1B49     		ldr	r1, .L12+96
 222 00f8 4350     		str	r3, [r0, r1]
 232:Generated_Source\PSoC4/ADC.c ****     {
 223              		.loc 1 232 0 discriminator 2
 224 00fa 0132     		adds	r2, r2, #1
 225              	.LVL21:
 226              	.L3:
 232:Generated_Source\PSoC4/ADC.c ****     {
 227              		.loc 1 232 0 is_stmt 0 discriminator 1
 228 00fc 032A     		cmp	r2, #3
 229 00fe B4D9     		bls	.L9
 313:Generated_Source\PSoC4/ADC.c ****     }
 314:Generated_Source\PSoC4/ADC.c **** }
 230              		.loc 1 314 0 is_stmt 1
 231              		@ sp needed
 232 0100 10BD     		pop	{r4, pc}
 233              	.L13:
 234 0102 C046     		.align	2
 235              	.L12:
 236 0104 00000000 		.word	ADC_ISR
 237 0108 20003A40 		.word	1077542944
 238 010c 80033A40 		.word	1077543808
 239 0110 402E1013 		.word	319827520
 240 0114 402E0013 		.word	318778944
 241 0118 00003A40 		.word	1077542912
 242 011c A8000080 		.word	-2147483480
 243 0120 04003A40 		.word	1077542916
 244 0124 0000FF07 		.word	134152192
 245 0128 18003A40 		.word	1077542936
 246 012c 1C003A40 		.word	1077542940
 247 0130 E9030400 		.word	263145
 248 0134 10003A40 		.word	1077542928
 249 0138 04000400 		.word	262148
 250 013c 14003A40 		.word	1077542932
 251 0140 28023A40 		.word	1077543464
ARM GAS  C:\Users\JamesN4\AppData\Local\Temp\cchLhQl1.s 			page 11


 252 0144 38023A40 		.word	1077543480
 253 0148 18023A40 		.word	1077543448
 254 014c 30003A40 		.word	1077542960
 255 0150 FFFFFFDF 		.word	-536870913
 256 0154 00000000 		.word	.LANCHOR0
 257 0158 80003A40 		.word	1077543040
 258 015c 00000000 		.word	ADC_offset
 259 0160 10270000 		.word	10000
 260 0164 00000000 		.word	ADC_countsPer10Volt
 261              		.cfi_endproc
 262              	.LFE2:
 263              		.size	ADC_Init, .-ADC_Init
 264              		.section	.text.ADC_Enable,"ax",%progbits
 265              		.align	2
 266              		.global	ADC_Enable
 267              		.code	16
 268              		.thumb_func
 269              		.type	ADC_Enable, %function
 270              	ADC_Enable:
 271              	.LFB3:
 315:Generated_Source\PSoC4/ADC.c **** 
 316:Generated_Source\PSoC4/ADC.c **** /*******************************************************************************
 317:Generated_Source\PSoC4/ADC.c **** * Function Name: ADC_SAR_1_Enable
 318:Generated_Source\PSoC4/ADC.c **** ********************************************************************************
 319:Generated_Source\PSoC4/ADC.c **** *
 320:Generated_Source\PSoC4/ADC.c **** * Summary:
 321:Generated_Source\PSoC4/ADC.c **** *  Enables the clock and analog power for SAR ADC.
 322:Generated_Source\PSoC4/ADC.c **** *
 323:Generated_Source\PSoC4/ADC.c **** * Parameters:
 324:Generated_Source\PSoC4/ADC.c **** *  None.
 325:Generated_Source\PSoC4/ADC.c **** *
 326:Generated_Source\PSoC4/ADC.c **** * Return:
 327:Generated_Source\PSoC4/ADC.c **** *  None.
 328:Generated_Source\PSoC4/ADC.c **** *
 329:Generated_Source\PSoC4/ADC.c **** *******************************************************************************/
 330:Generated_Source\PSoC4/ADC.c **** void ADC_Enable(void)
 331:Generated_Source\PSoC4/ADC.c **** {
 272              		.loc 1 331 0
 273              		.cfi_startproc
 274              		@ args = 0, pretend = 0, frame = 0
 275              		@ frame_needed = 0, uses_anonymous_args = 0
 276 0000 10B5     		push	{r4, lr}
 277              		.cfi_def_cfa_offset 8
 278              		.cfi_offset 4, -8
 279              		.cfi_offset 14, -4
 332:Generated_Source\PSoC4/ADC.c ****     if (0u == (ADC_SAR_CTRL_REG & ADC_ENABLE))
 280              		.loc 1 332 0
 281 0002 094B     		ldr	r3, .L17
 282 0004 1B68     		ldr	r3, [r3]
 283 0006 002B     		cmp	r3, #0
 284 0008 0CDB     		blt	.L14
 285              	.L16:
 333:Generated_Source\PSoC4/ADC.c ****     {
 334:Generated_Source\PSoC4/ADC.c ****         #if(ADC_CY_SAR_IP_VER != ADC_CY_SAR_IP_VER0)
 335:Generated_Source\PSoC4/ADC.c **** 
 336:Generated_Source\PSoC4/ADC.c ****             while (0u != (ADC_SAR_STATUS_REG & ADC_STATUS_BUSY))
 286              		.loc 1 336 0 discriminator 1
ARM GAS  C:\Users\JamesN4\AppData\Local\Temp\cchLhQl1.s 			page 12


 287 000a 084B     		ldr	r3, .L17+4
 288 000c 1B68     		ldr	r3, [r3]
 289 000e 002B     		cmp	r3, #0
 290 0010 FBDB     		blt	.L16
 337:Generated_Source\PSoC4/ADC.c ****             {
 338:Generated_Source\PSoC4/ADC.c ****                 /* wait for SAR to go idle to avoid deadlock */
 339:Generated_Source\PSoC4/ADC.c ****             }
 340:Generated_Source\PSoC4/ADC.c ****         #endif /* (ADC_CY_SAR_IP_VER != ADC_CY_SAR_IP_VER0) */
 341:Generated_Source\PSoC4/ADC.c ****         
 342:Generated_Source\PSoC4/ADC.c ****         ADC_SAR_CTRL_REG |= ADC_ENABLE;
 291              		.loc 1 342 0
 292 0012 054A     		ldr	r2, .L17
 293 0014 1368     		ldr	r3, [r2]
 294 0016 8021     		movs	r1, #128
 295 0018 0906     		lsls	r1, r1, #24
 296 001a 0B43     		orrs	r3, r1
 297 001c 1360     		str	r3, [r2]
 343:Generated_Source\PSoC4/ADC.c ****         
 344:Generated_Source\PSoC4/ADC.c ****         /* The block is ready to use 10 us after the enable signal is set high. */
 345:Generated_Source\PSoC4/ADC.c ****         CyDelayUs(ADC_10US_DELAY);         
 298              		.loc 1 345 0
 299 001e 0A20     		movs	r0, #10
 300 0020 FFF7FEFF 		bl	CyDelayUs
 301              	.LVL22:
 302              	.L14:
 346:Generated_Source\PSoC4/ADC.c ****     }
 347:Generated_Source\PSoC4/ADC.c **** }
 303              		.loc 1 347 0
 304              		@ sp needed
 305 0024 10BD     		pop	{r4, pc}
 306              	.L18:
 307 0026 C046     		.align	2
 308              	.L17:
 309 0028 00003A40 		.word	1077542912
 310 002c 08023A40 		.word	1077543432
 311              		.cfi_endproc
 312              	.LFE3:
 313              		.size	ADC_Enable, .-ADC_Enable
 314              		.section	.text.ADC_Start,"ax",%progbits
 315              		.align	2
 316              		.global	ADC_Start
 317              		.code	16
 318              		.thumb_func
 319              		.type	ADC_Start, %function
 320              	ADC_Start:
 321              	.LFB1:
  64:Generated_Source\PSoC4/ADC.c ****     /* If not Initialized then initialize all required hardware and software */
 322              		.loc 1 64 0
 323              		.cfi_startproc
 324              		@ args = 0, pretend = 0, frame = 0
 325              		@ frame_needed = 0, uses_anonymous_args = 0
 326 0000 10B5     		push	{r4, lr}
 327              		.cfi_def_cfa_offset 8
 328              		.cfi_offset 4, -8
 329              		.cfi_offset 14, -4
  66:Generated_Source\PSoC4/ADC.c ****     {
 330              		.loc 1 66 0
ARM GAS  C:\Users\JamesN4\AppData\Local\Temp\cchLhQl1.s 			page 13


 331 0002 064B     		ldr	r3, .L21
 332 0004 1B78     		ldrb	r3, [r3]
 333 0006 002B     		cmp	r3, #0
 334 0008 04D1     		bne	.L20
  68:Generated_Source\PSoC4/ADC.c ****         ADC_initVar = 1u;
 335              		.loc 1 68 0
 336 000a FFF7FEFF 		bl	ADC_Init
 337              	.LVL23:
  69:Generated_Source\PSoC4/ADC.c ****     }
 338              		.loc 1 69 0
 339 000e 0122     		movs	r2, #1
 340 0010 024B     		ldr	r3, .L21
 341 0012 1A70     		strb	r2, [r3]
 342              	.L20:
  71:Generated_Source\PSoC4/ADC.c **** }
 343              		.loc 1 71 0
 344 0014 FFF7FEFF 		bl	ADC_Enable
 345              	.LVL24:
  72:Generated_Source\PSoC4/ADC.c **** 
 346              		.loc 1 72 0
 347              		@ sp needed
 348 0018 10BD     		pop	{r4, pc}
 349              	.L22:
 350 001a C046     		.align	2
 351              	.L21:
 352 001c 00000000 		.word	.LANCHOR1
 353              		.cfi_endproc
 354              	.LFE1:
 355              		.size	ADC_Start, .-ADC_Start
 356              		.section	.text.ADC_Stop,"ax",%progbits
 357              		.align	2
 358              		.global	ADC_Stop
 359              		.code	16
 360              		.thumb_func
 361              		.type	ADC_Stop, %function
 362              	ADC_Stop:
 363              	.LFB4:
 348:Generated_Source\PSoC4/ADC.c **** 
 349:Generated_Source\PSoC4/ADC.c **** 
 350:Generated_Source\PSoC4/ADC.c **** /*******************************************************************************
 351:Generated_Source\PSoC4/ADC.c **** * Function Name: ADC_Stop
 352:Generated_Source\PSoC4/ADC.c **** ********************************************************************************
 353:Generated_Source\PSoC4/ADC.c **** *
 354:Generated_Source\PSoC4/ADC.c **** * Summary:
 355:Generated_Source\PSoC4/ADC.c **** *  This function stops ADC conversions and puts the ADC into its lowest power
 356:Generated_Source\PSoC4/ADC.c **** *  mode.
 357:Generated_Source\PSoC4/ADC.c **** *
 358:Generated_Source\PSoC4/ADC.c **** * Parameters:
 359:Generated_Source\PSoC4/ADC.c **** *  None.
 360:Generated_Source\PSoC4/ADC.c **** *
 361:Generated_Source\PSoC4/ADC.c **** * Return:
 362:Generated_Source\PSoC4/ADC.c **** *  None.
 363:Generated_Source\PSoC4/ADC.c **** *
 364:Generated_Source\PSoC4/ADC.c **** *******************************************************************************/
 365:Generated_Source\PSoC4/ADC.c **** void ADC_Stop(void)
 366:Generated_Source\PSoC4/ADC.c **** {
 364              		.loc 1 366 0
ARM GAS  C:\Users\JamesN4\AppData\Local\Temp\cchLhQl1.s 			page 14


 365              		.cfi_startproc
 366              		@ args = 0, pretend = 0, frame = 0
 367              		@ frame_needed = 0, uses_anonymous_args = 0
 368              		@ link register save eliminated.
 367:Generated_Source\PSoC4/ADC.c ****     ADC_SAR_CTRL_REG &= (uint32)~ADC_ENABLE;
 369              		.loc 1 367 0
 370 0000 024A     		ldr	r2, .L24
 371 0002 1368     		ldr	r3, [r2]
 372 0004 5B00     		lsls	r3, r3, #1
 373 0006 5B08     		lsrs	r3, r3, #1
 374 0008 1360     		str	r3, [r2]
 368:Generated_Source\PSoC4/ADC.c **** }
 375              		.loc 1 368 0
 376              		@ sp needed
 377 000a 7047     		bx	lr
 378              	.L25:
 379              		.align	2
 380              	.L24:
 381 000c 00003A40 		.word	1077542912
 382              		.cfi_endproc
 383              	.LFE4:
 384              		.size	ADC_Stop, .-ADC_Stop
 385              		.section	.text.ADC_StartConvert,"ax",%progbits
 386              		.align	2
 387              		.global	ADC_StartConvert
 388              		.code	16
 389              		.thumb_func
 390              		.type	ADC_StartConvert, %function
 391              	ADC_StartConvert:
 392              	.LFB5:
 369:Generated_Source\PSoC4/ADC.c **** 
 370:Generated_Source\PSoC4/ADC.c **** 
 371:Generated_Source\PSoC4/ADC.c **** /*******************************************************************************
 372:Generated_Source\PSoC4/ADC.c **** * Function Name: ADC_StartConvert
 373:Generated_Source\PSoC4/ADC.c **** ********************************************************************************
 374:Generated_Source\PSoC4/ADC.c **** *
 375:Generated_Source\PSoC4/ADC.c **** * Summary:
 376:Generated_Source\PSoC4/ADC.c **** *  Description:
 377:Generated_Source\PSoC4/ADC.c **** *  For free running mode, this API starts the conversion process and it
 378:Generated_Source\PSoC4/ADC.c **** *  runs continuously.
 379:Generated_Source\PSoC4/ADC.c **** *
 380:Generated_Source\PSoC4/ADC.c **** *  In a triggered mode, this routine triggers every conversion by
 381:Generated_Source\PSoC4/ADC.c **** *  writing into the FW_TRIGGER bit in SAR_START_CTRL reg. In triggered mode,
 382:Generated_Source\PSoC4/ADC.c **** *  every conversion has to start by this API.
 383:Generated_Source\PSoC4/ADC.c **** *
 384:Generated_Source\PSoC4/ADC.c **** * Parameters:
 385:Generated_Source\PSoC4/ADC.c **** *  None.
 386:Generated_Source\PSoC4/ADC.c **** *
 387:Generated_Source\PSoC4/ADC.c **** * Return:
 388:Generated_Source\PSoC4/ADC.c **** *  None.
 389:Generated_Source\PSoC4/ADC.c **** *
 390:Generated_Source\PSoC4/ADC.c **** *******************************************************************************/
 391:Generated_Source\PSoC4/ADC.c **** void ADC_StartConvert(void)
 392:Generated_Source\PSoC4/ADC.c **** {
 393              		.loc 1 392 0
 394              		.cfi_startproc
 395              		@ args = 0, pretend = 0, frame = 0
ARM GAS  C:\Users\JamesN4\AppData\Local\Temp\cchLhQl1.s 			page 15


 396              		@ frame_needed = 0, uses_anonymous_args = 0
 397              		@ link register save eliminated.
 393:Generated_Source\PSoC4/ADC.c ****     #if(ADC_DEFAULT_SAMPLE_MODE_SEL == ADC__FREERUNNING)
 394:Generated_Source\PSoC4/ADC.c ****         ADC_SAR_SAMPLE_CTRL_REG |= ADC_CONTINUOUS_EN;
 398              		.loc 1 394 0
 399 0000 034A     		ldr	r2, .L27
 400 0002 1368     		ldr	r3, [r2]
 401 0004 8021     		movs	r1, #128
 402 0006 4902     		lsls	r1, r1, #9
 403 0008 0B43     		orrs	r3, r1
 404 000a 1360     		str	r3, [r2]
 395:Generated_Source\PSoC4/ADC.c ****     #else /* Firmware trigger */
 396:Generated_Source\PSoC4/ADC.c ****         ADC_SAR_START_CTRL_REG = ADC_FW_TRIGGER;
 397:Generated_Source\PSoC4/ADC.c ****     #endif /* End ADC_DEFAULT_SAMPLE_MODE == ADC__FREERUNNING */
 398:Generated_Source\PSoC4/ADC.c **** 
 399:Generated_Source\PSoC4/ADC.c **** }
 405              		.loc 1 399 0
 406              		@ sp needed
 407 000c 7047     		bx	lr
 408              	.L28:
 409 000e C046     		.align	2
 410              	.L27:
 411 0010 04003A40 		.word	1077542916
 412              		.cfi_endproc
 413              	.LFE5:
 414              		.size	ADC_StartConvert, .-ADC_StartConvert
 415              		.section	.text.ADC_StopConvert,"ax",%progbits
 416              		.align	2
 417              		.global	ADC_StopConvert
 418              		.code	16
 419              		.thumb_func
 420              		.type	ADC_StopConvert, %function
 421              	ADC_StopConvert:
 422              	.LFB6:
 400:Generated_Source\PSoC4/ADC.c **** 
 401:Generated_Source\PSoC4/ADC.c **** 
 402:Generated_Source\PSoC4/ADC.c **** /*******************************************************************************
 403:Generated_Source\PSoC4/ADC.c **** * Function Name: ADC_StopConvert
 404:Generated_Source\PSoC4/ADC.c **** ********************************************************************************
 405:Generated_Source\PSoC4/ADC.c **** *
 406:Generated_Source\PSoC4/ADC.c **** * Summary:
 407:Generated_Source\PSoC4/ADC.c **** *  Forces the ADC to stop all conversions.
 408:Generated_Source\PSoC4/ADC.c **** *
 409:Generated_Source\PSoC4/ADC.c **** * Parameters:
 410:Generated_Source\PSoC4/ADC.c **** *  None.
 411:Generated_Source\PSoC4/ADC.c **** *
 412:Generated_Source\PSoC4/ADC.c **** * Return:
 413:Generated_Source\PSoC4/ADC.c **** *  None.
 414:Generated_Source\PSoC4/ADC.c **** *
 415:Generated_Source\PSoC4/ADC.c **** *******************************************************************************/
 416:Generated_Source\PSoC4/ADC.c **** void ADC_StopConvert(void)
 417:Generated_Source\PSoC4/ADC.c **** {
 423              		.loc 1 417 0
 424              		.cfi_startproc
 425              		@ args = 0, pretend = 0, frame = 0
 426              		@ frame_needed = 0, uses_anonymous_args = 0
 427              		@ link register save eliminated.
ARM GAS  C:\Users\JamesN4\AppData\Local\Temp\cchLhQl1.s 			page 16


 418:Generated_Source\PSoC4/ADC.c ****     #if(ADC_DEFAULT_SAMPLE_MODE_SEL == ADC__FREERUNNING)
 419:Generated_Source\PSoC4/ADC.c ****         ADC_SAR_SAMPLE_CTRL_REG &= (uint32)(~ADC_CONTINUOUS_EN);
 428              		.loc 1 419 0
 429 0000 024A     		ldr	r2, .L30
 430 0002 1168     		ldr	r1, [r2]
 431 0004 024B     		ldr	r3, .L30+4
 432 0006 0B40     		ands	r3, r1
 433 0008 1360     		str	r3, [r2]
 420:Generated_Source\PSoC4/ADC.c ****     #endif /* ADC_DEFAULT_SAMPLE_MODE == ADC__FREERUNNING */
 421:Generated_Source\PSoC4/ADC.c **** }
 434              		.loc 1 421 0
 435              		@ sp needed
 436 000a 7047     		bx	lr
 437              	.L31:
 438              		.align	2
 439              	.L30:
 440 000c 04003A40 		.word	1077542916
 441 0010 FFFFFEFF 		.word	-65537
 442              		.cfi_endproc
 443              	.LFE6:
 444              		.size	ADC_StopConvert, .-ADC_StopConvert
 445              		.section	.text.ADC_IsEndConversion,"ax",%progbits
 446              		.align	2
 447              		.global	ADC_IsEndConversion
 448              		.code	16
 449              		.thumb_func
 450              		.type	ADC_IsEndConversion, %function
 451              	ADC_IsEndConversion:
 452              	.LFB7:
 422:Generated_Source\PSoC4/ADC.c **** 
 423:Generated_Source\PSoC4/ADC.c **** 
 424:Generated_Source\PSoC4/ADC.c **** /*******************************************************************************
 425:Generated_Source\PSoC4/ADC.c **** * Function Name: ADC_IsEndConversion
 426:Generated_Source\PSoC4/ADC.c **** ********************************************************************************
 427:Generated_Source\PSoC4/ADC.c **** *
 428:Generated_Source\PSoC4/ADC.c **** * Summary:
 429:Generated_Source\PSoC4/ADC.c **** *  Description: Checks for ADC end of conversion for the case one
 430:Generated_Source\PSoC4/ADC.c **** *  channel and end of scan for the case of multiple channels. It acts
 431:Generated_Source\PSoC4/ADC.c **** *  as a software version of the EOC. This function provides the
 432:Generated_Source\PSoC4/ADC.c **** *  programmer with two options. In one mode this function
 433:Generated_Source\PSoC4/ADC.c **** *  immediately returns with the conversion status. In the other mode,
 434:Generated_Source\PSoC4/ADC.c **** *  the function does not return (blocking) until the conversion has
 435:Generated_Source\PSoC4/ADC.c **** *  completed.
 436:Generated_Source\PSoC4/ADC.c **** *
 437:Generated_Source\PSoC4/ADC.c **** * Parameters:
 438:Generated_Source\PSoC4/ADC.c **** *  ADC_RETURN_STATUS        -> Immediately returns conversion result status
 439:Generated_Source\PSoC4/ADC.c **** *  ADC_WAIT_FOR_RESULT      -> Does not return until ADC complete
 440:Generated_Source\PSoC4/ADC.c **** *  ADC_RETURN_STATUS_INJ    -> Immediately returns conversion result status
 441:Generated_Source\PSoC4/ADC.c **** *                              for injection channel
 442:Generated_Source\PSoC4/ADC.c **** *  ADC_WAIT_FOR_RESULT_INJ  -> Does not return until ADC completes injection
 443:Generated_Source\PSoC4/ADC.c **** *                              channel conversion
 444:Generated_Source\PSoC4/ADC.c **** *
 445:Generated_Source\PSoC4/ADC.c **** * Return:
 446:Generated_Source\PSoC4/ADC.c **** *  If a non-zero value is returned, the last conversion or scan has completed.
 447:Generated_Source\PSoC4/ADC.c **** *  If the returned value is zero, the ADC is still in the process of a scan.
 448:Generated_Source\PSoC4/ADC.c **** *
 449:Generated_Source\PSoC4/ADC.c **** *******************************************************************************/
ARM GAS  C:\Users\JamesN4\AppData\Local\Temp\cchLhQl1.s 			page 17


 450:Generated_Source\PSoC4/ADC.c **** uint32 ADC_IsEndConversion(uint32 retMode)
 451:Generated_Source\PSoC4/ADC.c **** {
 453              		.loc 1 451 0
 454              		.cfi_startproc
 455              		@ args = 0, pretend = 0, frame = 0
 456              		@ frame_needed = 0, uses_anonymous_args = 0
 457              		@ link register save eliminated.
 458              	.LVL25:
 459 0000 0200     		movs	r2, r0
 460              	.LVL26:
 452:Generated_Source\PSoC4/ADC.c ****     uint32 status = 0u;
 453:Generated_Source\PSoC4/ADC.c **** 
 454:Generated_Source\PSoC4/ADC.c ****     if((retMode & (ADC_RETURN_STATUS | ADC_WAIT_FOR_RESULT)) != 0u)
 461              		.loc 1 454 0
 462 0002 8307     		lsls	r3, r0, #30
 463 0004 0CD0     		beq	.L36
 464              	.LVL27:
 465              	.L35:
 455:Generated_Source\PSoC4/ADC.c ****     {
 456:Generated_Source\PSoC4/ADC.c ****         do
 457:Generated_Source\PSoC4/ADC.c ****         {
 458:Generated_Source\PSoC4/ADC.c ****             status = ADC_SAR_INTR_REG & ADC_EOS_MASK;
 466              		.loc 1 458 0 discriminator 2
 467 0006 074B     		ldr	r3, .L37
 468 0008 1B68     		ldr	r3, [r3]
 469 000a 0120     		movs	r0, #1
 470 000c 1840     		ands	r0, r3
 471              	.LVL28:
 459:Generated_Source\PSoC4/ADC.c ****         }while((status == 0u) && ((retMode & ADC_WAIT_FOR_RESULT) != 0u));
 472              		.loc 1 459 0 discriminator 2
 473 000e 01D1     		bne	.L34
 474              		.loc 1 459 0 is_stmt 0 discriminator 1
 475 0010 9307     		lsls	r3, r2, #30
 476 0012 F8D4     		bmi	.L35
 477              	.L34:
 460:Generated_Source\PSoC4/ADC.c **** 
 461:Generated_Source\PSoC4/ADC.c ****         if(status != 0u)
 478              		.loc 1 461 0 is_stmt 1
 479 0014 0028     		cmp	r0, #0
 480 0016 04D0     		beq	.L33
 462:Generated_Source\PSoC4/ADC.c ****         {
 463:Generated_Source\PSoC4/ADC.c ****             /* Clear EOS bit */
 464:Generated_Source\PSoC4/ADC.c ****             ADC_SAR_INTR_REG = ADC_EOS_MASK;
 481              		.loc 1 464 0
 482 0018 0122     		movs	r2, #1
 483              	.LVL29:
 484 001a 024B     		ldr	r3, .L37
 485 001c 1A60     		str	r2, [r3]
 486 001e 00E0     		b	.L33
 487              	.LVL30:
 488              	.L36:
 452:Generated_Source\PSoC4/ADC.c **** 
 489              		.loc 1 452 0
 490 0020 0020     		movs	r0, #0
 491              	.LVL31:
 492              	.L33:
 465:Generated_Source\PSoC4/ADC.c ****         }
ARM GAS  C:\Users\JamesN4\AppData\Local\Temp\cchLhQl1.s 			page 18


 466:Generated_Source\PSoC4/ADC.c ****     }
 467:Generated_Source\PSoC4/ADC.c **** 
 468:Generated_Source\PSoC4/ADC.c ****     #if(ADC_INJ_CHANNEL_ENABLED)
 469:Generated_Source\PSoC4/ADC.c ****         if((retMode & (ADC_RETURN_STATUS_INJ | ADC_WAIT_FOR_RESULT_INJ)) != 0u)
 470:Generated_Source\PSoC4/ADC.c ****         {
 471:Generated_Source\PSoC4/ADC.c ****             do
 472:Generated_Source\PSoC4/ADC.c ****             {
 473:Generated_Source\PSoC4/ADC.c ****                 status |= ADC_SAR_INTR_REG & ADC_INJ_EOC_MASK;
 474:Generated_Source\PSoC4/ADC.c ****             }while(((status & ADC_INJ_EOC_MASK) == 0u) &&
 475:Generated_Source\PSoC4/ADC.c ****                    ((retMode & ADC_WAIT_FOR_RESULT_INJ) != 0u));
 476:Generated_Source\PSoC4/ADC.c **** 
 477:Generated_Source\PSoC4/ADC.c ****             if((status & ADC_INJ_EOC_MASK) != 0u)
 478:Generated_Source\PSoC4/ADC.c ****             {
 479:Generated_Source\PSoC4/ADC.c ****                 /* Clear Injection EOS bit */
 480:Generated_Source\PSoC4/ADC.c ****                 ADC_SAR_INTR_REG = ADC_INJ_EOC_MASK;
 481:Generated_Source\PSoC4/ADC.c ****             }
 482:Generated_Source\PSoC4/ADC.c ****         }
 483:Generated_Source\PSoC4/ADC.c ****     #endif /* ADC_INJ_CHANNEL_ENABLED */
 484:Generated_Source\PSoC4/ADC.c **** 
 485:Generated_Source\PSoC4/ADC.c ****     return (status);
 486:Generated_Source\PSoC4/ADC.c **** }
 493              		.loc 1 486 0
 494              		@ sp needed
 495 0022 7047     		bx	lr
 496              	.L38:
 497              		.align	2
 498              	.L37:
 499 0024 10023A40 		.word	1077543440
 500              		.cfi_endproc
 501              	.LFE7:
 502              		.size	ADC_IsEndConversion, .-ADC_IsEndConversion
 503              		.section	.text.ADC_GetResult16,"ax",%progbits
 504              		.align	2
 505              		.global	ADC_GetResult16
 506              		.code	16
 507              		.thumb_func
 508              		.type	ADC_GetResult16, %function
 509              	ADC_GetResult16:
 510              	.LFB8:
 487:Generated_Source\PSoC4/ADC.c **** 
 488:Generated_Source\PSoC4/ADC.c **** 
 489:Generated_Source\PSoC4/ADC.c **** /*******************************************************************************
 490:Generated_Source\PSoC4/ADC.c **** * Function Name: ADC_GetResult16
 491:Generated_Source\PSoC4/ADC.c **** ********************************************************************************
 492:Generated_Source\PSoC4/ADC.c **** *
 493:Generated_Source\PSoC4/ADC.c **** * Summary:
 494:Generated_Source\PSoC4/ADC.c **** *  Gets the data available in the SAR DATA register.
 495:Generated_Source\PSoC4/ADC.c **** *
 496:Generated_Source\PSoC4/ADC.c **** * Parameters:
 497:Generated_Source\PSoC4/ADC.c **** *  chan: The ADC channel in which to return the result. The first channel
 498:Generated_Source\PSoC4/ADC.c **** *  is 0 and the injection channel if enabled is the number of valid channels.
 499:Generated_Source\PSoC4/ADC.c **** *
 500:Generated_Source\PSoC4/ADC.c **** * Return:
 501:Generated_Source\PSoC4/ADC.c **** *  Returns converted data as a signed 16-bit integer
 502:Generated_Source\PSoC4/ADC.c **** *
 503:Generated_Source\PSoC4/ADC.c **** *******************************************************************************/
 504:Generated_Source\PSoC4/ADC.c **** int16 ADC_GetResult16(uint32 chan)
ARM GAS  C:\Users\JamesN4\AppData\Local\Temp\cchLhQl1.s 			page 19


 505:Generated_Source\PSoC4/ADC.c **** {
 511              		.loc 1 505 0
 512              		.cfi_startproc
 513              		@ args = 0, pretend = 0, frame = 0
 514              		@ frame_needed = 0, uses_anonymous_args = 0
 515              	.LVL32:
 516 0000 10B5     		push	{r4, lr}
 517              		.cfi_def_cfa_offset 8
 518              		.cfi_offset 4, -8
 519              		.cfi_offset 14, -4
 520 0002 0400     		movs	r4, r0
 506:Generated_Source\PSoC4/ADC.c ****     uint32 result;
 507:Generated_Source\PSoC4/ADC.c **** 
 508:Generated_Source\PSoC4/ADC.c ****     /* Halt CPU in debug mode if channel is out of valid range */
 509:Generated_Source\PSoC4/ADC.c ****     CYASSERT(chan < ADC_TOTAL_CHANNELS_NUM);
 521              		.loc 1 509 0
 522 0004 0328     		cmp	r0, #3
 523 0006 02D9     		bls	.L40
 524              		.loc 1 509 0 is_stmt 0 discriminator 1
 525 0008 0020     		movs	r0, #0
 526              	.LVL33:
 527 000a FFF7FEFF 		bl	CyHalt
 528              	.LVL34:
 529              	.L40:
 510:Generated_Source\PSoC4/ADC.c **** 
 511:Generated_Source\PSoC4/ADC.c ****     if(chan < ADC_SEQUENCED_CHANNELS_NUM)
 530              		.loc 1 511 0 is_stmt 1
 531 000e 032C     		cmp	r4, #3
 532 0010 07D8     		bhi	.L42
 512:Generated_Source\PSoC4/ADC.c ****     {
 513:Generated_Source\PSoC4/ADC.c ****         result = CY_GET_REG32((reg32 *)(ADC_SAR_CHAN_RESULT_IND + (uint32)(chan << 2u))) &
 533              		.loc 1 513 0
 534 0012 A400     		lsls	r4, r4, #2
 535              	.LVL35:
 536 0014 044B     		ldr	r3, .L43
 537 0016 9C46     		mov	ip, r3
 538 0018 6444     		add	r4, r4, ip
 539 001a 2068     		ldr	r0, [r4]
 540 001c 0004     		lsls	r0, r0, #16
 541 001e 000C     		lsrs	r0, r0, #16
 542              	.LVL36:
 543 0020 00E0     		b	.L41
 544              	.LVL37:
 545              	.L42:
 514:Generated_Source\PSoC4/ADC.c ****                 ADC_RESULT_MASK;
 515:Generated_Source\PSoC4/ADC.c ****     }
 516:Generated_Source\PSoC4/ADC.c ****     else
 517:Generated_Source\PSoC4/ADC.c ****     {
 518:Generated_Source\PSoC4/ADC.c ****         #if(ADC_INJ_CHANNEL_ENABLED)
 519:Generated_Source\PSoC4/ADC.c ****             result = ADC_SAR_INJ_RESULT_REG & ADC_RESULT_MASK;
 520:Generated_Source\PSoC4/ADC.c ****         #else
 521:Generated_Source\PSoC4/ADC.c ****             result = 0u;
 546              		.loc 1 521 0
 547 0022 0020     		movs	r0, #0
 548              	.LVL38:
 549              	.L41:
 522:Generated_Source\PSoC4/ADC.c ****         #endif /* ADC_INJ_CHANNEL_ENABLED */
ARM GAS  C:\Users\JamesN4\AppData\Local\Temp\cchLhQl1.s 			page 20


 523:Generated_Source\PSoC4/ADC.c ****     }
 524:Generated_Source\PSoC4/ADC.c **** 
 525:Generated_Source\PSoC4/ADC.c ****     return ( (int16)result );
 550              		.loc 1 525 0
 551 0024 00B2     		sxth	r0, r0
 552              	.LVL39:
 526:Generated_Source\PSoC4/ADC.c **** }
 553              		.loc 1 526 0
 554              		@ sp needed
 555 0026 10BD     		pop	{r4, pc}
 556              	.L44:
 557              		.align	2
 558              	.L43:
 559 0028 80013A40 		.word	1077543296
 560              		.cfi_endproc
 561              	.LFE8:
 562              		.size	ADC_GetResult16, .-ADC_GetResult16
 563              		.section	.text.ADC_SetChanMask,"ax",%progbits
 564              		.align	2
 565              		.global	ADC_SetChanMask
 566              		.code	16
 567              		.thumb_func
 568              		.type	ADC_SetChanMask, %function
 569              	ADC_SetChanMask:
 570              	.LFB9:
 527:Generated_Source\PSoC4/ADC.c **** 
 528:Generated_Source\PSoC4/ADC.c **** 
 529:Generated_Source\PSoC4/ADC.c **** /*******************************************************************************
 530:Generated_Source\PSoC4/ADC.c **** * Function Name: ADC_SetChanMask
 531:Generated_Source\PSoC4/ADC.c **** ********************************************************************************
 532:Generated_Source\PSoC4/ADC.c **** *
 533:Generated_Source\PSoC4/ADC.c **** * Summary:
 534:Generated_Source\PSoC4/ADC.c **** *  Sets the channel enable mask.
 535:Generated_Source\PSoC4/ADC.c **** *
 536:Generated_Source\PSoC4/ADC.c **** * Parameters:
 537:Generated_Source\PSoC4/ADC.c **** *  mask: Sets which channels that will be
 538:Generated_Source\PSoC4/ADC.c **** *  scanned. Setting bits for channels that do not exist will have no
 539:Generated_Source\PSoC4/ADC.c **** *  effect. For example, if only 6 channels were enabled, setting a
 540:Generated_Source\PSoC4/ADC.c **** *  mask of 0x0103 would only enable the last two channels (0 and 1).
 541:Generated_Source\PSoC4/ADC.c **** *  This API will not enable the injection channel.
 542:Generated_Source\PSoC4/ADC.c **** *  Examples: If the component is setup to sequence through 8
 543:Generated_Source\PSoC4/ADC.c **** *  channels, a mask of 0x000F would enable channels 0, 1, 2, and 3.
 544:Generated_Source\PSoC4/ADC.c **** *
 545:Generated_Source\PSoC4/ADC.c **** * Return:
 546:Generated_Source\PSoC4/ADC.c **** *  None.
 547:Generated_Source\PSoC4/ADC.c **** *
 548:Generated_Source\PSoC4/ADC.c **** *******************************************************************************/
 549:Generated_Source\PSoC4/ADC.c **** void ADC_SetChanMask(uint32 mask)
 550:Generated_Source\PSoC4/ADC.c **** {
 571              		.loc 1 550 0
 572              		.cfi_startproc
 573              		@ args = 0, pretend = 0, frame = 0
 574              		@ frame_needed = 0, uses_anonymous_args = 0
 575              		@ link register save eliminated.
 576              	.LVL40:
 551:Generated_Source\PSoC4/ADC.c ****     ADC_SAR_CHAN_EN_REG = mask & ADC_MAX_CHANNELS_EN_MASK;
 577              		.loc 1 551 0
ARM GAS  C:\Users\JamesN4\AppData\Local\Temp\cchLhQl1.s 			page 21


 578 0000 0F23     		movs	r3, #15
 579 0002 1840     		ands	r0, r3
 580              	.LVL41:
 581 0004 014B     		ldr	r3, .L46
 582 0006 1860     		str	r0, [r3]
 552:Generated_Source\PSoC4/ADC.c **** }
 583              		.loc 1 552 0
 584              		@ sp needed
 585 0008 7047     		bx	lr
 586              	.L47:
 587 000a C046     		.align	2
 588              	.L46:
 589 000c 20003A40 		.word	1077542944
 590              		.cfi_endproc
 591              	.LFE9:
 592              		.size	ADC_SetChanMask, .-ADC_SetChanMask
 593              		.section	.text.ADC_SetLowLimit,"ax",%progbits
 594              		.align	2
 595              		.global	ADC_SetLowLimit
 596              		.code	16
 597              		.thumb_func
 598              		.type	ADC_SetLowLimit, %function
 599              	ADC_SetLowLimit:
 600              	.LFB10:
 553:Generated_Source\PSoC4/ADC.c **** 
 554:Generated_Source\PSoC4/ADC.c **** #if(ADC_INJ_CHANNEL_ENABLED)
 555:Generated_Source\PSoC4/ADC.c **** 
 556:Generated_Source\PSoC4/ADC.c **** 
 557:Generated_Source\PSoC4/ADC.c ****     /*******************************************************************************
 558:Generated_Source\PSoC4/ADC.c ****     * Function Name: ADC_EnableInjection
 559:Generated_Source\PSoC4/ADC.c ****     ********************************************************************************
 560:Generated_Source\PSoC4/ADC.c ****     *
 561:Generated_Source\PSoC4/ADC.c ****     * Summary:
 562:Generated_Source\PSoC4/ADC.c ****     *  Enables the injection channel for the next scan only.
 563:Generated_Source\PSoC4/ADC.c ****     *
 564:Generated_Source\PSoC4/ADC.c ****     * Parameters:
 565:Generated_Source\PSoC4/ADC.c ****     *  None.
 566:Generated_Source\PSoC4/ADC.c ****     *
 567:Generated_Source\PSoC4/ADC.c ****     * Return:
 568:Generated_Source\PSoC4/ADC.c ****     *  None.
 569:Generated_Source\PSoC4/ADC.c ****     *
 570:Generated_Source\PSoC4/ADC.c ****     *******************************************************************************/
 571:Generated_Source\PSoC4/ADC.c ****     void ADC_EnableInjection(void)
 572:Generated_Source\PSoC4/ADC.c ****     {
 573:Generated_Source\PSoC4/ADC.c ****         ADC_SAR_INJ_CHAN_CONFIG_REG |= ADC_INJ_CHAN_EN;
 574:Generated_Source\PSoC4/ADC.c ****     }
 575:Generated_Source\PSoC4/ADC.c **** 
 576:Generated_Source\PSoC4/ADC.c **** #endif /* ADC_INJ_CHANNEL_ENABLED */
 577:Generated_Source\PSoC4/ADC.c **** 
 578:Generated_Source\PSoC4/ADC.c **** 
 579:Generated_Source\PSoC4/ADC.c **** /*******************************************************************************
 580:Generated_Source\PSoC4/ADC.c **** * Function Name: ADC_SetLowLimit
 581:Generated_Source\PSoC4/ADC.c **** ********************************************************************************
 582:Generated_Source\PSoC4/ADC.c **** *
 583:Generated_Source\PSoC4/ADC.c **** * Summary:
 584:Generated_Source\PSoC4/ADC.c **** *  Sets the low limit parameter for a limit condition.
 585:Generated_Source\PSoC4/ADC.c **** *
ARM GAS  C:\Users\JamesN4\AppData\Local\Temp\cchLhQl1.s 			page 22


 586:Generated_Source\PSoC4/ADC.c **** * Parameters:
 587:Generated_Source\PSoC4/ADC.c **** *  lowLimit: The low limit for a limit condition.
 588:Generated_Source\PSoC4/ADC.c **** *
 589:Generated_Source\PSoC4/ADC.c **** * Return:
 590:Generated_Source\PSoC4/ADC.c **** *  None.
 591:Generated_Source\PSoC4/ADC.c **** *
 592:Generated_Source\PSoC4/ADC.c **** *******************************************************************************/
 593:Generated_Source\PSoC4/ADC.c **** void ADC_SetLowLimit(uint32 lowLimit)
 594:Generated_Source\PSoC4/ADC.c **** {
 601              		.loc 1 594 0
 602              		.cfi_startproc
 603              		@ args = 0, pretend = 0, frame = 0
 604              		@ frame_needed = 0, uses_anonymous_args = 0
 605              		@ link register save eliminated.
 606              	.LVL42:
 595:Generated_Source\PSoC4/ADC.c ****     ADC_SAR_RANGE_THRES_REG &= (uint32)(~ADC_RANGE_LOW_MASK);
 607              		.loc 1 595 0
 608 0000 054A     		ldr	r2, .L49
 609 0002 1368     		ldr	r3, [r2]
 610 0004 1B0C     		lsrs	r3, r3, #16
 611 0006 1B04     		lsls	r3, r3, #16
 612 0008 1360     		str	r3, [r2]
 596:Generated_Source\PSoC4/ADC.c ****     ADC_SAR_RANGE_THRES_REG |= lowLimit & ADC_RANGE_LOW_MASK;
 613              		.loc 1 596 0
 614 000a 1368     		ldr	r3, [r2]
 615 000c 0004     		lsls	r0, r0, #16
 616              	.LVL43:
 617 000e 000C     		lsrs	r0, r0, #16
 618 0010 1843     		orrs	r0, r3
 619 0012 1060     		str	r0, [r2]
 597:Generated_Source\PSoC4/ADC.c **** }
 620              		.loc 1 597 0
 621              		@ sp needed
 622 0014 7047     		bx	lr
 623              	.L50:
 624 0016 C046     		.align	2
 625              	.L49:
 626 0018 18003A40 		.word	1077542936
 627              		.cfi_endproc
 628              	.LFE10:
 629              		.size	ADC_SetLowLimit, .-ADC_SetLowLimit
 630              		.section	.text.ADC_SetHighLimit,"ax",%progbits
 631              		.align	2
 632              		.global	ADC_SetHighLimit
 633              		.code	16
 634              		.thumb_func
 635              		.type	ADC_SetHighLimit, %function
 636              	ADC_SetHighLimit:
 637              	.LFB11:
 598:Generated_Source\PSoC4/ADC.c **** 
 599:Generated_Source\PSoC4/ADC.c **** 
 600:Generated_Source\PSoC4/ADC.c **** /*******************************************************************************
 601:Generated_Source\PSoC4/ADC.c **** * Function Name: ADC_SetHighLimit
 602:Generated_Source\PSoC4/ADC.c **** ********************************************************************************
 603:Generated_Source\PSoC4/ADC.c **** *
 604:Generated_Source\PSoC4/ADC.c **** * Summary:
 605:Generated_Source\PSoC4/ADC.c **** *  Sets the low limit parameter for a limit condition.
ARM GAS  C:\Users\JamesN4\AppData\Local\Temp\cchLhQl1.s 			page 23


 606:Generated_Source\PSoC4/ADC.c **** *
 607:Generated_Source\PSoC4/ADC.c **** * Parameters:
 608:Generated_Source\PSoC4/ADC.c **** *  highLimit: The high limit for a limit condition.
 609:Generated_Source\PSoC4/ADC.c **** *
 610:Generated_Source\PSoC4/ADC.c **** * Return:
 611:Generated_Source\PSoC4/ADC.c **** *  None.
 612:Generated_Source\PSoC4/ADC.c **** *
 613:Generated_Source\PSoC4/ADC.c **** *******************************************************************************/
 614:Generated_Source\PSoC4/ADC.c **** void ADC_SetHighLimit(uint32 highLimit)
 615:Generated_Source\PSoC4/ADC.c **** {
 638              		.loc 1 615 0
 639              		.cfi_startproc
 640              		@ args = 0, pretend = 0, frame = 0
 641              		@ frame_needed = 0, uses_anonymous_args = 0
 642              		@ link register save eliminated.
 643              	.LVL44:
 616:Generated_Source\PSoC4/ADC.c ****     ADC_SAR_RANGE_THRES_REG &= (uint32)(~ADC_RANGE_HIGH_MASK);
 644              		.loc 1 616 0
 645 0000 044A     		ldr	r2, .L52
 646 0002 1368     		ldr	r3, [r2]
 647 0004 1B04     		lsls	r3, r3, #16
 648 0006 1B0C     		lsrs	r3, r3, #16
 649 0008 1360     		str	r3, [r2]
 617:Generated_Source\PSoC4/ADC.c ****     ADC_SAR_RANGE_THRES_REG |= (uint32)(highLimit << ADC_RANGE_HIGH_OFFSET);
 650              		.loc 1 617 0
 651 000a 1368     		ldr	r3, [r2]
 652 000c 0004     		lsls	r0, r0, #16
 653              	.LVL45:
 654 000e 1843     		orrs	r0, r3
 655 0010 1060     		str	r0, [r2]
 618:Generated_Source\PSoC4/ADC.c **** }
 656              		.loc 1 618 0
 657              		@ sp needed
 658 0012 7047     		bx	lr
 659              	.L53:
 660              		.align	2
 661              	.L52:
 662 0014 18003A40 		.word	1077542936
 663              		.cfi_endproc
 664              	.LFE11:
 665              		.size	ADC_SetHighLimit, .-ADC_SetHighLimit
 666              		.section	.text.ADC_SetLimitMask,"ax",%progbits
 667              		.align	2
 668              		.global	ADC_SetLimitMask
 669              		.code	16
 670              		.thumb_func
 671              		.type	ADC_SetLimitMask, %function
 672              	ADC_SetLimitMask:
 673              	.LFB12:
 619:Generated_Source\PSoC4/ADC.c **** 
 620:Generated_Source\PSoC4/ADC.c **** 
 621:Generated_Source\PSoC4/ADC.c **** /*******************************************************************************
 622:Generated_Source\PSoC4/ADC.c **** * Function Name: ADC_SetLimitMask
 623:Generated_Source\PSoC4/ADC.c **** ********************************************************************************
 624:Generated_Source\PSoC4/ADC.c **** *
 625:Generated_Source\PSoC4/ADC.c **** * Summary:
 626:Generated_Source\PSoC4/ADC.c **** *  Sets the channel limit condition mask.
ARM GAS  C:\Users\JamesN4\AppData\Local\Temp\cchLhQl1.s 			page 24


 627:Generated_Source\PSoC4/ADC.c **** *
 628:Generated_Source\PSoC4/ADC.c **** * Parameters:
 629:Generated_Source\PSoC4/ADC.c **** *  mask: Sets which channels that may cause a
 630:Generated_Source\PSoC4/ADC.c **** *  limit condition interrupt. Setting bits for channels that do not exist
 631:Generated_Source\PSoC4/ADC.c **** *  will have no effect. For example, if only 6 channels were enabled,
 632:Generated_Source\PSoC4/ADC.c **** *  setting a mask of 0x0103 would only enable the last two channels (0 and 1).
 633:Generated_Source\PSoC4/ADC.c **** *
 634:Generated_Source\PSoC4/ADC.c **** * Return:
 635:Generated_Source\PSoC4/ADC.c **** *  None.
 636:Generated_Source\PSoC4/ADC.c **** *
 637:Generated_Source\PSoC4/ADC.c **** *******************************************************************************/
 638:Generated_Source\PSoC4/ADC.c **** void ADC_SetLimitMask(uint32 mask)
 639:Generated_Source\PSoC4/ADC.c **** {
 674              		.loc 1 639 0
 675              		.cfi_startproc
 676              		@ args = 0, pretend = 0, frame = 0
 677              		@ frame_needed = 0, uses_anonymous_args = 0
 678              		@ link register save eliminated.
 679              	.LVL46:
 640:Generated_Source\PSoC4/ADC.c ****     ADC_SAR_RANGE_INTR_MASK_REG = mask & ADC_MAX_CHANNELS_EN_MASK;
 680              		.loc 1 640 0
 681 0000 0F23     		movs	r3, #15
 682 0002 1840     		ands	r0, r3
 683              	.LVL47:
 684 0004 014B     		ldr	r3, .L55
 685 0006 1860     		str	r0, [r3]
 641:Generated_Source\PSoC4/ADC.c **** }
 686              		.loc 1 641 0
 687              		@ sp needed
 688 0008 7047     		bx	lr
 689              	.L56:
 690 000a C046     		.align	2
 691              	.L55:
 692 000c 38023A40 		.word	1077543480
 693              		.cfi_endproc
 694              	.LFE12:
 695              		.size	ADC_SetLimitMask, .-ADC_SetLimitMask
 696              		.section	.text.ADC_SetSatMask,"ax",%progbits
 697              		.align	2
 698              		.global	ADC_SetSatMask
 699              		.code	16
 700              		.thumb_func
 701              		.type	ADC_SetSatMask, %function
 702              	ADC_SetSatMask:
 703              	.LFB13:
 642:Generated_Source\PSoC4/ADC.c **** 
 643:Generated_Source\PSoC4/ADC.c **** 
 644:Generated_Source\PSoC4/ADC.c **** /*******************************************************************************
 645:Generated_Source\PSoC4/ADC.c **** * Function Name: ADC_SetSatMask
 646:Generated_Source\PSoC4/ADC.c **** ********************************************************************************
 647:Generated_Source\PSoC4/ADC.c **** *
 648:Generated_Source\PSoC4/ADC.c **** * Summary:
 649:Generated_Source\PSoC4/ADC.c **** *  Sets the channel saturation event mask.
 650:Generated_Source\PSoC4/ADC.c **** *
 651:Generated_Source\PSoC4/ADC.c **** * Parameters:
 652:Generated_Source\PSoC4/ADC.c **** *  mask: Sets which channels that may cause a
 653:Generated_Source\PSoC4/ADC.c **** *  saturation event interrupt. Setting bits for channels that do not exist
ARM GAS  C:\Users\JamesN4\AppData\Local\Temp\cchLhQl1.s 			page 25


 654:Generated_Source\PSoC4/ADC.c **** *  will have no effect. For example, if only 8 channels were enabled,
 655:Generated_Source\PSoC4/ADC.c **** *  setting a mask of 0x01C0 would only enable two channels (6 and 7).
 656:Generated_Source\PSoC4/ADC.c **** *
 657:Generated_Source\PSoC4/ADC.c **** * Return:
 658:Generated_Source\PSoC4/ADC.c **** *  None.
 659:Generated_Source\PSoC4/ADC.c **** *
 660:Generated_Source\PSoC4/ADC.c **** *******************************************************************************/
 661:Generated_Source\PSoC4/ADC.c **** void ADC_SetSatMask(uint32 mask)
 662:Generated_Source\PSoC4/ADC.c **** {
 704              		.loc 1 662 0
 705              		.cfi_startproc
 706              		@ args = 0, pretend = 0, frame = 0
 707              		@ frame_needed = 0, uses_anonymous_args = 0
 708              		@ link register save eliminated.
 709              	.LVL48:
 663:Generated_Source\PSoC4/ADC.c ****     ADC_SAR_SATURATE_INTR_MASK_REG = mask & ADC_MAX_CHANNELS_EN_MASK;
 710              		.loc 1 663 0
 711 0000 0F23     		movs	r3, #15
 712 0002 1840     		ands	r0, r3
 713              	.LVL49:
 714 0004 014B     		ldr	r3, .L58
 715 0006 1860     		str	r0, [r3]
 664:Generated_Source\PSoC4/ADC.c **** }
 716              		.loc 1 664 0
 717              		@ sp needed
 718 0008 7047     		bx	lr
 719              	.L59:
 720 000a C046     		.align	2
 721              	.L58:
 722 000c 28023A40 		.word	1077543464
 723              		.cfi_endproc
 724              	.LFE13:
 725              		.size	ADC_SetSatMask, .-ADC_SetSatMask
 726              		.section	.text.ADC_SetOffset,"ax",%progbits
 727              		.align	2
 728              		.global	ADC_SetOffset
 729              		.code	16
 730              		.thumb_func
 731              		.type	ADC_SetOffset, %function
 732              	ADC_SetOffset:
 733              	.LFB14:
 665:Generated_Source\PSoC4/ADC.c **** 
 666:Generated_Source\PSoC4/ADC.c **** 
 667:Generated_Source\PSoC4/ADC.c **** /*******************************************************************************
 668:Generated_Source\PSoC4/ADC.c **** * Function Name: ADC_SetOffset
 669:Generated_Source\PSoC4/ADC.c **** ********************************************************************************
 670:Generated_Source\PSoC4/ADC.c **** *
 671:Generated_Source\PSoC4/ADC.c **** * Summary:
 672:Generated_Source\PSoC4/ADC.c **** *   Description: Sets the ADC offset which is used by the functions
 673:Generated_Source\PSoC4/ADC.c **** *   ADC_CountsTo_uVolts, ADC_CountsTo_mVolts and ADC_CountsTo_Volts
 674:Generated_Source\PSoC4/ADC.c **** *   to substract the offset from the given reading
 675:Generated_Source\PSoC4/ADC.c **** *   before calculating the voltage conversion.
 676:Generated_Source\PSoC4/ADC.c **** *
 677:Generated_Source\PSoC4/ADC.c **** * Parameters:
 678:Generated_Source\PSoC4/ADC.c **** *  chan: ADC channel number.
 679:Generated_Source\PSoC4/ADC.c **** *  offset: This value is a measured value when the
 680:Generated_Source\PSoC4/ADC.c **** *          inputs are shorted or connected to the same input voltage.
ARM GAS  C:\Users\JamesN4\AppData\Local\Temp\cchLhQl1.s 			page 26


 681:Generated_Source\PSoC4/ADC.c **** *
 682:Generated_Source\PSoC4/ADC.c **** * Return:
 683:Generated_Source\PSoC4/ADC.c **** *  None.
 684:Generated_Source\PSoC4/ADC.c **** *
 685:Generated_Source\PSoC4/ADC.c **** * Global variables:
 686:Generated_Source\PSoC4/ADC.c **** *  ADC_Offset:  Modified to set the user provided offset.
 687:Generated_Source\PSoC4/ADC.c **** *
 688:Generated_Source\PSoC4/ADC.c **** *******************************************************************************/
 689:Generated_Source\PSoC4/ADC.c **** void ADC_SetOffset(uint32 chan, int16 offset)
 690:Generated_Source\PSoC4/ADC.c **** {
 734              		.loc 1 690 0
 735              		.cfi_startproc
 736              		@ args = 0, pretend = 0, frame = 0
 737              		@ frame_needed = 0, uses_anonymous_args = 0
 738              	.LVL50:
 739 0000 70B5     		push	{r4, r5, r6, lr}
 740              		.cfi_def_cfa_offset 16
 741              		.cfi_offset 4, -16
 742              		.cfi_offset 5, -12
 743              		.cfi_offset 6, -8
 744              		.cfi_offset 14, -4
 745 0002 0400     		movs	r4, r0
 746 0004 0D00     		movs	r5, r1
 691:Generated_Source\PSoC4/ADC.c ****     /* Halt CPU in debug mode if channel is out of valid range */
 692:Generated_Source\PSoC4/ADC.c ****     CYASSERT(chan < ADC_TOTAL_CHANNELS_NUM);
 747              		.loc 1 692 0
 748 0006 0328     		cmp	r0, #3
 749 0008 02D9     		bls	.L61
 750              		.loc 1 692 0 is_stmt 0 discriminator 1
 751 000a 0020     		movs	r0, #0
 752              	.LVL51:
 753 000c FFF7FEFF 		bl	CyHalt
 754              	.LVL52:
 755              	.L61:
 693:Generated_Source\PSoC4/ADC.c **** 
 694:Generated_Source\PSoC4/ADC.c ****     ADC_offset[chan] = offset;
 756              		.loc 1 694 0 is_stmt 1
 757 0010 6400     		lsls	r4, r4, #1
 758              	.LVL53:
 759 0012 014B     		ldr	r3, .L62
 760 0014 E552     		strh	r5, [r4, r3]
 695:Generated_Source\PSoC4/ADC.c **** }
 761              		.loc 1 695 0
 762              		@ sp needed
 763 0016 70BD     		pop	{r4, r5, r6, pc}
 764              	.L63:
 765              		.align	2
 766              	.L62:
 767 0018 00000000 		.word	ADC_offset
 768              		.cfi_endproc
 769              	.LFE14:
 770              		.size	ADC_SetOffset, .-ADC_SetOffset
 771              		.section	.text.ADC_SetGain,"ax",%progbits
 772              		.align	2
 773              		.global	ADC_SetGain
 774              		.code	16
 775              		.thumb_func
ARM GAS  C:\Users\JamesN4\AppData\Local\Temp\cchLhQl1.s 			page 27


 776              		.type	ADC_SetGain, %function
 777              	ADC_SetGain:
 778              	.LFB15:
 696:Generated_Source\PSoC4/ADC.c **** 
 697:Generated_Source\PSoC4/ADC.c **** 
 698:Generated_Source\PSoC4/ADC.c **** /*******************************************************************************
 699:Generated_Source\PSoC4/ADC.c **** * Function Name: ADC_SetGain
 700:Generated_Source\PSoC4/ADC.c **** ********************************************************************************
 701:Generated_Source\PSoC4/ADC.c **** *
 702:Generated_Source\PSoC4/ADC.c **** * Summary:
 703:Generated_Source\PSoC4/ADC.c **** *  Description: Sets the ADC gain in counts per 10 volt for the voltage
 704:Generated_Source\PSoC4/ADC.c **** *  conversion functions below. This value is set by default by the
 705:Generated_Source\PSoC4/ADC.c **** *  reference and input range settings. It should only be used to further
 706:Generated_Source\PSoC4/ADC.c **** *  calibrate the ADC with a known input or if an external reference is
 707:Generated_Source\PSoC4/ADC.c **** *  used. Affects the ADC_CountsTo_uVolts, ADC_CountsTo_mVolts
 708:Generated_Source\PSoC4/ADC.c **** *  and ADC_CountsTo_Volts functions by supplying the correct
 709:Generated_Source\PSoC4/ADC.c **** *  conversion between ADC counts and voltage.
 710:Generated_Source\PSoC4/ADC.c **** *
 711:Generated_Source\PSoC4/ADC.c **** * Parameters:
 712:Generated_Source\PSoC4/ADC.c **** *  chan: ADC channel number.
 713:Generated_Source\PSoC4/ADC.c **** *  adcGain: ADC gain in counts per 10 volts.
 714:Generated_Source\PSoC4/ADC.c **** *
 715:Generated_Source\PSoC4/ADC.c **** * Return:
 716:Generated_Source\PSoC4/ADC.c **** *  None.
 717:Generated_Source\PSoC4/ADC.c **** *
 718:Generated_Source\PSoC4/ADC.c **** * Global variables:
 719:Generated_Source\PSoC4/ADC.c **** *  ADC_CountsPer10Volt:  modified to set the ADC gain in counts
 720:Generated_Source\PSoC4/ADC.c **** *   per 10 volt.
 721:Generated_Source\PSoC4/ADC.c **** *
 722:Generated_Source\PSoC4/ADC.c **** *******************************************************************************/
 723:Generated_Source\PSoC4/ADC.c **** void ADC_SetGain(uint32 chan, int32 adcGain)
 724:Generated_Source\PSoC4/ADC.c **** {
 779              		.loc 1 724 0
 780              		.cfi_startproc
 781              		@ args = 0, pretend = 0, frame = 0
 782              		@ frame_needed = 0, uses_anonymous_args = 0
 783              	.LVL54:
 784 0000 70B5     		push	{r4, r5, r6, lr}
 785              		.cfi_def_cfa_offset 16
 786              		.cfi_offset 4, -16
 787              		.cfi_offset 5, -12
 788              		.cfi_offset 6, -8
 789              		.cfi_offset 14, -4
 790 0002 0400     		movs	r4, r0
 791 0004 0D00     		movs	r5, r1
 725:Generated_Source\PSoC4/ADC.c ****     /* Halt CPU in debug mode if channel is out of valid range */
 726:Generated_Source\PSoC4/ADC.c ****     CYASSERT(chan < ADC_TOTAL_CHANNELS_NUM);
 792              		.loc 1 726 0
 793 0006 0328     		cmp	r0, #3
 794 0008 02D9     		bls	.L65
 795              		.loc 1 726 0 is_stmt 0 discriminator 1
 796 000a 0020     		movs	r0, #0
 797              	.LVL55:
 798 000c FFF7FEFF 		bl	CyHalt
 799              	.LVL56:
 800              	.L65:
 727:Generated_Source\PSoC4/ADC.c **** 
ARM GAS  C:\Users\JamesN4\AppData\Local\Temp\cchLhQl1.s 			page 28


 728:Generated_Source\PSoC4/ADC.c ****     ADC_countsPer10Volt[chan] = adcGain;
 801              		.loc 1 728 0 is_stmt 1
 802 0010 A400     		lsls	r4, r4, #2
 803              	.LVL57:
 804 0012 014B     		ldr	r3, .L66
 805 0014 E550     		str	r5, [r4, r3]
 729:Generated_Source\PSoC4/ADC.c **** }
 806              		.loc 1 729 0
 807              		@ sp needed
 808              	.LVL58:
 809 0016 70BD     		pop	{r4, r5, r6, pc}
 810              	.L67:
 811              		.align	2
 812              	.L66:
 813 0018 00000000 		.word	ADC_countsPer10Volt
 814              		.cfi_endproc
 815              	.LFE15:
 816              		.size	ADC_SetGain, .-ADC_SetGain
 817              		.global	__aeabi_idiv
 818              		.section	.text.ADC_CountsTo_mVolts,"ax",%progbits
 819              		.align	2
 820              		.global	ADC_CountsTo_mVolts
 821              		.code	16
 822              		.thumb_func
 823              		.type	ADC_CountsTo_mVolts, %function
 824              	ADC_CountsTo_mVolts:
 825              	.LFB16:
 730:Generated_Source\PSoC4/ADC.c **** 
 731:Generated_Source\PSoC4/ADC.c **** 
 732:Generated_Source\PSoC4/ADC.c **** #if(ADC_DEFAULT_JUSTIFICATION_SEL == ADC__RIGHT)
 733:Generated_Source\PSoC4/ADC.c **** 
 734:Generated_Source\PSoC4/ADC.c **** 
 735:Generated_Source\PSoC4/ADC.c ****     /*******************************************************************************
 736:Generated_Source\PSoC4/ADC.c ****     * Function Name: ADC_CountsTo_mVolts
 737:Generated_Source\PSoC4/ADC.c ****     ********************************************************************************
 738:Generated_Source\PSoC4/ADC.c ****     *
 739:Generated_Source\PSoC4/ADC.c ****     * Summary:
 740:Generated_Source\PSoC4/ADC.c ****     *  This function converts ADC counts to mVolts
 741:Generated_Source\PSoC4/ADC.c ****     *  This function is not available when left data format justification selected.
 742:Generated_Source\PSoC4/ADC.c ****     *
 743:Generated_Source\PSoC4/ADC.c ****     * Parameters:
 744:Generated_Source\PSoC4/ADC.c ****     *  chan: The ADC channel number.
 745:Generated_Source\PSoC4/ADC.c ****     *  adcCounts: Result from the ADC conversion
 746:Generated_Source\PSoC4/ADC.c ****     *
 747:Generated_Source\PSoC4/ADC.c ****     * Return:
 748:Generated_Source\PSoC4/ADC.c ****     *  Results in mVolts
 749:Generated_Source\PSoC4/ADC.c ****     *
 750:Generated_Source\PSoC4/ADC.c ****     * Global variables:
 751:Generated_Source\PSoC4/ADC.c ****     *  ADC_countsPer10Volt:  used to convert ADC counts to mVolts.
 752:Generated_Source\PSoC4/ADC.c ****     *  ADC_Offset:  Used as the offset while converting ADC counts
 753:Generated_Source\PSoC4/ADC.c ****     *   to mVolts.
 754:Generated_Source\PSoC4/ADC.c ****     *
 755:Generated_Source\PSoC4/ADC.c ****     *******************************************************************************/
 756:Generated_Source\PSoC4/ADC.c ****     int16 ADC_CountsTo_mVolts(uint32 chan, int16 adcCounts)
 757:Generated_Source\PSoC4/ADC.c ****     {
 826              		.loc 1 757 0
 827              		.cfi_startproc
ARM GAS  C:\Users\JamesN4\AppData\Local\Temp\cchLhQl1.s 			page 29


 828              		@ args = 0, pretend = 0, frame = 0
 829              		@ frame_needed = 0, uses_anonymous_args = 0
 830              	.LVL59:
 831 0000 70B5     		push	{r4, r5, r6, lr}
 832              		.cfi_def_cfa_offset 16
 833              		.cfi_offset 4, -16
 834              		.cfi_offset 5, -12
 835              		.cfi_offset 6, -8
 836              		.cfi_offset 14, -4
 837 0002 0400     		movs	r4, r0
 838 0004 0D00     		movs	r5, r1
 758:Generated_Source\PSoC4/ADC.c ****         int16 mVolts;
 759:Generated_Source\PSoC4/ADC.c **** 
 760:Generated_Source\PSoC4/ADC.c ****         /* Halt CPU in debug mode if channel is out of valid range */
 761:Generated_Source\PSoC4/ADC.c ****         CYASSERT(chan < ADC_TOTAL_CHANNELS_NUM);
 839              		.loc 1 761 0
 840 0006 0328     		cmp	r0, #3
 841 0008 02D9     		bls	.L69
 842              		.loc 1 761 0 is_stmt 0 discriminator 1
 843 000a 0020     		movs	r0, #0
 844              	.LVL60:
 845 000c FFF7FEFF 		bl	CyHalt
 846              	.LVL61:
 847              	.L69:
 762:Generated_Source\PSoC4/ADC.c **** 
 763:Generated_Source\PSoC4/ADC.c ****         /* Divide the adcCount when accumulate averaging mode selected */
 764:Generated_Source\PSoC4/ADC.c ****         #if(ADC_DEFAULT_AVG_MODE == ADC__ACCUMULATE)
 765:Generated_Source\PSoC4/ADC.c ****             if((ADC_channelsConfig[chan] & ADC_AVERAGING_EN) != 0u)
 766:Generated_Source\PSoC4/ADC.c ****             {
 767:Generated_Source\PSoC4/ADC.c ****                 adcCounts /= ADC_DEFAULT_AVG_SAMPLES_DIV;
 768:Generated_Source\PSoC4/ADC.c ****             }
 769:Generated_Source\PSoC4/ADC.c ****         #endif /* ADC_DEFAULT_AVG_MODE == ADC__ACCUMULATE */
 770:Generated_Source\PSoC4/ADC.c **** 
 771:Generated_Source\PSoC4/ADC.c ****         /* Subtract ADC offset */
 772:Generated_Source\PSoC4/ADC.c ****         adcCounts -= ADC_offset[chan];
 848              		.loc 1 772 0 is_stmt 1
 849 0010 6300     		lsls	r3, r4, #1
 850 0012 0F4A     		ldr	r2, .L72
 851 0014 995A     		ldrh	r1, [r3, r2]
 852 0016 09B2     		sxth	r1, r1
 853 0018 691A     		subs	r1, r5, r1
 854 001a 09B2     		sxth	r1, r1
 855              	.LVL62:
 773:Generated_Source\PSoC4/ADC.c **** 
 774:Generated_Source\PSoC4/ADC.c ****         mVolts = (int16)((((int32)adcCounts * ADC_10MV_COUNTS) + ( (adcCounts > 0) ?
 856              		.loc 1 774 0
 857 001c 0D48     		ldr	r0, .L72+4
 858 001e 4843     		muls	r0, r1
 775:Generated_Source\PSoC4/ADC.c ****                  (ADC_countsPer10Volt[chan] / 2) : (-(ADC_countsPer10Volt[chan] / 2)) ))
 859              		.loc 1 775 0
 860 0020 0029     		cmp	r1, #0
 861 0022 06DD     		ble	.L70
 862              		.loc 1 775 0 is_stmt 0 discriminator 1
 863 0024 A300     		lsls	r3, r4, #2
 864 0026 0C4A     		ldr	r2, .L72+8
 865 0028 9A58     		ldr	r2, [r3, r2]
 866 002a D30F     		lsrs	r3, r2, #31
ARM GAS  C:\Users\JamesN4\AppData\Local\Temp\cchLhQl1.s 			page 30


 867 002c 9A18     		adds	r2, r3, r2
 868 002e 5310     		asrs	r3, r2, #1
 869 0030 06E0     		b	.L71
 870              	.L70:
 871              		.loc 1 775 0 discriminator 2
 872 0032 A300     		lsls	r3, r4, #2
 873 0034 084A     		ldr	r2, .L72+8
 874 0036 9A58     		ldr	r2, [r3, r2]
 875 0038 D30F     		lsrs	r3, r2, #31
 876 003a 9A18     		adds	r2, r3, r2
 877 003c 5210     		asrs	r2, r2, #1
 878 003e 5342     		rsbs	r3, r2, #0
 879              	.L71:
 774:Generated_Source\PSoC4/ADC.c ****                  (ADC_countsPer10Volt[chan] / 2) : (-(ADC_countsPer10Volt[chan] / 2)) ))
 880              		.loc 1 774 0 is_stmt 1
 881 0040 1818     		adds	r0, r3, r0
 776:Generated_Source\PSoC4/ADC.c ****                  / ADC_countsPer10Volt[chan]);
 882              		.loc 1 776 0
 883 0042 A400     		lsls	r4, r4, #2
 884              	.LVL63:
 885 0044 044B     		ldr	r3, .L72+8
 886 0046 E158     		ldr	r1, [r4, r3]
 887              	.LVL64:
 888 0048 FFF7FEFF 		bl	__aeabi_idiv
 889              	.LVL65:
 774:Generated_Source\PSoC4/ADC.c ****                  (ADC_countsPer10Volt[chan] / 2) : (-(ADC_countsPer10Volt[chan] / 2)) ))
 890              		.loc 1 774 0
 891 004c 00B2     		sxth	r0, r0
 892              	.LVL66:
 777:Generated_Source\PSoC4/ADC.c **** 
 778:Generated_Source\PSoC4/ADC.c ****         return( mVolts );
 779:Generated_Source\PSoC4/ADC.c ****     }
 893              		.loc 1 779 0
 894              		@ sp needed
 895 004e 70BD     		pop	{r4, r5, r6, pc}
 896              	.L73:
 897              		.align	2
 898              	.L72:
 899 0050 00000000 		.word	ADC_offset
 900 0054 10270000 		.word	10000
 901 0058 00000000 		.word	ADC_countsPer10Volt
 902              		.cfi_endproc
 903              	.LFE16:
 904              		.size	ADC_CountsTo_mVolts, .-ADC_CountsTo_mVolts
 905              		.global	__aeabi_lmul
 906              		.global	__aeabi_ldivmod
 907              		.section	.text.ADC_CountsTo_uVolts,"ax",%progbits
 908              		.align	2
 909              		.global	ADC_CountsTo_uVolts
 910              		.code	16
 911              		.thumb_func
 912              		.type	ADC_CountsTo_uVolts, %function
 913              	ADC_CountsTo_uVolts:
 914              	.LFB17:
 780:Generated_Source\PSoC4/ADC.c **** 
 781:Generated_Source\PSoC4/ADC.c **** 
 782:Generated_Source\PSoC4/ADC.c ****     /*******************************************************************************
ARM GAS  C:\Users\JamesN4\AppData\Local\Temp\cchLhQl1.s 			page 31


 783:Generated_Source\PSoC4/ADC.c ****     * Function Name: ADC_CountsTo_uVolts
 784:Generated_Source\PSoC4/ADC.c ****     ********************************************************************************
 785:Generated_Source\PSoC4/ADC.c ****     *
 786:Generated_Source\PSoC4/ADC.c ****     * Summary:
 787:Generated_Source\PSoC4/ADC.c ****     *  This function converts ADC counts to micro Volts
 788:Generated_Source\PSoC4/ADC.c ****     *  This function is not available when left data format justification selected.
 789:Generated_Source\PSoC4/ADC.c ****     *
 790:Generated_Source\PSoC4/ADC.c ****     * Parameters:
 791:Generated_Source\PSoC4/ADC.c ****     *  chan: The ADC channel number.
 792:Generated_Source\PSoC4/ADC.c ****     *  adcCounts: Result from the ADC conversion
 793:Generated_Source\PSoC4/ADC.c ****     *
 794:Generated_Source\PSoC4/ADC.c ****     * Return:
 795:Generated_Source\PSoC4/ADC.c ****     *  Results in uVolts
 796:Generated_Source\PSoC4/ADC.c ****     *
 797:Generated_Source\PSoC4/ADC.c ****     * Global variables:
 798:Generated_Source\PSoC4/ADC.c ****     *  ADC_countsPer10Volt:  used to convert ADC counts to uVolts.
 799:Generated_Source\PSoC4/ADC.c ****     *  ADC_Offset:  Used as the offset while converting ADC counts
 800:Generated_Source\PSoC4/ADC.c ****     *   to mVolts.
 801:Generated_Source\PSoC4/ADC.c ****     *
 802:Generated_Source\PSoC4/ADC.c ****     * Theory:
 803:Generated_Source\PSoC4/ADC.c ****     *  Care must be taken to not exceed the maximum value for a 31 bit signed
 804:Generated_Source\PSoC4/ADC.c ****     *  number in the conversion to uVolts and at the same time not loose
 805:Generated_Source\PSoC4/ADC.c ****     *  resolution.
 806:Generated_Source\PSoC4/ADC.c ****     *  To convert adcCounts to microVolts it is required to be multiplied
 807:Generated_Source\PSoC4/ADC.c ****     *  on 10 million and later divide on gain in counts per 10V.
 808:Generated_Source\PSoC4/ADC.c ****     *
 809:Generated_Source\PSoC4/ADC.c ****     *******************************************************************************/
 810:Generated_Source\PSoC4/ADC.c ****     int32 ADC_CountsTo_uVolts(uint32 chan, int16 adcCounts)
 811:Generated_Source\PSoC4/ADC.c ****     {
 915              		.loc 1 811 0
 916              		.cfi_startproc
 917              		@ args = 0, pretend = 0, frame = 0
 918              		@ frame_needed = 0, uses_anonymous_args = 0
 919              	.LVL67:
 920 0000 70B5     		push	{r4, r5, r6, lr}
 921              		.cfi_def_cfa_offset 16
 922              		.cfi_offset 4, -16
 923              		.cfi_offset 5, -12
 924              		.cfi_offset 6, -8
 925              		.cfi_offset 14, -4
 926 0002 0500     		movs	r5, r0
 927 0004 0C00     		movs	r4, r1
 812:Generated_Source\PSoC4/ADC.c ****         int64 uVolts;
 813:Generated_Source\PSoC4/ADC.c **** 
 814:Generated_Source\PSoC4/ADC.c ****         /* Halt CPU in debug mode if channel is out of valid range */
 815:Generated_Source\PSoC4/ADC.c ****         CYASSERT(chan < ADC_TOTAL_CHANNELS_NUM);
 928              		.loc 1 815 0
 929 0006 0328     		cmp	r0, #3
 930 0008 02D9     		bls	.L75
 931              		.loc 1 815 0 is_stmt 0 discriminator 1
 932 000a 0020     		movs	r0, #0
 933              	.LVL68:
 934 000c FFF7FEFF 		bl	CyHalt
 935              	.LVL69:
 936              	.L75:
 816:Generated_Source\PSoC4/ADC.c **** 
 817:Generated_Source\PSoC4/ADC.c ****         /* Divide the adcCount when accumulate averaging mode selected */
ARM GAS  C:\Users\JamesN4\AppData\Local\Temp\cchLhQl1.s 			page 32


 818:Generated_Source\PSoC4/ADC.c ****         #if(ADC_DEFAULT_AVG_MODE == ADC__ACCUMULATE)
 819:Generated_Source\PSoC4/ADC.c ****             if((ADC_channelsConfig[chan] & ADC_AVERAGING_EN) != 0u)
 820:Generated_Source\PSoC4/ADC.c ****             {
 821:Generated_Source\PSoC4/ADC.c ****                 adcCounts /= ADC_DEFAULT_AVG_SAMPLES_DIV;
 822:Generated_Source\PSoC4/ADC.c ****             }
 823:Generated_Source\PSoC4/ADC.c ****         #endif /* ADC_DEFAULT_AVG_MODE == ADC__ACCUMULATE */
 824:Generated_Source\PSoC4/ADC.c **** 
 825:Generated_Source\PSoC4/ADC.c ****         /* Subtract ADC offset */
 826:Generated_Source\PSoC4/ADC.c ****         adcCounts -= ADC_offset[chan];
 937              		.loc 1 826 0 is_stmt 1
 938 0010 6A00     		lsls	r2, r5, #1
 939 0012 084B     		ldr	r3, .L76
 940 0014 D05A     		ldrh	r0, [r2, r3]
 941 0016 00B2     		sxth	r0, r0
 942 0018 201A     		subs	r0, r4, r0
 943 001a 00B2     		sxth	r0, r0
 944              	.LVL70:
 827:Generated_Source\PSoC4/ADC.c **** 
 828:Generated_Source\PSoC4/ADC.c ****         uVolts = ((int64)adcCounts * ADC_10UV_COUNTS) / ADC_countsPer10Volt[chan];
 945              		.loc 1 828 0
 946 001c C117     		asrs	r1, r0, #31
 947 001e 064A     		ldr	r2, .L76+4
 948 0020 0023     		movs	r3, #0
 949 0022 FFF7FEFF 		bl	__aeabi_lmul
 950              	.LVL71:
 951 0026 AD00     		lsls	r5, r5, #2
 952              	.LVL72:
 953 0028 044B     		ldr	r3, .L76+8
 954 002a EA58     		ldr	r2, [r5, r3]
 955 002c D317     		asrs	r3, r2, #31
 956 002e FFF7FEFF 		bl	__aeabi_ldivmod
 957              	.LVL73:
 829:Generated_Source\PSoC4/ADC.c **** 
 830:Generated_Source\PSoC4/ADC.c ****         return( (int32)uVolts );
 831:Generated_Source\PSoC4/ADC.c ****     }
 958              		.loc 1 831 0
 959              		@ sp needed
 960 0032 70BD     		pop	{r4, r5, r6, pc}
 961              	.L77:
 962              		.align	2
 963              	.L76:
 964 0034 00000000 		.word	ADC_offset
 965 0038 80969800 		.word	10000000
 966 003c 00000000 		.word	ADC_countsPer10Volt
 967              		.cfi_endproc
 968              	.LFE17:
 969              		.size	ADC_CountsTo_uVolts, .-ADC_CountsTo_uVolts
 970              		.global	__aeabi_i2f
 971              		.global	__aeabi_fmul
 972              		.global	__aeabi_fdiv
 973              		.section	.text.ADC_CountsTo_Volts,"ax",%progbits
 974              		.align	2
 975              		.global	ADC_CountsTo_Volts
 976              		.code	16
 977              		.thumb_func
 978              		.type	ADC_CountsTo_Volts, %function
 979              	ADC_CountsTo_Volts:
ARM GAS  C:\Users\JamesN4\AppData\Local\Temp\cchLhQl1.s 			page 33


 980              	.LFB18:
 832:Generated_Source\PSoC4/ADC.c **** 
 833:Generated_Source\PSoC4/ADC.c **** 
 834:Generated_Source\PSoC4/ADC.c ****     /*******************************************************************************
 835:Generated_Source\PSoC4/ADC.c ****     * Function Name: ADC_CountsTo_Volts
 836:Generated_Source\PSoC4/ADC.c ****     ********************************************************************************
 837:Generated_Source\PSoC4/ADC.c ****     *
 838:Generated_Source\PSoC4/ADC.c ****     * Summary:
 839:Generated_Source\PSoC4/ADC.c ****     *  Converts the ADC output to Volts as a floating point number.
 840:Generated_Source\PSoC4/ADC.c ****     *  This function is not available when left data format justification selected.
 841:Generated_Source\PSoC4/ADC.c ****     *
 842:Generated_Source\PSoC4/ADC.c ****     * Parameters:
 843:Generated_Source\PSoC4/ADC.c ****     *  chan: The ADC channel number.
 844:Generated_Source\PSoC4/ADC.c ****     *  Result from the ADC conversion
 845:Generated_Source\PSoC4/ADC.c ****     *
 846:Generated_Source\PSoC4/ADC.c ****     * Return:
 847:Generated_Source\PSoC4/ADC.c ****     *  Results in Volts
 848:Generated_Source\PSoC4/ADC.c ****     *
 849:Generated_Source\PSoC4/ADC.c ****     * Global variables:
 850:Generated_Source\PSoC4/ADC.c ****     *  ADC_countsPer10Volt:  used to convert ADC counts to Volts.
 851:Generated_Source\PSoC4/ADC.c ****     *  ADC_Offset:  Used as the offset while converting ADC counts
 852:Generated_Source\PSoC4/ADC.c ****     *   to mVolts.
 853:Generated_Source\PSoC4/ADC.c ****     *
 854:Generated_Source\PSoC4/ADC.c ****     *******************************************************************************/
 855:Generated_Source\PSoC4/ADC.c ****     float32 ADC_CountsTo_Volts(uint32 chan, int16 adcCounts)
 856:Generated_Source\PSoC4/ADC.c ****     {
 981              		.loc 1 856 0
 982              		.cfi_startproc
 983              		@ args = 0, pretend = 0, frame = 0
 984              		@ frame_needed = 0, uses_anonymous_args = 0
 985              	.LVL74:
 986 0000 70B5     		push	{r4, r5, r6, lr}
 987              		.cfi_def_cfa_offset 16
 988              		.cfi_offset 4, -16
 989              		.cfi_offset 5, -12
 990              		.cfi_offset 6, -8
 991              		.cfi_offset 14, -4
 992 0002 0400     		movs	r4, r0
 993 0004 0D00     		movs	r5, r1
 857:Generated_Source\PSoC4/ADC.c ****         float32 volts;
 858:Generated_Source\PSoC4/ADC.c **** 
 859:Generated_Source\PSoC4/ADC.c ****         /* Halt CPU in debug mode if channel is out of valid range */
 860:Generated_Source\PSoC4/ADC.c ****         CYASSERT(chan < ADC_TOTAL_CHANNELS_NUM);
 994              		.loc 1 860 0
 995 0006 0328     		cmp	r0, #3
 996 0008 02D9     		bls	.L79
 997              		.loc 1 860 0 is_stmt 0 discriminator 1
 998 000a 0020     		movs	r0, #0
 999              	.LVL75:
 1000 000c FFF7FEFF 		bl	CyHalt
 1001              	.LVL76:
 1002              	.L79:
 861:Generated_Source\PSoC4/ADC.c **** 
 862:Generated_Source\PSoC4/ADC.c ****         /* Divide the adcCount when accumulate averaging mode selected */
 863:Generated_Source\PSoC4/ADC.c ****         #if(ADC_DEFAULT_AVG_MODE == ADC__ACCUMULATE)
 864:Generated_Source\PSoC4/ADC.c ****             if((ADC_channelsConfig[chan] & ADC_AVERAGING_EN) != 0u)
 865:Generated_Source\PSoC4/ADC.c ****             {
ARM GAS  C:\Users\JamesN4\AppData\Local\Temp\cchLhQl1.s 			page 34


 866:Generated_Source\PSoC4/ADC.c ****                 adcCounts /= ADC_DEFAULT_AVG_SAMPLES_DIV;
 867:Generated_Source\PSoC4/ADC.c ****             }
 868:Generated_Source\PSoC4/ADC.c ****         #endif /* ADC_DEFAULT_AVG_MODE == ADC__ACCUMULATE */
 869:Generated_Source\PSoC4/ADC.c **** 
 870:Generated_Source\PSoC4/ADC.c ****         /* Subtract ADC offset */
 871:Generated_Source\PSoC4/ADC.c ****         adcCounts -= ADC_offset[chan];
 1003              		.loc 1 871 0 is_stmt 1
 1004 0010 6200     		lsls	r2, r4, #1
 1005 0012 0A4B     		ldr	r3, .L80
 1006 0014 D05A     		ldrh	r0, [r2, r3]
 1007 0016 00B2     		sxth	r0, r0
 1008 0018 281A     		subs	r0, r5, r0
 1009 001a 00B2     		sxth	r0, r0
 1010              	.LVL77:
 872:Generated_Source\PSoC4/ADC.c **** 
 873:Generated_Source\PSoC4/ADC.c ****         volts = ((float32)adcCounts * ADC_10V_COUNTS) / (float32)ADC_countsPer10Volt[chan];
 1011              		.loc 1 873 0
 1012 001c FFF7FEFF 		bl	__aeabi_i2f
 1013              	.LVL78:
 1014 0020 0749     		ldr	r1, .L80+4
 1015 0022 FFF7FEFF 		bl	__aeabi_fmul
 1016              	.LVL79:
 1017 0026 051C     		adds	r5, r0, #0
 1018 0028 A400     		lsls	r4, r4, #2
 1019              	.LVL80:
 1020 002a 064B     		ldr	r3, .L80+8
 1021 002c E058     		ldr	r0, [r4, r3]
 1022 002e FFF7FEFF 		bl	__aeabi_i2f
 1023              	.LVL81:
 1024 0032 011C     		adds	r1, r0, #0
 1025 0034 281C     		adds	r0, r5, #0
 1026 0036 FFF7FEFF 		bl	__aeabi_fdiv
 1027              	.LVL82:
 874:Generated_Source\PSoC4/ADC.c **** 
 875:Generated_Source\PSoC4/ADC.c ****         return( volts );
 876:Generated_Source\PSoC4/ADC.c ****     }
 1028              		.loc 1 876 0
 1029              		@ sp needed
 1030 003a 70BD     		pop	{r4, r5, r6, pc}
 1031              	.L81:
 1032              		.align	2
 1033              	.L80:
 1034 003c 00000000 		.word	ADC_offset
 1035 0040 00002041 		.word	1092616192
 1036 0044 00000000 		.word	ADC_countsPer10Volt
 1037              		.cfi_endproc
 1038              	.LFE18:
 1039              		.size	ADC_CountsTo_Volts, .-ADC_CountsTo_Volts
 1040              		.comm	ADC_countsPer10Volt,16,4
 1041              		.comm	ADC_offset,8,4
 1042              		.global	ADC_initVar
 1043              		.section	.rodata
 1044              		.align	2
 1045              		.set	.LANCHOR0,. + 0
 1046              		.type	ADC_channelsConfig, %object
 1047              		.size	ADC_channelsConfig, 16
 1048              	ADC_channelsConfig:
ARM GAS  C:\Users\JamesN4\AppData\Local\Temp\cchLhQl1.s 			page 35


 1049 0000 00040000 		.word	1024
 1050 0004 00050000 		.word	1280
 1051 0008 00140000 		.word	5120
 1052 000c 00140000 		.word	5120
 1053              		.type	ADC_InputsPlacement.4915, %object
 1054              		.size	ADC_InputsPlacement.4915, 4
 1055              	ADC_InputsPlacement.4915:
 1056 0010 00       		.byte	0
 1057 0011 06       		.byte	6
 1058 0012 13       		.byte	19
 1059 0013 12       		.byte	18
 1060              		.bss
 1061              		.set	.LANCHOR1,. + 0
 1062              		.type	ADC_initVar, %object
 1063              		.size	ADC_initVar, 1
 1064              	ADC_initVar:
 1065 0000 00       		.space	1
 1066              		.text
 1067              	.Letext0:
 1068              		.file 2 "Generated_Source\\PSoC4\\cytypes.h"
 1069              		.file 3 "Generated_Source\\PSoC4\\CyLib.h"