ARM GAS  C:\Users\JamesN4\AppData\Local\Temp\ccdVaeVJ.s 			page 1


   1              		.syntax unified
   2              		.cpu cortex-m0
   3              		.fpu softvfp
   4              		.eabi_attribute 20, 1
   5              		.eabi_attribute 21, 1
   6              		.eabi_attribute 23, 3
   7              		.eabi_attribute 24, 1
   8              		.eabi_attribute 25, 1
   9              		.eabi_attribute 26, 1
  10              		.eabi_attribute 30, 1
  11              		.eabi_attribute 34, 0
  12              		.eabi_attribute 18, 4
  13              		.thumb
  14              		.syntax unified
  15              		.file	"ADC_3_Buffer_PM.c"
  16              		.text
  17              	.Ltext0:
  18              		.cfi_sections	.debug_frame
  19              		.section	.text.ADC_3_Buffer_SaveConfig,"ax",%progbits
  20              		.align	2
  21              		.global	ADC_3_Buffer_SaveConfig
  22              		.code	16
  23              		.thumb_func
  24              		.type	ADC_3_Buffer_SaveConfig, %function
  25              	ADC_3_Buffer_SaveConfig:
  26              	.LFB0:
  27              		.file 1 "Generated_Source\\PSoC4\\ADC_3_Buffer_PM.c"
   1:Generated_Source\PSoC4/ADC_3_Buffer_PM.c **** /*******************************************************************************
   2:Generated_Source\PSoC4/ADC_3_Buffer_PM.c **** * File Name: ADC_3_Buffer_PM.c
   3:Generated_Source\PSoC4/ADC_3_Buffer_PM.c **** * Version 1.20
   4:Generated_Source\PSoC4/ADC_3_Buffer_PM.c **** *
   5:Generated_Source\PSoC4/ADC_3_Buffer_PM.c **** * Description:
   6:Generated_Source\PSoC4/ADC_3_Buffer_PM.c **** *  This file provides the power management source code to the API for the
   7:Generated_Source\PSoC4/ADC_3_Buffer_PM.c **** *  Opamp (Analog Buffer) component.
   8:Generated_Source\PSoC4/ADC_3_Buffer_PM.c **** *
   9:Generated_Source\PSoC4/ADC_3_Buffer_PM.c **** *
  10:Generated_Source\PSoC4/ADC_3_Buffer_PM.c **** ********************************************************************************
  11:Generated_Source\PSoC4/ADC_3_Buffer_PM.c **** * Copyright 2013-2015, Cypress Semiconductor Corporation.  All rights reserved.
  12:Generated_Source\PSoC4/ADC_3_Buffer_PM.c **** * You may use this file only in accordance with the license, terms, conditions,
  13:Generated_Source\PSoC4/ADC_3_Buffer_PM.c **** * disclaimers, and limitations in the end user license agreement accompanying
  14:Generated_Source\PSoC4/ADC_3_Buffer_PM.c **** * the software package with which this file was provided.
  15:Generated_Source\PSoC4/ADC_3_Buffer_PM.c **** *******************************************************************************/
  16:Generated_Source\PSoC4/ADC_3_Buffer_PM.c **** 
  17:Generated_Source\PSoC4/ADC_3_Buffer_PM.c **** #include "ADC_3_Buffer.h"
  18:Generated_Source\PSoC4/ADC_3_Buffer_PM.c **** 
  19:Generated_Source\PSoC4/ADC_3_Buffer_PM.c **** #if(!ADC_3_Buffer_CHECK_DEEPSLEEP_SUPPORT)
  20:Generated_Source\PSoC4/ADC_3_Buffer_PM.c ****     static ADC_3_Buffer_BACKUP_STRUCT ADC_3_Buffer_backup =
  21:Generated_Source\PSoC4/ADC_3_Buffer_PM.c ****     {
  22:Generated_Source\PSoC4/ADC_3_Buffer_PM.c ****         0u, /* enableState */
  23:Generated_Source\PSoC4/ADC_3_Buffer_PM.c ****     };
  24:Generated_Source\PSoC4/ADC_3_Buffer_PM.c **** #endif /* (ADC_3_Buffer_CHECK_DEEPSLEEP_SUPPORT) */
  25:Generated_Source\PSoC4/ADC_3_Buffer_PM.c **** 
  26:Generated_Source\PSoC4/ADC_3_Buffer_PM.c **** 
  27:Generated_Source\PSoC4/ADC_3_Buffer_PM.c **** /*******************************************************************************
  28:Generated_Source\PSoC4/ADC_3_Buffer_PM.c **** * Function Name: ADC_3_Buffer_SaveConfig
  29:Generated_Source\PSoC4/ADC_3_Buffer_PM.c **** ********************************************************************************
  30:Generated_Source\PSoC4/ADC_3_Buffer_PM.c **** *
ARM GAS  C:\Users\JamesN4\AppData\Local\Temp\ccdVaeVJ.s 			page 2


  31:Generated_Source\PSoC4/ADC_3_Buffer_PM.c **** * Summary:
  32:Generated_Source\PSoC4/ADC_3_Buffer_PM.c **** *  Empty function. Included for consistency with other components.
  33:Generated_Source\PSoC4/ADC_3_Buffer_PM.c **** *
  34:Generated_Source\PSoC4/ADC_3_Buffer_PM.c **** * Parameters:
  35:Generated_Source\PSoC4/ADC_3_Buffer_PM.c **** *  None
  36:Generated_Source\PSoC4/ADC_3_Buffer_PM.c **** *
  37:Generated_Source\PSoC4/ADC_3_Buffer_PM.c **** * Return:
  38:Generated_Source\PSoC4/ADC_3_Buffer_PM.c **** *  None
  39:Generated_Source\PSoC4/ADC_3_Buffer_PM.c **** *
  40:Generated_Source\PSoC4/ADC_3_Buffer_PM.c **** *******************************************************************************/
  41:Generated_Source\PSoC4/ADC_3_Buffer_PM.c **** void ADC_3_Buffer_SaveConfig(void)
  42:Generated_Source\PSoC4/ADC_3_Buffer_PM.c **** {
  28              		.loc 1 42 0
  29              		.cfi_startproc
  30              		@ args = 0, pretend = 0, frame = 0
  31              		@ frame_needed = 0, uses_anonymous_args = 0
  32              		@ link register save eliminated.
  43:Generated_Source\PSoC4/ADC_3_Buffer_PM.c **** 
  44:Generated_Source\PSoC4/ADC_3_Buffer_PM.c **** }
  33              		.loc 1 44 0
  34              		@ sp needed
  35 0000 7047     		bx	lr
  36              		.cfi_endproc
  37              	.LFE0:
  38              		.size	ADC_3_Buffer_SaveConfig, .-ADC_3_Buffer_SaveConfig
  39 0002 C046     		.section	.text.ADC_3_Buffer_RestoreConfig,"ax",%progbits
  40              		.align	2
  41              		.global	ADC_3_Buffer_RestoreConfig
  42              		.code	16
  43              		.thumb_func
  44              		.type	ADC_3_Buffer_RestoreConfig, %function
  45              	ADC_3_Buffer_RestoreConfig:
  46              	.LFB1:
  45:Generated_Source\PSoC4/ADC_3_Buffer_PM.c **** 
  46:Generated_Source\PSoC4/ADC_3_Buffer_PM.c **** 
  47:Generated_Source\PSoC4/ADC_3_Buffer_PM.c **** /*******************************************************************************
  48:Generated_Source\PSoC4/ADC_3_Buffer_PM.c **** * Function Name: ADC_3_Buffer_RestoreConfig
  49:Generated_Source\PSoC4/ADC_3_Buffer_PM.c **** ********************************************************************************
  50:Generated_Source\PSoC4/ADC_3_Buffer_PM.c **** *
  51:Generated_Source\PSoC4/ADC_3_Buffer_PM.c **** * Summary:
  52:Generated_Source\PSoC4/ADC_3_Buffer_PM.c **** *  Empty function. Included for consistency with other components.
  53:Generated_Source\PSoC4/ADC_3_Buffer_PM.c **** *
  54:Generated_Source\PSoC4/ADC_3_Buffer_PM.c **** * Parameters:
  55:Generated_Source\PSoC4/ADC_3_Buffer_PM.c **** *  None
  56:Generated_Source\PSoC4/ADC_3_Buffer_PM.c **** *
  57:Generated_Source\PSoC4/ADC_3_Buffer_PM.c **** * Return:
  58:Generated_Source\PSoC4/ADC_3_Buffer_PM.c **** *  None
  59:Generated_Source\PSoC4/ADC_3_Buffer_PM.c **** *
  60:Generated_Source\PSoC4/ADC_3_Buffer_PM.c **** *******************************************************************************/
  61:Generated_Source\PSoC4/ADC_3_Buffer_PM.c **** void ADC_3_Buffer_RestoreConfig(void)
  62:Generated_Source\PSoC4/ADC_3_Buffer_PM.c **** {
  47              		.loc 1 62 0
  48              		.cfi_startproc
  49              		@ args = 0, pretend = 0, frame = 0
  50              		@ frame_needed = 0, uses_anonymous_args = 0
  51              		@ link register save eliminated.
  63:Generated_Source\PSoC4/ADC_3_Buffer_PM.c ****     
ARM GAS  C:\Users\JamesN4\AppData\Local\Temp\ccdVaeVJ.s 			page 3


  64:Generated_Source\PSoC4/ADC_3_Buffer_PM.c **** }
  52              		.loc 1 64 0
  53              		@ sp needed
  54 0000 7047     		bx	lr
  55              		.cfi_endproc
  56              	.LFE1:
  57              		.size	ADC_3_Buffer_RestoreConfig, .-ADC_3_Buffer_RestoreConfig
  58 0002 C046     		.section	.text.ADC_3_Buffer_Sleep,"ax",%progbits
  59              		.align	2
  60              		.global	ADC_3_Buffer_Sleep
  61              		.code	16
  62              		.thumb_func
  63              		.type	ADC_3_Buffer_Sleep, %function
  64              	ADC_3_Buffer_Sleep:
  65              	.LFB2:
  65:Generated_Source\PSoC4/ADC_3_Buffer_PM.c **** 
  66:Generated_Source\PSoC4/ADC_3_Buffer_PM.c **** 
  67:Generated_Source\PSoC4/ADC_3_Buffer_PM.c **** /*******************************************************************************
  68:Generated_Source\PSoC4/ADC_3_Buffer_PM.c **** * Function Name: ADC_3_Buffer_Sleep
  69:Generated_Source\PSoC4/ADC_3_Buffer_PM.c **** ********************************************************************************
  70:Generated_Source\PSoC4/ADC_3_Buffer_PM.c **** *
  71:Generated_Source\PSoC4/ADC_3_Buffer_PM.c **** * Summary:
  72:Generated_Source\PSoC4/ADC_3_Buffer_PM.c **** *  This is the preferred API to prepare the component for sleep. The Sleep() API 
  73:Generated_Source\PSoC4/ADC_3_Buffer_PM.c **** *  saves the current component state. Call the Sleep() function before calling the 
  74:Generated_Source\PSoC4/ADC_3_Buffer_PM.c **** *  CySysPmDeepSleep() or the CySysPmHibernate() functions. The "Deep sleep operation" 
  75:Generated_Source\PSoC4/ADC_3_Buffer_PM.c **** *  option has an influence on this function implementation.
  76:Generated_Source\PSoC4/ADC_3_Buffer_PM.c **** *
  77:Generated_Source\PSoC4/ADC_3_Buffer_PM.c **** * Parameters:
  78:Generated_Source\PSoC4/ADC_3_Buffer_PM.c **** *  None
  79:Generated_Source\PSoC4/ADC_3_Buffer_PM.c **** *
  80:Generated_Source\PSoC4/ADC_3_Buffer_PM.c **** * Return:
  81:Generated_Source\PSoC4/ADC_3_Buffer_PM.c **** *  None
  82:Generated_Source\PSoC4/ADC_3_Buffer_PM.c **** *
  83:Generated_Source\PSoC4/ADC_3_Buffer_PM.c **** * Global variables:
  84:Generated_Source\PSoC4/ADC_3_Buffer_PM.c **** *  ADC_3_Buffer_backup: The structure field 'enableState' is modified
  85:Generated_Source\PSoC4/ADC_3_Buffer_PM.c **** *  depending on the enable state of the block before entering the sleep mode.
  86:Generated_Source\PSoC4/ADC_3_Buffer_PM.c **** *
  87:Generated_Source\PSoC4/ADC_3_Buffer_PM.c **** *******************************************************************************/
  88:Generated_Source\PSoC4/ADC_3_Buffer_PM.c **** void ADC_3_Buffer_Sleep(void)
  89:Generated_Source\PSoC4/ADC_3_Buffer_PM.c **** {
  66              		.loc 1 89 0
  67              		.cfi_startproc
  68              		@ args = 0, pretend = 0, frame = 0
  69              		@ frame_needed = 0, uses_anonymous_args = 0
  70 0000 10B5     		push	{r4, lr}
  71              		.cfi_def_cfa_offset 8
  72              		.cfi_offset 4, -8
  73              		.cfi_offset 14, -4
  90:Generated_Source\PSoC4/ADC_3_Buffer_PM.c **** #if(!ADC_3_Buffer_CHECK_DEEPSLEEP_SUPPORT)
  91:Generated_Source\PSoC4/ADC_3_Buffer_PM.c ****     if(ADC_3_Buffer_CHECK_PWR_MODE_OFF)
  74              		.loc 1 91 0
  75 0002 074B     		ldr	r3, .L6
  76 0004 1B68     		ldr	r3, [r3]
  77 0006 9B07     		lsls	r3, r3, #30
  78 0008 05D0     		beq	.L4
  92:Generated_Source\PSoC4/ADC_3_Buffer_PM.c ****     {
  93:Generated_Source\PSoC4/ADC_3_Buffer_PM.c ****         ADC_3_Buffer_backup.enableState = 1u;
ARM GAS  C:\Users\JamesN4\AppData\Local\Temp\ccdVaeVJ.s 			page 4


  79              		.loc 1 93 0
  80 000a 0122     		movs	r2, #1
  81 000c 054B     		ldr	r3, .L6+4
  82 000e 1A70     		strb	r2, [r3]
  94:Generated_Source\PSoC4/ADC_3_Buffer_PM.c ****         ADC_3_Buffer_Stop();
  83              		.loc 1 94 0
  84 0010 FFF7FEFF 		bl	ADC_3_Buffer_Stop
  85              	.LVL0:
  86 0014 02E0     		b	.L3
  87              	.L4:
  95:Generated_Source\PSoC4/ADC_3_Buffer_PM.c ****     }
  96:Generated_Source\PSoC4/ADC_3_Buffer_PM.c ****     else /* The component is disabled */
  97:Generated_Source\PSoC4/ADC_3_Buffer_PM.c ****     {
  98:Generated_Source\PSoC4/ADC_3_Buffer_PM.c ****         ADC_3_Buffer_backup.enableState = 0u;
  88              		.loc 1 98 0
  89 0016 0022     		movs	r2, #0
  90 0018 024B     		ldr	r3, .L6+4
  91 001a 1A70     		strb	r2, [r3]
  92              	.L3:
  99:Generated_Source\PSoC4/ADC_3_Buffer_PM.c ****     }
 100:Generated_Source\PSoC4/ADC_3_Buffer_PM.c **** #endif /* (ADC_3_Buffer_CHECK_DEEPSLEEP_SUPPORT) */
 101:Generated_Source\PSoC4/ADC_3_Buffer_PM.c **** }
  93              		.loc 1 101 0
  94              		@ sp needed
  95 001c 10BD     		pop	{r4, pc}
  96              	.L7:
  97 001e C046     		.align	2
  98              	.L6:
  99 0020 04003040 		.word	1076887556
 100 0024 00000000 		.word	.LANCHOR0
 101              		.cfi_endproc
 102              	.LFE2:
 103              		.size	ADC_3_Buffer_Sleep, .-ADC_3_Buffer_Sleep
 104              		.section	.text.ADC_3_Buffer_Wakeup,"ax",%progbits
 105              		.align	2
 106              		.global	ADC_3_Buffer_Wakeup
 107              		.code	16
 108              		.thumb_func
 109              		.type	ADC_3_Buffer_Wakeup, %function
 110              	ADC_3_Buffer_Wakeup:
 111              	.LFB3:
 102:Generated_Source\PSoC4/ADC_3_Buffer_PM.c **** 
 103:Generated_Source\PSoC4/ADC_3_Buffer_PM.c **** 
 104:Generated_Source\PSoC4/ADC_3_Buffer_PM.c **** /*******************************************************************************
 105:Generated_Source\PSoC4/ADC_3_Buffer_PM.c **** * Function Name: ADC_3_Buffer_Wakeup
 106:Generated_Source\PSoC4/ADC_3_Buffer_PM.c **** ********************************************************************************
 107:Generated_Source\PSoC4/ADC_3_Buffer_PM.c **** *
 108:Generated_Source\PSoC4/ADC_3_Buffer_PM.c **** * Summary:
 109:Generated_Source\PSoC4/ADC_3_Buffer_PM.c **** *  This is the preferred API to restore the component to the state when Sleep() 
 110:Generated_Source\PSoC4/ADC_3_Buffer_PM.c **** *  is called. If the component has been enabled before the Sleep() function is 
 111:Generated_Source\PSoC4/ADC_3_Buffer_PM.c **** *  called, the Wakeup() function will also re-enable the component.
 112:Generated_Source\PSoC4/ADC_3_Buffer_PM.c **** *  The "Deep sleep operation" option has an influence on this function
 113:Generated_Source\PSoC4/ADC_3_Buffer_PM.c **** *  implementation.
 114:Generated_Source\PSoC4/ADC_3_Buffer_PM.c **** *
 115:Generated_Source\PSoC4/ADC_3_Buffer_PM.c **** * Parameters:
 116:Generated_Source\PSoC4/ADC_3_Buffer_PM.c **** *  None
 117:Generated_Source\PSoC4/ADC_3_Buffer_PM.c **** *
ARM GAS  C:\Users\JamesN4\AppData\Local\Temp\ccdVaeVJ.s 			page 5


 118:Generated_Source\PSoC4/ADC_3_Buffer_PM.c **** * Return:
 119:Generated_Source\PSoC4/ADC_3_Buffer_PM.c **** *  None
 120:Generated_Source\PSoC4/ADC_3_Buffer_PM.c **** *
 121:Generated_Source\PSoC4/ADC_3_Buffer_PM.c **** * Global variables:
 122:Generated_Source\PSoC4/ADC_3_Buffer_PM.c **** *  ADC_3_Buffer_backup: The structure field 'enableState' is used to
 123:Generated_Source\PSoC4/ADC_3_Buffer_PM.c **** *  restore the enable state of block after wakeup from sleep mode.
 124:Generated_Source\PSoC4/ADC_3_Buffer_PM.c **** *
 125:Generated_Source\PSoC4/ADC_3_Buffer_PM.c **** *******************************************************************************/
 126:Generated_Source\PSoC4/ADC_3_Buffer_PM.c **** void ADC_3_Buffer_Wakeup(void)
 127:Generated_Source\PSoC4/ADC_3_Buffer_PM.c **** {
 112              		.loc 1 127 0
 113              		.cfi_startproc
 114              		@ args = 0, pretend = 0, frame = 0
 115              		@ frame_needed = 0, uses_anonymous_args = 0
 116 0000 10B5     		push	{r4, lr}
 117              		.cfi_def_cfa_offset 8
 118              		.cfi_offset 4, -8
 119              		.cfi_offset 14, -4
 128:Generated_Source\PSoC4/ADC_3_Buffer_PM.c **** #if(!ADC_3_Buffer_CHECK_DEEPSLEEP_SUPPORT)
 129:Generated_Source\PSoC4/ADC_3_Buffer_PM.c ****     if(0u != ADC_3_Buffer_backup.enableState)
 120              		.loc 1 129 0
 121 0002 034B     		ldr	r3, .L10
 122 0004 1B78     		ldrb	r3, [r3]
 123 0006 002B     		cmp	r3, #0
 124 0008 01D0     		beq	.L8
 130:Generated_Source\PSoC4/ADC_3_Buffer_PM.c ****     {
 131:Generated_Source\PSoC4/ADC_3_Buffer_PM.c ****         /* Enable Opamp's operation */
 132:Generated_Source\PSoC4/ADC_3_Buffer_PM.c ****         ADC_3_Buffer_Enable();
 125              		.loc 1 132 0
 126 000a FFF7FEFF 		bl	ADC_3_Buffer_Enable
 127              	.LVL1:
 128              	.L8:
 133:Generated_Source\PSoC4/ADC_3_Buffer_PM.c ****     } /* Do nothing if Opamp was disabled before */
 134:Generated_Source\PSoC4/ADC_3_Buffer_PM.c **** #endif /* (ADC_3_Buffer_CHECK_DEEPSLEEP_SUPPORT) */
 135:Generated_Source\PSoC4/ADC_3_Buffer_PM.c **** }
 129              		.loc 1 135 0
 130              		@ sp needed
 131 000e 10BD     		pop	{r4, pc}
 132              	.L11:
 133              		.align	2
 134              	.L10:
 135 0010 00000000 		.word	.LANCHOR0
 136              		.cfi_endproc
 137              	.LFE3:
 138              		.size	ADC_3_Buffer_Wakeup, .-ADC_3_Buffer_Wakeup
 139              		.bss
 140              		.align	2
 141              		.set	.LANCHOR0,. + 0
 142              		.type	ADC_3_Buffer_backup, %object
 143              		.size	ADC_3_Buffer_backup, 1
 144              	ADC_3_Buffer_backup:
 145 0000 00       		.space	1
 146              		.text
 147              	.Letext0:
 148              		.file 2 "Generated_Source\\PSoC4\\cytypes.h"
 149              		.file 3 "Generated_Source\\PSoC4\\ADC_3_Buffer.h"