ARM GAS  C:\Users\JamesN4\AppData\Local\Temp\ccSCg5fg.s 			page 1


   1              		.syntax unified
   2              		.cpu cortex-m0
   3              		.fpu softvfp
   4              		.eabi_attribute 20, 1
   5              		.eabi_attribute 21, 1
   6              		.eabi_attribute 23, 3
   7              		.eabi_attribute 24, 1
   8              		.eabi_attribute 25, 1
   9              		.eabi_attribute 26, 1
  10              		.eabi_attribute 30, 1
  11              		.eabi_attribute 34, 0
  12              		.eabi_attribute 18, 4
  13              		.thumb
  14              		.syntax unified
  15              		.file	"ADC_EOC_Int.c"
  16              		.text
  17              	.Ltext0:
  18              		.cfi_sections	.debug_frame
  19              		.section	.text.ADC_EOC_Int_Interrupt,"ax",%progbits
  20              		.align	2
  21              		.global	ADC_EOC_Int_Interrupt
  22              		.code	16
  23              		.thumb_func
  24              		.type	ADC_EOC_Int_Interrupt, %function
  25              	ADC_EOC_Int_Interrupt:
  26              	.LFB4:
  27              		.file 1 "Generated_Source\\PSoC4\\ADC_EOC_Int.c"
   1:Generated_Source\PSoC4/ADC_EOC_Int.c **** /*******************************************************************************
   2:Generated_Source\PSoC4/ADC_EOC_Int.c **** * File Name: ADC_EOC_Int.c  
   3:Generated_Source\PSoC4/ADC_EOC_Int.c **** * Version 1.70
   4:Generated_Source\PSoC4/ADC_EOC_Int.c **** *
   5:Generated_Source\PSoC4/ADC_EOC_Int.c **** *  Description:
   6:Generated_Source\PSoC4/ADC_EOC_Int.c **** *   API for controlling the state of an interrupt.
   7:Generated_Source\PSoC4/ADC_EOC_Int.c **** *
   8:Generated_Source\PSoC4/ADC_EOC_Int.c **** *
   9:Generated_Source\PSoC4/ADC_EOC_Int.c **** *  Note:
  10:Generated_Source\PSoC4/ADC_EOC_Int.c **** *
  11:Generated_Source\PSoC4/ADC_EOC_Int.c **** ********************************************************************************
  12:Generated_Source\PSoC4/ADC_EOC_Int.c **** * Copyright 2008-2015, Cypress Semiconductor Corporation.  All rights reserved.
  13:Generated_Source\PSoC4/ADC_EOC_Int.c **** * You may use this file only in accordance with the license, terms, conditions, 
  14:Generated_Source\PSoC4/ADC_EOC_Int.c **** * disclaimers, and limitations in the end user license agreement accompanying 
  15:Generated_Source\PSoC4/ADC_EOC_Int.c **** * the software package with which this file was provided.
  16:Generated_Source\PSoC4/ADC_EOC_Int.c **** *******************************************************************************/
  17:Generated_Source\PSoC4/ADC_EOC_Int.c **** 
  18:Generated_Source\PSoC4/ADC_EOC_Int.c **** 
  19:Generated_Source\PSoC4/ADC_EOC_Int.c **** #include <cydevice_trm.h>
  20:Generated_Source\PSoC4/ADC_EOC_Int.c **** #include <CyLib.h>
  21:Generated_Source\PSoC4/ADC_EOC_Int.c **** #include <ADC_EOC_Int.h>
  22:Generated_Source\PSoC4/ADC_EOC_Int.c **** #include "cyapicallbacks.h"
  23:Generated_Source\PSoC4/ADC_EOC_Int.c **** 
  24:Generated_Source\PSoC4/ADC_EOC_Int.c **** #if !defined(ADC_EOC_Int__REMOVED) /* Check for removal by optimization */
  25:Generated_Source\PSoC4/ADC_EOC_Int.c **** 
  26:Generated_Source\PSoC4/ADC_EOC_Int.c **** /*******************************************************************************
  27:Generated_Source\PSoC4/ADC_EOC_Int.c **** *  Place your includes, defines and code here 
  28:Generated_Source\PSoC4/ADC_EOC_Int.c **** ********************************************************************************/
  29:Generated_Source\PSoC4/ADC_EOC_Int.c **** /* `#START ADC_EOC_Int_intc` */
  30:Generated_Source\PSoC4/ADC_EOC_Int.c **** 
ARM GAS  C:\Users\JamesN4\AppData\Local\Temp\ccSCg5fg.s 			page 2


  31:Generated_Source\PSoC4/ADC_EOC_Int.c **** /* `#END` */
  32:Generated_Source\PSoC4/ADC_EOC_Int.c **** 
  33:Generated_Source\PSoC4/ADC_EOC_Int.c **** extern cyisraddress CyRamVectors[CYINT_IRQ_BASE + CY_NUM_INTERRUPTS];
  34:Generated_Source\PSoC4/ADC_EOC_Int.c **** 
  35:Generated_Source\PSoC4/ADC_EOC_Int.c **** /* Declared in startup, used to set unused interrupts to. */
  36:Generated_Source\PSoC4/ADC_EOC_Int.c **** CY_ISR_PROTO(IntDefaultHandler);
  37:Generated_Source\PSoC4/ADC_EOC_Int.c **** 
  38:Generated_Source\PSoC4/ADC_EOC_Int.c **** 
  39:Generated_Source\PSoC4/ADC_EOC_Int.c **** /*******************************************************************************
  40:Generated_Source\PSoC4/ADC_EOC_Int.c **** * Function Name: ADC_EOC_Int_Start
  41:Generated_Source\PSoC4/ADC_EOC_Int.c **** ********************************************************************************
  42:Generated_Source\PSoC4/ADC_EOC_Int.c **** *
  43:Generated_Source\PSoC4/ADC_EOC_Int.c **** * Summary:
  44:Generated_Source\PSoC4/ADC_EOC_Int.c **** *  Set up the interrupt and enable it. This function disables the interrupt, 
  45:Generated_Source\PSoC4/ADC_EOC_Int.c **** *  sets the default interrupt vector, sets the priority from the value in the
  46:Generated_Source\PSoC4/ADC_EOC_Int.c **** *  Design Wide Resources Interrupt Editor, then enables the interrupt to the 
  47:Generated_Source\PSoC4/ADC_EOC_Int.c **** *  interrupt controller.
  48:Generated_Source\PSoC4/ADC_EOC_Int.c **** *
  49:Generated_Source\PSoC4/ADC_EOC_Int.c **** * Parameters:  
  50:Generated_Source\PSoC4/ADC_EOC_Int.c **** *   None
  51:Generated_Source\PSoC4/ADC_EOC_Int.c **** *
  52:Generated_Source\PSoC4/ADC_EOC_Int.c **** * Return:
  53:Generated_Source\PSoC4/ADC_EOC_Int.c **** *   None
  54:Generated_Source\PSoC4/ADC_EOC_Int.c **** *
  55:Generated_Source\PSoC4/ADC_EOC_Int.c **** *******************************************************************************/
  56:Generated_Source\PSoC4/ADC_EOC_Int.c **** void ADC_EOC_Int_Start(void)
  57:Generated_Source\PSoC4/ADC_EOC_Int.c **** {
  58:Generated_Source\PSoC4/ADC_EOC_Int.c ****     /* For all we know the interrupt is active. */
  59:Generated_Source\PSoC4/ADC_EOC_Int.c ****     ADC_EOC_Int_Disable();
  60:Generated_Source\PSoC4/ADC_EOC_Int.c **** 
  61:Generated_Source\PSoC4/ADC_EOC_Int.c ****     /* Set the ISR to point to the ADC_EOC_Int Interrupt. */
  62:Generated_Source\PSoC4/ADC_EOC_Int.c ****     ADC_EOC_Int_SetVector(&ADC_EOC_Int_Interrupt);
  63:Generated_Source\PSoC4/ADC_EOC_Int.c **** 
  64:Generated_Source\PSoC4/ADC_EOC_Int.c ****     /* Set the priority. */
  65:Generated_Source\PSoC4/ADC_EOC_Int.c ****     ADC_EOC_Int_SetPriority((uint8)ADC_EOC_Int_INTC_PRIOR_NUMBER);
  66:Generated_Source\PSoC4/ADC_EOC_Int.c **** 
  67:Generated_Source\PSoC4/ADC_EOC_Int.c ****     /* Enable it. */
  68:Generated_Source\PSoC4/ADC_EOC_Int.c ****     ADC_EOC_Int_Enable();
  69:Generated_Source\PSoC4/ADC_EOC_Int.c **** }
  70:Generated_Source\PSoC4/ADC_EOC_Int.c **** 
  71:Generated_Source\PSoC4/ADC_EOC_Int.c **** 
  72:Generated_Source\PSoC4/ADC_EOC_Int.c **** /*******************************************************************************
  73:Generated_Source\PSoC4/ADC_EOC_Int.c **** * Function Name: ADC_EOC_Int_StartEx
  74:Generated_Source\PSoC4/ADC_EOC_Int.c **** ********************************************************************************
  75:Generated_Source\PSoC4/ADC_EOC_Int.c **** *
  76:Generated_Source\PSoC4/ADC_EOC_Int.c **** * Summary:
  77:Generated_Source\PSoC4/ADC_EOC_Int.c **** *  Sets up the interrupt and enables it. This function disables the interrupt,
  78:Generated_Source\PSoC4/ADC_EOC_Int.c **** *  sets the interrupt vector based on the address passed in, sets the priority 
  79:Generated_Source\PSoC4/ADC_EOC_Int.c **** *  from the value in the Design Wide Resources Interrupt Editor, then enables 
  80:Generated_Source\PSoC4/ADC_EOC_Int.c **** *  the interrupt to the interrupt controller.
  81:Generated_Source\PSoC4/ADC_EOC_Int.c **** *  
  82:Generated_Source\PSoC4/ADC_EOC_Int.c **** *  When defining ISR functions, the CY_ISR and CY_ISR_PROTO macros should be 
  83:Generated_Source\PSoC4/ADC_EOC_Int.c **** *  used to provide consistent definition across compilers:
  84:Generated_Source\PSoC4/ADC_EOC_Int.c **** *  
  85:Generated_Source\PSoC4/ADC_EOC_Int.c **** *  Function definition example:
  86:Generated_Source\PSoC4/ADC_EOC_Int.c **** *   CY_ISR(MyISR)
  87:Generated_Source\PSoC4/ADC_EOC_Int.c **** *   {
ARM GAS  C:\Users\JamesN4\AppData\Local\Temp\ccSCg5fg.s 			page 3


  88:Generated_Source\PSoC4/ADC_EOC_Int.c **** *   }
  89:Generated_Source\PSoC4/ADC_EOC_Int.c **** *   Function prototype example:
  90:Generated_Source\PSoC4/ADC_EOC_Int.c **** *   CY_ISR_PROTO(MyISR);
  91:Generated_Source\PSoC4/ADC_EOC_Int.c **** *
  92:Generated_Source\PSoC4/ADC_EOC_Int.c **** * Parameters:  
  93:Generated_Source\PSoC4/ADC_EOC_Int.c **** *   address: Address of the ISR to set in the interrupt vector table.
  94:Generated_Source\PSoC4/ADC_EOC_Int.c **** *
  95:Generated_Source\PSoC4/ADC_EOC_Int.c **** * Return:
  96:Generated_Source\PSoC4/ADC_EOC_Int.c **** *   None
  97:Generated_Source\PSoC4/ADC_EOC_Int.c **** *
  98:Generated_Source\PSoC4/ADC_EOC_Int.c **** *******************************************************************************/
  99:Generated_Source\PSoC4/ADC_EOC_Int.c **** void ADC_EOC_Int_StartEx(cyisraddress address)
 100:Generated_Source\PSoC4/ADC_EOC_Int.c **** {
 101:Generated_Source\PSoC4/ADC_EOC_Int.c ****     /* For all we know the interrupt is active. */
 102:Generated_Source\PSoC4/ADC_EOC_Int.c ****     ADC_EOC_Int_Disable();
 103:Generated_Source\PSoC4/ADC_EOC_Int.c **** 
 104:Generated_Source\PSoC4/ADC_EOC_Int.c ****     /* Set the ISR to point to the ADC_EOC_Int Interrupt. */
 105:Generated_Source\PSoC4/ADC_EOC_Int.c ****     ADC_EOC_Int_SetVector(address);
 106:Generated_Source\PSoC4/ADC_EOC_Int.c **** 
 107:Generated_Source\PSoC4/ADC_EOC_Int.c ****     /* Set the priority. */
 108:Generated_Source\PSoC4/ADC_EOC_Int.c ****     ADC_EOC_Int_SetPriority((uint8)ADC_EOC_Int_INTC_PRIOR_NUMBER);
 109:Generated_Source\PSoC4/ADC_EOC_Int.c **** 
 110:Generated_Source\PSoC4/ADC_EOC_Int.c ****     /* Enable it. */
 111:Generated_Source\PSoC4/ADC_EOC_Int.c ****     ADC_EOC_Int_Enable();
 112:Generated_Source\PSoC4/ADC_EOC_Int.c **** }
 113:Generated_Source\PSoC4/ADC_EOC_Int.c **** 
 114:Generated_Source\PSoC4/ADC_EOC_Int.c **** 
 115:Generated_Source\PSoC4/ADC_EOC_Int.c **** /*******************************************************************************
 116:Generated_Source\PSoC4/ADC_EOC_Int.c **** * Function Name: ADC_EOC_Int_Stop
 117:Generated_Source\PSoC4/ADC_EOC_Int.c **** ********************************************************************************
 118:Generated_Source\PSoC4/ADC_EOC_Int.c **** *
 119:Generated_Source\PSoC4/ADC_EOC_Int.c **** * Summary:
 120:Generated_Source\PSoC4/ADC_EOC_Int.c **** *   Disables and removes the interrupt.
 121:Generated_Source\PSoC4/ADC_EOC_Int.c **** *
 122:Generated_Source\PSoC4/ADC_EOC_Int.c **** * Parameters:  
 123:Generated_Source\PSoC4/ADC_EOC_Int.c **** *   None
 124:Generated_Source\PSoC4/ADC_EOC_Int.c **** *
 125:Generated_Source\PSoC4/ADC_EOC_Int.c **** * Return:
 126:Generated_Source\PSoC4/ADC_EOC_Int.c **** *   None
 127:Generated_Source\PSoC4/ADC_EOC_Int.c **** *
 128:Generated_Source\PSoC4/ADC_EOC_Int.c **** *******************************************************************************/
 129:Generated_Source\PSoC4/ADC_EOC_Int.c **** void ADC_EOC_Int_Stop(void)
 130:Generated_Source\PSoC4/ADC_EOC_Int.c **** {
 131:Generated_Source\PSoC4/ADC_EOC_Int.c ****     /* Disable this interrupt. */
 132:Generated_Source\PSoC4/ADC_EOC_Int.c ****     ADC_EOC_Int_Disable();
 133:Generated_Source\PSoC4/ADC_EOC_Int.c **** 
 134:Generated_Source\PSoC4/ADC_EOC_Int.c ****     /* Set the ISR to point to the passive one. */
 135:Generated_Source\PSoC4/ADC_EOC_Int.c ****     ADC_EOC_Int_SetVector(&IntDefaultHandler);
 136:Generated_Source\PSoC4/ADC_EOC_Int.c **** }
 137:Generated_Source\PSoC4/ADC_EOC_Int.c **** 
 138:Generated_Source\PSoC4/ADC_EOC_Int.c **** 
 139:Generated_Source\PSoC4/ADC_EOC_Int.c **** /*******************************************************************************
 140:Generated_Source\PSoC4/ADC_EOC_Int.c **** * Function Name: ADC_EOC_Int_Interrupt
 141:Generated_Source\PSoC4/ADC_EOC_Int.c **** ********************************************************************************
 142:Generated_Source\PSoC4/ADC_EOC_Int.c **** *
 143:Generated_Source\PSoC4/ADC_EOC_Int.c **** * Summary:
 144:Generated_Source\PSoC4/ADC_EOC_Int.c **** *   The default Interrupt Service Routine for ADC_EOC_Int.
ARM GAS  C:\Users\JamesN4\AppData\Local\Temp\ccSCg5fg.s 			page 4


 145:Generated_Source\PSoC4/ADC_EOC_Int.c **** *
 146:Generated_Source\PSoC4/ADC_EOC_Int.c **** *   Add custom code between the START and END comments to keep the next version
 147:Generated_Source\PSoC4/ADC_EOC_Int.c **** *   of this file from over-writing your code.
 148:Generated_Source\PSoC4/ADC_EOC_Int.c **** *
 149:Generated_Source\PSoC4/ADC_EOC_Int.c **** *   Note You may use either the default ISR by using this API, or you may define
 150:Generated_Source\PSoC4/ADC_EOC_Int.c **** *   your own separate ISR through ISR_StartEx().
 151:Generated_Source\PSoC4/ADC_EOC_Int.c **** *
 152:Generated_Source\PSoC4/ADC_EOC_Int.c **** * Parameters:  
 153:Generated_Source\PSoC4/ADC_EOC_Int.c **** *   None
 154:Generated_Source\PSoC4/ADC_EOC_Int.c **** *
 155:Generated_Source\PSoC4/ADC_EOC_Int.c **** * Return:
 156:Generated_Source\PSoC4/ADC_EOC_Int.c **** *   None
 157:Generated_Source\PSoC4/ADC_EOC_Int.c **** *
 158:Generated_Source\PSoC4/ADC_EOC_Int.c **** *******************************************************************************/
 159:Generated_Source\PSoC4/ADC_EOC_Int.c **** CY_ISR(ADC_EOC_Int_Interrupt)
 160:Generated_Source\PSoC4/ADC_EOC_Int.c **** {
  28              		.loc 1 160 0
  29              		.cfi_startproc
  30              		@ args = 0, pretend = 0, frame = 0
  31              		@ frame_needed = 0, uses_anonymous_args = 0
  32              		@ link register save eliminated.
 161:Generated_Source\PSoC4/ADC_EOC_Int.c ****     #ifdef ADC_EOC_Int_INTERRUPT_INTERRUPT_CALLBACK
 162:Generated_Source\PSoC4/ADC_EOC_Int.c ****         ADC_EOC_Int_Interrupt_InterruptCallback();
 163:Generated_Source\PSoC4/ADC_EOC_Int.c ****     #endif /* ADC_EOC_Int_INTERRUPT_INTERRUPT_CALLBACK */ 
 164:Generated_Source\PSoC4/ADC_EOC_Int.c **** 
 165:Generated_Source\PSoC4/ADC_EOC_Int.c ****     /*  Place your Interrupt code here. */
 166:Generated_Source\PSoC4/ADC_EOC_Int.c ****     /* `#START ADC_EOC_Int_Interrupt` */
 167:Generated_Source\PSoC4/ADC_EOC_Int.c **** 
 168:Generated_Source\PSoC4/ADC_EOC_Int.c ****     /* `#END` */
 169:Generated_Source\PSoC4/ADC_EOC_Int.c **** }
  33              		.loc 1 169 0
  34              		@ sp needed
  35 0000 7047     		bx	lr
  36              		.cfi_endproc
  37              	.LFE4:
  38              		.size	ADC_EOC_Int_Interrupt, .-ADC_EOC_Int_Interrupt
  39 0002 C046     		.section	.text.ADC_EOC_Int_SetVector,"ax",%progbits
  40              		.align	2
  41              		.global	ADC_EOC_Int_SetVector
  42              		.code	16
  43              		.thumb_func
  44              		.type	ADC_EOC_Int_SetVector, %function
  45              	ADC_EOC_Int_SetVector:
  46              	.LFB5:
 170:Generated_Source\PSoC4/ADC_EOC_Int.c **** 
 171:Generated_Source\PSoC4/ADC_EOC_Int.c **** 
 172:Generated_Source\PSoC4/ADC_EOC_Int.c **** /*******************************************************************************
 173:Generated_Source\PSoC4/ADC_EOC_Int.c **** * Function Name: ADC_EOC_Int_SetVector
 174:Generated_Source\PSoC4/ADC_EOC_Int.c **** ********************************************************************************
 175:Generated_Source\PSoC4/ADC_EOC_Int.c **** *
 176:Generated_Source\PSoC4/ADC_EOC_Int.c **** * Summary:
 177:Generated_Source\PSoC4/ADC_EOC_Int.c **** *   Change the ISR vector for the Interrupt. Note calling ADC_EOC_Int_Start
 178:Generated_Source\PSoC4/ADC_EOC_Int.c **** *   will override any effect this method would have had. To set the vector 
 179:Generated_Source\PSoC4/ADC_EOC_Int.c **** *   before the component has been started use ADC_EOC_Int_StartEx instead.
 180:Generated_Source\PSoC4/ADC_EOC_Int.c **** * 
 181:Generated_Source\PSoC4/ADC_EOC_Int.c **** *   When defining ISR functions, the CY_ISR and CY_ISR_PROTO macros should be 
 182:Generated_Source\PSoC4/ADC_EOC_Int.c **** *   used to provide consistent definition across compilers:
ARM GAS  C:\Users\JamesN4\AppData\Local\Temp\ccSCg5fg.s 			page 5


 183:Generated_Source\PSoC4/ADC_EOC_Int.c **** *
 184:Generated_Source\PSoC4/ADC_EOC_Int.c **** *   Function definition example:
 185:Generated_Source\PSoC4/ADC_EOC_Int.c **** *   CY_ISR(MyISR)
 186:Generated_Source\PSoC4/ADC_EOC_Int.c **** *   {
 187:Generated_Source\PSoC4/ADC_EOC_Int.c **** *   }
 188:Generated_Source\PSoC4/ADC_EOC_Int.c **** *
 189:Generated_Source\PSoC4/ADC_EOC_Int.c **** *   Function prototype example:
 190:Generated_Source\PSoC4/ADC_EOC_Int.c **** *     CY_ISR_PROTO(MyISR);
 191:Generated_Source\PSoC4/ADC_EOC_Int.c **** *
 192:Generated_Source\PSoC4/ADC_EOC_Int.c **** * Parameters:
 193:Generated_Source\PSoC4/ADC_EOC_Int.c **** *   address: Address of the ISR to set in the interrupt vector table.
 194:Generated_Source\PSoC4/ADC_EOC_Int.c **** *
 195:Generated_Source\PSoC4/ADC_EOC_Int.c **** * Return:
 196:Generated_Source\PSoC4/ADC_EOC_Int.c **** *   None
 197:Generated_Source\PSoC4/ADC_EOC_Int.c **** *
 198:Generated_Source\PSoC4/ADC_EOC_Int.c **** *******************************************************************************/
 199:Generated_Source\PSoC4/ADC_EOC_Int.c **** void ADC_EOC_Int_SetVector(cyisraddress address)
 200:Generated_Source\PSoC4/ADC_EOC_Int.c **** {
  47              		.loc 1 200 0
  48              		.cfi_startproc
  49              		@ args = 0, pretend = 0, frame = 0
  50              		@ frame_needed = 0, uses_anonymous_args = 0
  51              		@ link register save eliminated.
  52              	.LVL0:
 201:Generated_Source\PSoC4/ADC_EOC_Int.c ****     CyRamVectors[CYINT_IRQ_BASE + ADC_EOC_Int__INTC_NUMBER] = address;
  53              		.loc 1 201 0
  54 0000 014B     		ldr	r3, .L3
  55 0002 1864     		str	r0, [r3, #64]
 202:Generated_Source\PSoC4/ADC_EOC_Int.c **** }
  56              		.loc 1 202 0
  57              		@ sp needed
  58 0004 7047     		bx	lr
  59              	.L4:
  60 0006 C046     		.align	2
  61              	.L3:
  62 0008 00000000 		.word	CyRamVectors
  63              		.cfi_endproc
  64              	.LFE5:
  65              		.size	ADC_EOC_Int_SetVector, .-ADC_EOC_Int_SetVector
  66              		.section	.text.ADC_EOC_Int_GetVector,"ax",%progbits
  67              		.align	2
  68              		.global	ADC_EOC_Int_GetVector
  69              		.code	16
  70              		.thumb_func
  71              		.type	ADC_EOC_Int_GetVector, %function
  72              	ADC_EOC_Int_GetVector:
  73              	.LFB6:
 203:Generated_Source\PSoC4/ADC_EOC_Int.c **** 
 204:Generated_Source\PSoC4/ADC_EOC_Int.c **** 
 205:Generated_Source\PSoC4/ADC_EOC_Int.c **** /*******************************************************************************
 206:Generated_Source\PSoC4/ADC_EOC_Int.c **** * Function Name: ADC_EOC_Int_GetVector
 207:Generated_Source\PSoC4/ADC_EOC_Int.c **** ********************************************************************************
 208:Generated_Source\PSoC4/ADC_EOC_Int.c **** *
 209:Generated_Source\PSoC4/ADC_EOC_Int.c **** * Summary:
 210:Generated_Source\PSoC4/ADC_EOC_Int.c **** *   Gets the "address" of the current ISR vector for the Interrupt.
 211:Generated_Source\PSoC4/ADC_EOC_Int.c **** *
 212:Generated_Source\PSoC4/ADC_EOC_Int.c **** * Parameters:
ARM GAS  C:\Users\JamesN4\AppData\Local\Temp\ccSCg5fg.s 			page 6


 213:Generated_Source\PSoC4/ADC_EOC_Int.c **** *   None
 214:Generated_Source\PSoC4/ADC_EOC_Int.c **** *
 215:Generated_Source\PSoC4/ADC_EOC_Int.c **** * Return:
 216:Generated_Source\PSoC4/ADC_EOC_Int.c **** *   Address of the ISR in the interrupt vector table.
 217:Generated_Source\PSoC4/ADC_EOC_Int.c **** *
 218:Generated_Source\PSoC4/ADC_EOC_Int.c **** *******************************************************************************/
 219:Generated_Source\PSoC4/ADC_EOC_Int.c **** cyisraddress ADC_EOC_Int_GetVector(void)
 220:Generated_Source\PSoC4/ADC_EOC_Int.c **** {
  74              		.loc 1 220 0
  75              		.cfi_startproc
  76              		@ args = 0, pretend = 0, frame = 0
  77              		@ frame_needed = 0, uses_anonymous_args = 0
  78              		@ link register save eliminated.
 221:Generated_Source\PSoC4/ADC_EOC_Int.c ****     return CyRamVectors[CYINT_IRQ_BASE + ADC_EOC_Int__INTC_NUMBER];
  79              		.loc 1 221 0
  80 0000 014B     		ldr	r3, .L6
  81 0002 186C     		ldr	r0, [r3, #64]
 222:Generated_Source\PSoC4/ADC_EOC_Int.c **** }
  82              		.loc 1 222 0
  83              		@ sp needed
  84 0004 7047     		bx	lr
  85              	.L7:
  86 0006 C046     		.align	2
  87              	.L6:
  88 0008 00000000 		.word	CyRamVectors
  89              		.cfi_endproc
  90              	.LFE6:
  91              		.size	ADC_EOC_Int_GetVector, .-ADC_EOC_Int_GetVector
  92              		.section	.text.ADC_EOC_Int_SetPriority,"ax",%progbits
  93              		.align	2
  94              		.global	ADC_EOC_Int_SetPriority
  95              		.code	16
  96              		.thumb_func
  97              		.type	ADC_EOC_Int_SetPriority, %function
  98              	ADC_EOC_Int_SetPriority:
  99              	.LFB7:
 223:Generated_Source\PSoC4/ADC_EOC_Int.c **** 
 224:Generated_Source\PSoC4/ADC_EOC_Int.c **** 
 225:Generated_Source\PSoC4/ADC_EOC_Int.c **** /*******************************************************************************
 226:Generated_Source\PSoC4/ADC_EOC_Int.c **** * Function Name: ADC_EOC_Int_SetPriority
 227:Generated_Source\PSoC4/ADC_EOC_Int.c **** ********************************************************************************
 228:Generated_Source\PSoC4/ADC_EOC_Int.c **** *
 229:Generated_Source\PSoC4/ADC_EOC_Int.c **** * Summary:
 230:Generated_Source\PSoC4/ADC_EOC_Int.c **** *   Sets the Priority of the Interrupt. 
 231:Generated_Source\PSoC4/ADC_EOC_Int.c **** *
 232:Generated_Source\PSoC4/ADC_EOC_Int.c **** *   Note calling ADC_EOC_Int_Start or ADC_EOC_Int_StartEx will 
 233:Generated_Source\PSoC4/ADC_EOC_Int.c **** *   override any effect this API would have had. This API should only be called
 234:Generated_Source\PSoC4/ADC_EOC_Int.c **** *   after ADC_EOC_Int_Start or ADC_EOC_Int_StartEx has been called. 
 235:Generated_Source\PSoC4/ADC_EOC_Int.c **** *   To set the initial priority for the component, use the Design-Wide Resources
 236:Generated_Source\PSoC4/ADC_EOC_Int.c **** *   Interrupt Editor.
 237:Generated_Source\PSoC4/ADC_EOC_Int.c **** *
 238:Generated_Source\PSoC4/ADC_EOC_Int.c **** *   Note This API has no effect on Non-maskable interrupt NMI).
 239:Generated_Source\PSoC4/ADC_EOC_Int.c **** *
 240:Generated_Source\PSoC4/ADC_EOC_Int.c **** * Parameters:
 241:Generated_Source\PSoC4/ADC_EOC_Int.c **** *   priority: Priority of the interrupt, 0 being the highest priority
 242:Generated_Source\PSoC4/ADC_EOC_Int.c **** *             PSoC 3 and PSoC 5LP: Priority is from 0 to 7.
 243:Generated_Source\PSoC4/ADC_EOC_Int.c **** *             PSoC 4: Priority is from 0 to 3.
ARM GAS  C:\Users\JamesN4\AppData\Local\Temp\ccSCg5fg.s 			page 7


 244:Generated_Source\PSoC4/ADC_EOC_Int.c **** *
 245:Generated_Source\PSoC4/ADC_EOC_Int.c **** * Return:
 246:Generated_Source\PSoC4/ADC_EOC_Int.c **** *   None
 247:Generated_Source\PSoC4/ADC_EOC_Int.c **** *
 248:Generated_Source\PSoC4/ADC_EOC_Int.c **** *******************************************************************************/
 249:Generated_Source\PSoC4/ADC_EOC_Int.c **** void ADC_EOC_Int_SetPriority(uint8 priority)
 250:Generated_Source\PSoC4/ADC_EOC_Int.c **** {
 100              		.loc 1 250 0
 101              		.cfi_startproc
 102              		@ args = 0, pretend = 0, frame = 0
 103              		@ frame_needed = 0, uses_anonymous_args = 0
 104              	.LVL1:
 105 0000 10B5     		push	{r4, lr}
 106              		.cfi_def_cfa_offset 8
 107              		.cfi_offset 4, -8
 108              		.cfi_offset 14, -4
 109 0002 0400     		movs	r4, r0
 110              	.LVL2:
 251:Generated_Source\PSoC4/ADC_EOC_Int.c **** 	uint8 interruptState;
 252:Generated_Source\PSoC4/ADC_EOC_Int.c ****     uint32 priorityOffset = ((ADC_EOC_Int__INTC_NUMBER % 4u) * 8u) + 6u;
 253:Generated_Source\PSoC4/ADC_EOC_Int.c ****     
 254:Generated_Source\PSoC4/ADC_EOC_Int.c **** 	interruptState = CyEnterCriticalSection();
 111              		.loc 1 254 0
 112 0004 FFF7FEFF 		bl	CyEnterCriticalSection
 113              	.LVL3:
 255:Generated_Source\PSoC4/ADC_EOC_Int.c ****     *ADC_EOC_Int_INTC_PRIOR = (*ADC_EOC_Int_INTC_PRIOR & (uint32)(~ADC_EOC_Int__INTC_PRIOR_MASK)) |
 114              		.loc 1 255 0
 115 0008 044A     		ldr	r2, .L9
 116 000a 1368     		ldr	r3, [r2]
 117 000c C021     		movs	r1, #192
 118 000e 8B43     		bics	r3, r1
 256:Generated_Source\PSoC4/ADC_EOC_Int.c ****                                     ((uint32)priority << priorityOffset);
 119              		.loc 1 256 0
 120 0010 A401     		lsls	r4, r4, #6
 255:Generated_Source\PSoC4/ADC_EOC_Int.c ****     *ADC_EOC_Int_INTC_PRIOR = (*ADC_EOC_Int_INTC_PRIOR & (uint32)(~ADC_EOC_Int__INTC_PRIOR_MASK)) |
 121              		.loc 1 255 0
 122 0012 1C43     		orrs	r4, r3
 123 0014 1460     		str	r4, [r2]
 257:Generated_Source\PSoC4/ADC_EOC_Int.c **** 	CyExitCriticalSection(interruptState);
 124              		.loc 1 257 0
 125 0016 FFF7FEFF 		bl	CyExitCriticalSection
 126              	.LVL4:
 258:Generated_Source\PSoC4/ADC_EOC_Int.c **** }
 127              		.loc 1 258 0
 128              		@ sp needed
 129 001a 10BD     		pop	{r4, pc}
 130              	.L10:
 131              		.align	2
 132              	.L9:
 133 001c 00E400E0 		.word	-536812544
 134              		.cfi_endproc
 135              	.LFE7:
 136              		.size	ADC_EOC_Int_SetPriority, .-ADC_EOC_Int_SetPriority
 137              		.section	.text.ADC_EOC_Int_GetPriority,"ax",%progbits
 138              		.align	2
 139              		.global	ADC_EOC_Int_GetPriority
 140              		.code	16
ARM GAS  C:\Users\JamesN4\AppData\Local\Temp\ccSCg5fg.s 			page 8


 141              		.thumb_func
 142              		.type	ADC_EOC_Int_GetPriority, %function
 143              	ADC_EOC_Int_GetPriority:
 144              	.LFB8:
 259:Generated_Source\PSoC4/ADC_EOC_Int.c **** 
 260:Generated_Source\PSoC4/ADC_EOC_Int.c **** 
 261:Generated_Source\PSoC4/ADC_EOC_Int.c **** /*******************************************************************************
 262:Generated_Source\PSoC4/ADC_EOC_Int.c **** * Function Name: ADC_EOC_Int_GetPriority
 263:Generated_Source\PSoC4/ADC_EOC_Int.c **** ********************************************************************************
 264:Generated_Source\PSoC4/ADC_EOC_Int.c **** *
 265:Generated_Source\PSoC4/ADC_EOC_Int.c **** * Summary:
 266:Generated_Source\PSoC4/ADC_EOC_Int.c **** *   Gets the Priority of the Interrupt.
 267:Generated_Source\PSoC4/ADC_EOC_Int.c **** *
 268:Generated_Source\PSoC4/ADC_EOC_Int.c **** * Parameters:
 269:Generated_Source\PSoC4/ADC_EOC_Int.c **** *   None
 270:Generated_Source\PSoC4/ADC_EOC_Int.c **** *
 271:Generated_Source\PSoC4/ADC_EOC_Int.c **** * Return:
 272:Generated_Source\PSoC4/ADC_EOC_Int.c **** *   Priority of the interrupt, 0 being the highest priority
 273:Generated_Source\PSoC4/ADC_EOC_Int.c **** *    PSoC 3 and PSoC 5LP: Priority is from 0 to 7.
 274:Generated_Source\PSoC4/ADC_EOC_Int.c **** *    PSoC 4: Priority is from 0 to 3.
 275:Generated_Source\PSoC4/ADC_EOC_Int.c **** *
 276:Generated_Source\PSoC4/ADC_EOC_Int.c **** *******************************************************************************/
 277:Generated_Source\PSoC4/ADC_EOC_Int.c **** uint8 ADC_EOC_Int_GetPriority(void)
 278:Generated_Source\PSoC4/ADC_EOC_Int.c **** {
 145              		.loc 1 278 0
 146              		.cfi_startproc
 147              		@ args = 0, pretend = 0, frame = 0
 148              		@ frame_needed = 0, uses_anonymous_args = 0
 149              		@ link register save eliminated.
 150              	.LVL5:
 279:Generated_Source\PSoC4/ADC_EOC_Int.c ****     uint32 priority;
 280:Generated_Source\PSoC4/ADC_EOC_Int.c **** 	uint32 priorityOffset = ((ADC_EOC_Int__INTC_NUMBER % 4u) * 8u) + 6u;
 281:Generated_Source\PSoC4/ADC_EOC_Int.c **** 
 282:Generated_Source\PSoC4/ADC_EOC_Int.c ****     priority = (*ADC_EOC_Int_INTC_PRIOR & ADC_EOC_Int__INTC_PRIOR_MASK) >> priorityOffset;
 151              		.loc 1 282 0
 152 0000 024B     		ldr	r3, .L12
 153 0002 1868     		ldr	r0, [r3]
 154 0004 8009     		lsrs	r0, r0, #6
 155              	.LVL6:
 283:Generated_Source\PSoC4/ADC_EOC_Int.c **** 
 284:Generated_Source\PSoC4/ADC_EOC_Int.c ****     return (uint8)priority;
 156              		.loc 1 284 0
 157 0006 0323     		movs	r3, #3
 158 0008 1840     		ands	r0, r3
 159              	.LVL7:
 285:Generated_Source\PSoC4/ADC_EOC_Int.c **** }
 160              		.loc 1 285 0
 161              		@ sp needed
 162 000a 7047     		bx	lr
 163              	.L13:
 164              		.align	2
 165              	.L12:
 166 000c 00E400E0 		.word	-536812544
 167              		.cfi_endproc
 168              	.LFE8:
 169              		.size	ADC_EOC_Int_GetPriority, .-ADC_EOC_Int_GetPriority
 170              		.section	.text.ADC_EOC_Int_Enable,"ax",%progbits
ARM GAS  C:\Users\JamesN4\AppData\Local\Temp\ccSCg5fg.s 			page 9


 171              		.align	2
 172              		.global	ADC_EOC_Int_Enable
 173              		.code	16
 174              		.thumb_func
 175              		.type	ADC_EOC_Int_Enable, %function
 176              	ADC_EOC_Int_Enable:
 177              	.LFB9:
 286:Generated_Source\PSoC4/ADC_EOC_Int.c **** 
 287:Generated_Source\PSoC4/ADC_EOC_Int.c **** 
 288:Generated_Source\PSoC4/ADC_EOC_Int.c **** /*******************************************************************************
 289:Generated_Source\PSoC4/ADC_EOC_Int.c **** * Function Name: ADC_EOC_Int_Enable
 290:Generated_Source\PSoC4/ADC_EOC_Int.c **** ********************************************************************************
 291:Generated_Source\PSoC4/ADC_EOC_Int.c **** *
 292:Generated_Source\PSoC4/ADC_EOC_Int.c **** * Summary:
 293:Generated_Source\PSoC4/ADC_EOC_Int.c **** *   Enables the interrupt to the interrupt controller. Do not call this function
 294:Generated_Source\PSoC4/ADC_EOC_Int.c **** *   unless ISR_Start() has been called or the functionality of the ISR_Start() 
 295:Generated_Source\PSoC4/ADC_EOC_Int.c **** *   function, which sets the vector and the priority, has been called.
 296:Generated_Source\PSoC4/ADC_EOC_Int.c **** *
 297:Generated_Source\PSoC4/ADC_EOC_Int.c **** * Parameters:
 298:Generated_Source\PSoC4/ADC_EOC_Int.c **** *   None
 299:Generated_Source\PSoC4/ADC_EOC_Int.c **** *
 300:Generated_Source\PSoC4/ADC_EOC_Int.c **** * Return:
 301:Generated_Source\PSoC4/ADC_EOC_Int.c **** *   None
 302:Generated_Source\PSoC4/ADC_EOC_Int.c **** *
 303:Generated_Source\PSoC4/ADC_EOC_Int.c **** *******************************************************************************/
 304:Generated_Source\PSoC4/ADC_EOC_Int.c **** void ADC_EOC_Int_Enable(void)
 305:Generated_Source\PSoC4/ADC_EOC_Int.c **** {
 178              		.loc 1 305 0
 179              		.cfi_startproc
 180              		@ args = 0, pretend = 0, frame = 0
 181              		@ frame_needed = 0, uses_anonymous_args = 0
 182              		@ link register save eliminated.
 306:Generated_Source\PSoC4/ADC_EOC_Int.c ****     /* Enable the general interrupt. */
 307:Generated_Source\PSoC4/ADC_EOC_Int.c ****     *ADC_EOC_Int_INTC_SET_EN = ADC_EOC_Int__INTC_MASK;
 183              		.loc 1 307 0
 184 0000 0122     		movs	r2, #1
 185 0002 014B     		ldr	r3, .L15
 186 0004 1A60     		str	r2, [r3]
 308:Generated_Source\PSoC4/ADC_EOC_Int.c **** }
 187              		.loc 1 308 0
 188              		@ sp needed
 189 0006 7047     		bx	lr
 190              	.L16:
 191              		.align	2
 192              	.L15:
 193 0008 00E100E0 		.word	-536813312
 194              		.cfi_endproc
 195              	.LFE9:
 196              		.size	ADC_EOC_Int_Enable, .-ADC_EOC_Int_Enable
 197              		.section	.text.ADC_EOC_Int_GetState,"ax",%progbits
 198              		.align	2
 199              		.global	ADC_EOC_Int_GetState
 200              		.code	16
 201              		.thumb_func
 202              		.type	ADC_EOC_Int_GetState, %function
 203              	ADC_EOC_Int_GetState:
 204              	.LFB10:
ARM GAS  C:\Users\JamesN4\AppData\Local\Temp\ccSCg5fg.s 			page 10


 309:Generated_Source\PSoC4/ADC_EOC_Int.c **** 
 310:Generated_Source\PSoC4/ADC_EOC_Int.c **** 
 311:Generated_Source\PSoC4/ADC_EOC_Int.c **** /*******************************************************************************
 312:Generated_Source\PSoC4/ADC_EOC_Int.c **** * Function Name: ADC_EOC_Int_GetState
 313:Generated_Source\PSoC4/ADC_EOC_Int.c **** ********************************************************************************
 314:Generated_Source\PSoC4/ADC_EOC_Int.c **** *
 315:Generated_Source\PSoC4/ADC_EOC_Int.c **** * Summary:
 316:Generated_Source\PSoC4/ADC_EOC_Int.c **** *   Gets the state (enabled, disabled) of the Interrupt.
 317:Generated_Source\PSoC4/ADC_EOC_Int.c **** *
 318:Generated_Source\PSoC4/ADC_EOC_Int.c **** * Parameters:
 319:Generated_Source\PSoC4/ADC_EOC_Int.c **** *   None
 320:Generated_Source\PSoC4/ADC_EOC_Int.c **** *
 321:Generated_Source\PSoC4/ADC_EOC_Int.c **** * Return:
 322:Generated_Source\PSoC4/ADC_EOC_Int.c **** *   1 if enabled, 0 if disabled.
 323:Generated_Source\PSoC4/ADC_EOC_Int.c **** *
 324:Generated_Source\PSoC4/ADC_EOC_Int.c **** *******************************************************************************/
 325:Generated_Source\PSoC4/ADC_EOC_Int.c **** uint8 ADC_EOC_Int_GetState(void)
 326:Generated_Source\PSoC4/ADC_EOC_Int.c **** {
 205              		.loc 1 326 0
 206              		.cfi_startproc
 207              		@ args = 0, pretend = 0, frame = 0
 208              		@ frame_needed = 0, uses_anonymous_args = 0
 209              		@ link register save eliminated.
 327:Generated_Source\PSoC4/ADC_EOC_Int.c ****     /* Get the state of the general interrupt. */
 328:Generated_Source\PSoC4/ADC_EOC_Int.c ****     return ((*ADC_EOC_Int_INTC_SET_EN & (uint32)ADC_EOC_Int__INTC_MASK) != 0u) ? 1u:0u;
 210              		.loc 1 328 0
 211 0000 024B     		ldr	r3, .L18
 212 0002 1B68     		ldr	r3, [r3]
 213 0004 0120     		movs	r0, #1
 214 0006 1840     		ands	r0, r3
 329:Generated_Source\PSoC4/ADC_EOC_Int.c **** }
 215              		.loc 1 329 0
 216              		@ sp needed
 217 0008 7047     		bx	lr
 218              	.L19:
 219 000a C046     		.align	2
 220              	.L18:
 221 000c 00E100E0 		.word	-536813312
 222              		.cfi_endproc
 223              	.LFE10:
 224              		.size	ADC_EOC_Int_GetState, .-ADC_EOC_Int_GetState
 225              		.section	.text.ADC_EOC_Int_Disable,"ax",%progbits
 226              		.align	2
 227              		.global	ADC_EOC_Int_Disable
 228              		.code	16
 229              		.thumb_func
 230              		.type	ADC_EOC_Int_Disable, %function
 231              	ADC_EOC_Int_Disable:
 232              	.LFB11:
 330:Generated_Source\PSoC4/ADC_EOC_Int.c **** 
 331:Generated_Source\PSoC4/ADC_EOC_Int.c **** 
 332:Generated_Source\PSoC4/ADC_EOC_Int.c **** /*******************************************************************************
 333:Generated_Source\PSoC4/ADC_EOC_Int.c **** * Function Name: ADC_EOC_Int_Disable
 334:Generated_Source\PSoC4/ADC_EOC_Int.c **** ********************************************************************************
 335:Generated_Source\PSoC4/ADC_EOC_Int.c **** *
 336:Generated_Source\PSoC4/ADC_EOC_Int.c **** * Summary:
 337:Generated_Source\PSoC4/ADC_EOC_Int.c **** *   Disables the Interrupt in the interrupt controller.
ARM GAS  C:\Users\JamesN4\AppData\Local\Temp\ccSCg5fg.s 			page 11


 338:Generated_Source\PSoC4/ADC_EOC_Int.c **** *
 339:Generated_Source\PSoC4/ADC_EOC_Int.c **** * Parameters:
 340:Generated_Source\PSoC4/ADC_EOC_Int.c **** *   None
 341:Generated_Source\PSoC4/ADC_EOC_Int.c **** *
 342:Generated_Source\PSoC4/ADC_EOC_Int.c **** * Return:
 343:Generated_Source\PSoC4/ADC_EOC_Int.c **** *   None
 344:Generated_Source\PSoC4/ADC_EOC_Int.c **** *
 345:Generated_Source\PSoC4/ADC_EOC_Int.c **** *******************************************************************************/
 346:Generated_Source\PSoC4/ADC_EOC_Int.c **** void ADC_EOC_Int_Disable(void)
 347:Generated_Source\PSoC4/ADC_EOC_Int.c **** {
 233              		.loc 1 347 0
 234              		.cfi_startproc
 235              		@ args = 0, pretend = 0, frame = 0
 236              		@ frame_needed = 0, uses_anonymous_args = 0
 237              		@ link register save eliminated.
 348:Generated_Source\PSoC4/ADC_EOC_Int.c ****     /* Disable the general interrupt. */
 349:Generated_Source\PSoC4/ADC_EOC_Int.c ****     *ADC_EOC_Int_INTC_CLR_EN = ADC_EOC_Int__INTC_MASK;
 238              		.loc 1 349 0
 239 0000 0122     		movs	r2, #1
 240 0002 014B     		ldr	r3, .L21
 241 0004 1A60     		str	r2, [r3]
 350:Generated_Source\PSoC4/ADC_EOC_Int.c **** }
 242              		.loc 1 350 0
 243              		@ sp needed
 244 0006 7047     		bx	lr
 245              	.L22:
 246              		.align	2
 247              	.L21:
 248 0008 80E100E0 		.word	-536813184
 249              		.cfi_endproc
 250              	.LFE11:
 251              		.size	ADC_EOC_Int_Disable, .-ADC_EOC_Int_Disable
 252              		.section	.text.ADC_EOC_Int_Start,"ax",%progbits
 253              		.align	2
 254              		.global	ADC_EOC_Int_Start
 255              		.code	16
 256              		.thumb_func
 257              		.type	ADC_EOC_Int_Start, %function
 258              	ADC_EOC_Int_Start:
 259              	.LFB1:
  57:Generated_Source\PSoC4/ADC_EOC_Int.c ****     /* For all we know the interrupt is active. */
 260              		.loc 1 57 0
 261              		.cfi_startproc
 262              		@ args = 0, pretend = 0, frame = 0
 263              		@ frame_needed = 0, uses_anonymous_args = 0
 264 0000 10B5     		push	{r4, lr}
 265              		.cfi_def_cfa_offset 8
 266              		.cfi_offset 4, -8
 267              		.cfi_offset 14, -4
  59:Generated_Source\PSoC4/ADC_EOC_Int.c **** 
 268              		.loc 1 59 0
 269 0002 FFF7FEFF 		bl	ADC_EOC_Int_Disable
 270              	.LVL8:
  62:Generated_Source\PSoC4/ADC_EOC_Int.c **** 
 271              		.loc 1 62 0
 272 0006 0448     		ldr	r0, .L24
 273 0008 FFF7FEFF 		bl	ADC_EOC_Int_SetVector
ARM GAS  C:\Users\JamesN4\AppData\Local\Temp\ccSCg5fg.s 			page 12


 274              	.LVL9:
  65:Generated_Source\PSoC4/ADC_EOC_Int.c **** 
 275              		.loc 1 65 0
 276 000c 0320     		movs	r0, #3
 277 000e FFF7FEFF 		bl	ADC_EOC_Int_SetPriority
 278              	.LVL10:
  68:Generated_Source\PSoC4/ADC_EOC_Int.c **** }
 279              		.loc 1 68 0
 280 0012 FFF7FEFF 		bl	ADC_EOC_Int_Enable
 281              	.LVL11:
  69:Generated_Source\PSoC4/ADC_EOC_Int.c **** 
 282              		.loc 1 69 0
 283              		@ sp needed
 284 0016 10BD     		pop	{r4, pc}
 285              	.L25:
 286              		.align	2
 287              	.L24:
 288 0018 00000000 		.word	ADC_EOC_Int_Interrupt
 289              		.cfi_endproc
 290              	.LFE1:
 291              		.size	ADC_EOC_Int_Start, .-ADC_EOC_Int_Start
 292              		.section	.text.ADC_EOC_Int_StartEx,"ax",%progbits
 293              		.align	2
 294              		.global	ADC_EOC_Int_StartEx
 295              		.code	16
 296              		.thumb_func
 297              		.type	ADC_EOC_Int_StartEx, %function
 298              	ADC_EOC_Int_StartEx:
 299              	.LFB2:
 100:Generated_Source\PSoC4/ADC_EOC_Int.c ****     /* For all we know the interrupt is active. */
 300              		.loc 1 100 0
 301              		.cfi_startproc
 302              		@ args = 0, pretend = 0, frame = 0
 303              		@ frame_needed = 0, uses_anonymous_args = 0
 304              	.LVL12:
 305 0000 10B5     		push	{r4, lr}
 306              		.cfi_def_cfa_offset 8
 307              		.cfi_offset 4, -8
 308              		.cfi_offset 14, -4
 309 0002 0400     		movs	r4, r0
 102:Generated_Source\PSoC4/ADC_EOC_Int.c **** 
 310              		.loc 1 102 0
 311 0004 FFF7FEFF 		bl	ADC_EOC_Int_Disable
 312              	.LVL13:
 105:Generated_Source\PSoC4/ADC_EOC_Int.c **** 
 313              		.loc 1 105 0
 314 0008 2000     		movs	r0, r4
 315 000a FFF7FEFF 		bl	ADC_EOC_Int_SetVector
 316              	.LVL14:
 108:Generated_Source\PSoC4/ADC_EOC_Int.c **** 
 317              		.loc 1 108 0
 318 000e 0320     		movs	r0, #3
 319 0010 FFF7FEFF 		bl	ADC_EOC_Int_SetPriority
 320              	.LVL15:
 111:Generated_Source\PSoC4/ADC_EOC_Int.c **** }
 321              		.loc 1 111 0
 322 0014 FFF7FEFF 		bl	ADC_EOC_Int_Enable
ARM GAS  C:\Users\JamesN4\AppData\Local\Temp\ccSCg5fg.s 			page 13


 323              	.LVL16:
 112:Generated_Source\PSoC4/ADC_EOC_Int.c **** 
 324              		.loc 1 112 0
 325              		@ sp needed
 326              	.LVL17:
 327 0018 10BD     		pop	{r4, pc}
 328              		.cfi_endproc
 329              	.LFE2:
 330              		.size	ADC_EOC_Int_StartEx, .-ADC_EOC_Int_StartEx
 331 001a C046     		.section	.text.ADC_EOC_Int_Stop,"ax",%progbits
 332              		.align	2
 333              		.global	ADC_EOC_Int_Stop
 334              		.code	16
 335              		.thumb_func
 336              		.type	ADC_EOC_Int_Stop, %function
 337              	ADC_EOC_Int_Stop:
 338              	.LFB3:
 130:Generated_Source\PSoC4/ADC_EOC_Int.c ****     /* Disable this interrupt. */
 339              		.loc 1 130 0
 340              		.cfi_startproc
 341              		@ args = 0, pretend = 0, frame = 0
 342              		@ frame_needed = 0, uses_anonymous_args = 0
 343 0000 10B5     		push	{r4, lr}
 344              		.cfi_def_cfa_offset 8
 345              		.cfi_offset 4, -8
 346              		.cfi_offset 14, -4
 132:Generated_Source\PSoC4/ADC_EOC_Int.c **** 
 347              		.loc 1 132 0
 348 0002 FFF7FEFF 		bl	ADC_EOC_Int_Disable
 349              	.LVL18:
 135:Generated_Source\PSoC4/ADC_EOC_Int.c **** }
 350              		.loc 1 135 0
 351 0006 0248     		ldr	r0, .L28
 352 0008 FFF7FEFF 		bl	ADC_EOC_Int_SetVector
 353              	.LVL19:
 136:Generated_Source\PSoC4/ADC_EOC_Int.c **** 
 354              		.loc 1 136 0
 355              		@ sp needed
 356 000c 10BD     		pop	{r4, pc}
 357              	.L29:
 358 000e C046     		.align	2
 359              	.L28:
 360 0010 00000000 		.word	IntDefaultHandler
 361              		.cfi_endproc
 362              	.LFE3:
 363              		.size	ADC_EOC_Int_Stop, .-ADC_EOC_Int_Stop
 364              		.section	.text.ADC_EOC_Int_SetPending,"ax",%progbits
 365              		.align	2
 366              		.global	ADC_EOC_Int_SetPending
 367              		.code	16
 368              		.thumb_func
 369              		.type	ADC_EOC_Int_SetPending, %function
 370              	ADC_EOC_Int_SetPending:
 371              	.LFB12:
 351:Generated_Source\PSoC4/ADC_EOC_Int.c **** 
 352:Generated_Source\PSoC4/ADC_EOC_Int.c **** 
 353:Generated_Source\PSoC4/ADC_EOC_Int.c **** /*******************************************************************************
ARM GAS  C:\Users\JamesN4\AppData\Local\Temp\ccSCg5fg.s 			page 14


 354:Generated_Source\PSoC4/ADC_EOC_Int.c **** * Function Name: ADC_EOC_Int_SetPending
 355:Generated_Source\PSoC4/ADC_EOC_Int.c **** ********************************************************************************
 356:Generated_Source\PSoC4/ADC_EOC_Int.c **** *
 357:Generated_Source\PSoC4/ADC_EOC_Int.c **** * Summary:
 358:Generated_Source\PSoC4/ADC_EOC_Int.c **** *   Causes the Interrupt to enter the pending state, a software method of
 359:Generated_Source\PSoC4/ADC_EOC_Int.c **** *   generating the interrupt.
 360:Generated_Source\PSoC4/ADC_EOC_Int.c **** *
 361:Generated_Source\PSoC4/ADC_EOC_Int.c **** * Parameters:
 362:Generated_Source\PSoC4/ADC_EOC_Int.c **** *   None
 363:Generated_Source\PSoC4/ADC_EOC_Int.c **** *
 364:Generated_Source\PSoC4/ADC_EOC_Int.c **** * Return:
 365:Generated_Source\PSoC4/ADC_EOC_Int.c **** *   None
 366:Generated_Source\PSoC4/ADC_EOC_Int.c **** *
 367:Generated_Source\PSoC4/ADC_EOC_Int.c **** * Side Effects:
 368:Generated_Source\PSoC4/ADC_EOC_Int.c **** *   If interrupts are enabled and the interrupt is set up properly, the ISR is
 369:Generated_Source\PSoC4/ADC_EOC_Int.c **** *   entered (depending on the priority of this interrupt and other pending 
 370:Generated_Source\PSoC4/ADC_EOC_Int.c **** *   interrupts).
 371:Generated_Source\PSoC4/ADC_EOC_Int.c **** *
 372:Generated_Source\PSoC4/ADC_EOC_Int.c **** *******************************************************************************/
 373:Generated_Source\PSoC4/ADC_EOC_Int.c **** void ADC_EOC_Int_SetPending(void)
 374:Generated_Source\PSoC4/ADC_EOC_Int.c **** {
 372              		.loc 1 374 0
 373              		.cfi_startproc
 374              		@ args = 0, pretend = 0, frame = 0
 375              		@ frame_needed = 0, uses_anonymous_args = 0
 376              		@ link register save eliminated.
 375:Generated_Source\PSoC4/ADC_EOC_Int.c ****     *ADC_EOC_Int_INTC_SET_PD = ADC_EOC_Int__INTC_MASK;
 377              		.loc 1 375 0
 378 0000 0122     		movs	r2, #1
 379 0002 014B     		ldr	r3, .L31
 380 0004 1A60     		str	r2, [r3]
 376:Generated_Source\PSoC4/ADC_EOC_Int.c **** }
 381              		.loc 1 376 0
 382              		@ sp needed
 383 0006 7047     		bx	lr
 384              	.L32:
 385              		.align	2
 386              	.L31:
 387 0008 00E200E0 		.word	-536813056
 388              		.cfi_endproc
 389              	.LFE12:
 390              		.size	ADC_EOC_Int_SetPending, .-ADC_EOC_Int_SetPending
 391              		.section	.text.ADC_EOC_Int_ClearPending,"ax",%progbits
 392              		.align	2
 393              		.global	ADC_EOC_Int_ClearPending
 394              		.code	16
 395              		.thumb_func
 396              		.type	ADC_EOC_Int_ClearPending, %function
 397              	ADC_EOC_Int_ClearPending:
 398              	.LFB13:
 377:Generated_Source\PSoC4/ADC_EOC_Int.c **** 
 378:Generated_Source\PSoC4/ADC_EOC_Int.c **** 
 379:Generated_Source\PSoC4/ADC_EOC_Int.c **** /*******************************************************************************
 380:Generated_Source\PSoC4/ADC_EOC_Int.c **** * Function Name: ADC_EOC_Int_ClearPending
 381:Generated_Source\PSoC4/ADC_EOC_Int.c **** ********************************************************************************
 382:Generated_Source\PSoC4/ADC_EOC_Int.c **** *
 383:Generated_Source\PSoC4/ADC_EOC_Int.c **** * Summary:
ARM GAS  C:\Users\JamesN4\AppData\Local\Temp\ccSCg5fg.s 			page 15


 384:Generated_Source\PSoC4/ADC_EOC_Int.c **** *   Clears a pending interrupt in the interrupt controller.
 385:Generated_Source\PSoC4/ADC_EOC_Int.c **** *
 386:Generated_Source\PSoC4/ADC_EOC_Int.c **** *   Note Some interrupt sources are clear-on-read and require the block 
 387:Generated_Source\PSoC4/ADC_EOC_Int.c **** *   interrupt/status register to be read/cleared with the appropriate block API 
 388:Generated_Source\PSoC4/ADC_EOC_Int.c **** *   (GPIO, UART, and so on). Otherwise the ISR will continue to remain in 
 389:Generated_Source\PSoC4/ADC_EOC_Int.c **** *   pending state even though the interrupt itself is cleared using this API.
 390:Generated_Source\PSoC4/ADC_EOC_Int.c **** *
 391:Generated_Source\PSoC4/ADC_EOC_Int.c **** * Parameters:
 392:Generated_Source\PSoC4/ADC_EOC_Int.c **** *   None
 393:Generated_Source\PSoC4/ADC_EOC_Int.c **** *
 394:Generated_Source\PSoC4/ADC_EOC_Int.c **** * Return:
 395:Generated_Source\PSoC4/ADC_EOC_Int.c **** *   None
 396:Generated_Source\PSoC4/ADC_EOC_Int.c **** *
 397:Generated_Source\PSoC4/ADC_EOC_Int.c **** *******************************************************************************/
 398:Generated_Source\PSoC4/ADC_EOC_Int.c **** void ADC_EOC_Int_ClearPending(void)
 399:Generated_Source\PSoC4/ADC_EOC_Int.c **** {
 399              		.loc 1 399 0
 400              		.cfi_startproc
 401              		@ args = 0, pretend = 0, frame = 0
 402              		@ frame_needed = 0, uses_anonymous_args = 0
 403              		@ link register save eliminated.
 400:Generated_Source\PSoC4/ADC_EOC_Int.c ****     *ADC_EOC_Int_INTC_CLR_PD = ADC_EOC_Int__INTC_MASK;
 404              		.loc 1 400 0
 405 0000 0122     		movs	r2, #1
 406 0002 014B     		ldr	r3, .L34
 407 0004 1A60     		str	r2, [r3]
 401:Generated_Source\PSoC4/ADC_EOC_Int.c **** }
 408              		.loc 1 401 0
 409              		@ sp needed
 410 0006 7047     		bx	lr
 411              	.L35:
 412              		.align	2
 413              	.L34:
 414 0008 80E200E0 		.word	-536812928
 415              		.cfi_endproc
 416              	.LFE13:
 417              		.size	ADC_EOC_Int_ClearPending, .-ADC_EOC_Int_ClearPending
 418              		.text
 419              	.Letext0:
 420              		.file 2 "Generated_Source\\PSoC4/cytypes.h"
 421              		.file 3 "Generated_Source\\PSoC4/CyLib.h"