ARM GAS  C:\Users\JamesN4\AppData\Local\Temp\cceXLNdw.s 			page 1


   1              		.syntax unified
   2              		.cpu cortex-m0
   3              		.fpu softvfp
   4              		.eabi_attribute 20, 1
   5              		.eabi_attribute 21, 1
   6              		.eabi_attribute 23, 3
   7              		.eabi_attribute 24, 1
   8              		.eabi_attribute 25, 1
   9              		.eabi_attribute 26, 1
  10              		.eabi_attribute 30, 1
  11              		.eabi_attribute 34, 0
  12              		.eabi_attribute 18, 4
  13              		.thumb
  14              		.syntax unified
  15              		.file	"CapSense.c"
  16              		.text
  17              	.Ltext0:
  18              		.cfi_sections	.debug_frame
  19              		.section	.text.CapSense_CsdHwBlockInit,"ax",%progbits
  20              		.align	2
  21              		.global	CapSense_CsdHwBlockInit
  22              		.code	16
  23              		.thumb_func
  24              		.type	CapSense_CsdHwBlockInit, %function
  25              	CapSense_CsdHwBlockInit:
  26              	.LFB34:
  27              		.file 1 "Generated_Source\\PSoC4\\CapSense.c"
   1:Generated_Source\PSoC4/CapSense.c **** /*******************************************************************************
   2:Generated_Source\PSoC4/CapSense.c **** * File Name: CapSense.c
   3:Generated_Source\PSoC4/CapSense.c **** * Version 2.60
   4:Generated_Source\PSoC4/CapSense.c **** *
   5:Generated_Source\PSoC4/CapSense.c **** * Description:
   6:Generated_Source\PSoC4/CapSense.c **** *  This file provides the source code for scanning APIs for the CapSense CSD
   7:Generated_Source\PSoC4/CapSense.c **** *  component.
   8:Generated_Source\PSoC4/CapSense.c **** *
   9:Generated_Source\PSoC4/CapSense.c **** * Note:
  10:Generated_Source\PSoC4/CapSense.c **** *
  11:Generated_Source\PSoC4/CapSense.c **** ********************************************************************************
  12:Generated_Source\PSoC4/CapSense.c **** * Copyright 2013-2016, Cypress Semiconductor Corporation.  All rights reserved.
  13:Generated_Source\PSoC4/CapSense.c **** * You may use this file only in accordance with the license, terms, conditions,
  14:Generated_Source\PSoC4/CapSense.c **** * disclaimers, and limitations in the end user license agreement accompanying
  15:Generated_Source\PSoC4/CapSense.c **** * the software package with which this file was provided.
  16:Generated_Source\PSoC4/CapSense.c **** *******************************************************************************/
  17:Generated_Source\PSoC4/CapSense.c **** 
  18:Generated_Source\PSoC4/CapSense.c **** #include "CapSense.h"
  19:Generated_Source\PSoC4/CapSense.c **** #include "CapSense_PVT.h"
  20:Generated_Source\PSoC4/CapSense.c **** #include "cypins.h"
  21:Generated_Source\PSoC4/CapSense.c **** #include "cyapicallbacks.h"
  22:Generated_Source\PSoC4/CapSense.c **** 
  23:Generated_Source\PSoC4/CapSense.c **** #if(0u != CapSense_CSHL_API_GENERATE)
  24:Generated_Source\PSoC4/CapSense.c ****     #include "CapSense_CSHL.h"
  25:Generated_Source\PSoC4/CapSense.c **** #endif /* (0u != CapSense_CSHL_API_GENERATE) */
  26:Generated_Source\PSoC4/CapSense.c **** 
  27:Generated_Source\PSoC4/CapSense.c **** /* This definition is intended to prevent unexpected linker error.
  28:Generated_Source\PSoC4/CapSense.c ****    For more details please see the IAR Technical Note 49981 */
  29:Generated_Source\PSoC4/CapSense.c **** #if defined(__ICCARM__)
  30:Generated_Source\PSoC4/CapSense.c ****     extern void CapSense_EnableSensor(uint32 sensor);
ARM GAS  C:\Users\JamesN4\AppData\Local\Temp\cceXLNdw.s 			page 2


  31:Generated_Source\PSoC4/CapSense.c ****     extern void CapSense_DisableSensor(uint32 sensor);
  32:Generated_Source\PSoC4/CapSense.c **** #endif /* (__ICCARM__) */
  33:Generated_Source\PSoC4/CapSense.c **** 
  34:Generated_Source\PSoC4/CapSense.c **** /* SmartSense functions */
  35:Generated_Source\PSoC4/CapSense.c **** #if (CapSense_TUNING_METHOD == CapSense__TUNING_AUTO)
  36:Generated_Source\PSoC4/CapSense.c ****     uint8 CapSense_lowLevelTuningDone = 0u;
  37:Generated_Source\PSoC4/CapSense.c ****     uint8 CapSense_scanSpeedTbl[((CapSense_TOTAL_SENSOR_COUNT - 1u) / 8u) + 1u];
  38:Generated_Source\PSoC4/CapSense.c **** #endif /* (CapSense_TUNING_METHOD == CapSense__TUNING_AUTO) */
  39:Generated_Source\PSoC4/CapSense.c **** 
  40:Generated_Source\PSoC4/CapSense.c **** #if(CapSense_PRS_OPTIONS != CapSense__PRS_NONE)
  41:Generated_Source\PSoC4/CapSense.c ****     uint8 CapSense_prescalersTuningDone = 0u;
  42:Generated_Source\PSoC4/CapSense.c **** #endif /* (CapSense_PRS_OPTIONS == CapSense__PRS_NONE) */
  43:Generated_Source\PSoC4/CapSense.c **** 
  44:Generated_Source\PSoC4/CapSense.c **** /* Global software variables */
  45:Generated_Source\PSoC4/CapSense.c **** volatile uint8 CapSense_csdStatusVar = 0u;   /* CapSense CSD status, variable */
  46:Generated_Source\PSoC4/CapSense.c **** volatile uint8 CapSense_sensorIndex = 0u;    /* Index of scannig sensor */
  47:Generated_Source\PSoC4/CapSense.c **** 
  48:Generated_Source\PSoC4/CapSense.c **** /* Global array of Raw Counts */
  49:Generated_Source\PSoC4/CapSense.c **** uint16 CapSense_sensorRaw[CapSense_TOTAL_SENSOR_COUNT] = {0u};
  50:Generated_Source\PSoC4/CapSense.c **** 
  51:Generated_Source\PSoC4/CapSense.c **** /* Backup variables for trim registers*/
  52:Generated_Source\PSoC4/CapSense.c **** #if (CapSense_IDAC1_POLARITY == CapSense__IDAC_SINK)
  53:Generated_Source\PSoC4/CapSense.c ****     uint8 CapSense_csdTrim2;
  54:Generated_Source\PSoC4/CapSense.c **** #else
  55:Generated_Source\PSoC4/CapSense.c ****     uint8 CapSense_csdTrim1;
  56:Generated_Source\PSoC4/CapSense.c **** #endif /* (CapSense_IDAC1_POLARITY == CapSense__IDAC_SINK) */
  57:Generated_Source\PSoC4/CapSense.c **** 
  58:Generated_Source\PSoC4/CapSense.c **** /* Global array of un-scanned sensors state */
  59:Generated_Source\PSoC4/CapSense.c **** uint8 CapSense_unscannedSnsDriveMode[CapSense_PORT_PIN_CONFIG_TBL_ZISE];
  60:Generated_Source\PSoC4/CapSense.c **** 
  61:Generated_Source\PSoC4/CapSense.c **** /* Backup array for CapSense_sensorEnableMask */
  62:Generated_Source\PSoC4/CapSense.c **** uint8 CapSense_sensorEnableMaskBackup[(((CapSense_TOTAL_SENSOR_COUNT - 1u) / 8u) + 1u)];
  63:Generated_Source\PSoC4/CapSense.c **** 
  64:Generated_Source\PSoC4/CapSense.c **** /* Configured constants and arrays by Customizer */
  65:Generated_Source\PSoC4/CapSense.c **** uint8 CapSense_sensorEnableMask[(((CapSense_TOTAL_SENSOR_COUNT - 1u) / 8u) + 1u)] = {
  66:Generated_Source\PSoC4/CapSense.c **** 0x3u, };
  67:Generated_Source\PSoC4/CapSense.c **** 
  68:Generated_Source\PSoC4/CapSense.c **** reg32 * CapSense_pcTable[] = {
  69:Generated_Source\PSoC4/CapSense.c ****     (reg32 *)CapSense_Sns__Button0__BTN__PC, 
  70:Generated_Source\PSoC4/CapSense.c ****     (reg32 *)CapSense_Sns__Button1__BTN__PC, 
  71:Generated_Source\PSoC4/CapSense.c **** };
  72:Generated_Source\PSoC4/CapSense.c **** 
  73:Generated_Source\PSoC4/CapSense.c **** const uint8 CapSense_portTable[] = {
  74:Generated_Source\PSoC4/CapSense.c ****     CapSense_Sns__Button0__BTN__PORT, 
  75:Generated_Source\PSoC4/CapSense.c ****     CapSense_Sns__Button1__BTN__PORT, 
  76:Generated_Source\PSoC4/CapSense.c **** };
  77:Generated_Source\PSoC4/CapSense.c **** 
  78:Generated_Source\PSoC4/CapSense.c **** const uint32 CapSense_maskTable[] = {
  79:Generated_Source\PSoC4/CapSense.c ****     CapSense_Sns__Button0__BTN__MASK, 
  80:Generated_Source\PSoC4/CapSense.c ****     CapSense_Sns__Button1__BTN__MASK, 
  81:Generated_Source\PSoC4/CapSense.c **** };
  82:Generated_Source\PSoC4/CapSense.c **** 
  83:Generated_Source\PSoC4/CapSense.c **** const uint8 CapSense_pinShiftTbl[] = {
  84:Generated_Source\PSoC4/CapSense.c ****     (uint8) CapSense_Sns__Button0__BTN__SHIFT, 
  85:Generated_Source\PSoC4/CapSense.c ****     (uint8) CapSense_Sns__Button1__BTN__SHIFT, 
  86:Generated_Source\PSoC4/CapSense.c **** };
  87:Generated_Source\PSoC4/CapSense.c **** 
ARM GAS  C:\Users\JamesN4\AppData\Local\Temp\cceXLNdw.s 			page 3


  88:Generated_Source\PSoC4/CapSense.c **** uint8 CapSense_modulationIDAC[CapSense_TOTAL_SENSOR_COUNT];
  89:Generated_Source\PSoC4/CapSense.c **** uint8 CapSense_compensationIDAC[CapSense_TOTAL_SENSOR_COUNT];
  90:Generated_Source\PSoC4/CapSense.c **** 
  91:Generated_Source\PSoC4/CapSense.c **** uint32 CapSense_widgetResolution[CapSense_RESOLUTIONS_TBL_SIZE] = {
  92:Generated_Source\PSoC4/CapSense.c ****     CapSense_RESOLUTION_12_BITS,
  93:Generated_Source\PSoC4/CapSense.c ****     CapSense_RESOLUTION_12_BITS,
  94:Generated_Source\PSoC4/CapSense.c **** };
  95:Generated_Source\PSoC4/CapSense.c **** 
  96:Generated_Source\PSoC4/CapSense.c **** uint8 CapSense_senseClkDividerVal[CapSense_TOTAL_SCANSLOT_COUNT];
  97:Generated_Source\PSoC4/CapSense.c **** uint8 CapSense_sampleClkDividerVal[CapSense_TOTAL_SCANSLOT_COUNT];
  98:Generated_Source\PSoC4/CapSense.c **** 
  99:Generated_Source\PSoC4/CapSense.c **** const uint8 CapSense_widgetNumber[CapSense_TOTAL_SENSOR_COUNT] = {
 100:Generated_Source\PSoC4/CapSense.c ****     0u, /* Button0__BTN */
 101:Generated_Source\PSoC4/CapSense.c ****     1u, /* Button1__BTN */
 102:Generated_Source\PSoC4/CapSense.c **** };
 103:Generated_Source\PSoC4/CapSense.c **** 
 104:Generated_Source\PSoC4/CapSense.c **** reg32* const CapSense_prtSelTbl[CapSense_CFG_REG_TBL_SIZE] = {
 105:Generated_Source\PSoC4/CapSense.c ****     ((reg32 *) CYREG_HSIOM_PORT_SEL0),
 106:Generated_Source\PSoC4/CapSense.c ****     ((reg32 *) CYREG_HSIOM_PORT_SEL1),
 107:Generated_Source\PSoC4/CapSense.c ****     ((reg32 *) CYREG_HSIOM_PORT_SEL2),
 108:Generated_Source\PSoC4/CapSense.c ****     ((reg32 *) CYREG_HSIOM_PORT_SEL3),
 109:Generated_Source\PSoC4/CapSense.c ****     ((reg32 *) CYREG_HSIOM_PORT_SEL4),
 110:Generated_Source\PSoC4/CapSense.c ****     ((reg32 *) CYREG_HSIOM_PORT_SEL5),
 111:Generated_Source\PSoC4/CapSense.c ****     ((reg32 *) CYREG_HSIOM_PORT_SEL6),
 112:Generated_Source\PSoC4/CapSense.c ****     ((reg32 *) CYREG_HSIOM_PORT_SEL7),
 113:Generated_Source\PSoC4/CapSense.c **** };
 114:Generated_Source\PSoC4/CapSense.c **** 
 115:Generated_Source\PSoC4/CapSense.c **** reg32* const CapSense_prtCfgTbl[CapSense_CFG_REG_TBL_SIZE] = {
 116:Generated_Source\PSoC4/CapSense.c ****     ((reg32 *) CYREG_GPIO_PRT0_PC),
 117:Generated_Source\PSoC4/CapSense.c ****     ((reg32 *) CYREG_GPIO_PRT1_PC),
 118:Generated_Source\PSoC4/CapSense.c ****     ((reg32 *) CYREG_GPIO_PRT2_PC),
 119:Generated_Source\PSoC4/CapSense.c ****     ((reg32 *) CYREG_GPIO_PRT3_PC),
 120:Generated_Source\PSoC4/CapSense.c ****     ((reg32 *) CYREG_GPIO_PRT4_PC),
 121:Generated_Source\PSoC4/CapSense.c ****     ((reg32 *) CYREG_GPIO_PRT5_PC),
 122:Generated_Source\PSoC4/CapSense.c ****     ((reg32 *) CYREG_GPIO_PRT6_PC),
 123:Generated_Source\PSoC4/CapSense.c ****     ((reg32 *) CYREG_GPIO_PRT7_PC),
 124:Generated_Source\PSoC4/CapSense.c **** };
 125:Generated_Source\PSoC4/CapSense.c **** 
 126:Generated_Source\PSoC4/CapSense.c **** reg32* const CapSense_prtDRTbl[CapSense_CFG_REG_TBL_SIZE] = {
 127:Generated_Source\PSoC4/CapSense.c ****     ((reg32 *) CYREG_GPIO_PRT0_DR),
 128:Generated_Source\PSoC4/CapSense.c ****     ((reg32 *) CYREG_GPIO_PRT1_DR),
 129:Generated_Source\PSoC4/CapSense.c ****     ((reg32 *) CYREG_GPIO_PRT2_DR),
 130:Generated_Source\PSoC4/CapSense.c ****     ((reg32 *) CYREG_GPIO_PRT3_DR),
 131:Generated_Source\PSoC4/CapSense.c ****     ((reg32 *) CYREG_GPIO_PRT4_DR),
 132:Generated_Source\PSoC4/CapSense.c ****     ((reg32 *) CYREG_GPIO_PRT5_DR),
 133:Generated_Source\PSoC4/CapSense.c ****     ((reg32 *) CYREG_GPIO_PRT6_DR),
 134:Generated_Source\PSoC4/CapSense.c ****     ((reg32 *) CYREG_GPIO_PRT7_DR),
 135:Generated_Source\PSoC4/CapSense.c **** };
 136:Generated_Source\PSoC4/CapSense.c **** 
 137:Generated_Source\PSoC4/CapSense.c **** 
 138:Generated_Source\PSoC4/CapSense.c **** 
 139:Generated_Source\PSoC4/CapSense.c **** /*******************************************************************************
 140:Generated_Source\PSoC4/CapSense.c **** * Function Name: CapSense_Init
 141:Generated_Source\PSoC4/CapSense.c **** ********************************************************************************
 142:Generated_Source\PSoC4/CapSense.c **** *
 143:Generated_Source\PSoC4/CapSense.c **** * Summary:
 144:Generated_Source\PSoC4/CapSense.c **** *  API initializes default CapSense configuration provided by the customizer that defines
ARM GAS  C:\Users\JamesN4\AppData\Local\Temp\cceXLNdw.s 			page 4


 145:Generated_Source\PSoC4/CapSense.c **** *  the mode of component operations and resets all the sensors to an inactive state.
 146:Generated_Source\PSoC4/CapSense.c **** *
 147:Generated_Source\PSoC4/CapSense.c **** * Parameters:
 148:Generated_Source\PSoC4/CapSense.c **** *  None
 149:Generated_Source\PSoC4/CapSense.c **** *
 150:Generated_Source\PSoC4/CapSense.c **** * Return:
 151:Generated_Source\PSoC4/CapSense.c **** *  None
 152:Generated_Source\PSoC4/CapSense.c **** *
 153:Generated_Source\PSoC4/CapSense.c **** * Global Variables:
 154:Generated_Source\PSoC4/CapSense.c **** *  CapSense_immunityIndex - defines immunity level.
 155:Generated_Source\PSoC4/CapSense.c **** *
 156:Generated_Source\PSoC4/CapSense.c **** * Side Effects:
 157:Generated_Source\PSoC4/CapSense.c **** *  None
 158:Generated_Source\PSoC4/CapSense.c **** *
 159:Generated_Source\PSoC4/CapSense.c **** *******************************************************************************/
 160:Generated_Source\PSoC4/CapSense.c **** void CapSense_Init(void)
 161:Generated_Source\PSoC4/CapSense.c **** {
 162:Generated_Source\PSoC4/CapSense.c ****     uint32 curSensor;
 163:Generated_Source\PSoC4/CapSense.c **** 
 164:Generated_Source\PSoC4/CapSense.c ****     #if(CapSense_IS_SHIELD_ENABLE)
 165:Generated_Source\PSoC4/CapSense.c **** 
 166:Generated_Source\PSoC4/CapSense.c ****         #if((CapSense_CSH_TANK_PREGARGE_OPTION == CapSense__CAPPRIOBUF) || (0u != CapSense_CSH_TANK
 167:Generated_Source\PSoC4/CapSense.c ****             uint32 newRegValue;
 168:Generated_Source\PSoC4/CapSense.c **** 
 169:Generated_Source\PSoC4/CapSense.c ****             newRegValue = CapSense_CTANK_CONNECTION_REG;
 170:Generated_Source\PSoC4/CapSense.c ****             newRegValue &= ~(CapSense_CSD_CTANK_CONNECTION_MASK);
 171:Generated_Source\PSoC4/CapSense.c ****             newRegValue |= CapSense_CSD_CTANK_TO_AMUXBUS_B;
 172:Generated_Source\PSoC4/CapSense.c ****             CapSense_CTANK_CONNECTION_REG = newRegValue;
 173:Generated_Source\PSoC4/CapSense.c **** 
 174:Generated_Source\PSoC4/CapSense.c ****             #if(CapSense_CSH_TANK_PREGARGE_OPTION == CapSense__CAPPRIOBUF)
 175:Generated_Source\PSoC4/CapSense.c ****                 newRegValue = CapSense_CTANK_PORT_PC_REG;
 176:Generated_Source\PSoC4/CapSense.c ****                 newRegValue &= ~(CapSense_CSD_CTANK_PC_MASK);
 177:Generated_Source\PSoC4/CapSense.c ****                 newRegValue |= CapSense_CTANK_PC_STRONG_MODE;
 178:Generated_Source\PSoC4/CapSense.c ****                 CapSense_CTANK_PORT_PC_REG = newRegValue;
 179:Generated_Source\PSoC4/CapSense.c **** 
 180:Generated_Source\PSoC4/CapSense.c ****                 newRegValue = CapSense_CTANK_PORT_DR_REG;
 181:Generated_Source\PSoC4/CapSense.c ****                 newRegValue &= ~(CapSense_CTANK_DR_MASK);
 182:Generated_Source\PSoC4/CapSense.c ****                 newRegValue |= CapSense_CTANK_DR_CONFIG;
 183:Generated_Source\PSoC4/CapSense.c ****                 CapSense_CTANK_PORT_DR_REG = newRegValue;
 184:Generated_Source\PSoC4/CapSense.c ****             #endif /* (CapSense_CSH_TANK_PREGARGE_OPTION == CapSense__CAPPRIOBUF) */
 185:Generated_Source\PSoC4/CapSense.c **** 
 186:Generated_Source\PSoC4/CapSense.c ****         #endif /* ((CapSense_CSH_TANK_PREGARGE_OPTION == CapSense__CAPPRIOBUF) || (CapSense_CSH_TAN
 187:Generated_Source\PSoC4/CapSense.c **** 
 188:Generated_Source\PSoC4/CapSense.c ****         CapSense_EnableShieldElectrode((uint32)CapSense_SHIELD_PIN_NUMBER, (uint32)CapSense_SHIELD_
 189:Generated_Source\PSoC4/CapSense.c **** 
 190:Generated_Source\PSoC4/CapSense.c ****     #endif /* (CapSense_IS_SHIELD_ENABLE) */
 191:Generated_Source\PSoC4/CapSense.c **** 
 192:Generated_Source\PSoC4/CapSense.c ****     for(curSensor = 0u; curSensor < CapSense_TOTAL_SENSOR_COUNT; curSensor++)
 193:Generated_Source\PSoC4/CapSense.c ****     {
 194:Generated_Source\PSoC4/CapSense.c ****         CapSense_SetUnscannedSensorState(curSensor, CapSense_CONNECT_INACTIVE_SNS);
 195:Generated_Source\PSoC4/CapSense.c ****     }
 196:Generated_Source\PSoC4/CapSense.c **** 
 197:Generated_Source\PSoC4/CapSense.c ****     CapSense_CsdHwBlockInit();
 198:Generated_Source\PSoC4/CapSense.c ****     CapSense_SetShieldDelay(CapSense_SHIELD_DELAY );
 199:Generated_Source\PSoC4/CapSense.c **** 
 200:Generated_Source\PSoC4/CapSense.c ****     /* Clear all sensors */
 201:Generated_Source\PSoC4/CapSense.c ****     CapSense_ClearSensors();
ARM GAS  C:\Users\JamesN4\AppData\Local\Temp\cceXLNdw.s 			page 5


 202:Generated_Source\PSoC4/CapSense.c **** }
 203:Generated_Source\PSoC4/CapSense.c **** 
 204:Generated_Source\PSoC4/CapSense.c **** /*******************************************************************************
 205:Generated_Source\PSoC4/CapSense.c **** * Function Name: CapSense_CsdHwBlockInit
 206:Generated_Source\PSoC4/CapSense.c **** ********************************************************************************
 207:Generated_Source\PSoC4/CapSense.c **** *
 208:Generated_Source\PSoC4/CapSense.c **** * Summary:
 209:Generated_Source\PSoC4/CapSense.c **** *  Initialises the hardware parameters of the CSD block
 210:Generated_Source\PSoC4/CapSense.c **** *
 211:Generated_Source\PSoC4/CapSense.c **** * Parameters:
 212:Generated_Source\PSoC4/CapSense.c **** *  None
 213:Generated_Source\PSoC4/CapSense.c **** *
 214:Generated_Source\PSoC4/CapSense.c **** * Return:
 215:Generated_Source\PSoC4/CapSense.c **** *  None
 216:Generated_Source\PSoC4/CapSense.c **** *
 217:Generated_Source\PSoC4/CapSense.c **** * Global Variables:
 218:Generated_Source\PSoC4/CapSense.c **** *  CapSense_csdTrim1 - Contains IDAC trim register value for Sourcing Mode.
 219:Generated_Source\PSoC4/CapSense.c **** *  CapSense_csdTrim2 - Contains IDAC trim register value for Sinking Mode.
 220:Generated_Source\PSoC4/CapSense.c **** *
 221:Generated_Source\PSoC4/CapSense.c **** * Side Effects:
 222:Generated_Source\PSoC4/CapSense.c **** *  None
 223:Generated_Source\PSoC4/CapSense.c **** *
 224:Generated_Source\PSoC4/CapSense.c **** *******************************************************************************/
 225:Generated_Source\PSoC4/CapSense.c **** void CapSense_CsdHwBlockInit(void)
 226:Generated_Source\PSoC4/CapSense.c **** {
  28              		.loc 1 226 0
  29              		.cfi_startproc
  30              		@ args = 0, pretend = 0, frame = 0
  31              		@ frame_needed = 0, uses_anonymous_args = 0
  32 0000 70B5     		push	{r4, r5, r6, lr}
  33              		.cfi_def_cfa_offset 16
  34              		.cfi_offset 4, -16
  35              		.cfi_offset 5, -12
  36              		.cfi_offset 6, -8
  37              		.cfi_offset 14, -4
 227:Generated_Source\PSoC4/CapSense.c ****     uint32 newRegValue;
 228:Generated_Source\PSoC4/CapSense.c **** 
 229:Generated_Source\PSoC4/CapSense.c ****         /* Set trim registers for CSD Mode */
 230:Generated_Source\PSoC4/CapSense.c ****     #if (CapSense_IDAC1_POLARITY == CapSense__IDAC_SINK)
 231:Generated_Source\PSoC4/CapSense.c ****         /* iDAC1 Sinking Mode */
 232:Generated_Source\PSoC4/CapSense.c ****         CapSense_csdTrim2 = (uint8)CapSense_CSD_TRIM2_REG;
 233:Generated_Source\PSoC4/CapSense.c ****         newRegValue = CapSense_csdTrim2;
 234:Generated_Source\PSoC4/CapSense.c ****         newRegValue &= CapSense_CSD_IDAC1_TRIM_MASK;
 235:Generated_Source\PSoC4/CapSense.c ****         newRegValue |= (uint32)((uint32)CapSense_SFLASH_CSD_TRIM2_REG & (uint32)CapSense_CSFLASH_TR
 236:Generated_Source\PSoC4/CapSense.c **** 
 237:Generated_Source\PSoC4/CapSense.c ****         #if (CapSense_IDAC_CNT == 2u)
 238:Generated_Source\PSoC4/CapSense.c ****             /* iDAC2 Sinking Mode */
 239:Generated_Source\PSoC4/CapSense.c ****             newRegValue &= CapSense_CSD_IDAC2_TRIM_MASK;
 240:Generated_Source\PSoC4/CapSense.c ****             newRegValue |= (uint32)((uint32)CapSense_SFLASH_CSD_TRIM2_REG & (uint32)CapSense_CSFLAS
 241:Generated_Source\PSoC4/CapSense.c ****         #endif /* (CapSense_IDAC_CNT == 2u) */
 242:Generated_Source\PSoC4/CapSense.c ****         CapSense_CSD_TRIM2_REG = newRegValue;
 243:Generated_Source\PSoC4/CapSense.c ****     #else
 244:Generated_Source\PSoC4/CapSense.c ****         /* iDAC1 Sourcing Mode */
 245:Generated_Source\PSoC4/CapSense.c ****         CapSense_csdTrim1 = (uint8)CapSense_CSD_TRIM1_REG;
  38              		.loc 1 245 0
  39 0002 1648     		ldr	r0, .L2
  40 0004 0368     		ldr	r3, [r0]
ARM GAS  C:\Users\JamesN4\AppData\Local\Temp\cceXLNdw.s 			page 6


  41 0006 DBB2     		uxtb	r3, r3
  42 0008 154A     		ldr	r2, .L2+4
  43 000a 1370     		strb	r3, [r2]
  44              	.LVL0:
 246:Generated_Source\PSoC4/CapSense.c ****         newRegValue = CapSense_csdTrim1;
 247:Generated_Source\PSoC4/CapSense.c ****         newRegValue &= CapSense_CSD_IDAC1_TRIM_MASK;
  45              		.loc 1 247 0
  46 000c 0F24     		movs	r4, #15
  47 000e A343     		bics	r3, r4
  48              	.LVL1:
  49 0010 1900     		movs	r1, r3
  50              	.LVL2:
 248:Generated_Source\PSoC4/CapSense.c ****         newRegValue |= (uint32)((uint32)CapSense_SFLASH_CSD_TRIM1_REG & (uint32)CapSense_CSFLASH_TR
  51              		.loc 1 248 0
  52 0012 144D     		ldr	r5, .L2+8
  53 0014 2B78     		ldrb	r3, [r5]
  54 0016 0F22     		movs	r2, #15
  55 0018 1340     		ands	r3, r2
  56 001a 0B43     		orrs	r3, r1
  57              	.LVL3:
 249:Generated_Source\PSoC4/CapSense.c ****         #if (CapSense_IDAC_CNT == 2u)
 250:Generated_Source\PSoC4/CapSense.c ****              /* iDAC2 Sourcing Mode */
 251:Generated_Source\PSoC4/CapSense.c ****             newRegValue &= CapSense_CSD_IDAC2_TRIM_MASK;
  58              		.loc 1 251 0
  59 001c E132     		adds	r2, r2, #225
  60 001e 9343     		bics	r3, r2
  61              	.LVL4:
 252:Generated_Source\PSoC4/CapSense.c ****             newRegValue |= (uint32)((uint32)CapSense_SFLASH_CSD_TRIM1_REG & (uint32)CapSense_CSFLAS
  62              		.loc 1 252 0
  63 0020 2A78     		ldrb	r2, [r5]
  64 0022 A243     		bics	r2, r4
  65 0024 1343     		orrs	r3, r2
  66              	.LVL5:
 253:Generated_Source\PSoC4/CapSense.c ****         #endif
 254:Generated_Source\PSoC4/CapSense.c ****         CapSense_CSD_TRIM1_REG = newRegValue;
  67              		.loc 1 254 0
  68 0026 0360     		str	r3, [r0]
 255:Generated_Source\PSoC4/CapSense.c ****     #endif /* (CapSense_IDAC1_POLARITY == CapSense__IDAC_SINK) */
 256:Generated_Source\PSoC4/CapSense.c **** 
 257:Generated_Source\PSoC4/CapSense.c ****     /* Configure CSD and IDAC */
 258:Generated_Source\PSoC4/CapSense.c ****     #if (CapSense_IDAC_CNT > 1u)
 259:Generated_Source\PSoC4/CapSense.c ****         CapSense_CSD_IDAC_REG = CapSense_DEFAULT_CSD_IDAC_CONFIG;
  69              		.loc 1 259 0
  70 0028 0F4A     		ldr	r2, .L2+12
  71 002a 104B     		ldr	r3, .L2+16
  72              	.LVL6:
  73 002c 1A60     		str	r2, [r3]
  74              	.LVL7:
 260:Generated_Source\PSoC4/CapSense.c ****         CapSense_CSD_CFG_REG = CapSense_DEFAULT_CSD_CONFIG;
  75              		.loc 1 260 0
  76 002e 104A     		ldr	r2, .L2+20
  77 0030 104B     		ldr	r3, .L2+24
  78 0032 1A60     		str	r2, [r3]
 261:Generated_Source\PSoC4/CapSense.c ****     #else
 262:Generated_Source\PSoC4/CapSense.c ****         CapSense_CSD_IDAC_REG &= ~(CapSense_CSD_IDAC1_MODE_MASK  | CapSense_CSD_IDAC1_DATA_MASK);
 263:Generated_Source\PSoC4/CapSense.c ****         CapSense_CSD_IDAC_REG |= CapSense_DEFAULT_CSD_IDAC_CONFIG;
 264:Generated_Source\PSoC4/CapSense.c **** 
ARM GAS  C:\Users\JamesN4\AppData\Local\Temp\cceXLNdw.s 			page 7


 265:Generated_Source\PSoC4/CapSense.c ****         CapSense_CSD_CFG_REG &= ~(CapSense_CSD_CONFIG_MASK);
 266:Generated_Source\PSoC4/CapSense.c ****         CapSense_CSD_CFG_REG |= (CapSense_DEFAULT_CSD_CONFIG);
 267:Generated_Source\PSoC4/CapSense.c ****     #endif /* (CapSense_IDAC_CNT > 1u) */
 268:Generated_Source\PSoC4/CapSense.c **** 
 269:Generated_Source\PSoC4/CapSense.c **** 
 270:Generated_Source\PSoC4/CapSense.c ****     /* Connect Cmod to AMUX bus */
 271:Generated_Source\PSoC4/CapSense.c ****     newRegValue = CapSense_CMOD_CONNECTION_REG;
  79              		.loc 1 271 0
  80 0034 104A     		ldr	r2, .L2+28
  81 0036 1168     		ldr	r1, [r2]
  82              	.LVL8:
 272:Generated_Source\PSoC4/CapSense.c ****     newRegValue &= ~(CapSense_CSD_CMOD_CONNECTION_MASK);
  83              		.loc 1 272 0
  84 0038 104B     		ldr	r3, .L2+32
  85 003a 0B40     		ands	r3, r1
  86              	.LVL9:
 273:Generated_Source\PSoC4/CapSense.c ****     newRegValue |= CapSense_CSD_CMOD_TO_AMUXBUS_A;
  87              		.loc 1 273 0
  88 003c C021     		movs	r1, #192
  89 003e C900     		lsls	r1, r1, #3
  90 0040 0B43     		orrs	r3, r1
  91              	.LVL10:
 274:Generated_Source\PSoC4/CapSense.c ****     CapSense_CMOD_CONNECTION_REG = newRegValue;
  92              		.loc 1 274 0
  93 0042 1360     		str	r3, [r2]
 275:Generated_Source\PSoC4/CapSense.c **** 
 276:Generated_Source\PSoC4/CapSense.c ****     /* Configure Dead Band PWM if it is enabled */
 277:Generated_Source\PSoC4/CapSense.c ****     #if(CapSense_CSD_4B_PWM_MODE != CapSense__PWM_OFF)
 278:Generated_Source\PSoC4/CapSense.c ****         CapSense_CSD_4B_PWM_REG = CapSense_DEFAULT_CSD_4B_PWM_CONFIG;
 279:Generated_Source\PSoC4/CapSense.c ****     #endif /* (CapSense_CSD_4B_PWM_MODE != CapSense__PWM_OFF) */
 280:Generated_Source\PSoC4/CapSense.c **** 
 281:Generated_Source\PSoC4/CapSense.c ****     /* Setup ISR */
 282:Generated_Source\PSoC4/CapSense.c ****     CyIntDisable(CapSense_ISR_NUMBER);
  94              		.loc 1 282 0
  95 0044 1120     		movs	r0, #17
  96 0046 FFF7FEFF 		bl	CyIntDisable
  97              	.LVL11:
 283:Generated_Source\PSoC4/CapSense.c ****     #if !defined(CY_EXTERNAL_INTERRUPT_CONFIG)
 284:Generated_Source\PSoC4/CapSense.c ****         (void)CyIntSetVector(CapSense_ISR_NUMBER, &CapSense_ISR);
  98              		.loc 1 284 0
  99 004a 0D49     		ldr	r1, .L2+36
 100 004c 1120     		movs	r0, #17
 101 004e FFF7FEFF 		bl	CyIntSetVector
 102              	.LVL12:
 285:Generated_Source\PSoC4/CapSense.c ****         CyIntSetPriority(CapSense_ISR_NUMBER, CapSense_ISR_PRIORITY);
 103              		.loc 1 285 0
 104 0052 0321     		movs	r1, #3
 105 0054 1120     		movs	r0, #17
 106 0056 FFF7FEFF 		bl	CyIntSetPriority
 107              	.LVL13:
 286:Generated_Source\PSoC4/CapSense.c ****     #endif /* (CY_EXTERNAL_INTERRUPT_CONFIG) */
 287:Generated_Source\PSoC4/CapSense.c **** }
 108              		.loc 1 287 0
 109              		@ sp needed
 110 005a 70BD     		pop	{r4, r5, r6, pc}
 111              	.L3:
 112              		.align	2
ARM GAS  C:\Users\JamesN4\AppData\Local\Temp\cceXLNdw.s 			page 8


 113              	.L2:
 114 005c 00FF2840 		.word	1076428544
 115 0060 00000000 		.word	CapSense_csdTrim1
 116 0064 62F1FF0F 		.word	268431714
 117 0068 00020001 		.word	16777728
 118 006c 08002840 		.word	1076363272
 119 0070 0008A001 		.word	27265024
 120 0074 04002840 		.word	1076363268
 121 0078 00040240 		.word	1073873920
 122 007c FFF0FFFF 		.word	-3841
 123 0080 00000000 		.word	CapSense_ISR
 124              		.cfi_endproc
 125              	.LFE34:
 126              		.size	CapSense_CsdHwBlockInit, .-CapSense_CsdHwBlockInit
 127              		.section	.text.CapSense_Enable,"ax",%progbits
 128              		.align	2
 129              		.global	CapSense_Enable
 130              		.code	16
 131              		.thumb_func
 132              		.type	CapSense_Enable, %function
 133              	CapSense_Enable:
 134              	.LFB35:
 288:Generated_Source\PSoC4/CapSense.c **** 
 289:Generated_Source\PSoC4/CapSense.c **** 
 290:Generated_Source\PSoC4/CapSense.c **** /*******************************************************************************
 291:Generated_Source\PSoC4/CapSense.c **** * Function Name: CapSense_Enable
 292:Generated_Source\PSoC4/CapSense.c **** ********************************************************************************
 293:Generated_Source\PSoC4/CapSense.c **** *
 294:Generated_Source\PSoC4/CapSense.c **** * Summary:
 295:Generated_Source\PSoC4/CapSense.c **** *  Enables the CSD block and related resources to an active mode.
 296:Generated_Source\PSoC4/CapSense.c **** *
 297:Generated_Source\PSoC4/CapSense.c **** * Parameters:
 298:Generated_Source\PSoC4/CapSense.c **** *  None
 299:Generated_Source\PSoC4/CapSense.c **** *
 300:Generated_Source\PSoC4/CapSense.c **** * Return:
 301:Generated_Source\PSoC4/CapSense.c **** *  None
 302:Generated_Source\PSoC4/CapSense.c **** *
 303:Generated_Source\PSoC4/CapSense.c **** * Global Variables:
 304:Generated_Source\PSoC4/CapSense.c **** *  None.
 305:Generated_Source\PSoC4/CapSense.c **** *
 306:Generated_Source\PSoC4/CapSense.c **** * Side Effects:
 307:Generated_Source\PSoC4/CapSense.c **** *  None
 308:Generated_Source\PSoC4/CapSense.c **** *
 309:Generated_Source\PSoC4/CapSense.c **** *******************************************************************************/
 310:Generated_Source\PSoC4/CapSense.c **** void CapSense_Enable(void)
 311:Generated_Source\PSoC4/CapSense.c **** {
 135              		.loc 1 311 0
 136              		.cfi_startproc
 137              		@ args = 0, pretend = 0, frame = 0
 138              		@ frame_needed = 0, uses_anonymous_args = 0
 139 0000 10B5     		push	{r4, lr}
 140              		.cfi_def_cfa_offset 8
 141              		.cfi_offset 4, -8
 142              		.cfi_offset 14, -4
 312:Generated_Source\PSoC4/CapSense.c ****     uint32 newRegValue;
 313:Generated_Source\PSoC4/CapSense.c **** 
 314:Generated_Source\PSoC4/CapSense.c ****     /* Enable Clocks */
ARM GAS  C:\Users\JamesN4\AppData\Local\Temp\cceXLNdw.s 			page 9


 315:Generated_Source\PSoC4/CapSense.c ****     CapSense_SenseClk_Stop();
 143              		.loc 1 315 0
 144 0002 FFF7FEFF 		bl	CapSense_SenseClk_Stop
 145              	.LVL14:
 316:Generated_Source\PSoC4/CapSense.c ****     CapSense_SampleClk_Stop();
 146              		.loc 1 316 0
 147 0006 FFF7FEFF 		bl	CapSense_SampleClk_Stop
 148              	.LVL15:
 317:Generated_Source\PSoC4/CapSense.c **** 
 318:Generated_Source\PSoC4/CapSense.c ****     CapSense_SampleClk_SetDividerValue((uint16)CapSense_INITIAL_CLK_DIVIDER);
 149              		.loc 1 318 0
 150 000a 0021     		movs	r1, #0
 151 000c 0020     		movs	r0, #0
 152 000e FFF7FEFF 		bl	CapSense_SampleClk_SetFractionalDividerRegister
 153              	.LVL16:
 319:Generated_Source\PSoC4/CapSense.c ****     CapSense_SenseClk_SetDividerValue((uint16)CapSense_INITIAL_CLK_DIVIDER);
 154              		.loc 1 319 0
 155 0012 0021     		movs	r1, #0
 156 0014 0020     		movs	r0, #0
 157 0016 FFF7FEFF 		bl	CapSense_SenseClk_SetFractionalDividerRegister
 158              	.LVL17:
 320:Generated_Source\PSoC4/CapSense.c **** 
 321:Generated_Source\PSoC4/CapSense.c ****     #if (0u == CapSense_IS_M0S8PERI_BLOCK)
 322:Generated_Source\PSoC4/CapSense.c ****         CapSense_SenseClk_Start();
 323:Generated_Source\PSoC4/CapSense.c ****         CapSense_SampleClk_Start();
 324:Generated_Source\PSoC4/CapSense.c ****     #else
 325:Generated_Source\PSoC4/CapSense.c ****         CapSense_SampleClk_Start();
 159              		.loc 1 325 0
 160 001a FF20     		movs	r0, #255
 161 001c FFF7FEFF 		bl	CapSense_SampleClk_StartEx
 162              	.LVL18:
 326:Generated_Source\PSoC4/CapSense.c ****         CapSense_SenseClk_StartEx(CapSense_SampleClk__DIV_ID);
 163              		.loc 1 326 0
 164 0020 4020     		movs	r0, #64
 165 0022 FFF7FEFF 		bl	CapSense_SenseClk_StartEx
 166              	.LVL19:
 327:Generated_Source\PSoC4/CapSense.c ****     #endif /* (0u == CapSense_IS_M0S8PERI_BLOCK) */
 328:Generated_Source\PSoC4/CapSense.c **** 
 329:Generated_Source\PSoC4/CapSense.c ****     /* Enable the CSD block */
 330:Generated_Source\PSoC4/CapSense.c ****     newRegValue = CapSense_CSD_CFG_REG;
 167              		.loc 1 330 0
 168 0026 044A     		ldr	r2, .L5
 169 0028 1368     		ldr	r3, [r2]
 170              	.LVL20:
 331:Generated_Source\PSoC4/CapSense.c ****     newRegValue |= (CapSense_CSD_CFG_ENABLE | CapSense_CSD_CFG_SENSE_COMP_EN
 171              		.loc 1 331 0
 172 002a 0449     		ldr	r1, .L5+4
 173 002c 0B43     		orrs	r3, r1
 174              	.LVL21:
 332:Generated_Source\PSoC4/CapSense.c ****                                                    | CapSense_CSD_CFG_SENSE_EN);
 333:Generated_Source\PSoC4/CapSense.c ****     CapSense_CSD_CFG_REG = newRegValue;
 175              		.loc 1 333 0
 176 002e 1360     		str	r3, [r2]
 334:Generated_Source\PSoC4/CapSense.c **** 
 335:Generated_Source\PSoC4/CapSense.c ****     /* Enable interrupt */
 336:Generated_Source\PSoC4/CapSense.c ****     CyIntEnable(CapSense_ISR_NUMBER);
 177              		.loc 1 336 0
ARM GAS  C:\Users\JamesN4\AppData\Local\Temp\cceXLNdw.s 			page 10


 178 0030 1120     		movs	r0, #17
 179 0032 FFF7FEFF 		bl	CyIntEnable
 180              	.LVL22:
 337:Generated_Source\PSoC4/CapSense.c **** }
 181              		.loc 1 337 0
 182              		@ sp needed
 183 0036 10BD     		pop	{r4, pc}
 184              	.L6:
 185              		.align	2
 186              	.L5:
 187 0038 04002840 		.word	1076363268
 188 003c 00100880 		.word	-2146955264
 189              		.cfi_endproc
 190              	.LFE35:
 191              		.size	CapSense_Enable, .-CapSense_Enable
 192              		.section	.text.CapSense_Stop,"ax",%progbits
 193              		.align	2
 194              		.global	CapSense_Stop
 195              		.code	16
 196              		.thumb_func
 197              		.type	CapSense_Stop, %function
 198              	CapSense_Stop:
 199              	.LFB37:
 338:Generated_Source\PSoC4/CapSense.c **** 
 339:Generated_Source\PSoC4/CapSense.c **** 
 340:Generated_Source\PSoC4/CapSense.c **** /*******************************************************************************
 341:Generated_Source\PSoC4/CapSense.c **** * Function Name: CapSense_Start
 342:Generated_Source\PSoC4/CapSense.c **** ********************************************************************************
 343:Generated_Source\PSoC4/CapSense.c **** *
 344:Generated_Source\PSoC4/CapSense.c **** * Summary:
 345:Generated_Source\PSoC4/CapSense.c **** *  This is the preferred method to begin the component operation. CapSense_Start()
 346:Generated_Source\PSoC4/CapSense.c **** *  calls the CapSense_Init() function, and then calls the CapSense_Enable()
 347:Generated_Source\PSoC4/CapSense.c **** *  function. Initializes the registers and starts the CSD method of the CapSense
 348:Generated_Source\PSoC4/CapSense.c **** *  component. Resets all the sensors to an inactive state. Enables interrupts for
 349:Generated_Source\PSoC4/CapSense.c **** *  sensors scanning. When the SmartSense tuning mode is selected, the tuning procedure
 350:Generated_Source\PSoC4/CapSense.c **** *  is applied for all the sensors. The CapSense_Start() routine must be called before
 351:Generated_Source\PSoC4/CapSense.c **** *  any other API routines.
 352:Generated_Source\PSoC4/CapSense.c **** *
 353:Generated_Source\PSoC4/CapSense.c **** * Parameters:
 354:Generated_Source\PSoC4/CapSense.c **** *  None
 355:Generated_Source\PSoC4/CapSense.c **** *
 356:Generated_Source\PSoC4/CapSense.c **** * Return:
 357:Generated_Source\PSoC4/CapSense.c **** *  None
 358:Generated_Source\PSoC4/CapSense.c **** *
 359:Generated_Source\PSoC4/CapSense.c **** * Global Variables:
 360:Generated_Source\PSoC4/CapSense.c **** *   CapSense_initVar - used to check the initial configuration,
 361:Generated_Source\PSoC4/CapSense.c **** *   modified on the first function call.
 362:Generated_Source\PSoC4/CapSense.c **** *  CapSense_lowLevelTuningDone - Used to notify the Tuner GUI that
 363:Generated_Source\PSoC4/CapSense.c **** *   tuning of the scanning parameters is done.
 364:Generated_Source\PSoC4/CapSense.c **** *
 365:Generated_Source\PSoC4/CapSense.c **** * Side Effects:
 366:Generated_Source\PSoC4/CapSense.c **** *  None
 367:Generated_Source\PSoC4/CapSense.c **** *
 368:Generated_Source\PSoC4/CapSense.c **** *******************************************************************************/
 369:Generated_Source\PSoC4/CapSense.c **** void CapSense_Start(void)
 370:Generated_Source\PSoC4/CapSense.c **** {
 371:Generated_Source\PSoC4/CapSense.c **** 
ARM GAS  C:\Users\JamesN4\AppData\Local\Temp\cceXLNdw.s 			page 11


 372:Generated_Source\PSoC4/CapSense.c ****     static uint8 CapSense_initVar = 0u;
 373:Generated_Source\PSoC4/CapSense.c **** 
 374:Generated_Source\PSoC4/CapSense.c ****     #if((0u != CapSense_AUTOCALIBRATION_ENABLE) && (CapSense_TUNING_METHOD != CapSense__TUNING_AUTO
 375:Generated_Source\PSoC4/CapSense.c ****         uint32 curSensor;
 376:Generated_Source\PSoC4/CapSense.c ****         uint32 rawLevel;
 377:Generated_Source\PSoC4/CapSense.c ****         uint32 widget;
 378:Generated_Source\PSoC4/CapSense.c ****     #endif /* ((0u != CapSense_AUTOCALIBRATION_ENABLE) && (CapSense_TUNING_METHOD != CapSense__TUNI
 379:Generated_Source\PSoC4/CapSense.c **** 
 380:Generated_Source\PSoC4/CapSense.c ****     if (CapSense_initVar == 0u)
 381:Generated_Source\PSoC4/CapSense.c ****     {
 382:Generated_Source\PSoC4/CapSense.c ****         CapSense_Init();
 383:Generated_Source\PSoC4/CapSense.c ****         CapSense_initVar = 1u;
 384:Generated_Source\PSoC4/CapSense.c ****     }
 385:Generated_Source\PSoC4/CapSense.c ****     CapSense_Enable();
 386:Generated_Source\PSoC4/CapSense.c **** 
 387:Generated_Source\PSoC4/CapSense.c ****     /* AutoTunning start */
 388:Generated_Source\PSoC4/CapSense.c ****     #if(CapSense_TUNING_METHOD == CapSense__TUNING_AUTO)
 389:Generated_Source\PSoC4/CapSense.c ****         #if(0u != CapSense_CSHL_API_GENERATE)
 390:Generated_Source\PSoC4/CapSense.c ****             CapSense_AutoTune();
 391:Generated_Source\PSoC4/CapSense.c ****             CapSense_lowLevelTuningDone = 1u;
 392:Generated_Source\PSoC4/CapSense.c ****         #endif /* (0u != CapSense_CSHL_API_GENERATE) */
 393:Generated_Source\PSoC4/CapSense.c ****     #else
 394:Generated_Source\PSoC4/CapSense.c ****         #if(0u != CapSense_AUTOCALIBRATION_ENABLE)
 395:Generated_Source\PSoC4/CapSense.c **** 
 396:Generated_Source\PSoC4/CapSense.c ****             #if(CapSense_IDAC_CNT > 1u)
 397:Generated_Source\PSoC4/CapSense.c ****                 CapSense_CSD_IDAC_REG &= ~(CapSense_CSD_IDAC2_MODE_MASK);
 398:Generated_Source\PSoC4/CapSense.c ****             #endif /* (CapSense_IDAC_CNT > 1u) */
 399:Generated_Source\PSoC4/CapSense.c **** 
 400:Generated_Source\PSoC4/CapSense.c ****             for(curSensor = 0u; curSensor < CapSense_TOTAL_SCANSLOT_COUNT; curSensor++)
 401:Generated_Source\PSoC4/CapSense.c ****             {
 402:Generated_Source\PSoC4/CapSense.c ****                 widget = CapSense_widgetNumber[curSensor];
 403:Generated_Source\PSoC4/CapSense.c ****                 rawLevel = CapSense_widgetResolution[widget] >> CapSense_RESOLUTION_OFFSET;
 404:Generated_Source\PSoC4/CapSense.c **** 
 405:Generated_Source\PSoC4/CapSense.c ****                 /* Calibration level should be equal to 85% from scanning resolution */
 406:Generated_Source\PSoC4/CapSense.c ****                 rawLevel = (rawLevel * 85u) / 100u;
 407:Generated_Source\PSoC4/CapSense.c **** 
 408:Generated_Source\PSoC4/CapSense.c ****                 CapSense_CalibrateSensor(curSensor, rawLevel, CapSense_modulationIDAC);
 409:Generated_Source\PSoC4/CapSense.c ****             }
 410:Generated_Source\PSoC4/CapSense.c **** 
 411:Generated_Source\PSoC4/CapSense.c ****             #if(0u != CapSense_TOTAL_CENTROIDS_COUNT)
 412:Generated_Source\PSoC4/CapSense.c ****                 CapSense_NormalizeWidgets(CapSense_END_OF_WIDGETS_INDEX, CapSense_modulationIDAC);
 413:Generated_Source\PSoC4/CapSense.c ****             #endif /* (0u != CapSense_TOTAL_CENTROIDS_COUNT)  */
 414:Generated_Source\PSoC4/CapSense.c **** 
 415:Generated_Source\PSoC4/CapSense.c ****             #if(CapSense_IDAC_CNT > 1u)
 416:Generated_Source\PSoC4/CapSense.c ****                 for(curSensor = 0u; curSensor < CapSense_TOTAL_SCANSLOT_COUNT; curSensor++)
 417:Generated_Source\PSoC4/CapSense.c ****                 {
 418:Generated_Source\PSoC4/CapSense.c ****                     CapSense_compensationIDAC[curSensor] = CapSense_modulationIDAC[curSensor] / 2u;
 419:Generated_Source\PSoC4/CapSense.c ****                     CapSense_modulationIDAC[curSensor] = (CapSense_modulationIDAC[curSensor] + 1u) 
 420:Generated_Source\PSoC4/CapSense.c ****                 }
 421:Generated_Source\PSoC4/CapSense.c ****                 CapSense_CSD_IDAC_REG |= CapSense_CSD_IDAC2_MODE_FIXED;
 422:Generated_Source\PSoC4/CapSense.c ****             #endif /* (CapSense_IDAC_CNT > 1u) */
 423:Generated_Source\PSoC4/CapSense.c **** 
 424:Generated_Source\PSoC4/CapSense.c ****         #endif /* (0u != CapSense_AUTOCALIBRATION_ENABLE) */
 425:Generated_Source\PSoC4/CapSense.c **** 
 426:Generated_Source\PSoC4/CapSense.c ****     #endif /* ((CapSense_TUNING_METHOD == CapSense__TUNING_AUTO) */
 427:Generated_Source\PSoC4/CapSense.c **** 
 428:Generated_Source\PSoC4/CapSense.c ****     /* Initialize Advanced Centroid */
ARM GAS  C:\Users\JamesN4\AppData\Local\Temp\cceXLNdw.s 			page 12


 429:Generated_Source\PSoC4/CapSense.c ****     #if(CapSense_TOTAL_TRACKPAD_GESTURES_COUNT > 0u)
 430:Generated_Source\PSoC4/CapSense.c ****         CapSense_AdvancedCentroidInit();
 431:Generated_Source\PSoC4/CapSense.c ****     #endif /* (CapSense_TOTAL_TRACKPAD_GESTURES_COUNT > 0u) */
 432:Generated_Source\PSoC4/CapSense.c **** 
 433:Generated_Source\PSoC4/CapSense.c ****     /* Connect sense comparator input to AMUXA */
 434:Generated_Source\PSoC4/CapSense.c ****     CapSense_CSD_CFG_REG |= CapSense_CSD_CFG_SENSE_INSEL;
 435:Generated_Source\PSoC4/CapSense.c **** }
 436:Generated_Source\PSoC4/CapSense.c **** 
 437:Generated_Source\PSoC4/CapSense.c **** 
 438:Generated_Source\PSoC4/CapSense.c **** /*******************************************************************************
 439:Generated_Source\PSoC4/CapSense.c **** * Function Name: CapSense_Stop
 440:Generated_Source\PSoC4/CapSense.c **** ********************************************************************************
 441:Generated_Source\PSoC4/CapSense.c **** *
 442:Generated_Source\PSoC4/CapSense.c **** * Summary:
 443:Generated_Source\PSoC4/CapSense.c **** *  Stops the sensor scanning, disables component interrupts, and resets all the
 444:Generated_Source\PSoC4/CapSense.c **** *  sensors to an inactive state. Disables the Active mode power template bits for
 445:Generated_Source\PSoC4/CapSense.c **** *  the subcomponents used within CapSense.
 446:Generated_Source\PSoC4/CapSense.c **** *
 447:Generated_Source\PSoC4/CapSense.c **** * Parameters:
 448:Generated_Source\PSoC4/CapSense.c **** *  None
 449:Generated_Source\PSoC4/CapSense.c **** *
 450:Generated_Source\PSoC4/CapSense.c **** * Return:
 451:Generated_Source\PSoC4/CapSense.c **** *  None
 452:Generated_Source\PSoC4/CapSense.c **** *
 453:Generated_Source\PSoC4/CapSense.c **** * Global Variables:
 454:Generated_Source\PSoC4/CapSense.c **** *  CapSense_csdTrim1 - Contains the IDAC trim register value for the Sourcing Mode.
 455:Generated_Source\PSoC4/CapSense.c **** *  CapSense_csdTrim2 - Contains the IDAC trim register value for vSinking Mode.
 456:Generated_Source\PSoC4/CapSense.c **** *
 457:Generated_Source\PSoC4/CapSense.c **** * Side Effects:
 458:Generated_Source\PSoC4/CapSense.c **** *  This function should be called after scans are completed.
 459:Generated_Source\PSoC4/CapSense.c **** *
 460:Generated_Source\PSoC4/CapSense.c **** *******************************************************************************/
 461:Generated_Source\PSoC4/CapSense.c **** void CapSense_Stop(void)
 462:Generated_Source\PSoC4/CapSense.c **** {
 200              		.loc 1 462 0
 201              		.cfi_startproc
 202              		@ args = 0, pretend = 0, frame = 0
 203              		@ frame_needed = 0, uses_anonymous_args = 0
 204 0000 10B5     		push	{r4, lr}
 205              		.cfi_def_cfa_offset 8
 206              		.cfi_offset 4, -8
 207              		.cfi_offset 14, -4
 463:Generated_Source\PSoC4/CapSense.c ****     /* Disable interrupt */
 464:Generated_Source\PSoC4/CapSense.c ****     CyIntDisable(CapSense_ISR_NUMBER);
 208              		.loc 1 464 0
 209 0002 1120     		movs	r0, #17
 210 0004 FFF7FEFF 		bl	CyIntDisable
 211              	.LVL23:
 465:Generated_Source\PSoC4/CapSense.c **** 
 466:Generated_Source\PSoC4/CapSense.c ****     CapSense_CSD_CFG_REG &= ~(CapSense_CSD_CFG_SENSE_COMP_EN | CapSense_CSD_CFG_SENSE_EN);
 212              		.loc 1 466 0
 213 0008 064A     		ldr	r2, .L8
 214 000a 1168     		ldr	r1, [r2]
 215 000c 064B     		ldr	r3, .L8+4
 216 000e 0B40     		ands	r3, r1
 217 0010 1360     		str	r3, [r2]
 467:Generated_Source\PSoC4/CapSense.c **** 
ARM GAS  C:\Users\JamesN4\AppData\Local\Temp\cceXLNdw.s 			page 13


 468:Generated_Source\PSoC4/CapSense.c ****     #if(CapSense_IDAC_CNT == 2u)
 469:Generated_Source\PSoC4/CapSense.c ****         CapSense_CSD_CFG_REG &= ~(CapSense_CSD_CFG_ENABLE);
 218              		.loc 1 469 0
 219 0012 1368     		ldr	r3, [r2]
 220 0014 5B00     		lsls	r3, r3, #1
 221 0016 5B08     		lsrs	r3, r3, #1
 222 0018 1360     		str	r3, [r2]
 470:Generated_Source\PSoC4/CapSense.c ****     #endif /* (CapSense_IDAC_CNT == 2u) */
 471:Generated_Source\PSoC4/CapSense.c **** 
 472:Generated_Source\PSoC4/CapSense.c ****     /* Disable the Clocks */
 473:Generated_Source\PSoC4/CapSense.c ****     CapSense_SenseClk_Stop();
 223              		.loc 1 473 0
 224 001a FFF7FEFF 		bl	CapSense_SenseClk_Stop
 225              	.LVL24:
 474:Generated_Source\PSoC4/CapSense.c ****     CapSense_SampleClk_Stop();
 226              		.loc 1 474 0
 227 001e FFF7FEFF 		bl	CapSense_SampleClk_Stop
 228              	.LVL25:
 475:Generated_Source\PSoC4/CapSense.c **** }
 229              		.loc 1 475 0
 230              		@ sp needed
 231 0022 10BD     		pop	{r4, pc}
 232              	.L9:
 233              		.align	2
 234              	.L8:
 235 0024 04002840 		.word	1076363268
 236 0028 FFEFF7FF 		.word	-528385
 237              		.cfi_endproc
 238              	.LFE37:
 239              		.size	CapSense_Stop, .-CapSense_Stop
 240              		.section	.text.CapSense_IsBusy,"ax",%progbits
 241              		.align	2
 242              		.global	CapSense_IsBusy
 243              		.code	16
 244              		.thumb_func
 245              		.type	CapSense_IsBusy, %function
 246              	CapSense_IsBusy:
 247              	.LFB42:
 476:Generated_Source\PSoC4/CapSense.c **** 
 477:Generated_Source\PSoC4/CapSense.c **** 
 478:Generated_Source\PSoC4/CapSense.c **** /*******************************************************************************
 479:Generated_Source\PSoC4/CapSense.c **** * Function Name: CapSense_FindNextSensor
 480:Generated_Source\PSoC4/CapSense.c **** ********************************************************************************
 481:Generated_Source\PSoC4/CapSense.c **** *
 482:Generated_Source\PSoC4/CapSense.c **** * Summary:
 483:Generated_Source\PSoC4/CapSense.c **** *  Finds the next sensor to scan.
 484:Generated_Source\PSoC4/CapSense.c **** *
 485:Generated_Source\PSoC4/CapSense.c **** * Parameters:
 486:Generated_Source\PSoC4/CapSense.c **** *  snsIndex:  Current index of sensor.
 487:Generated_Source\PSoC4/CapSense.c **** *
 488:Generated_Source\PSoC4/CapSense.c **** * Return:
 489:Generated_Source\PSoC4/CapSense.c **** *  Returns the next sensor index to scan.
 490:Generated_Source\PSoC4/CapSense.c **** *
 491:Generated_Source\PSoC4/CapSense.c **** * Global Variables:
 492:Generated_Source\PSoC4/CapSense.c **** *  CapSense_sensorEnableMask[] - used to store bit masks of the enabled sensors.
 493:Generated_Source\PSoC4/CapSense.c **** *
 494:Generated_Source\PSoC4/CapSense.c **** * Side Effects:
ARM GAS  C:\Users\JamesN4\AppData\Local\Temp\cceXLNdw.s 			page 14


 495:Generated_Source\PSoC4/CapSense.c **** *  This function affects the  current scanning and should not
 496:Generated_Source\PSoC4/CapSense.c **** *  be used outside the component.
 497:Generated_Source\PSoC4/CapSense.c **** *
 498:Generated_Source\PSoC4/CapSense.c **** *******************************************************************************/
 499:Generated_Source\PSoC4/CapSense.c **** uint8 CapSense_FindNextSensor(uint8 snsIndex)
 500:Generated_Source\PSoC4/CapSense.c **** {
 501:Generated_Source\PSoC4/CapSense.c ****     uint32 enableFlag;
 502:Generated_Source\PSoC4/CapSense.c **** 
 503:Generated_Source\PSoC4/CapSense.c ****     /* Check if sensor enabled */
 504:Generated_Source\PSoC4/CapSense.c ****     do
 505:Generated_Source\PSoC4/CapSense.c ****     {
 506:Generated_Source\PSoC4/CapSense.c ****         /* Proceed with next sensor */
 507:Generated_Source\PSoC4/CapSense.c ****         snsIndex++;
 508:Generated_Source\PSoC4/CapSense.c ****         if(snsIndex == CapSense_TOTAL_SENSOR_COUNT)
 509:Generated_Source\PSoC4/CapSense.c ****         {
 510:Generated_Source\PSoC4/CapSense.c ****             break;
 511:Generated_Source\PSoC4/CapSense.c ****         }
 512:Generated_Source\PSoC4/CapSense.c ****         enableFlag = CapSense_GetBitValue(CapSense_sensorEnableMask, (uint32)snsIndex);
 513:Generated_Source\PSoC4/CapSense.c ****     }
 514:Generated_Source\PSoC4/CapSense.c ****     while(enableFlag == 0u);
 515:Generated_Source\PSoC4/CapSense.c **** 
 516:Generated_Source\PSoC4/CapSense.c ****     return ((uint8)snsIndex);
 517:Generated_Source\PSoC4/CapSense.c **** }
 518:Generated_Source\PSoC4/CapSense.c **** 
 519:Generated_Source\PSoC4/CapSense.c **** 
 520:Generated_Source\PSoC4/CapSense.c **** /*******************************************************************************
 521:Generated_Source\PSoC4/CapSense.c **** * Function Name: CapSense_ScanSensor
 522:Generated_Source\PSoC4/CapSense.c **** ********************************************************************************
 523:Generated_Source\PSoC4/CapSense.c **** *
 524:Generated_Source\PSoC4/CapSense.c **** * Summary:
 525:Generated_Source\PSoC4/CapSense.c **** *  Sets the scan settings and starts scanning a sensor. After scanning is complete,
 526:Generated_Source\PSoC4/CapSense.c **** *  the ISR copies the measured sensor raw data to the global raw sensor array.
 527:Generated_Source\PSoC4/CapSense.c **** *  Use of the ISR ensures this function is non-blocking.
 528:Generated_Source\PSoC4/CapSense.c **** *  Each sensor has a unique number within the sensor array.
 529:Generated_Source\PSoC4/CapSense.c **** *  This number is assigned by the CapSense customizer in sequence.
 530:Generated_Source\PSoC4/CapSense.c **** *
 531:Generated_Source\PSoC4/CapSense.c **** * Parameters:
 532:Generated_Source\PSoC4/CapSense.c **** *  sensor:  Sensor number.
 533:Generated_Source\PSoC4/CapSense.c **** *
 534:Generated_Source\PSoC4/CapSense.c **** * Return:
 535:Generated_Source\PSoC4/CapSense.c **** *  None
 536:Generated_Source\PSoC4/CapSense.c **** *
 537:Generated_Source\PSoC4/CapSense.c **** * Global Variables:
 538:Generated_Source\PSoC4/CapSense.c **** *  CapSense_csdStatusVar - used to provide the status and mode of the scanning process.
 539:Generated_Source\PSoC4/CapSense.c **** *  Sets the busy status(scan in progress) and mode of scan as single scan.
 540:Generated_Source\PSoC4/CapSense.c **** *  CapSense_sensorIndex - used to store a sensor scanning sensor number.
 541:Generated_Source\PSoC4/CapSense.c **** *  Sets to the provided sensor argument.
 542:Generated_Source\PSoC4/CapSense.c **** *
 543:Generated_Source\PSoC4/CapSense.c **** * Side Effects:
 544:Generated_Source\PSoC4/CapSense.c **** *  None
 545:Generated_Source\PSoC4/CapSense.c **** *
 546:Generated_Source\PSoC4/CapSense.c **** *******************************************************************************/
 547:Generated_Source\PSoC4/CapSense.c **** void CapSense_ScanSensor(uint32 sensor)
 548:Generated_Source\PSoC4/CapSense.c **** {
 549:Generated_Source\PSoC4/CapSense.c ****     /* Clears status/control variable and set sensorIndex */
 550:Generated_Source\PSoC4/CapSense.c ****     CapSense_csdStatusVar = 0u;
 551:Generated_Source\PSoC4/CapSense.c ****     CapSense_sensorIndex = (uint8)sensor;
ARM GAS  C:\Users\JamesN4\AppData\Local\Temp\cceXLNdw.s 			page 15


 552:Generated_Source\PSoC4/CapSense.c **** 
 553:Generated_Source\PSoC4/CapSense.c ****     /* Start of sensor scan */
 554:Generated_Source\PSoC4/CapSense.c ****     CapSense_csdStatusVar = (CapSense_SW_STS_BUSY | CapSense_SW_CTRL_SINGLE_SCAN);
 555:Generated_Source\PSoC4/CapSense.c ****     CapSense_PreScan(sensor);
 556:Generated_Source\PSoC4/CapSense.c **** }
 557:Generated_Source\PSoC4/CapSense.c **** 
 558:Generated_Source\PSoC4/CapSense.c **** 
 559:Generated_Source\PSoC4/CapSense.c **** #if(0u != CapSense_CSHL_API_GENERATE)
 560:Generated_Source\PSoC4/CapSense.c **** /*******************************************************************************
 561:Generated_Source\PSoC4/CapSense.c **** * Function Name: CapSense_ScanWidget
 562:Generated_Source\PSoC4/CapSense.c **** ********************************************************************************
 563:Generated_Source\PSoC4/CapSense.c **** *
 564:Generated_Source\PSoC4/CapSense.c **** * Summary:
 565:Generated_Source\PSoC4/CapSense.c **** *  Sets the scan settings and starts scanning a widget.
 566:Generated_Source\PSoC4/CapSense.c **** *
 567:Generated_Source\PSoC4/CapSense.c **** * Parameters:
 568:Generated_Source\PSoC4/CapSense.c **** *  uint32 widget: Widget number.
 569:Generated_Source\PSoC4/CapSense.c **** *
 570:Generated_Source\PSoC4/CapSense.c **** * Return:
 571:Generated_Source\PSoC4/CapSense.c **** *  None
 572:Generated_Source\PSoC4/CapSense.c **** *
 573:Generated_Source\PSoC4/CapSense.c **** * Global Variables:
 574:Generated_Source\PSoC4/CapSense.c **** *  CapSense_csdStatusVar - used to provide the status and mode of the scanning process.
 575:Generated_Source\PSoC4/CapSense.c **** *  Sets the busy status(scan in progress) and clears the single scan mode.
 576:Generated_Source\PSoC4/CapSense.c **** *  CapSense_sensorIndex - used to store a sensor scanning sensor number.
 577:Generated_Source\PSoC4/CapSense.c **** *  Sets to 0xFF and provided to function CapSense_FindNextSensor or
 578:Generated_Source\PSoC4/CapSense.c **** *  CapSense_sensorEnableMask[] - used to store bit masks of the enabled sensors.
 579:Generated_Source\PSoC4/CapSense.c **** *  CapSense_sensorEnableMaskBackup[] - used to backup bit masks of the enabled
 580:Generated_Source\PSoC4/CapSense.c **** *   sensors.
 581:Generated_Source\PSoC4/CapSense.c **** *
 582:Generated_Source\PSoC4/CapSense.c **** * Side Effects:
 583:Generated_Source\PSoC4/CapSense.c **** *  None
 584:Generated_Source\PSoC4/CapSense.c **** *
 585:Generated_Source\PSoC4/CapSense.c **** *******************************************************************************/
 586:Generated_Source\PSoC4/CapSense.c **** void CapSense_ScanWidget(uint32 widget)
 587:Generated_Source\PSoC4/CapSense.c **** {
 588:Generated_Source\PSoC4/CapSense.c ****     uint32 sensorsPerWidget;
 589:Generated_Source\PSoC4/CapSense.c ****     uint32 lastSensor;
 590:Generated_Source\PSoC4/CapSense.c ****     uint32 snsIndex;
 591:Generated_Source\PSoC4/CapSense.c **** 
 592:Generated_Source\PSoC4/CapSense.c ****     /* Get first sensor in widget */
 593:Generated_Source\PSoC4/CapSense.c ****     CapSense_sensorIndex = CapSense_rawDataIndex[widget];
 594:Generated_Source\PSoC4/CapSense.c **** 
 595:Generated_Source\PSoC4/CapSense.c ****     /* Get number of sensors in widget */
 596:Generated_Source\PSoC4/CapSense.c ****     sensorsPerWidget = CapSense_numberOfSensors[widget];
 597:Generated_Source\PSoC4/CapSense.c **** 
 598:Generated_Source\PSoC4/CapSense.c ****     /* Check if generic Sensor */
 599:Generated_Source\PSoC4/CapSense.c ****     if(sensorsPerWidget == 0u)
 600:Generated_Source\PSoC4/CapSense.c ****     {
 601:Generated_Source\PSoC4/CapSense.c ****         sensorsPerWidget = 1u;
 602:Generated_Source\PSoC4/CapSense.c ****     }
 603:Generated_Source\PSoC4/CapSense.c **** 
 604:Generated_Source\PSoC4/CapSense.c ****     /* Get last sensor in widget */
 605:Generated_Source\PSoC4/CapSense.c ****     lastSensor = (CapSense_rawDataIndex[widget] + sensorsPerWidget) - 1u;
 606:Generated_Source\PSoC4/CapSense.c **** 
 607:Generated_Source\PSoC4/CapSense.c ****     /* Backup sensorEnableMask array */
 608:Generated_Source\PSoC4/CapSense.c ****     for(snsIndex = 0u; snsIndex < CapSense_TOTAL_SENSOR_MASK; snsIndex++)
ARM GAS  C:\Users\JamesN4\AppData\Local\Temp\cceXLNdw.s 			page 16


 609:Generated_Source\PSoC4/CapSense.c ****     {
 610:Generated_Source\PSoC4/CapSense.c ****         /* Backup sensorEnableMask array */
 611:Generated_Source\PSoC4/CapSense.c ****         CapSense_sensorEnableMaskBackup[snsIndex] = CapSense_sensorEnableMask[snsIndex];
 612:Generated_Source\PSoC4/CapSense.c ****     }
 613:Generated_Source\PSoC4/CapSense.c **** 
 614:Generated_Source\PSoC4/CapSense.c ****     /* Update sensorEnableMask to scan the sensors that belong to widget */
 615:Generated_Source\PSoC4/CapSense.c ****     for(snsIndex = 0u; snsIndex < CapSense_TOTAL_SENSOR_COUNT; snsIndex++)
 616:Generated_Source\PSoC4/CapSense.c ****     {
 617:Generated_Source\PSoC4/CapSense.c ****         /* Update sensorEnableMask array bits to scan the widget only */
 618:Generated_Source\PSoC4/CapSense.c ****         if((snsIndex >= CapSense_sensorIndex) && (snsIndex <= lastSensor))
 619:Generated_Source\PSoC4/CapSense.c ****         {
 620:Generated_Source\PSoC4/CapSense.c ****             /* Set sensor bit to scan */
 621:Generated_Source\PSoC4/CapSense.c ****             CapSense_SetBitValue(CapSense_sensorEnableMask, snsIndex, 1u);
 622:Generated_Source\PSoC4/CapSense.c ****         }
 623:Generated_Source\PSoC4/CapSense.c ****         else
 624:Generated_Source\PSoC4/CapSense.c ****         {
 625:Generated_Source\PSoC4/CapSense.c ****             /* Reset sensor bit to do not scan */
 626:Generated_Source\PSoC4/CapSense.c ****             CapSense_SetBitValue(CapSense_sensorEnableMask, snsIndex, 0u);
 627:Generated_Source\PSoC4/CapSense.c ****         }
 628:Generated_Source\PSoC4/CapSense.c ****     }
 629:Generated_Source\PSoC4/CapSense.c **** 
 630:Generated_Source\PSoC4/CapSense.c ****     /* Check end of scan condition */
 631:Generated_Source\PSoC4/CapSense.c ****     if(CapSense_sensorIndex < CapSense_TOTAL_SENSOR_COUNT)
 632:Generated_Source\PSoC4/CapSense.c ****     {
 633:Generated_Source\PSoC4/CapSense.c ****         /* Set widget busy bit in status/control variable*/
 634:Generated_Source\PSoC4/CapSense.c ****         CapSense_csdStatusVar = (CapSense_SW_STS_BUSY | CapSense_SW_CTRL_WIDGET_SCAN);
 635:Generated_Source\PSoC4/CapSense.c ****         /* Scan first sensor of widget*/
 636:Generated_Source\PSoC4/CapSense.c ****         CapSense_PreScan((uint32)CapSense_sensorIndex);
 637:Generated_Source\PSoC4/CapSense.c ****     }
 638:Generated_Source\PSoC4/CapSense.c **** }
 639:Generated_Source\PSoC4/CapSense.c **** #endif /* (0u != CapSense_CSHL_API_GENERATE) */
 640:Generated_Source\PSoC4/CapSense.c **** 
 641:Generated_Source\PSoC4/CapSense.c **** 
 642:Generated_Source\PSoC4/CapSense.c **** /*******************************************************************************
 643:Generated_Source\PSoC4/CapSense.c **** * Function Name: CapSense_ScanEnableWidgets
 644:Generated_Source\PSoC4/CapSense.c **** ********************************************************************************
 645:Generated_Source\PSoC4/CapSense.c **** *
 646:Generated_Source\PSoC4/CapSense.c **** * Summary:
 647:Generated_Source\PSoC4/CapSense.c **** *  This is the preferred method to scan all of the enabled widgets.
 648:Generated_Source\PSoC4/CapSense.c **** *  The API starts scanning a sensor within the enabled widgets.
 649:Generated_Source\PSoC4/CapSense.c **** *  The ISR continues scanning the sensors until all the enabled widgets are scanned.
 650:Generated_Source\PSoC4/CapSense.c **** *  Use of the ISR ensures this function is non-blocking.
 651:Generated_Source\PSoC4/CapSense.c **** *  All the widgets are enabled by default except proximity widgets.
 652:Generated_Source\PSoC4/CapSense.c **** *  The proximity widgets must be manually enabled as their long scan time
 653:Generated_Source\PSoC4/CapSense.c **** *  is incompatible with a fast response required of other widget types.
 654:Generated_Source\PSoC4/CapSense.c **** *
 655:Generated_Source\PSoC4/CapSense.c **** * Parameters:
 656:Generated_Source\PSoC4/CapSense.c **** *  None
 657:Generated_Source\PSoC4/CapSense.c **** *
 658:Generated_Source\PSoC4/CapSense.c **** * Return:
 659:Generated_Source\PSoC4/CapSense.c **** *  None
 660:Generated_Source\PSoC4/CapSense.c **** *
 661:Generated_Source\PSoC4/CapSense.c **** * Global Variables:
 662:Generated_Source\PSoC4/CapSense.c **** *  CapSense_csdStatusVar - used to provide the status and mode of the scanning process.
 663:Generated_Source\PSoC4/CapSense.c **** *  Sets the busy status(scan in progress) and clears the single scan mode.
 664:Generated_Source\PSoC4/CapSense.c **** *  CapSense_sensorIndex - used to store a sensor scanning sensor number.
 665:Generated_Source\PSoC4/CapSense.c **** *  Sets to 0xFF and provided to function CapSense_FindNextSensor or
ARM GAS  C:\Users\JamesN4\AppData\Local\Temp\cceXLNdw.s 			page 17


 666:Generated_Source\PSoC4/CapSense.c **** *
 667:Generated_Source\PSoC4/CapSense.c **** * Side Effects:
 668:Generated_Source\PSoC4/CapSense.c **** *  None
 669:Generated_Source\PSoC4/CapSense.c **** *
 670:Generated_Source\PSoC4/CapSense.c **** *******************************************************************************/
 671:Generated_Source\PSoC4/CapSense.c **** void CapSense_ScanEnabledWidgets(void)
 672:Generated_Source\PSoC4/CapSense.c **** {
 673:Generated_Source\PSoC4/CapSense.c ****     /* Clears status/control variable and set sensorIndex */
 674:Generated_Source\PSoC4/CapSense.c ****     CapSense_csdStatusVar = 0u;
 675:Generated_Source\PSoC4/CapSense.c ****     CapSense_sensorIndex = 0xFFu;
 676:Generated_Source\PSoC4/CapSense.c **** 
 677:Generated_Source\PSoC4/CapSense.c ****     /* Find next sensor */
 678:Generated_Source\PSoC4/CapSense.c ****     CapSense_sensorIndex = (uint8)CapSense_FindNextSensor(CapSense_sensorIndex);
 679:Generated_Source\PSoC4/CapSense.c **** 
 680:Generated_Source\PSoC4/CapSense.c ****     /* Check end of scan condition */
 681:Generated_Source\PSoC4/CapSense.c ****     if(CapSense_sensorIndex < CapSense_TOTAL_SENSOR_COUNT)
 682:Generated_Source\PSoC4/CapSense.c ****     {
 683:Generated_Source\PSoC4/CapSense.c ****         CapSense_csdStatusVar |= CapSense_SW_STS_BUSY;
 684:Generated_Source\PSoC4/CapSense.c ****         CapSense_PreScan((uint32)CapSense_sensorIndex);
 685:Generated_Source\PSoC4/CapSense.c ****     }
 686:Generated_Source\PSoC4/CapSense.c **** }
 687:Generated_Source\PSoC4/CapSense.c **** 
 688:Generated_Source\PSoC4/CapSense.c **** 
 689:Generated_Source\PSoC4/CapSense.c **** /*******************************************************************************
 690:Generated_Source\PSoC4/CapSense.c **** * Function Name: CapSense_IsBusy
 691:Generated_Source\PSoC4/CapSense.c **** ********************************************************************************
 692:Generated_Source\PSoC4/CapSense.c **** *
 693:Generated_Source\PSoC4/CapSense.c **** * Summary:
 694:Generated_Source\PSoC4/CapSense.c **** *  Returns the state of the CapSense component. 1 means that scanning in
 695:Generated_Source\PSoC4/CapSense.c **** *  progress and 0 means that scanning is complete.
 696:Generated_Source\PSoC4/CapSense.c **** *
 697:Generated_Source\PSoC4/CapSense.c **** * Parameters:
 698:Generated_Source\PSoC4/CapSense.c **** *  None
 699:Generated_Source\PSoC4/CapSense.c **** *
 700:Generated_Source\PSoC4/CapSense.c **** * Return:
 701:Generated_Source\PSoC4/CapSense.c **** *  Returns the state of scanning. 1 - scanning in progress, 0 - scanning
 702:Generated_Source\PSoC4/CapSense.c **** *  completed.
 703:Generated_Source\PSoC4/CapSense.c **** *
 704:Generated_Source\PSoC4/CapSense.c **** * Global Variables:
 705:Generated_Source\PSoC4/CapSense.c **** *  CapSense_csdStatusVar - used to provide the status and mode of the scanning process.
 706:Generated_Source\PSoC4/CapSense.c **** *  Checks the busy status.
 707:Generated_Source\PSoC4/CapSense.c **** *
 708:Generated_Source\PSoC4/CapSense.c **** * Side Effects:
 709:Generated_Source\PSoC4/CapSense.c **** *  None
 710:Generated_Source\PSoC4/CapSense.c **** *
 711:Generated_Source\PSoC4/CapSense.c **** *******************************************************************************/
 712:Generated_Source\PSoC4/CapSense.c **** uint32 CapSense_IsBusy(void)
 713:Generated_Source\PSoC4/CapSense.c **** {
 248              		.loc 1 713 0
 249              		.cfi_startproc
 250              		@ args = 0, pretend = 0, frame = 0
 251              		@ frame_needed = 0, uses_anonymous_args = 0
 252              		@ link register save eliminated.
 714:Generated_Source\PSoC4/CapSense.c ****     return ((uint32)((0u != (CapSense_csdStatusVar & CapSense_SW_STS_BUSY)) ? 1u : 0u));
 253              		.loc 1 714 0
 254 0000 024B     		ldr	r3, .L11
 255 0002 1878     		ldrb	r0, [r3]
ARM GAS  C:\Users\JamesN4\AppData\Local\Temp\cceXLNdw.s 			page 18


 256 0004 0123     		movs	r3, #1
 257 0006 1840     		ands	r0, r3
 715:Generated_Source\PSoC4/CapSense.c **** }
 258              		.loc 1 715 0
 259              		@ sp needed
 260 0008 7047     		bx	lr
 261              	.L12:
 262 000a C046     		.align	2
 263              	.L11:
 264 000c 00000000 		.word	.LANCHOR0
 265              		.cfi_endproc
 266              	.LFE42:
 267              		.size	CapSense_IsBusy, .-CapSense_IsBusy
 268              		.section	.text.CapSense_ReadSensorRaw,"ax",%progbits
 269              		.align	2
 270              		.global	CapSense_ReadSensorRaw
 271              		.code	16
 272              		.thumb_func
 273              		.type	CapSense_ReadSensorRaw, %function
 274              	CapSense_ReadSensorRaw:
 275              	.LFB43:
 716:Generated_Source\PSoC4/CapSense.c **** 
 717:Generated_Source\PSoC4/CapSense.c **** 
 718:Generated_Source\PSoC4/CapSense.c **** /*******************************************************************************
 719:Generated_Source\PSoC4/CapSense.c **** * Function Name: CapSense_ReadSensorRaw
 720:Generated_Source\PSoC4/CapSense.c **** ********************************************************************************
 721:Generated_Source\PSoC4/CapSense.c **** *
 722:Generated_Source\PSoC4/CapSense.c **** * Summary:
 723:Generated_Source\PSoC4/CapSense.c **** *  Returns sensor raw data from the global CapSense_sensorRaw[ ] array.
 724:Generated_Source\PSoC4/CapSense.c **** *  Each scan sensor has a unique number within the sensor array.
 725:Generated_Source\PSoC4/CapSense.c **** *  This number is assigned by the CapSense customizer in sequence.
 726:Generated_Source\PSoC4/CapSense.c **** *  Raw data can be used to perform calculations outside of the CapSense
 727:Generated_Source\PSoC4/CapSense.c **** *  provided framework.
 728:Generated_Source\PSoC4/CapSense.c **** *
 729:Generated_Source\PSoC4/CapSense.c **** * Parameters:
 730:Generated_Source\PSoC4/CapSense.c **** *  sensor:  Sensor number.
 731:Generated_Source\PSoC4/CapSense.c **** *
 732:Generated_Source\PSoC4/CapSense.c **** * Return:
 733:Generated_Source\PSoC4/CapSense.c **** *  Returns the current raw data value for a defined sensor number.
 734:Generated_Source\PSoC4/CapSense.c **** *
 735:Generated_Source\PSoC4/CapSense.c **** * Global Variables:
 736:Generated_Source\PSoC4/CapSense.c **** *  CapSense_sensorRaw[] - used to store sensors raw data.
 737:Generated_Source\PSoC4/CapSense.c **** *
 738:Generated_Source\PSoC4/CapSense.c **** * Side Effects:
 739:Generated_Source\PSoC4/CapSense.c **** *  None
 740:Generated_Source\PSoC4/CapSense.c **** *
 741:Generated_Source\PSoC4/CapSense.c **** *******************************************************************************/
 742:Generated_Source\PSoC4/CapSense.c **** uint16 CapSense_ReadSensorRaw(uint32 sensor)
 743:Generated_Source\PSoC4/CapSense.c **** {
 276              		.loc 1 743 0
 277              		.cfi_startproc
 278              		@ args = 0, pretend = 0, frame = 0
 279              		@ frame_needed = 0, uses_anonymous_args = 0
 280              		@ link register save eliminated.
 281              	.LVL26:
 744:Generated_Source\PSoC4/CapSense.c ****     return CapSense_sensorRaw[sensor];
 282              		.loc 1 744 0
ARM GAS  C:\Users\JamesN4\AppData\Local\Temp\cceXLNdw.s 			page 19


 283 0000 4000     		lsls	r0, r0, #1
 284              	.LVL27:
 285 0002 024B     		ldr	r3, .L14
 286 0004 1818     		adds	r0, r3, r0
 287 0006 8088     		ldrh	r0, [r0, #4]
 745:Generated_Source\PSoC4/CapSense.c **** }
 288              		.loc 1 745 0
 289              		@ sp needed
 290 0008 7047     		bx	lr
 291              	.L15:
 292 000a C046     		.align	2
 293              	.L14:
 294 000c 00000000 		.word	.LANCHOR0
 295              		.cfi_endproc
 296              	.LFE43:
 297              		.size	CapSense_ReadSensorRaw, .-CapSense_ReadSensorRaw
 298              		.section	.text.CapSense_WriteSensorRaw,"ax",%progbits
 299              		.align	2
 300              		.global	CapSense_WriteSensorRaw
 301              		.code	16
 302              		.thumb_func
 303              		.type	CapSense_WriteSensorRaw, %function
 304              	CapSense_WriteSensorRaw:
 305              	.LFB44:
 746:Generated_Source\PSoC4/CapSense.c **** 
 747:Generated_Source\PSoC4/CapSense.c **** 
 748:Generated_Source\PSoC4/CapSense.c **** /*******************************************************************************
 749:Generated_Source\PSoC4/CapSense.c **** * Function Name: CapSense_WriteSensorRaw
 750:Generated_Source\PSoC4/CapSense.c **** ********************************************************************************
 751:Generated_Source\PSoC4/CapSense.c **** *
 752:Generated_Source\PSoC4/CapSense.c **** * Summary:
 753:Generated_Source\PSoC4/CapSense.c **** *  This API writes the raw count value passed as an argument to the sensor Raw count array.
 754:Generated_Source\PSoC4/CapSense.c **** *
 755:Generated_Source\PSoC4/CapSense.c **** * Parameters:
 756:Generated_Source\PSoC4/CapSense.c **** *  sensor:  Sensor number.
 757:Generated_Source\PSoC4/CapSense.c **** *  value: Raw count value.
 758:Generated_Source\PSoC4/CapSense.c **** *
 759:Generated_Source\PSoC4/CapSense.c **** * Global Variables:
 760:Generated_Source\PSoC4/CapSense.c **** *  CapSense_sensorRaw[] - used to store sensors raw data.
 761:Generated_Source\PSoC4/CapSense.c **** *
 762:Generated_Source\PSoC4/CapSense.c **** * Return:
 763:Generated_Source\PSoC4/CapSense.c **** *  None
 764:Generated_Source\PSoC4/CapSense.c **** *
 765:Generated_Source\PSoC4/CapSense.c **** * Side Effects:
 766:Generated_Source\PSoC4/CapSense.c **** *  None
 767:Generated_Source\PSoC4/CapSense.c **** *
 768:Generated_Source\PSoC4/CapSense.c **** *******************************************************************************/
 769:Generated_Source\PSoC4/CapSense.c **** void CapSense_WriteSensorRaw(uint32 sensor, uint16 value)
 770:Generated_Source\PSoC4/CapSense.c **** {
 306              		.loc 1 770 0
 307              		.cfi_startproc
 308              		@ args = 0, pretend = 0, frame = 0
 309              		@ frame_needed = 0, uses_anonymous_args = 0
 310              		@ link register save eliminated.
 311              	.LVL28:
 771:Generated_Source\PSoC4/CapSense.c ****     CapSense_sensorRaw[sensor] = value;
 312              		.loc 1 771 0
ARM GAS  C:\Users\JamesN4\AppData\Local\Temp\cceXLNdw.s 			page 20


 313 0000 4000     		lsls	r0, r0, #1
 314              	.LVL29:
 315 0002 024B     		ldr	r3, .L17
 316 0004 1818     		adds	r0, r3, r0
 317 0006 8180     		strh	r1, [r0, #4]
 772:Generated_Source\PSoC4/CapSense.c **** }
 318              		.loc 1 772 0
 319              		@ sp needed
 320 0008 7047     		bx	lr
 321              	.L18:
 322 000a C046     		.align	2
 323              	.L17:
 324 000c 00000000 		.word	.LANCHOR0
 325              		.cfi_endproc
 326              	.LFE44:
 327              		.size	CapSense_WriteSensorRaw, .-CapSense_WriteSensorRaw
 328              		.section	.text.CapSense_SetScanResolution,"ax",%progbits
 329              		.align	2
 330              		.global	CapSense_SetScanResolution
 331              		.code	16
 332              		.thumb_func
 333              		.type	CapSense_SetScanResolution, %function
 334              	CapSense_SetScanResolution:
 335              	.LFB45:
 773:Generated_Source\PSoC4/CapSense.c **** 
 774:Generated_Source\PSoC4/CapSense.c **** 
 775:Generated_Source\PSoC4/CapSense.c **** #if (CapSense_TUNING_METHOD != CapSense__TUNING_NONE)
 776:Generated_Source\PSoC4/CapSense.c ****     /*******************************************************************************
 777:Generated_Source\PSoC4/CapSense.c ****     * Function Name: CapSense_SetScanResolution
 778:Generated_Source\PSoC4/CapSense.c ****     ********************************************************************************
 779:Generated_Source\PSoC4/CapSense.c ****     *
 780:Generated_Source\PSoC4/CapSense.c ****     * Summary:
 781:Generated_Source\PSoC4/CapSense.c ****     *  Sets a value of the sensor scan resolution for a widget.
 782:Generated_Source\PSoC4/CapSense.c ****     *  The MIN resolution can be set 8-bit. The MAX Resolution can be set 16 bit.
 783:Generated_Source\PSoC4/CapSense.c ****     *  This function is not available for the tuning mode "None".
 784:Generated_Source\PSoC4/CapSense.c ****     *
 785:Generated_Source\PSoC4/CapSense.c ****     * Parameters:
 786:Generated_Source\PSoC4/CapSense.c ****     *  widget:     Widget index.
 787:Generated_Source\PSoC4/CapSense.c ****     *  resolution: Represents the resolution value. The following defines which are available in th
 788:Generated_Source\PSoC4/CapSense.c ****     *              CapSense.h file should be used:
 789:Generated_Source\PSoC4/CapSense.c ****     *              CapSense_RESOLUTION_6_BITS
 790:Generated_Source\PSoC4/CapSense.c ****     *              CapSense_RESOLUTION_7_BITS
 791:Generated_Source\PSoC4/CapSense.c ****     *              CapSense_RESOLUTION_8_BITS
 792:Generated_Source\PSoC4/CapSense.c ****     *              CapSense_RESOLUTION_9_BITS
 793:Generated_Source\PSoC4/CapSense.c ****     *              CapSense_RESOLUTION_10_BITS
 794:Generated_Source\PSoC4/CapSense.c ****     *              CapSense_RESOLUTION_11_BITS
 795:Generated_Source\PSoC4/CapSense.c ****     *              CapSense_RESOLUTION_12_BITS
 796:Generated_Source\PSoC4/CapSense.c ****     *              CapSense_RESOLUTION_13_BITS
 797:Generated_Source\PSoC4/CapSense.c ****     *              CapSense_RESOLUTION_14_BITS
 798:Generated_Source\PSoC4/CapSense.c ****     *              CapSense_RESOLUTION_15_BITS
 799:Generated_Source\PSoC4/CapSense.c ****     *              CapSense_RESOLUTION_16_BITS
 800:Generated_Source\PSoC4/CapSense.c ****     *
 801:Generated_Source\PSoC4/CapSense.c ****     * Return:
 802:Generated_Source\PSoC4/CapSense.c ****     *  None
 803:Generated_Source\PSoC4/CapSense.c ****     *
 804:Generated_Source\PSoC4/CapSense.c ****     * Global Variables:
 805:Generated_Source\PSoC4/CapSense.c ****     *  CapSense_widgetResolution[] - used to store scan resolution of each widget.
ARM GAS  C:\Users\JamesN4\AppData\Local\Temp\cceXLNdw.s 			page 21


 806:Generated_Source\PSoC4/CapSense.c ****     *
 807:Generated_Source\PSoC4/CapSense.c ****     * Side Effects:
 808:Generated_Source\PSoC4/CapSense.c ****     *  None
 809:Generated_Source\PSoC4/CapSense.c ****     *
 810:Generated_Source\PSoC4/CapSense.c ****     *******************************************************************************/
 811:Generated_Source\PSoC4/CapSense.c ****     void CapSense_SetScanResolution(uint32 widget, uint32 resolution)
 812:Generated_Source\PSoC4/CapSense.c ****     {
 336              		.loc 1 812 0
 337              		.cfi_startproc
 338              		@ args = 0, pretend = 0, frame = 0
 339              		@ frame_needed = 0, uses_anonymous_args = 0
 340              		@ link register save eliminated.
 341              	.LVL30:
 813:Generated_Source\PSoC4/CapSense.c ****         CapSense_widgetResolution[widget] = resolution;
 342              		.loc 1 813 0
 343 0000 8000     		lsls	r0, r0, #2
 344              	.LVL31:
 345 0002 014B     		ldr	r3, .L20
 346 0004 C150     		str	r1, [r0, r3]
 814:Generated_Source\PSoC4/CapSense.c ****     }
 347              		.loc 1 814 0
 348              		@ sp needed
 349 0006 7047     		bx	lr
 350              	.L21:
 351              		.align	2
 352              	.L20:
 353 0008 00000000 		.word	.LANCHOR1
 354              		.cfi_endproc
 355              	.LFE45:
 356              		.size	CapSense_SetScanResolution, .-CapSense_SetScanResolution
 357              		.section	.text.CapSense_GetScanResolution,"ax",%progbits
 358              		.align	2
 359              		.global	CapSense_GetScanResolution
 360              		.code	16
 361              		.thumb_func
 362              		.type	CapSense_GetScanResolution, %function
 363              	CapSense_GetScanResolution:
 364              	.LFB46:
 815:Generated_Source\PSoC4/CapSense.c **** #endif /* (CapSense_TUNING_METHOD != CapSense__TUNING_NONE) */
 816:Generated_Source\PSoC4/CapSense.c **** 
 817:Generated_Source\PSoC4/CapSense.c **** 
 818:Generated_Source\PSoC4/CapSense.c **** /*******************************************************************************
 819:Generated_Source\PSoC4/CapSense.c **** * Function Name: CapSense_GetScanResolution
 820:Generated_Source\PSoC4/CapSense.c **** ********************************************************************************
 821:Generated_Source\PSoC4/CapSense.c **** *
 822:Generated_Source\PSoC4/CapSense.c **** * Summary:
 823:Generated_Source\PSoC4/CapSense.c **** *  Returns the resolution value for the appropriate sensor.
 824:Generated_Source\PSoC4/CapSense.c **** *  This function is not available for tuning mode "None".
 825:Generated_Source\PSoC4/CapSense.c **** *
 826:Generated_Source\PSoC4/CapSense.c **** * Parameters:
 827:Generated_Source\PSoC4/CapSense.c **** *  widget:     Widget index.
 828:Generated_Source\PSoC4/CapSense.c **** *
 829:Generated_Source\PSoC4/CapSense.c **** * Return:
 830:Generated_Source\PSoC4/CapSense.c **** *  resolution: Returns the resolution value for the appropriate sensor.
 831:Generated_Source\PSoC4/CapSense.c **** *              The resolution values are defined in the CapSense.h file
 832:Generated_Source\PSoC4/CapSense.c **** *              The defines are encountered below:
 833:Generated_Source\PSoC4/CapSense.c **** *              CapSense_RESOLUTION_6_BITS
ARM GAS  C:\Users\JamesN4\AppData\Local\Temp\cceXLNdw.s 			page 22


 834:Generated_Source\PSoC4/CapSense.c **** *              CapSense_RESOLUTION_7_BITS
 835:Generated_Source\PSoC4/CapSense.c **** *              CapSense_RESOLUTION_8_BITS
 836:Generated_Source\PSoC4/CapSense.c **** *              CapSense_RESOLUTION_9_BITS
 837:Generated_Source\PSoC4/CapSense.c **** *              CapSense_RESOLUTION_10_BITS
 838:Generated_Source\PSoC4/CapSense.c **** *              CapSense_RESOLUTION_11_BITS
 839:Generated_Source\PSoC4/CapSense.c **** *              CapSense_RESOLUTION_12_BITS
 840:Generated_Source\PSoC4/CapSense.c **** *              CapSense_RESOLUTION_13_BITS
 841:Generated_Source\PSoC4/CapSense.c **** *              CapSense_RESOLUTION_14_BITS
 842:Generated_Source\PSoC4/CapSense.c **** *              CapSense_RESOLUTION_15_BITS
 843:Generated_Source\PSoC4/CapSense.c **** *              CapSense_RESOLUTION_16_BITS
 844:Generated_Source\PSoC4/CapSense.c **** *
 845:Generated_Source\PSoC4/CapSense.c **** * Global Variables:
 846:Generated_Source\PSoC4/CapSense.c **** *  CapSense_widgetResolution[] - used to store scan resolution of every widget.
 847:Generated_Source\PSoC4/CapSense.c **** *
 848:Generated_Source\PSoC4/CapSense.c **** * Side Effects:
 849:Generated_Source\PSoC4/CapSense.c **** *  None
 850:Generated_Source\PSoC4/CapSense.c **** *
 851:Generated_Source\PSoC4/CapSense.c **** *******************************************************************************/
 852:Generated_Source\PSoC4/CapSense.c **** uint32 CapSense_GetScanResolution(uint32 widget)
 853:Generated_Source\PSoC4/CapSense.c **** {
 365              		.loc 1 853 0
 366              		.cfi_startproc
 367              		@ args = 0, pretend = 0, frame = 0
 368              		@ frame_needed = 0, uses_anonymous_args = 0
 369              		@ link register save eliminated.
 370              	.LVL32:
 854:Generated_Source\PSoC4/CapSense.c ****     return(CapSense_widgetResolution[widget]);
 371              		.loc 1 854 0
 372 0000 8000     		lsls	r0, r0, #2
 373              	.LVL33:
 374 0002 014B     		ldr	r3, .L23
 375 0004 C058     		ldr	r0, [r0, r3]
 855:Generated_Source\PSoC4/CapSense.c **** }
 376              		.loc 1 855 0
 377              		@ sp needed
 378 0006 7047     		bx	lr
 379              	.L24:
 380              		.align	2
 381              	.L23:
 382 0008 00000000 		.word	.LANCHOR1
 383              		.cfi_endproc
 384              	.LFE46:
 385              		.size	CapSense_GetScanResolution, .-CapSense_GetScanResolution
 386              		.section	.text.CapSense_EnableSensor,"ax",%progbits
 387              		.align	2
 388              		.global	CapSense_EnableSensor
 389              		.code	16
 390              		.thumb_func
 391              		.type	CapSense_EnableSensor, %function
 392              	CapSense_EnableSensor:
 393              	.LFB48:
 856:Generated_Source\PSoC4/CapSense.c **** 
 857:Generated_Source\PSoC4/CapSense.c **** 
 858:Generated_Source\PSoC4/CapSense.c **** /*******************************************************************************
 859:Generated_Source\PSoC4/CapSense.c **** * Function Name: CapSense_ClearSensors
 860:Generated_Source\PSoC4/CapSense.c **** ********************************************************************************
 861:Generated_Source\PSoC4/CapSense.c **** *
ARM GAS  C:\Users\JamesN4\AppData\Local\Temp\cceXLNdw.s 			page 23


 862:Generated_Source\PSoC4/CapSense.c **** * Summary:
 863:Generated_Source\PSoC4/CapSense.c **** *  Resets all the sensors to the non-sampling state by sequentially disconnecting
 864:Generated_Source\PSoC4/CapSense.c **** *  all the sensors from Analog MUX Bus and putting them to an inactive state.
 865:Generated_Source\PSoC4/CapSense.c **** *
 866:Generated_Source\PSoC4/CapSense.c **** * Parameters:
 867:Generated_Source\PSoC4/CapSense.c **** *  None
 868:Generated_Source\PSoC4/CapSense.c **** *
 869:Generated_Source\PSoC4/CapSense.c **** * Return:
 870:Generated_Source\PSoC4/CapSense.c **** *  None
 871:Generated_Source\PSoC4/CapSense.c **** *
 872:Generated_Source\PSoC4/CapSense.c **** * Global Variables:
 873:Generated_Source\PSoC4/CapSense.c **** *  None
 874:Generated_Source\PSoC4/CapSense.c **** *
 875:Generated_Source\PSoC4/CapSense.c **** * Side Effects:
 876:Generated_Source\PSoC4/CapSense.c **** *  None
 877:Generated_Source\PSoC4/CapSense.c **** *
 878:Generated_Source\PSoC4/CapSense.c **** *******************************************************************************/
 879:Generated_Source\PSoC4/CapSense.c **** void CapSense_ClearSensors(void)
 880:Generated_Source\PSoC4/CapSense.c **** {
 881:Generated_Source\PSoC4/CapSense.c ****     uint32 snsIndex;
 882:Generated_Source\PSoC4/CapSense.c **** 
 883:Generated_Source\PSoC4/CapSense.c ****     for (snsIndex = 0u; snsIndex < CapSense_TOTAL_SENSOR_COUNT; snsIndex++)
 884:Generated_Source\PSoC4/CapSense.c ****     {
 885:Generated_Source\PSoC4/CapSense.c ****         CapSense_DisableScanSlot(snsIndex);
 886:Generated_Source\PSoC4/CapSense.c ****     }
 887:Generated_Source\PSoC4/CapSense.c **** }
 888:Generated_Source\PSoC4/CapSense.c **** 
 889:Generated_Source\PSoC4/CapSense.c **** 
 890:Generated_Source\PSoC4/CapSense.c **** #if (CapSense_IS_COMPLEX_SCANSLOTS)
 891:Generated_Source\PSoC4/CapSense.c ****     /*******************************************************************************
 892:Generated_Source\PSoC4/CapSense.c ****     * Function Name: CapSense_EnableScanSlot
 893:Generated_Source\PSoC4/CapSense.c ****     ********************************************************************************
 894:Generated_Source\PSoC4/CapSense.c ****     *
 895:Generated_Source\PSoC4/CapSense.c ****     * Summary:
 896:Generated_Source\PSoC4/CapSense.c ****     *  Configures the selected slot to measure during the next measurement
 897:Generated_Source\PSoC4/CapSense.c ****     *  cycle. The corresponding pin/pins are set to Analog High-Z mode and
 898:Generated_Source\PSoC4/CapSense.c ****     *  connected to the Analog Mux Bus. This also enables the comparator function.
 899:Generated_Source\PSoC4/CapSense.c ****     *
 900:Generated_Source\PSoC4/CapSense.c ****     * Parameters:
 901:Generated_Source\PSoC4/CapSense.c ****     *  slot:  Slot number.
 902:Generated_Source\PSoC4/CapSense.c ****     *
 903:Generated_Source\PSoC4/CapSense.c ****     * Return:
 904:Generated_Source\PSoC4/CapSense.c ****     *  None
 905:Generated_Source\PSoC4/CapSense.c ****     *
 906:Generated_Source\PSoC4/CapSense.c ****     * Global Constants:
 907:Generated_Source\PSoC4/CapSense.c ****     *  CapSense_portTable[]  - used to store the port number that pin
 908:Generated_Source\PSoC4/CapSense.c ****     *  belongs to for each sensor.
 909:Generated_Source\PSoC4/CapSense.c ****     *  CapSense_maskTable[]  - used to store the pin within the port for
 910:Generated_Source\PSoC4/CapSense.c ****     *  each sensor.
 911:Generated_Source\PSoC4/CapSense.c ****     *  CapSense_indexTable[] - used to store indexes of complex sensors.
 912:Generated_Source\PSoC4/CapSense.c ****     *  The offset and position in this array are stored in a port and mask table for
 913:Generated_Source\PSoC4/CapSense.c ****     *  complex sensors.
 914:Generated_Source\PSoC4/CapSense.c ****     *  Bit 7 (msb) is used to define the sensor type: single or complex.
 915:Generated_Source\PSoC4/CapSense.c ****     *
 916:Generated_Source\PSoC4/CapSense.c ****     * Side Effects:
 917:Generated_Source\PSoC4/CapSense.c ****     *  None
 918:Generated_Source\PSoC4/CapSense.c ****     *
ARM GAS  C:\Users\JamesN4\AppData\Local\Temp\cceXLNdw.s 			page 24


 919:Generated_Source\PSoC4/CapSense.c ****     *******************************************************************************/
 920:Generated_Source\PSoC4/CapSense.c ****     void CapSense_EnableScanSlot(uint32 slot)
 921:Generated_Source\PSoC4/CapSense.c ****     {
 922:Generated_Source\PSoC4/CapSense.c ****         uint8 j;
 923:Generated_Source\PSoC4/CapSense.c ****         uint8 snsNumber;
 924:Generated_Source\PSoC4/CapSense.c ****         const uint8 *index;
 925:Generated_Source\PSoC4/CapSense.c ****         /* Read sensor type: single or complex */
 926:Generated_Source\PSoC4/CapSense.c ****         uint8 snsType = CapSense_portTable[slot];
 927:Generated_Source\PSoC4/CapSense.c **** 
 928:Generated_Source\PSoC4/CapSense.c ****         /* Check if sensor is complex */
 929:Generated_Source\PSoC4/CapSense.c ****         if ((snsType & CapSense_COMPLEX_SS_FLAG) == 0u)
 930:Generated_Source\PSoC4/CapSense.c ****         {
 931:Generated_Source\PSoC4/CapSense.c ****             /* Enable sensor (single) */
 932:Generated_Source\PSoC4/CapSense.c ****             CapSense_EnableSensor(slot);
 933:Generated_Source\PSoC4/CapSense.c ****         }
 934:Generated_Source\PSoC4/CapSense.c ****         else
 935:Generated_Source\PSoC4/CapSense.c ****         {
 936:Generated_Source\PSoC4/CapSense.c ****             /* Enable complex sensor */
 937:Generated_Source\PSoC4/CapSense.c ****             snsType &= ~CapSense_COMPLEX_SS_FLAG;
 938:Generated_Source\PSoC4/CapSense.c ****             index = &CapSense_indexTable[snsType];
 939:Generated_Source\PSoC4/CapSense.c ****             snsNumber = CapSense_maskTable[slot];
 940:Generated_Source\PSoC4/CapSense.c **** 
 941:Generated_Source\PSoC4/CapSense.c ****             for (j = 0u; j < snsNumber; j++)
 942:Generated_Source\PSoC4/CapSense.c ****             {
 943:Generated_Source\PSoC4/CapSense.c ****                 CapSense_EnableSensor(index[j]);
 944:Generated_Source\PSoC4/CapSense.c ****             }
 945:Generated_Source\PSoC4/CapSense.c ****         }
 946:Generated_Source\PSoC4/CapSense.c ****     }
 947:Generated_Source\PSoC4/CapSense.c **** 
 948:Generated_Source\PSoC4/CapSense.c **** 
 949:Generated_Source\PSoC4/CapSense.c ****     /*******************************************************************************
 950:Generated_Source\PSoC4/CapSense.c ****     * Function Name: CapSense_DisableScanSlot
 951:Generated_Source\PSoC4/CapSense.c ****     ********************************************************************************
 952:Generated_Source\PSoC4/CapSense.c ****     *
 953:Generated_Source\PSoC4/CapSense.c ****     * Summary:
 954:Generated_Source\PSoC4/CapSense.c ****     *  Disables the selected slot. The corresponding pin/pins is/are disconnected
 955:Generated_Source\PSoC4/CapSense.c ****     *  from the Analog Mux Bus and connected to GND, High_Z or Shield electrode.
 956:Generated_Source\PSoC4/CapSense.c ****     *
 957:Generated_Source\PSoC4/CapSense.c ****     * Parameters:
 958:Generated_Source\PSoC4/CapSense.c ****     *  slot:  Slot number.
 959:Generated_Source\PSoC4/CapSense.c ****     *
 960:Generated_Source\PSoC4/CapSense.c ****     * Return:
 961:Generated_Source\PSoC4/CapSense.c ****     *  None
 962:Generated_Source\PSoC4/CapSense.c ****     *
 963:Generated_Source\PSoC4/CapSense.c ****     * Global Variables:
 964:Generated_Source\PSoC4/CapSense.c ****     *  CapSense_portTable[]  - used to store the port number that pin
 965:Generated_Source\PSoC4/CapSense.c ****     *  belongs to for each sensor.
 966:Generated_Source\PSoC4/CapSense.c ****     *  CapSense_maskTable[]  - used to store the pin within the port for
 967:Generated_Source\PSoC4/CapSense.c ****     *  each sensor.
 968:Generated_Source\PSoC4/CapSense.c ****     *  CapSense_indexTable[] - used to store indexes of complex sensors.
 969:Generated_Source\PSoC4/CapSense.c ****     *  The offset and position in this array are stored in a port and mask table for
 970:Generated_Source\PSoC4/CapSense.c ****     *  complex sensors.
 971:Generated_Source\PSoC4/CapSense.c ****     *  7bit(msb) is used to define the sensor type: single or complex.
 972:Generated_Source\PSoC4/CapSense.c ****     *
 973:Generated_Source\PSoC4/CapSense.c ****     * Side Effects:
 974:Generated_Source\PSoC4/CapSense.c ****     *  None
 975:Generated_Source\PSoC4/CapSense.c ****     *
ARM GAS  C:\Users\JamesN4\AppData\Local\Temp\cceXLNdw.s 			page 25


 976:Generated_Source\PSoC4/CapSense.c ****     *******************************************************************************/
 977:Generated_Source\PSoC4/CapSense.c ****     void CapSense_DisableScanSlot(uint32 slot)
 978:Generated_Source\PSoC4/CapSense.c ****     {
 979:Generated_Source\PSoC4/CapSense.c ****         uint8 j;
 980:Generated_Source\PSoC4/CapSense.c ****         uint8 snsNumber;
 981:Generated_Source\PSoC4/CapSense.c ****         const uint8 *index;
 982:Generated_Source\PSoC4/CapSense.c **** 
 983:Generated_Source\PSoC4/CapSense.c ****         /* Read sensor type: single or complex */
 984:Generated_Source\PSoC4/CapSense.c ****         uint8 snsType = CapSense_portTable[slot];
 985:Generated_Source\PSoC4/CapSense.c **** 
 986:Generated_Source\PSoC4/CapSense.c ****         /* Check if sensor is complex */
 987:Generated_Source\PSoC4/CapSense.c ****         if ((snsType & CapSense_COMPLEX_SS_FLAG) == 0u)
 988:Generated_Source\PSoC4/CapSense.c ****         {
 989:Generated_Source\PSoC4/CapSense.c ****             /* Disable sensor (single) */
 990:Generated_Source\PSoC4/CapSense.c ****             CapSense_DisableSensor(slot);
 991:Generated_Source\PSoC4/CapSense.c ****         }
 992:Generated_Source\PSoC4/CapSense.c ****         else
 993:Generated_Source\PSoC4/CapSense.c ****         {
 994:Generated_Source\PSoC4/CapSense.c ****             /* Disable complex sensor */
 995:Generated_Source\PSoC4/CapSense.c ****             snsType &= ~CapSense_COMPLEX_SS_FLAG;
 996:Generated_Source\PSoC4/CapSense.c ****             index = &CapSense_indexTable[snsType];
 997:Generated_Source\PSoC4/CapSense.c ****             snsNumber = CapSense_maskTable[slot];
 998:Generated_Source\PSoC4/CapSense.c **** 
 999:Generated_Source\PSoC4/CapSense.c ****             for (j=0; j < snsNumber; j++)
1000:Generated_Source\PSoC4/CapSense.c ****             {
1001:Generated_Source\PSoC4/CapSense.c ****                 CapSense_DisableSensor(index[j]);
1002:Generated_Source\PSoC4/CapSense.c ****             }
1003:Generated_Source\PSoC4/CapSense.c ****         }
1004:Generated_Source\PSoC4/CapSense.c ****     }
1005:Generated_Source\PSoC4/CapSense.c **** #endif  /* CapSense_IS_COMPLEX_SCANSLOTS */
1006:Generated_Source\PSoC4/CapSense.c **** 
1007:Generated_Source\PSoC4/CapSense.c **** 
1008:Generated_Source\PSoC4/CapSense.c **** /*******************************************************************************
1009:Generated_Source\PSoC4/CapSense.c **** * Function Name: CapSense_EnableSensor
1010:Generated_Source\PSoC4/CapSense.c **** ********************************************************************************
1011:Generated_Source\PSoC4/CapSense.c **** *
1012:Generated_Source\PSoC4/CapSense.c **** * Summary:
1013:Generated_Source\PSoC4/CapSense.c **** *  Configures the selected sensor to measure during the next measurement cycle.
1014:Generated_Source\PSoC4/CapSense.c **** *  The corresponding pins are set to Analog High-Z mode and connected to the
1015:Generated_Source\PSoC4/CapSense.c **** *  Analog Mux Bus. This also enables the comparator function.
1016:Generated_Source\PSoC4/CapSense.c **** *
1017:Generated_Source\PSoC4/CapSense.c **** * Parameters:
1018:Generated_Source\PSoC4/CapSense.c **** *  sensor:  Sensor number.
1019:Generated_Source\PSoC4/CapSense.c **** *
1020:Generated_Source\PSoC4/CapSense.c **** * Return:
1021:Generated_Source\PSoC4/CapSense.c **** *  None
1022:Generated_Source\PSoC4/CapSense.c **** *
1023:Generated_Source\PSoC4/CapSense.c **** * Global Variables:
1024:Generated_Source\PSoC4/CapSense.c **** *  CapSense_portTable[] - used to store the port number that pin
1025:Generated_Source\PSoC4/CapSense.c **** *  belongs to for each sensor.
1026:Generated_Source\PSoC4/CapSense.c **** *  CapSense_pinShiftTbl[] - used to store position of pin that
1027:Generated_Source\PSoC4/CapSense.c **** *  configured as sensor in port.
1028:Generated_Source\PSoC4/CapSense.c **** *  CapSense_prtSelTbl[] - Contains pointers to the HSIOM
1029:Generated_Source\PSoC4/CapSense.c **** *  registers for each port.
1030:Generated_Source\PSoC4/CapSense.c **** *  CapSense_PrtCfgTb[] - Contains pointers to the port config
1031:Generated_Source\PSoC4/CapSense.c **** *  registers for each port.
1032:Generated_Source\PSoC4/CapSense.c **** *
ARM GAS  C:\Users\JamesN4\AppData\Local\Temp\cceXLNdw.s 			page 26


1033:Generated_Source\PSoC4/CapSense.c **** * Side Effects:
1034:Generated_Source\PSoC4/CapSense.c **** *  None
1035:Generated_Source\PSoC4/CapSense.c **** *
1036:Generated_Source\PSoC4/CapSense.c **** *******************************************************************************/
1037:Generated_Source\PSoC4/CapSense.c **** void CapSense_EnableSensor(uint32 sensor)
1038:Generated_Source\PSoC4/CapSense.c **** {
 394              		.loc 1 1038 0
 395              		.cfi_startproc
 396              		@ args = 0, pretend = 0, frame = 0
 397              		@ frame_needed = 0, uses_anonymous_args = 0
 398              	.LVL34:
 399 0000 F8B5     		push	{r3, r4, r5, r6, r7, lr}
 400              		.cfi_def_cfa_offset 24
 401              		.cfi_offset 3, -24
 402              		.cfi_offset 4, -20
 403              		.cfi_offset 5, -16
 404              		.cfi_offset 6, -12
 405              		.cfi_offset 7, -8
 406              		.cfi_offset 14, -4
1039:Generated_Source\PSoC4/CapSense.c ****     uint8  pinModeShift;
1040:Generated_Source\PSoC4/CapSense.c ****     uint8  pinHSIOMShift;
1041:Generated_Source\PSoC4/CapSense.c ****     uint8 interruptState;
1042:Generated_Source\PSoC4/CapSense.c ****     uint32 newRegisterValue;
1043:Generated_Source\PSoC4/CapSense.c ****     uint32 port;
1044:Generated_Source\PSoC4/CapSense.c **** 
1045:Generated_Source\PSoC4/CapSense.c ****     port = (uint32) CapSense_portTable[sensor];
 407              		.loc 1 1045 0
 408 0002 104F     		ldr	r7, .L26
 409 0004 3E5C     		ldrb	r6, [r7, r0]
 410              	.LVL35:
1046:Generated_Source\PSoC4/CapSense.c ****     pinModeShift = CapSense_pinShiftTbl[sensor]  * CapSense_PC_PIN_CFG_SIZE;
 411              		.loc 1 1046 0
 412 0006 3818     		adds	r0, r7, r0
 413              	.LVL36:
 414 0008 0379     		ldrb	r3, [r0, #4]
 415 000a 5D00     		lsls	r5, r3, #1
 416 000c 5D19     		adds	r5, r3, r5
 417 000e EDB2     		uxtb	r5, r5
 418              	.LVL37:
1047:Generated_Source\PSoC4/CapSense.c ****     pinHSIOMShift = CapSense_pinShiftTbl[sensor] * CapSense_HSIOM_PIN_CFG_SIZE;
 419              		.loc 1 1047 0
 420 0010 9B00     		lsls	r3, r3, #2
 421 0012 DCB2     		uxtb	r4, r3
 422              	.LVL38:
1048:Generated_Source\PSoC4/CapSense.c **** 
1049:Generated_Source\PSoC4/CapSense.c ****     interruptState = CyEnterCriticalSection();
 423              		.loc 1 1049 0
 424 0014 FFF7FEFF 		bl	CyEnterCriticalSection
 425              	.LVL39:
1050:Generated_Source\PSoC4/CapSense.c **** 
1051:Generated_Source\PSoC4/CapSense.c ****     newRegisterValue = *CapSense_prtSelTbl[port];
 426              		.loc 1 1051 0
 427 0018 B300     		lsls	r3, r6, #2
 428 001a FB18     		adds	r3, r7, r3
 429 001c 9E68     		ldr	r6, [r3, #8]
 430              	.LVL40:
 431 001e 3268     		ldr	r2, [r6]
ARM GAS  C:\Users\JamesN4\AppData\Local\Temp\cceXLNdw.s 			page 27


 432              	.LVL41:
1052:Generated_Source\PSoC4/CapSense.c ****     newRegisterValue &= ~(CapSense_CSD_HSIOM_MASK << pinHSIOMShift);
 433              		.loc 1 1052 0
 434 0020 0F21     		movs	r1, #15
 435 0022 A140     		lsls	r1, r1, r4
 436 0024 8A43     		bics	r2, r1
 437              	.LVL42:
 438 0026 1100     		movs	r1, r2
 439              	.LVL43:
1053:Generated_Source\PSoC4/CapSense.c ****     newRegisterValue |= (uint32)((uint32)CapSense_CSD_SENSE_PORT_MODE << pinHSIOMShift);
 440              		.loc 1 1053 0
 441 0028 0422     		movs	r2, #4
 442 002a A240     		lsls	r2, r2, r4
 443 002c 0A43     		orrs	r2, r1
 444              	.LVL44:
1054:Generated_Source\PSoC4/CapSense.c **** 
1055:Generated_Source\PSoC4/CapSense.c ****     *CapSense_prtCfgTbl[port] &= (uint32)~((uint32)CapSense_CSD_PIN_MODE_MASK << pinModeShift);
 445              		.loc 1 1055 0
 446 002e 9C6A     		ldr	r4, [r3, #40]
 447              	.LVL45:
 448 0030 2368     		ldr	r3, [r4]
 449 0032 0721     		movs	r1, #7
 450 0034 A940     		lsls	r1, r1, r5
 451 0036 8B43     		bics	r3, r1
 452 0038 2360     		str	r3, [r4]
1056:Generated_Source\PSoC4/CapSense.c ****     *CapSense_prtSelTbl[port] = newRegisterValue;
 453              		.loc 1 1056 0
 454 003a 3260     		str	r2, [r6]
1057:Generated_Source\PSoC4/CapSense.c **** 
1058:Generated_Source\PSoC4/CapSense.c ****     CyExitCriticalSection(interruptState);
 455              		.loc 1 1058 0
 456 003c FFF7FEFF 		bl	CyExitCriticalSection
 457              	.LVL46:
1059:Generated_Source\PSoC4/CapSense.c **** }
 458              		.loc 1 1059 0
 459              		@ sp needed
 460              	.LVL47:
 461              	.LVL48:
 462 0040 F8BD     		pop	{r3, r4, r5, r6, r7, pc}
 463              	.L27:
 464 0042 C046     		.align	2
 465              	.L26:
 466 0044 00000000 		.word	.LANCHOR2
 467              		.cfi_endproc
 468              	.LFE48:
 469              		.size	CapSense_EnableSensor, .-CapSense_EnableSensor
 470              		.section	.text.CapSense_DisableSensor,"ax",%progbits
 471              		.align	2
 472              		.global	CapSense_DisableSensor
 473              		.code	16
 474              		.thumb_func
 475              		.type	CapSense_DisableSensor, %function
 476              	CapSense_DisableSensor:
 477              	.LFB49:
1060:Generated_Source\PSoC4/CapSense.c **** 
1061:Generated_Source\PSoC4/CapSense.c **** 
1062:Generated_Source\PSoC4/CapSense.c **** /*******************************************************************************
ARM GAS  C:\Users\JamesN4\AppData\Local\Temp\cceXLNdw.s 			page 28


1063:Generated_Source\PSoC4/CapSense.c **** * Function Name: CapSense_DisableSensor
1064:Generated_Source\PSoC4/CapSense.c **** ********************************************************************************
1065:Generated_Source\PSoC4/CapSense.c **** *
1066:Generated_Source\PSoC4/CapSense.c **** * Summary:
1067:Generated_Source\PSoC4/CapSense.c **** *  Disables the selected sensor. The corresponding pin is disconnected from the
1068:Generated_Source\PSoC4/CapSense.c **** *  Analog Mux Bus and connected to GND, High_Z or Shield electrode.
1069:Generated_Source\PSoC4/CapSense.c **** *
1070:Generated_Source\PSoC4/CapSense.c **** * Parameters:
1071:Generated_Source\PSoC4/CapSense.c **** *  sensor:  Sensor number
1072:Generated_Source\PSoC4/CapSense.c **** *
1073:Generated_Source\PSoC4/CapSense.c **** * Return:
1074:Generated_Source\PSoC4/CapSense.c **** *  None
1075:Generated_Source\PSoC4/CapSense.c **** *
1076:Generated_Source\PSoC4/CapSense.c **** * Global Variables:
1077:Generated_Source\PSoC4/CapSense.c **** *  CapSense_portTable[] - used to store the port number that pin
1078:Generated_Source\PSoC4/CapSense.c **** *  belongs to for each sensor.
1079:Generated_Source\PSoC4/CapSense.c **** *  CapSense_pinShiftTbl[] - used to store position of pin that
1080:Generated_Source\PSoC4/CapSense.c **** *  configured as a sensor in the port.
1081:Generated_Source\PSoC4/CapSense.c **** *  CapSense_prtSelTbl[] - Contains pointers to the HSIOM
1082:Generated_Source\PSoC4/CapSense.c **** *  registers for each port.
1083:Generated_Source\PSoC4/CapSense.c **** *  CapSense_PrtCfgTb[] - Contains pointers to the port config
1084:Generated_Source\PSoC4/CapSense.c **** *  registers for each port.
1085:Generated_Source\PSoC4/CapSense.c **** *
1086:Generated_Source\PSoC4/CapSense.c **** * Side Effects:
1087:Generated_Source\PSoC4/CapSense.c **** *  None
1088:Generated_Source\PSoC4/CapSense.c **** *
1089:Generated_Source\PSoC4/CapSense.c **** *******************************************************************************/
1090:Generated_Source\PSoC4/CapSense.c **** void CapSense_DisableSensor(uint32 sensor)
1091:Generated_Source\PSoC4/CapSense.c **** {
 478              		.loc 1 1091 0
 479              		.cfi_startproc
 480              		@ args = 0, pretend = 0, frame = 0
 481              		@ frame_needed = 0, uses_anonymous_args = 0
 482              	.LVL49:
 483 0000 F8B5     		push	{r3, r4, r5, r6, r7, lr}
 484              		.cfi_def_cfa_offset 24
 485              		.cfi_offset 3, -24
 486              		.cfi_offset 4, -20
 487              		.cfi_offset 5, -16
 488              		.cfi_offset 6, -12
 489              		.cfi_offset 7, -8
 490              		.cfi_offset 14, -4
1092:Generated_Source\PSoC4/CapSense.c ****     uint8 interruptState;
1093:Generated_Source\PSoC4/CapSense.c ****     uint32 newRegisterValue;
1094:Generated_Source\PSoC4/CapSense.c **** 
1095:Generated_Source\PSoC4/CapSense.c ****     uint32 port = (uint32) CapSense_portTable[sensor];
 491              		.loc 1 1095 0
 492 0002 194A     		ldr	r2, .L33
 493 0004 145C     		ldrb	r4, [r2, r0]
 494              	.LVL50:
1096:Generated_Source\PSoC4/CapSense.c ****     uint8  pinHSIOMShift = CapSense_pinShiftTbl[sensor] * CapSense_HSIOM_PIN_CFG_SIZE;
 495              		.loc 1 1096 0
 496 0006 1318     		adds	r3, r2, r0
 497 0008 1F79     		ldrb	r7, [r3, #4]
 498 000a B900     		lsls	r1, r7, #2
 499 000c C9B2     		uxtb	r1, r1
 500              	.LVL51:
ARM GAS  C:\Users\JamesN4\AppData\Local\Temp\cceXLNdw.s 			page 29


1097:Generated_Source\PSoC4/CapSense.c ****     uint8  pinModeShift = CapSense_pinShiftTbl[sensor]  * CapSense_PC_PIN_CFG_SIZE;
 501              		.loc 1 1097 0
 502 000e 7D00     		lsls	r5, r7, #1
 503 0010 7D19     		adds	r5, r7, r5
 504 0012 EDB2     		uxtb	r5, r5
 505              	.LVL52:
1098:Generated_Source\PSoC4/CapSense.c **** 
1099:Generated_Source\PSoC4/CapSense.c ****     uint32 inactiveConnect = CapSense_SNS_HIZANALOG_CONNECT;
1100:Generated_Source\PSoC4/CapSense.c ****     uint32 sensorState = CapSense_unscannedSnsDriveMode[sensor];
 506              		.loc 1 1100 0
 507 0014 154B     		ldr	r3, .L33+4
 508 0016 185C     		ldrb	r0, [r3, r0]
 509              	.LVL53:
1101:Generated_Source\PSoC4/CapSense.c **** 
1102:Generated_Source\PSoC4/CapSense.c ****     *CapSense_prtSelTbl[port] &= ~(CapSense_CSD_HSIOM_MASK << pinHSIOMShift);
 510              		.loc 1 1102 0
 511 0018 A300     		lsls	r3, r4, #2
 512 001a D318     		adds	r3, r2, r3
 513 001c 9E68     		ldr	r6, [r3, #8]
 514 001e 3368     		ldr	r3, [r6]
 515 0020 0F22     		movs	r2, #15
 516 0022 8A40     		lsls	r2, r2, r1
 517 0024 9343     		bics	r3, r2
 518 0026 3360     		str	r3, [r6]
1103:Generated_Source\PSoC4/CapSense.c **** 
1104:Generated_Source\PSoC4/CapSense.c ****     #if(CapSense_IS_SHIELD_ENABLE != 0)
1105:Generated_Source\PSoC4/CapSense.c ****     if(sensorState != (uint32)CapSense__SHIELD)
1106:Generated_Source\PSoC4/CapSense.c ****     {
1107:Generated_Source\PSoC4/CapSense.c ****     #else
1108:Generated_Source\PSoC4/CapSense.c ****         /* Connected to Ground if shield is disabled */
1109:Generated_Source\PSoC4/CapSense.c ****         if(sensorState == (uint32)CapSense__SHIELD)
 519              		.loc 1 1109 0
 520 0028 0228     		cmp	r0, #2
 521 002a 00D1     		bne	.L29
1110:Generated_Source\PSoC4/CapSense.c ****         {
1111:Generated_Source\PSoC4/CapSense.c ****             sensorState = (uint32)CapSense__GROUND;
 522              		.loc 1 1111 0
 523 002c 0020     		movs	r0, #0
 524              	.LVL54:
 525              	.L29:
1112:Generated_Source\PSoC4/CapSense.c ****         }
1113:Generated_Source\PSoC4/CapSense.c ****     #endif /* (CapSense_IS_SHIELD_ENABLE) */
1114:Generated_Source\PSoC4/CapSense.c ****         if(sensorState != (uint32)CapSense__HIZ_ANALOG)
 526              		.loc 1 1114 0
 527 002e 0128     		cmp	r0, #1
 528 0030 01D1     		bne	.L32
1099:Generated_Source\PSoC4/CapSense.c ****     uint32 sensorState = CapSense_unscannedSnsDriveMode[sensor];
 529              		.loc 1 1099 0
 530 0032 0026     		movs	r6, #0
 531 0034 00E0     		b	.L30
 532              	.L32:
1115:Generated_Source\PSoC4/CapSense.c ****         {
1116:Generated_Source\PSoC4/CapSense.c ****             /* Connected to Ground */
1117:Generated_Source\PSoC4/CapSense.c ****             inactiveConnect = (uint32)CapSense_SNS_GROUND_CONNECT;
 533              		.loc 1 1117 0
 534 0036 0626     		movs	r6, #6
 535              	.L30:
ARM GAS  C:\Users\JamesN4\AppData\Local\Temp\cceXLNdw.s 			page 30


 536              	.LVL55:
1118:Generated_Source\PSoC4/CapSense.c ****         }
1119:Generated_Source\PSoC4/CapSense.c **** 
1120:Generated_Source\PSoC4/CapSense.c ****         interruptState = CyEnterCriticalSection();
 537              		.loc 1 1120 0
 538 0038 FFF7FEFF 		bl	CyEnterCriticalSection
 539              	.LVL56:
1121:Generated_Source\PSoC4/CapSense.c **** 
1122:Generated_Source\PSoC4/CapSense.c ****         /* Set drive mode */
1123:Generated_Source\PSoC4/CapSense.c ****         newRegisterValue = *CapSense_prtCfgTbl[port];
 540              		.loc 1 1123 0
 541 003c A400     		lsls	r4, r4, #2
 542              	.LVL57:
 543 003e 0A4B     		ldr	r3, .L33
 544              	.LVL58:
 545 0040 1C19     		adds	r4, r3, r4
 546 0042 A16A     		ldr	r1, [r4, #40]
 547 0044 0B68     		ldr	r3, [r1]
 548              	.LVL59:
1124:Generated_Source\PSoC4/CapSense.c ****         newRegisterValue &= ~(CapSense_CSD_PIN_MODE_MASK << pinModeShift);
 549              		.loc 1 1124 0
 550 0046 0722     		movs	r2, #7
 551 0048 AA40     		lsls	r2, r2, r5
 552 004a 9343     		bics	r3, r2
 553              	.LVL60:
 554 004c 1A00     		movs	r2, r3
 555              	.LVL61:
1125:Generated_Source\PSoC4/CapSense.c ****         newRegisterValue |=  (uint32)(inactiveConnect << pinModeShift);
 556              		.loc 1 1125 0
 557 004e 3300     		movs	r3, r6
 558 0050 AB40     		lsls	r3, r3, r5
 559 0052 1343     		orrs	r3, r2
 560              	.LVL62:
1126:Generated_Source\PSoC4/CapSense.c ****         *CapSense_prtCfgTbl[port] =  newRegisterValue;
 561              		.loc 1 1126 0
 562 0054 0B60     		str	r3, [r1]
1127:Generated_Source\PSoC4/CapSense.c **** 
1128:Generated_Source\PSoC4/CapSense.c ****         CyExitCriticalSection(interruptState);
 563              		.loc 1 1128 0
 564 0056 FFF7FEFF 		bl	CyExitCriticalSection
 565              	.LVL63:
1129:Generated_Source\PSoC4/CapSense.c **** 
1130:Generated_Source\PSoC4/CapSense.c ****         *CapSense_prtDRTbl[port]  &=  (uint32)~(uint32)((uint32)1u << CapSense_pinShiftTbl[sensor])
 566              		.loc 1 1130 0
 567 005a A16C     		ldr	r1, [r4, #72]
 568 005c 0B68     		ldr	r3, [r1]
 569 005e 0122     		movs	r2, #1
 570 0060 BA40     		lsls	r2, r2, r7
 571 0062 9343     		bics	r3, r2
 572 0064 0B60     		str	r3, [r1]
1131:Generated_Source\PSoC4/CapSense.c ****     #if(CapSense_IS_SHIELD_ENABLE != 0)
1132:Generated_Source\PSoC4/CapSense.c ****     }
1133:Generated_Source\PSoC4/CapSense.c ****     else
1134:Generated_Source\PSoC4/CapSense.c ****     {
1135:Generated_Source\PSoC4/CapSense.c ****         /* Connect to Shield */
1136:Generated_Source\PSoC4/CapSense.c ****         *CapSense_prtSelTbl[port] |= (CapSense_CSD_SHIELD_PORT_MODE << pinHSIOMShift);
1137:Generated_Source\PSoC4/CapSense.c ****     }
ARM GAS  C:\Users\JamesN4\AppData\Local\Temp\cceXLNdw.s 			page 31


1138:Generated_Source\PSoC4/CapSense.c ****     #endif /* (CapSense_IS_SHIELD_ENABLE) */
1139:Generated_Source\PSoC4/CapSense.c **** }
 573              		.loc 1 1139 0
 574              		@ sp needed
 575              	.LVL64:
 576              	.LVL65:
 577              	.LVL66:
 578 0066 F8BD     		pop	{r3, r4, r5, r6, r7, pc}
 579              	.L34:
 580              		.align	2
 581              	.L33:
 582 0068 00000000 		.word	.LANCHOR2
 583 006c 00000000 		.word	CapSense_unscannedSnsDriveMode
 584              		.cfi_endproc
 585              	.LFE49:
 586              		.size	CapSense_DisableSensor, .-CapSense_DisableSensor
 587              		.section	.text.CapSense_ClearSensors,"ax",%progbits
 588              		.align	2
 589              		.global	CapSense_ClearSensors
 590              		.code	16
 591              		.thumb_func
 592              		.type	CapSense_ClearSensors, %function
 593              	CapSense_ClearSensors:
 594              	.LFB47:
 880:Generated_Source\PSoC4/CapSense.c ****     uint32 snsIndex;
 595              		.loc 1 880 0
 596              		.cfi_startproc
 597              		@ args = 0, pretend = 0, frame = 0
 598              		@ frame_needed = 0, uses_anonymous_args = 0
 599 0000 10B5     		push	{r4, lr}
 600              		.cfi_def_cfa_offset 8
 601              		.cfi_offset 4, -8
 602              		.cfi_offset 14, -4
 603              	.LVL67:
 883:Generated_Source\PSoC4/CapSense.c ****     {
 604              		.loc 1 883 0
 605 0002 0024     		movs	r4, #0
 606 0004 03E0     		b	.L36
 607              	.LVL68:
 608              	.L37:
 885:Generated_Source\PSoC4/CapSense.c ****     }
 609              		.loc 1 885 0 discriminator 3
 610 0006 2000     		movs	r0, r4
 611 0008 FFF7FEFF 		bl	CapSense_DisableSensor
 612              	.LVL69:
 883:Generated_Source\PSoC4/CapSense.c ****     {
 613              		.loc 1 883 0 discriminator 3
 614 000c 0134     		adds	r4, r4, #1
 615              	.LVL70:
 616              	.L36:
 883:Generated_Source\PSoC4/CapSense.c ****     {
 617              		.loc 1 883 0 is_stmt 0 discriminator 1
 618 000e 012C     		cmp	r4, #1
 619 0010 F9D9     		bls	.L37
 887:Generated_Source\PSoC4/CapSense.c **** 
 620              		.loc 1 887 0 is_stmt 1
 621              		@ sp needed
ARM GAS  C:\Users\JamesN4\AppData\Local\Temp\cceXLNdw.s 			page 32


 622              	.LVL71:
 623 0012 10BD     		pop	{r4, pc}
 624              		.cfi_endproc
 625              	.LFE47:
 626              		.size	CapSense_ClearSensors, .-CapSense_ClearSensors
 627              		.section	.text.CapSense_SetPinDriveMode,"ax",%progbits
 628              		.align	2
 629              		.global	CapSense_SetPinDriveMode
 630              		.code	16
 631              		.thumb_func
 632              		.type	CapSense_SetPinDriveMode, %function
 633              	CapSense_SetPinDriveMode:
 634              	.LFB52:
1140:Generated_Source\PSoC4/CapSense.c **** 
1141:Generated_Source\PSoC4/CapSense.c **** 
1142:Generated_Source\PSoC4/CapSense.c **** /*******************************************************************************
1143:Generated_Source\PSoC4/CapSense.c **** * Function Name: CapSense_SetDriveModeAllPins
1144:Generated_Source\PSoC4/CapSense.c **** ********************************************************************************
1145:Generated_Source\PSoC4/CapSense.c **** *
1146:Generated_Source\PSoC4/CapSense.c **** * Summary:
1147:Generated_Source\PSoC4/CapSense.c **** * This API sets the drive mode of port pins used by the CapSense
1148:Generated_Source\PSoC4/CapSense.c **** * component (sensors, guard, shield, shield tank and Cmod) to drive the
1149:Generated_Source\PSoC4/CapSense.c **** * mode specified by the argument.
1150:Generated_Source\PSoC4/CapSense.c **** *
1151:Generated_Source\PSoC4/CapSense.c **** * Parameters:
1152:Generated_Source\PSoC4/CapSense.c **** *  driveMode:  Drive mode definition.
1153:Generated_Source\PSoC4/CapSense.c **** *
1154:Generated_Source\PSoC4/CapSense.c **** * Return:
1155:Generated_Source\PSoC4/CapSense.c **** *  None
1156:Generated_Source\PSoC4/CapSense.c **** *
1157:Generated_Source\PSoC4/CapSense.c **** * Global Variables:
1158:Generated_Source\PSoC4/CapSense.c **** *  CapSense_portTable[] - used to store the port number that pin
1159:Generated_Source\PSoC4/CapSense.c **** *  belongs to for each sensor.
1160:Generated_Source\PSoC4/CapSense.c **** *  CapSense_pinShiftTbl[] - used to store position of pin that
1161:Generated_Source\PSoC4/CapSense.c **** *  configured as a sensor in the port.
1162:Generated_Source\PSoC4/CapSense.c **** *
1163:Generated_Source\PSoC4/CapSense.c **** * Side Effects:
1164:Generated_Source\PSoC4/CapSense.c **** *  This API shall be called only after CapSense component is stopped.
1165:Generated_Source\PSoC4/CapSense.c **** *
1166:Generated_Source\PSoC4/CapSense.c **** *******************************************************************************/
1167:Generated_Source\PSoC4/CapSense.c **** void CapSense_SetDriveModeAllPins(uint32 driveMode)
1168:Generated_Source\PSoC4/CapSense.c **** {
1169:Generated_Source\PSoC4/CapSense.c ****     uint8 curSensor;
1170:Generated_Source\PSoC4/CapSense.c ****     #if (CapSense_IS_COMPLEX_SCANSLOTS)
1171:Generated_Source\PSoC4/CapSense.c ****         uint8 snsNumber;
1172:Generated_Source\PSoC4/CapSense.c ****         uint8 snsType;
1173:Generated_Source\PSoC4/CapSense.c ****     #endif  /* CapSense_IS_COMPLEX_SCANSLOTS */
1174:Generated_Source\PSoC4/CapSense.c ****     uint32 prtNumberTmp;
1175:Generated_Source\PSoC4/CapSense.c ****     uint32 pinNumberTmp;
1176:Generated_Source\PSoC4/CapSense.c **** 
1177:Generated_Source\PSoC4/CapSense.c ****     for(curSensor = 0u; curSensor < CapSense_TOTAL_SENSOR_COUNT; curSensor++)
1178:Generated_Source\PSoC4/CapSense.c ****     {
1179:Generated_Source\PSoC4/CapSense.c ****         #if (CapSense_IS_COMPLEX_SCANSLOTS)
1180:Generated_Source\PSoC4/CapSense.c ****             /* Read sensor type: single or complex */
1181:Generated_Source\PSoC4/CapSense.c ****             snsType = CapSense_portTable[curSensor];
1182:Generated_Source\PSoC4/CapSense.c **** 
1183:Generated_Source\PSoC4/CapSense.c ****             /* Check if sensor is complex */
ARM GAS  C:\Users\JamesN4\AppData\Local\Temp\cceXLNdw.s 			page 33


1184:Generated_Source\PSoC4/CapSense.c ****             if ((snsType & CapSense_COMPLEX_SS_FLAG) == 0u)
1185:Generated_Source\PSoC4/CapSense.c ****             {
1186:Generated_Source\PSoC4/CapSense.c ****                 /* The sensor is not complex */
1187:Generated_Source\PSoC4/CapSense.c ****                 snsNumber = curSensor;
1188:Generated_Source\PSoC4/CapSense.c ****             }
1189:Generated_Source\PSoC4/CapSense.c ****             else
1190:Generated_Source\PSoC4/CapSense.c ****             {
1191:Generated_Source\PSoC4/CapSense.c ****                 /* Get dedicated sensor ID of the complex sensor */
1192:Generated_Source\PSoC4/CapSense.c ****                 snsType &= ~CapSense_COMPLEX_SS_FLAG;
1193:Generated_Source\PSoC4/CapSense.c ****                 snsNumber = CapSense_indexTable[snsType];
1194:Generated_Source\PSoC4/CapSense.c ****             }
1195:Generated_Source\PSoC4/CapSense.c **** 
1196:Generated_Source\PSoC4/CapSense.c ****             prtNumberTmp = CapSense_portTable[snsNumber];
1197:Generated_Source\PSoC4/CapSense.c ****             pinNumberTmp = CapSense_pinShiftTbl[snsNumber];
1198:Generated_Source\PSoC4/CapSense.c ****         #else
1199:Generated_Source\PSoC4/CapSense.c ****             prtNumberTmp = CapSense_portTable[curSensor];
1200:Generated_Source\PSoC4/CapSense.c ****             pinNumberTmp = CapSense_pinShiftTbl[curSensor];
1201:Generated_Source\PSoC4/CapSense.c ****         #endif  /* CapSense_IS_COMPLEX_SCANSLOTS */
1202:Generated_Source\PSoC4/CapSense.c **** 
1203:Generated_Source\PSoC4/CapSense.c ****         CapSense_SetPinDriveMode(driveMode, pinNumberTmp, prtNumberTmp);
1204:Generated_Source\PSoC4/CapSense.c ****     }
1205:Generated_Source\PSoC4/CapSense.c **** 
1206:Generated_Source\PSoC4/CapSense.c ****     CapSense_SetPinDriveMode(driveMode, (uint32)CapSense_CMOD_PIN_NUMBER, (uint32)CapSense_CMOD_PRT
1207:Generated_Source\PSoC4/CapSense.c **** 
1208:Generated_Source\PSoC4/CapSense.c ****     #if(0u != CapSense_CSH_TANK_ENABLE)
1209:Generated_Source\PSoC4/CapSense.c ****         CapSense_SetPinDriveMode(driveMode, (uint32)CapSense_CTANK_PIN_NUMBER, (uint32)CapSense_CTA
1210:Generated_Source\PSoC4/CapSense.c ****     #endif /* (0u != CapSense_CSH_TANK_ENABLE) */
1211:Generated_Source\PSoC4/CapSense.c **** 
1212:Generated_Source\PSoC4/CapSense.c ****     #if(0u != CapSense_IS_SHIELD_ENABLE)
1213:Generated_Source\PSoC4/CapSense.c ****         CapSense_SetPinDriveMode(driveMode, (uint32)CapSense_SHIELD_PIN_NUMBER, (uint32)CapSense_SH
1214:Generated_Source\PSoC4/CapSense.c ****     #endif /* (0u != CapSense_IS_SHIELD_ENABLE) */
1215:Generated_Source\PSoC4/CapSense.c **** }
1216:Generated_Source\PSoC4/CapSense.c **** 
1217:Generated_Source\PSoC4/CapSense.c **** 
1218:Generated_Source\PSoC4/CapSense.c **** /*******************************************************************************
1219:Generated_Source\PSoC4/CapSense.c **** * Function Name: CapSense_RestoreDriveModeAllPins
1220:Generated_Source\PSoC4/CapSense.c **** ********************************************************************************
1221:Generated_Source\PSoC4/CapSense.c **** *
1222:Generated_Source\PSoC4/CapSense.c **** * Summary:
1223:Generated_Source\PSoC4/CapSense.c **** *  This API restores the drive for all the CapSense port pins to the original
1224:Generated_Source\PSoC4/CapSense.c **** *  state.
1225:Generated_Source\PSoC4/CapSense.c **** *
1226:Generated_Source\PSoC4/CapSense.c **** * Parameters:
1227:Generated_Source\PSoC4/CapSense.c **** *  None
1228:Generated_Source\PSoC4/CapSense.c **** *
1229:Generated_Source\PSoC4/CapSense.c **** * Return:
1230:Generated_Source\PSoC4/CapSense.c **** *  None
1231:Generated_Source\PSoC4/CapSense.c **** *
1232:Generated_Source\PSoC4/CapSense.c **** * Global Variables:
1233:Generated_Source\PSoC4/CapSense.c **** *  CapSense_prtSelTbl[] - Contains pointers to the HSIOM
1234:Generated_Source\PSoC4/CapSense.c **** *  registers for each port.
1235:Generated_Source\PSoC4/CapSense.c **** *
1236:Generated_Source\PSoC4/CapSense.c **** * Side Effects:
1237:Generated_Source\PSoC4/CapSense.c **** *  This API is called only after the CapSense component is stopped.
1238:Generated_Source\PSoC4/CapSense.c **** *
1239:Generated_Source\PSoC4/CapSense.c **** *******************************************************************************/
1240:Generated_Source\PSoC4/CapSense.c **** void CapSense_RestoreDriveModeAllPins(void)
ARM GAS  C:\Users\JamesN4\AppData\Local\Temp\cceXLNdw.s 			page 34


1241:Generated_Source\PSoC4/CapSense.c **** {
1242:Generated_Source\PSoC4/CapSense.c ****     uint32 newRegisterValue;
1243:Generated_Source\PSoC4/CapSense.c **** 
1244:Generated_Source\PSoC4/CapSense.c ****     CapSense_SetDriveModeAllPins(CY_SYS_PINS_DM_ALG_HIZ);
1245:Generated_Source\PSoC4/CapSense.c **** 
1246:Generated_Source\PSoC4/CapSense.c ****     newRegisterValue = CapSense_CMOD_CONNECTION_REG;
1247:Generated_Source\PSoC4/CapSense.c ****     newRegisterValue &= ~(CapSense_CSD_CMOD_CONNECTION_MASK);
1248:Generated_Source\PSoC4/CapSense.c ****     newRegisterValue |= CapSense_CSD_CMOD_TO_AMUXBUS_A;
1249:Generated_Source\PSoC4/CapSense.c ****     CapSense_CMOD_CONNECTION_REG = newRegisterValue;
1250:Generated_Source\PSoC4/CapSense.c **** 
1251:Generated_Source\PSoC4/CapSense.c ****     #if(0u != CapSense_CSH_TANK_ENABLE)
1252:Generated_Source\PSoC4/CapSense.c ****         newRegisterValue = CapSense_CTANK_CONNECTION_REG;
1253:Generated_Source\PSoC4/CapSense.c ****         newRegisterValue &= ~(CapSense_CSD_CTANK_CONNECTION_MASK);
1254:Generated_Source\PSoC4/CapSense.c ****         newRegisterValue |= CapSense_CSD_CTANK_TO_AMUXBUS_B;
1255:Generated_Source\PSoC4/CapSense.c ****         CapSense_CTANK_CONNECTION_REG = newRegisterValue;
1256:Generated_Source\PSoC4/CapSense.c ****     #endif/* (0u != CapSense_CSH_TANK_ENABLE) */
1257:Generated_Source\PSoC4/CapSense.c **** 
1258:Generated_Source\PSoC4/CapSense.c ****     #if(0u != CapSense_IS_SHIELD_ENABLE)
1259:Generated_Source\PSoC4/CapSense.c ****         newRegisterValue = *CapSense_prtSelTbl[CapSense_SHIELD_PORT_NUMBER];
1260:Generated_Source\PSoC4/CapSense.c ****         newRegisterValue &= ~(CapSense_CSD_HSIOM_MASK << ((uint32)CapSense_SHIELD_PIN_NUMBER * CapS
1261:Generated_Source\PSoC4/CapSense.c ****         newRegisterValue |= (CapSense_CSD_SHIELD_PORT_MODE << ((uint32)CapSense_SHIELD_PIN_NUMBER *
1262:Generated_Source\PSoC4/CapSense.c ****         *CapSense_prtSelTbl[CapSense_SHIELD_PORT_NUMBER] = newRegisterValue;
1263:Generated_Source\PSoC4/CapSense.c ****     #endif /* (0u != CapSense_IS_SHIELD_ENABLE) */
1264:Generated_Source\PSoC4/CapSense.c **** }
1265:Generated_Source\PSoC4/CapSense.c **** 
1266:Generated_Source\PSoC4/CapSense.c **** 
1267:Generated_Source\PSoC4/CapSense.c **** /*******************************************************************************
1268:Generated_Source\PSoC4/CapSense.c **** * Function Name: CapSense_SetPinDriveMode
1269:Generated_Source\PSoC4/CapSense.c **** ********************************************************************************
1270:Generated_Source\PSoC4/CapSense.c **** *
1271:Generated_Source\PSoC4/CapSense.c **** * Summary:
1272:Generated_Source\PSoC4/CapSense.c **** * This API sets the drive mode for the appropriate port/pin.
1273:Generated_Source\PSoC4/CapSense.c **** *
1274:Generated_Source\PSoC4/CapSense.c **** * Parameters:
1275:Generated_Source\PSoC4/CapSense.c **** *  driveMode:  Drive mode definition.
1276:Generated_Source\PSoC4/CapSense.c **** *  portNumber: contains port number (0, 1, 2).
1277:Generated_Source\PSoC4/CapSense.c **** *  pinNumber: contains pin number (0, 1, 2, ... , 7).
1278:Generated_Source\PSoC4/CapSense.c **** *
1279:Generated_Source\PSoC4/CapSense.c **** * Return:
1280:Generated_Source\PSoC4/CapSense.c **** *  None
1281:Generated_Source\PSoC4/CapSense.c **** *
1282:Generated_Source\PSoC4/CapSense.c **** * Global Variables:
1283:Generated_Source\PSoC4/CapSense.c **** *  CapSense_prtSelTbl[] - Contains pointers to the HSIOM
1284:Generated_Source\PSoC4/CapSense.c **** *  registers for each port.
1285:Generated_Source\PSoC4/CapSense.c **** *  CapSense_prtCfgTb[] - Contains pointers to the port config
1286:Generated_Source\PSoC4/CapSense.c **** *  registers for each port.
1287:Generated_Source\PSoC4/CapSense.c **** *
1288:Generated_Source\PSoC4/CapSense.c **** * Side Effects:
1289:Generated_Source\PSoC4/CapSense.c **** *  This API is called only after CapSense component is stopped.
1290:Generated_Source\PSoC4/CapSense.c **** *
1291:Generated_Source\PSoC4/CapSense.c **** *******************************************************************************/
1292:Generated_Source\PSoC4/CapSense.c **** void CapSense_SetPinDriveMode(uint32 driveMode, uint32 pinNumber, uint32 portNumber)
1293:Generated_Source\PSoC4/CapSense.c **** {
 635              		.loc 1 1293 0
 636              		.cfi_startproc
 637              		@ args = 0, pretend = 0, frame = 0
 638              		@ frame_needed = 0, uses_anonymous_args = 0
ARM GAS  C:\Users\JamesN4\AppData\Local\Temp\cceXLNdw.s 			page 35


 639              	.LVL72:
 640 0000 10B5     		push	{r4, lr}
 641              		.cfi_def_cfa_offset 8
 642              		.cfi_offset 4, -8
 643              		.cfi_offset 14, -4
1294:Generated_Source\PSoC4/CapSense.c ****     uint32  pinModeShift;
1295:Generated_Source\PSoC4/CapSense.c ****     uint32 newRegisterValue;
1296:Generated_Source\PSoC4/CapSense.c **** 
1297:Generated_Source\PSoC4/CapSense.c ****     pinModeShift  = pinNumber * CapSense_PC_PIN_CFG_SIZE;
 644              		.loc 1 1297 0
 645 0002 4B00     		lsls	r3, r1, #1
 646 0004 5918     		adds	r1, r3, r1
 647              	.LVL73:
1298:Generated_Source\PSoC4/CapSense.c **** 
1299:Generated_Source\PSoC4/CapSense.c ****     newRegisterValue = *CapSense_prtCfgTbl[portNumber];
 648              		.loc 1 1299 0
 649 0006 9200     		lsls	r2, r2, #2
 650              	.LVL74:
 651 0008 054B     		ldr	r3, .L39
 652 000a 9A18     		adds	r2, r3, r2
 653 000c 946A     		ldr	r4, [r2, #40]
 654 000e 2368     		ldr	r3, [r4]
 655              	.LVL75:
1300:Generated_Source\PSoC4/CapSense.c ****     newRegisterValue &= ~(CapSense_CSD_PIN_MODE_MASK << pinModeShift);
 656              		.loc 1 1300 0
 657 0010 0722     		movs	r2, #7
 658 0012 8A40     		lsls	r2, r2, r1
 659 0014 9343     		bics	r3, r2
 660              	.LVL76:
1301:Generated_Source\PSoC4/CapSense.c ****     newRegisterValue |=  (uint32)((uint32)driveMode << pinModeShift);
 661              		.loc 1 1301 0
 662 0016 8840     		lsls	r0, r0, r1
 663              	.LVL77:
 664 0018 1843     		orrs	r0, r3
 665              	.LVL78:
1302:Generated_Source\PSoC4/CapSense.c ****     *CapSense_prtCfgTbl[portNumber] =  newRegisterValue;
 666              		.loc 1 1302 0
 667 001a 2060     		str	r0, [r4]
1303:Generated_Source\PSoC4/CapSense.c **** }
 668              		.loc 1 1303 0
 669              		@ sp needed
 670 001c 10BD     		pop	{r4, pc}
 671              	.L40:
 672 001e C046     		.align	2
 673              	.L39:
 674 0020 00000000 		.word	.LANCHOR2
 675              		.cfi_endproc
 676              	.LFE52:
 677              		.size	CapSense_SetPinDriveMode, .-CapSense_SetPinDriveMode
 678              		.section	.text.CapSense_SetDriveModeAllPins,"ax",%progbits
 679              		.align	2
 680              		.global	CapSense_SetDriveModeAllPins
 681              		.code	16
 682              		.thumb_func
 683              		.type	CapSense_SetDriveModeAllPins, %function
 684              	CapSense_SetDriveModeAllPins:
 685              	.LFB50:
ARM GAS  C:\Users\JamesN4\AppData\Local\Temp\cceXLNdw.s 			page 36


1168:Generated_Source\PSoC4/CapSense.c ****     uint8 curSensor;
 686              		.loc 1 1168 0
 687              		.cfi_startproc
 688              		@ args = 0, pretend = 0, frame = 0
 689              		@ frame_needed = 0, uses_anonymous_args = 0
 690              	.LVL79:
 691 0000 70B5     		push	{r4, r5, r6, lr}
 692              		.cfi_def_cfa_offset 16
 693              		.cfi_offset 4, -16
 694              		.cfi_offset 5, -12
 695              		.cfi_offset 6, -8
 696              		.cfi_offset 14, -4
 697 0002 0500     		movs	r5, r0
 698              	.LVL80:
1177:Generated_Source\PSoC4/CapSense.c ****     {
 699              		.loc 1 1177 0
 700 0004 0024     		movs	r4, #0
 701 0006 08E0     		b	.L42
 702              	.LVL81:
 703              	.L43:
1199:Generated_Source\PSoC4/CapSense.c ****             pinNumberTmp = CapSense_pinShiftTbl[curSensor];
 704              		.loc 1 1199 0 discriminator 3
 705 0008 084B     		ldr	r3, .L44
 706 000a 1A5D     		ldrb	r2, [r3, r4]
 707              	.LVL82:
1200:Generated_Source\PSoC4/CapSense.c ****         #endif  /* CapSense_IS_COMPLEX_SCANSLOTS */
 708              		.loc 1 1200 0 discriminator 3
 709 000c 1B19     		adds	r3, r3, r4
 710 000e 1979     		ldrb	r1, [r3, #4]
 711              	.LVL83:
1203:Generated_Source\PSoC4/CapSense.c ****     }
 712              		.loc 1 1203 0 discriminator 3
 713 0010 2800     		movs	r0, r5
 714 0012 FFF7FEFF 		bl	CapSense_SetPinDriveMode
 715              	.LVL84:
1177:Generated_Source\PSoC4/CapSense.c ****     {
 716              		.loc 1 1177 0 discriminator 3
 717 0016 0134     		adds	r4, r4, #1
 718              	.LVL85:
 719 0018 E4B2     		uxtb	r4, r4
 720              	.LVL86:
 721              	.L42:
1177:Generated_Source\PSoC4/CapSense.c ****     {
 722              		.loc 1 1177 0 is_stmt 0 discriminator 1
 723 001a 012C     		cmp	r4, #1
 724 001c F4D9     		bls	.L43
1206:Generated_Source\PSoC4/CapSense.c **** 
 725              		.loc 1 1206 0 is_stmt 1
 726 001e 0422     		movs	r2, #4
 727 0020 0221     		movs	r1, #2
 728 0022 2800     		movs	r0, r5
 729 0024 FFF7FEFF 		bl	CapSense_SetPinDriveMode
 730              	.LVL87:
1215:Generated_Source\PSoC4/CapSense.c **** 
 731              		.loc 1 1215 0
 732              		@ sp needed
 733              	.LVL88:
ARM GAS  C:\Users\JamesN4\AppData\Local\Temp\cceXLNdw.s 			page 37


 734              	.LVL89:
 735 0028 70BD     		pop	{r4, r5, r6, pc}
 736              	.L45:
 737 002a C046     		.align	2
 738              	.L44:
 739 002c 00000000 		.word	.LANCHOR2
 740              		.cfi_endproc
 741              	.LFE50:
 742              		.size	CapSense_SetDriveModeAllPins, .-CapSense_SetDriveModeAllPins
 743              		.section	.text.CapSense_RestoreDriveModeAllPins,"ax",%progbits
 744              		.align	2
 745              		.global	CapSense_RestoreDriveModeAllPins
 746              		.code	16
 747              		.thumb_func
 748              		.type	CapSense_RestoreDriveModeAllPins, %function
 749              	CapSense_RestoreDriveModeAllPins:
 750              	.LFB51:
1241:Generated_Source\PSoC4/CapSense.c ****     uint32 newRegisterValue;
 751              		.loc 1 1241 0
 752              		.cfi_startproc
 753              		@ args = 0, pretend = 0, frame = 0
 754              		@ frame_needed = 0, uses_anonymous_args = 0
 755 0000 10B5     		push	{r4, lr}
 756              		.cfi_def_cfa_offset 8
 757              		.cfi_offset 4, -8
 758              		.cfi_offset 14, -4
1244:Generated_Source\PSoC4/CapSense.c **** 
 759              		.loc 1 1244 0
 760 0002 0020     		movs	r0, #0
 761 0004 FFF7FEFF 		bl	CapSense_SetDriveModeAllPins
 762              	.LVL90:
1246:Generated_Source\PSoC4/CapSense.c ****     newRegisterValue &= ~(CapSense_CSD_CMOD_CONNECTION_MASK);
 763              		.loc 1 1246 0
 764 0008 044A     		ldr	r2, .L47
 765 000a 1168     		ldr	r1, [r2]
 766              	.LVL91:
1247:Generated_Source\PSoC4/CapSense.c ****     newRegisterValue |= CapSense_CSD_CMOD_TO_AMUXBUS_A;
 767              		.loc 1 1247 0
 768 000c 044B     		ldr	r3, .L47+4
 769 000e 0B40     		ands	r3, r1
 770              	.LVL92:
1248:Generated_Source\PSoC4/CapSense.c ****     CapSense_CMOD_CONNECTION_REG = newRegisterValue;
 771              		.loc 1 1248 0
 772 0010 C021     		movs	r1, #192
 773 0012 C900     		lsls	r1, r1, #3
 774 0014 0B43     		orrs	r3, r1
 775              	.LVL93:
1249:Generated_Source\PSoC4/CapSense.c **** 
 776              		.loc 1 1249 0
 777 0016 1360     		str	r3, [r2]
1264:Generated_Source\PSoC4/CapSense.c **** 
 778              		.loc 1 1264 0
 779              		@ sp needed
 780 0018 10BD     		pop	{r4, pc}
 781              	.L48:
 782 001a C046     		.align	2
 783              	.L47:
ARM GAS  C:\Users\JamesN4\AppData\Local\Temp\cceXLNdw.s 			page 38


 784 001c 00040240 		.word	1073873920
 785 0020 FFF0FFFF 		.word	-3841
 786              		.cfi_endproc
 787              	.LFE51:
 788              		.size	CapSense_RestoreDriveModeAllPins, .-CapSense_RestoreDriveModeAllPins
 789              		.section	.text.CapSense_EnableShieldElectrode,"ax",%progbits
 790              		.align	2
 791              		.global	CapSense_EnableShieldElectrode
 792              		.code	16
 793              		.thumb_func
 794              		.type	CapSense_EnableShieldElectrode, %function
 795              	CapSense_EnableShieldElectrode:
 796              	.LFB55:
1304:Generated_Source\PSoC4/CapSense.c **** 
1305:Generated_Source\PSoC4/CapSense.c **** 
1306:Generated_Source\PSoC4/CapSense.c **** /*******************************************************************************
1307:Generated_Source\PSoC4/CapSense.c **** * Function Name: CapSense_PreScan
1308:Generated_Source\PSoC4/CapSense.c **** ********************************************************************************
1309:Generated_Source\PSoC4/CapSense.c **** *
1310:Generated_Source\PSoC4/CapSense.c **** * Summary:
1311:Generated_Source\PSoC4/CapSense.c **** *  Sets required settings, enables a sensor, removes Vref from AMUX and starts the
1312:Generated_Source\PSoC4/CapSense.c **** *  scanning process of the sensor.
1313:Generated_Source\PSoC4/CapSense.c **** *
1314:Generated_Source\PSoC4/CapSense.c **** * Parameters:
1315:Generated_Source\PSoC4/CapSense.c **** *  sensor:  Sensor number.
1316:Generated_Source\PSoC4/CapSense.c **** *
1317:Generated_Source\PSoC4/CapSense.c **** * Return:
1318:Generated_Source\PSoC4/CapSense.c **** *  None
1319:Generated_Source\PSoC4/CapSense.c **** *
1320:Generated_Source\PSoC4/CapSense.c **** * Global Variables:
1321:Generated_Source\PSoC4/CapSense.c **** * CapSense_widgetNumber[] - This array contains numbers of widgets for each sensor.
1322:Generated_Source\PSoC4/CapSense.c **** * CapSense_widgetResolution[] - Contains the widget resolution.
1323:Generated_Source\PSoC4/CapSense.c **** *
1324:Generated_Source\PSoC4/CapSense.c **** * Side Effects:
1325:Generated_Source\PSoC4/CapSense.c **** *  None
1326:Generated_Source\PSoC4/CapSense.c **** *
1327:Generated_Source\PSoC4/CapSense.c **** *******************************************************************************/
1328:Generated_Source\PSoC4/CapSense.c **** void CapSense_PreScan(uint32 sensor)
1329:Generated_Source\PSoC4/CapSense.c **** {
1330:Generated_Source\PSoC4/CapSense.c ****     uint8 widget;
1331:Generated_Source\PSoC4/CapSense.c ****     uint8 interruptState;
1332:Generated_Source\PSoC4/CapSense.c ****     uint32 newRegValue;
1333:Generated_Source\PSoC4/CapSense.c ****     uint32 counterResolution;
1334:Generated_Source\PSoC4/CapSense.c **** 
1335:Generated_Source\PSoC4/CapSense.c ****     #if(CapSense_PRS_OPTIONS == CapSense__PRS_AUTO)
1336:Generated_Source\PSoC4/CapSense.c ****         uint8 senseClkDivMath;
1337:Generated_Source\PSoC4/CapSense.c ****         uint8 sampleClkDivMath;
1338:Generated_Source\PSoC4/CapSense.c ****     #endif /* (CapSense_PRS_OPTIONS == CapSense__PRS_AUTO) */
1339:Generated_Source\PSoC4/CapSense.c **** 
1340:Generated_Source\PSoC4/CapSense.c ****     #if ((CapSense_TUNING_METHOD == CapSense__TUNING_AUTO) &&\
1341:Generated_Source\PSoC4/CapSense.c ****          (0 != CapSense_IS_OVERSAMPLING_EN))
1342:Generated_Source\PSoC4/CapSense.c ****         uint32 oversamplingFactor;
1343:Generated_Source\PSoC4/CapSense.c ****     #endif /* ((CapSense_TUNING_METHOD == CapSense__TUNING_AUTO) &&\
1344:Generated_Source\PSoC4/CapSense.c ****                (0 != CapSense_IS_OVERSAMPLING_EN)) */
1345:Generated_Source\PSoC4/CapSense.c **** 
1346:Generated_Source\PSoC4/CapSense.c ****     /* Define widget sensor belongs to */
1347:Generated_Source\PSoC4/CapSense.c ****     widget = CapSense_widgetNumber[sensor];
ARM GAS  C:\Users\JamesN4\AppData\Local\Temp\cceXLNdw.s 			page 39


1348:Generated_Source\PSoC4/CapSense.c **** 
1349:Generated_Source\PSoC4/CapSense.c ****     /* Recalculate Counter Resolution to MSB 16 bits */
1350:Generated_Source\PSoC4/CapSense.c ****     counterResolution = CapSense_widgetResolution[widget];
1351:Generated_Source\PSoC4/CapSense.c **** 
1352:Generated_Source\PSoC4/CapSense.c ****     #if ((CapSense_TUNING_METHOD == CapSense__TUNING_AUTO) &&\
1353:Generated_Source\PSoC4/CapSense.c ****          (0 != CapSense_IS_OVERSAMPLING_EN))
1354:Generated_Source\PSoC4/CapSense.c ****         oversamplingFactor = CapSense_GetBitValue(CapSense_scanSpeedTbl, sensor);
1355:Generated_Source\PSoC4/CapSense.c **** 
1356:Generated_Source\PSoC4/CapSense.c ****         if(counterResolution < CapSense_RESOLUTION_16_BITS)
1357:Generated_Source\PSoC4/CapSense.c ****         {
1358:Generated_Source\PSoC4/CapSense.c ****             counterResolution <<= oversamplingFactor;
1359:Generated_Source\PSoC4/CapSense.c ****             counterResolution |= (uint32)(CapSense_RESOLUTION_8_BITS);
1360:Generated_Source\PSoC4/CapSense.c ****         }
1361:Generated_Source\PSoC4/CapSense.c ****     #endif /* ((CapSense_TUNING_METHOD == CapSense__TUNING_AUTO) &&\
1362:Generated_Source\PSoC4/CapSense.c ****                (0 != CapSense_IS_OVERSAMPLING_EN)) */
1363:Generated_Source\PSoC4/CapSense.c **** 
1364:Generated_Source\PSoC4/CapSense.c ****     #if (0u != CapSense_IS_M0S8PERI_BLOCK)
1365:Generated_Source\PSoC4/CapSense.c ****         CapSense_SenseClk_Stop();
1366:Generated_Source\PSoC4/CapSense.c ****         CapSense_SampleClk_Stop();
1367:Generated_Source\PSoC4/CapSense.c ****     #endif /* (0u != CapSense_IS_M0S8PERI_BLOCK) */
1368:Generated_Source\PSoC4/CapSense.c **** 
1369:Generated_Source\PSoC4/CapSense.c ****     #if (0u != CapSense_MULTIPLE_FREQUENCY_SET)
1370:Generated_Source\PSoC4/CapSense.c ****         CapSense_SampleClk_SetDividerValue((uint16)CapSense_sampleClkDividerVal[sensor]);
1371:Generated_Source\PSoC4/CapSense.c ****         CapSense_SenseClk_SetDividerValue((uint16)CapSense_senseClkDividerVal[sensor]);
1372:Generated_Source\PSoC4/CapSense.c ****     #else
1373:Generated_Source\PSoC4/CapSense.c ****         CapSense_SampleClk_SetDividerValue((uint16)CapSense_sampleClkDividerVal);
1374:Generated_Source\PSoC4/CapSense.c ****         CapSense_SenseClk_SetDividerValue((uint16)CapSense_senseClkDividerVal);
1375:Generated_Source\PSoC4/CapSense.c ****     #endif /* (0u != CapSense_MULTIPLE_FREQUENCY_SET) */
1376:Generated_Source\PSoC4/CapSense.c **** 
1377:Generated_Source\PSoC4/CapSense.c ****     #if (0u != CapSense_IS_M0S8PERI_BLOCK)
1378:Generated_Source\PSoC4/CapSense.c ****         CapSense_SampleClk_Start();
1379:Generated_Source\PSoC4/CapSense.c ****         CapSense_SenseClk_StartEx(CapSense_SampleClk__DIV_ID);
1380:Generated_Source\PSoC4/CapSense.c **** 
1381:Generated_Source\PSoC4/CapSense.c ****         #if(CapSense_PRS_OPTIONS == CapSense__PRS_NONE)
1382:Generated_Source\PSoC4/CapSense.c ****             CyIntDisable(CapSense_ISR_NUMBER);
1383:Generated_Source\PSoC4/CapSense.c ****             CapSense_CSD_CNT_REG = CapSense_ONE_CYCLE;
1384:Generated_Source\PSoC4/CapSense.c ****             while(0u != (CapSense_CSD_CNT_REG & CapSense_RESOLUTION_16_BITS))
1385:Generated_Source\PSoC4/CapSense.c ****             {
1386:Generated_Source\PSoC4/CapSense.c ****             /* Wait until scanning is complete */
1387:Generated_Source\PSoC4/CapSense.c ****             }
1388:Generated_Source\PSoC4/CapSense.c ****             CapSense_CSD_INTR_REG = 1u;
1389:Generated_Source\PSoC4/CapSense.c ****             CyIntClearPending(CapSense_ISR_NUMBER);
1390:Generated_Source\PSoC4/CapSense.c ****             CyIntEnable(CapSense_ISR_NUMBER);
1391:Generated_Source\PSoC4/CapSense.c ****         #endif /* CapSense_PRS_OPTIONS == CapSense__PRS_NONE */
1392:Generated_Source\PSoC4/CapSense.c ****     #endif /* (0u != CapSense_IS_M0S8PERI_BLOCK) */
1393:Generated_Source\PSoC4/CapSense.c **** 
1394:Generated_Source\PSoC4/CapSense.c **** #if(CapSense_PRS_OPTIONS != CapSense__PRS_NONE)
1395:Generated_Source\PSoC4/CapSense.c **** 
1396:Generated_Source\PSoC4/CapSense.c ****     #if(CapSense_TUNING_METHOD == CapSense__TUNING_AUTO)
1397:Generated_Source\PSoC4/CapSense.c ****         if(CapSense_prescalersTuningDone != 0u)
1398:Generated_Source\PSoC4/CapSense.c ****         {
1399:Generated_Source\PSoC4/CapSense.c ****     #endif /* (CapSense_TUNING_METHOD == CapSense__TUNING_AUTO) */
1400:Generated_Source\PSoC4/CapSense.c **** 
1401:Generated_Source\PSoC4/CapSense.c ****             CyIntDisable(CapSense_ISR_NUMBER);
1402:Generated_Source\PSoC4/CapSense.c **** 
1403:Generated_Source\PSoC4/CapSense.c ****             newRegValue = CapSense_CSD_CFG_REG;
1404:Generated_Source\PSoC4/CapSense.c ****             newRegValue |= CapSense_CSD_CFG_PRS_SELECT;
ARM GAS  C:\Users\JamesN4\AppData\Local\Temp\cceXLNdw.s 			page 40


1405:Generated_Source\PSoC4/CapSense.c **** 
1406:Generated_Source\PSoC4/CapSense.c ****             #if(CapSense_PRS_OPTIONS == CapSense__PRS_AUTO)
1407:Generated_Source\PSoC4/CapSense.c **** 
1408:Generated_Source\PSoC4/CapSense.c ****                 newRegValue &= ~(CapSense_PRS_MODE_MASK);
1409:Generated_Source\PSoC4/CapSense.c **** 
1410:Generated_Source\PSoC4/CapSense.c ****                 #if (0u != CapSense_MULTIPLE_FREQUENCY_SET)
1411:Generated_Source\PSoC4/CapSense.c ****                     senseClkDivMath = CapSense_senseClkDividerVal[sensor];
1412:Generated_Source\PSoC4/CapSense.c ****                     sampleClkDivMath = CapSense_sampleClkDividerVal[sensor];
1413:Generated_Source\PSoC4/CapSense.c ****                 #else
1414:Generated_Source\PSoC4/CapSense.c ****                     senseClkDivMath = CapSense_senseClkDividerVal;
1415:Generated_Source\PSoC4/CapSense.c ****                     sampleClkDivMath = CapSense_sampleClkDividerVal;
1416:Generated_Source\PSoC4/CapSense.c ****                 #endif /* ( CapSense_MULTIPLE_FREQUENCY_SET) */
1417:Generated_Source\PSoC4/CapSense.c **** 
1418:Generated_Source\PSoC4/CapSense.c ****                 #if(0u == CapSense_IS_M0S8PERI_BLOCK)
1419:Generated_Source\PSoC4/CapSense.c ****                     senseClkDivMath *= sampleClkDivMath;
1420:Generated_Source\PSoC4/CapSense.c ****                 #endif /* (0u == CapSense_IS_M0S8PERI_BLOCK) */
1421:Generated_Source\PSoC4/CapSense.c **** 
1422:Generated_Source\PSoC4/CapSense.c ****                 if((senseClkDivMath * CapSense_RESOLUTION_12_BITS) <
1423:Generated_Source\PSoC4/CapSense.c ****                    (sampleClkDivMath * CapSense_widgetResolution[widget]))
1424:Generated_Source\PSoC4/CapSense.c ****                 {
1425:Generated_Source\PSoC4/CapSense.c ****                     newRegValue |= CapSense_CSD_PRS_12_BIT;
1426:Generated_Source\PSoC4/CapSense.c ****                 }
1427:Generated_Source\PSoC4/CapSense.c ****             #endif /* (CapSense_PRS_OPTIONS == CapSense__PRS_AUTO) */
1428:Generated_Source\PSoC4/CapSense.c **** 
1429:Generated_Source\PSoC4/CapSense.c ****             CapSense_CSD_CFG_REG = newRegValue;
1430:Generated_Source\PSoC4/CapSense.c **** 
1431:Generated_Source\PSoC4/CapSense.c ****             CyIntEnable(CapSense_ISR_NUMBER);
1432:Generated_Source\PSoC4/CapSense.c **** 
1433:Generated_Source\PSoC4/CapSense.c ****     #if(CapSense_TUNING_METHOD == CapSense__TUNING_AUTO)
1434:Generated_Source\PSoC4/CapSense.c ****         }
1435:Generated_Source\PSoC4/CapSense.c ****     #endif /* (CapSense_PRS_OPTIONS != CapSense__PRS_NONE) */
1436:Generated_Source\PSoC4/CapSense.c **** 
1437:Generated_Source\PSoC4/CapSense.c **** #endif /* (CapSense_PRS_OPTIONS == CapSense__PRS_NONE) */
1438:Generated_Source\PSoC4/CapSense.c **** 
1439:Generated_Source\PSoC4/CapSense.c ****     /* Set Idac Value */
1440:Generated_Source\PSoC4/CapSense.c ****     CyIntDisable(CapSense_ISR_NUMBER);
1441:Generated_Source\PSoC4/CapSense.c ****     newRegValue = CapSense_CSD_IDAC_REG;
1442:Generated_Source\PSoC4/CapSense.c **** 
1443:Generated_Source\PSoC4/CapSense.c **** #if (CapSense_IDAC_CNT == 1u)
1444:Generated_Source\PSoC4/CapSense.c ****     newRegValue &= ~(CapSense_CSD_IDAC1_DATA_MASK);
1445:Generated_Source\PSoC4/CapSense.c ****     newRegValue |= CapSense_modulationIDAC[sensor];
1446:Generated_Source\PSoC4/CapSense.c **** #else
1447:Generated_Source\PSoC4/CapSense.c ****     newRegValue &= ~(CapSense_CSD_IDAC1_DATA_MASK | CapSense_CSD_IDAC2_DATA_MASK);
1448:Generated_Source\PSoC4/CapSense.c ****     newRegValue |= (CapSense_modulationIDAC[sensor] |
1449:Generated_Source\PSoC4/CapSense.c ****                             (uint32)((uint32)CapSense_compensationIDAC[sensor] <<
1450:Generated_Source\PSoC4/CapSense.c ****                             CapSense_CSD_IDAC2_DATA_OFFSET));
1451:Generated_Source\PSoC4/CapSense.c **** #endif /* (CapSense_IDAC_CNT == 1u) */
1452:Generated_Source\PSoC4/CapSense.c **** 
1453:Generated_Source\PSoC4/CapSense.c ****     CapSense_CSD_IDAC_REG = newRegValue;
1454:Generated_Source\PSoC4/CapSense.c **** 
1455:Generated_Source\PSoC4/CapSense.c **** #if(CapSense_CMOD_PREGARGE_OPTION == CapSense__CAPPRIOBUF)
1456:Generated_Source\PSoC4/CapSense.c ****     newRegValue = CapSense_CMOD_CONNECTION_REG;
1457:Generated_Source\PSoC4/CapSense.c ****     newRegValue &= ~(CapSense_CSD_CMOD_CONNECTION_MASK);
1458:Generated_Source\PSoC4/CapSense.c ****     newRegValue |= CapSense_CSD_CMOD_TO_AMUXBUS_A;
1459:Generated_Source\PSoC4/CapSense.c ****     CapSense_CMOD_CONNECTION_REG = newRegValue;
1460:Generated_Source\PSoC4/CapSense.c **** 
1461:Generated_Source\PSoC4/CapSense.c ****     newRegValue = CapSense_CMOD_PORT_PC_REG;
ARM GAS  C:\Users\JamesN4\AppData\Local\Temp\cceXLNdw.s 			page 41


1462:Generated_Source\PSoC4/CapSense.c ****     newRegValue &= ~(CapSense_CSD_CMOD_PC_MASK);
1463:Generated_Source\PSoC4/CapSense.c ****     newRegValue |= CapSense_CMOD_PC_HIGH_Z_MODE;
1464:Generated_Source\PSoC4/CapSense.c ****     CapSense_CMOD_PORT_PC_REG = newRegValue;
1465:Generated_Source\PSoC4/CapSense.c **** #endif /* (CapSense_CMOD_PREGARGE_OPTION == CapSense__CAPPRIOBUF) */
1466:Generated_Source\PSoC4/CapSense.c **** 
1467:Generated_Source\PSoC4/CapSense.c ****     /* Disconnect Vref Buffer from AMUX */
1468:Generated_Source\PSoC4/CapSense.c ****     newRegValue = CapSense_CSD_CFG_REG;
1469:Generated_Source\PSoC4/CapSense.c ****     newRegValue &= ~(CapSense_PRECHARGE_CONFIG_MASK);
1470:Generated_Source\PSoC4/CapSense.c ****     newRegValue |= CapSense_CTANK_PRECHARGE_CONFIG;
1471:Generated_Source\PSoC4/CapSense.c **** 
1472:Generated_Source\PSoC4/CapSense.c ****     CyIntEnable(CapSense_ISR_NUMBER);
1473:Generated_Source\PSoC4/CapSense.c **** 
1474:Generated_Source\PSoC4/CapSense.c ****     /* Enable Sensor */
1475:Generated_Source\PSoC4/CapSense.c ****     CapSense_EnableScanSlot(sensor);
1476:Generated_Source\PSoC4/CapSense.c **** 
1477:Generated_Source\PSoC4/CapSense.c ****     interruptState = CyEnterCriticalSection();
1478:Generated_Source\PSoC4/CapSense.c ****     CapSense_CSD_CFG_REG = newRegValue;
1479:Generated_Source\PSoC4/CapSense.c **** 
1480:Generated_Source\PSoC4/CapSense.c ****     /* `#START CapSense_PreSettlingDelay_Debug` */
1481:Generated_Source\PSoC4/CapSense.c **** 
1482:Generated_Source\PSoC4/CapSense.c ****     /* `#END` */
1483:Generated_Source\PSoC4/CapSense.c **** 
1484:Generated_Source\PSoC4/CapSense.c **** #ifdef CapSense_PRE_SCAN_PRE_SETTLING_DELAY_DEBUG_CALLBACK
1485:Generated_Source\PSoC4/CapSense.c ****     CapSense_PreScan_Pre_SettlingDelay_Debug_Callback();
1486:Generated_Source\PSoC4/CapSense.c **** #endif /* CapSense_PRE_SCAN_PRE_SETTLING_DELAY_DEBUG_CALLBACK */
1487:Generated_Source\PSoC4/CapSense.c **** 
1488:Generated_Source\PSoC4/CapSense.c ****     CyDelayCycles(CapSense_GLITCH_ELIMINATION_CYCLES);
1489:Generated_Source\PSoC4/CapSense.c **** 
1490:Generated_Source\PSoC4/CapSense.c ****     /* `#START CapSense_PreScan_Debug` */
1491:Generated_Source\PSoC4/CapSense.c **** 
1492:Generated_Source\PSoC4/CapSense.c ****     /* `#END` */
1493:Generated_Source\PSoC4/CapSense.c **** 
1494:Generated_Source\PSoC4/CapSense.c **** #ifdef CapSense_PRE_SCAN_DEBUG_CALLBACK
1495:Generated_Source\PSoC4/CapSense.c ****     CapSense_PreScan_Debug_Callback();
1496:Generated_Source\PSoC4/CapSense.c **** #endif /* CapSense_PRE_SCAN_DEBUG_CALLBACK */
1497:Generated_Source\PSoC4/CapSense.c **** 
1498:Generated_Source\PSoC4/CapSense.c ****     CapSense_CSD_CNT_REG = counterResolution;
1499:Generated_Source\PSoC4/CapSense.c ****     CyExitCriticalSection(interruptState);
1500:Generated_Source\PSoC4/CapSense.c **** }
1501:Generated_Source\PSoC4/CapSense.c **** 
1502:Generated_Source\PSoC4/CapSense.c **** 
1503:Generated_Source\PSoC4/CapSense.c **** /*******************************************************************************
1504:Generated_Source\PSoC4/CapSense.c **** * Function Name: CapSense_PostScan
1505:Generated_Source\PSoC4/CapSense.c **** ********************************************************************************
1506:Generated_Source\PSoC4/CapSense.c **** *
1507:Generated_Source\PSoC4/CapSense.c **** * Summary:
1508:Generated_Source\PSoC4/CapSense.c **** *  Stores the results of measurement in the CapSense_sensorRaw[] array,
1509:Generated_Source\PSoC4/CapSense.c **** *  sets the scanning sensor in the non-sampling state, turns off Idac(Current Source IDAC),
1510:Generated_Source\PSoC4/CapSense.c **** *  disconnects the IDAC(Sink mode), and applies Vref on AMUX.
1511:Generated_Source\PSoC4/CapSense.c **** *
1512:Generated_Source\PSoC4/CapSense.c **** * Parameters:
1513:Generated_Source\PSoC4/CapSense.c **** *  sensor:  Sensor number.
1514:Generated_Source\PSoC4/CapSense.c **** *
1515:Generated_Source\PSoC4/CapSense.c **** * Return:
1516:Generated_Source\PSoC4/CapSense.c **** *  None
1517:Generated_Source\PSoC4/CapSense.c **** *
1518:Generated_Source\PSoC4/CapSense.c **** * Global Variables:
ARM GAS  C:\Users\JamesN4\AppData\Local\Temp\cceXLNdw.s 			page 42


1519:Generated_Source\PSoC4/CapSense.c **** *  CapSense_sensorRaw[] - used to store sensors raw data.
1520:Generated_Source\PSoC4/CapSense.c **** *
1521:Generated_Source\PSoC4/CapSense.c **** * Side Effects:
1522:Generated_Source\PSoC4/CapSense.c **** *  None
1523:Generated_Source\PSoC4/CapSense.c **** *
1524:Generated_Source\PSoC4/CapSense.c **** *******************************************************************************/
1525:Generated_Source\PSoC4/CapSense.c **** void CapSense_PostScan(uint32 sensor)
1526:Generated_Source\PSoC4/CapSense.c **** {
1527:Generated_Source\PSoC4/CapSense.c ****     uint32 newRegValue;
1528:Generated_Source\PSoC4/CapSense.c **** #if ((CapSense_TUNING_METHOD == CapSense__TUNING_AUTO) &&\
1529:Generated_Source\PSoC4/CapSense.c ****      (0 != CapSense_IS_OVERSAMPLING_EN))
1530:Generated_Source\PSoC4/CapSense.c ****     uint32 oversamplingFactor;
1531:Generated_Source\PSoC4/CapSense.c ****     uint32 widget;
1532:Generated_Source\PSoC4/CapSense.c **** #endif /* ((CapSense_TUNING_METHOD == CapSense__TUNING_AUTO) &&\
1533:Generated_Source\PSoC4/CapSense.c ****            (0 != CapSense_IS_OVERSAMPLING_EN)) */
1534:Generated_Source\PSoC4/CapSense.c **** 
1535:Generated_Source\PSoC4/CapSense.c ****     /* `#START CapSense_PostScan_Debug` */
1536:Generated_Source\PSoC4/CapSense.c **** 
1537:Generated_Source\PSoC4/CapSense.c ****     /* `#END` */
1538:Generated_Source\PSoC4/CapSense.c **** 
1539:Generated_Source\PSoC4/CapSense.c **** #ifdef CapSense_POST_SCAN_DEBUG_CALLBACK
1540:Generated_Source\PSoC4/CapSense.c ****     CapSense_PostScan_Debug_Callback();
1541:Generated_Source\PSoC4/CapSense.c **** #endif /* CapSense_POST_SCAN_DEBUG_Callback */
1542:Generated_Source\PSoC4/CapSense.c **** 
1543:Generated_Source\PSoC4/CapSense.c ****     /* Read SlotResult from Raw Counter */
1544:Generated_Source\PSoC4/CapSense.c ****     CapSense_sensorRaw[sensor]  = (uint16)CapSense_CSD_CNT_REG;
1545:Generated_Source\PSoC4/CapSense.c **** 
1546:Generated_Source\PSoC4/CapSense.c **** #if ((CapSense_TUNING_METHOD == CapSense__TUNING_AUTO) &&\
1547:Generated_Source\PSoC4/CapSense.c ****      (0 != CapSense_IS_OVERSAMPLING_EN))
1548:Generated_Source\PSoC4/CapSense.c ****     widget = CapSense_widgetNumber[sensor];
1549:Generated_Source\PSoC4/CapSense.c ****     if(CapSense_widgetResolution[widget] < CapSense_RESOLUTION_16_BITS)
1550:Generated_Source\PSoC4/CapSense.c ****     {
1551:Generated_Source\PSoC4/CapSense.c ****         oversamplingFactor = CapSense_GetBitValue(CapSense_scanSpeedTbl, sensor);
1552:Generated_Source\PSoC4/CapSense.c ****         CapSense_sensorRaw[sensor] >>= oversamplingFactor;
1553:Generated_Source\PSoC4/CapSense.c ****     }
1554:Generated_Source\PSoC4/CapSense.c **** #endif /* ((CapSense_TUNING_METHOD == CapSense__TUNING_AUTO) &&\
1555:Generated_Source\PSoC4/CapSense.c ****            (0 != CapSense_IS_OVERSAMPLING_EN)) */
1556:Generated_Source\PSoC4/CapSense.c **** 
1557:Generated_Source\PSoC4/CapSense.c ****     /* Disable Sensor */
1558:Generated_Source\PSoC4/CapSense.c ****     CapSense_DisableScanSlot(sensor);
1559:Generated_Source\PSoC4/CapSense.c **** 
1560:Generated_Source\PSoC4/CapSense.c ****     CyIntDisable(CapSense_ISR_NUMBER);
1561:Generated_Source\PSoC4/CapSense.c **** 
1562:Generated_Source\PSoC4/CapSense.c **** #if(CapSense_CMOD_PREGARGE_OPTION == CapSense__CAPPRIOBUF)
1563:Generated_Source\PSoC4/CapSense.c ****     newRegValue = CapSense_CMOD_CONNECTION_REG;
1564:Generated_Source\PSoC4/CapSense.c ****     newRegValue &= ~(CapSense_CSD_CMOD_CONNECTION_MASK);
1565:Generated_Source\PSoC4/CapSense.c ****     newRegValue |= CapSense_CSD_CMOD_TO_AMUXBUS_B;
1566:Generated_Source\PSoC4/CapSense.c ****     CapSense_CMOD_CONNECTION_REG = newRegValue;
1567:Generated_Source\PSoC4/CapSense.c **** 
1568:Generated_Source\PSoC4/CapSense.c ****     newRegValue = CapSense_CMOD_PORT_PC_REG;
1569:Generated_Source\PSoC4/CapSense.c ****     newRegValue &= ~(CapSense_CSD_CMOD_PC_MASK);
1570:Generated_Source\PSoC4/CapSense.c ****     newRegValue |= CapSense_CMOD_PC_STRONG_MODE;
1571:Generated_Source\PSoC4/CapSense.c ****     CapSense_CMOD_PORT_PC_REG = newRegValue;
1572:Generated_Source\PSoC4/CapSense.c **** 
1573:Generated_Source\PSoC4/CapSense.c ****     newRegValue = CapSense_CMOD_PORT_DR_REG;
1574:Generated_Source\PSoC4/CapSense.c ****     newRegValue &= ~(CapSense_CMOD_DR_MASK);
1575:Generated_Source\PSoC4/CapSense.c ****     newRegValue |= CapSense_CMOD_DR_CONFIG;
ARM GAS  C:\Users\JamesN4\AppData\Local\Temp\cceXLNdw.s 			page 43


1576:Generated_Source\PSoC4/CapSense.c ****     CapSense_CMOD_PORT_DR_REG = newRegValue;
1577:Generated_Source\PSoC4/CapSense.c **** #endif /* (CapSense_CMOD_PREGARGE_OPTION == CapSense__CAPPRIOBUF) */
1578:Generated_Source\PSoC4/CapSense.c **** 
1579:Generated_Source\PSoC4/CapSense.c ****     /* Connect Vref Buffer to AMUX bus  */
1580:Generated_Source\PSoC4/CapSense.c ****     newRegValue = CapSense_CSD_CFG_REG;
1581:Generated_Source\PSoC4/CapSense.c ****     newRegValue &= ~(CapSense_PRECHARGE_CONFIG_MASK);
1582:Generated_Source\PSoC4/CapSense.c ****     newRegValue |= CapSense_CMOD_PRECHARGE_CONFIG;
1583:Generated_Source\PSoC4/CapSense.c ****     CapSense_CSD_CFG_REG = newRegValue;
1584:Generated_Source\PSoC4/CapSense.c **** 
1585:Generated_Source\PSoC4/CapSense.c ****     /* Set Idac Value = 0 */
1586:Generated_Source\PSoC4/CapSense.c **** #if (CapSense_IDAC_CNT == 1u)
1587:Generated_Source\PSoC4/CapSense.c ****     CapSense_CSD_IDAC_REG &= ~(CapSense_CSD_IDAC1_DATA_MASK);
1588:Generated_Source\PSoC4/CapSense.c **** #else
1589:Generated_Source\PSoC4/CapSense.c ****     CapSense_CSD_IDAC_REG &= ~(CapSense_CSD_IDAC1_DATA_MASK | CapSense_CSD_IDAC2_DATA_MASK);
1590:Generated_Source\PSoC4/CapSense.c **** #endif /* (CapSense_IDAC_CNT == 1u) */
1591:Generated_Source\PSoC4/CapSense.c **** 
1592:Generated_Source\PSoC4/CapSense.c ****     CyIntEnable(CapSense_ISR_NUMBER);
1593:Generated_Source\PSoC4/CapSense.c **** }
1594:Generated_Source\PSoC4/CapSense.c **** 
1595:Generated_Source\PSoC4/CapSense.c **** 
1596:Generated_Source\PSoC4/CapSense.c **** /*******************************************************************************
1597:Generated_Source\PSoC4/CapSense.c **** * Function Name: CapSense_EnableShieldElectrode
1598:Generated_Source\PSoC4/CapSense.c **** ********************************************************************************
1599:Generated_Source\PSoC4/CapSense.c **** *
1600:Generated_Source\PSoC4/CapSense.c **** * Summary:
1601:Generated_Source\PSoC4/CapSense.c **** *  This API enables or disables the shield electrode on a specified port pin.
1602:Generated_Source\PSoC4/CapSense.c **** *
1603:Generated_Source\PSoC4/CapSense.c **** * Parameters:
1604:Generated_Source\PSoC4/CapSense.c **** *  portNumber: contains the shield electrode port number (0, 1, 2).
1605:Generated_Source\PSoC4/CapSense.c **** *  pinNumber: contains the shield electrode pin number (0, 1, 2, ... , 7).
1606:Generated_Source\PSoC4/CapSense.c **** *
1607:Generated_Source\PSoC4/CapSense.c **** * Return:
1608:Generated_Source\PSoC4/CapSense.c **** *  None
1609:Generated_Source\PSoC4/CapSense.c **** *
1610:Generated_Source\PSoC4/CapSense.c **** * Global Variables:
1611:Generated_Source\PSoC4/CapSense.c **** *  CapSense_prtCfgTbl[] - Contains pointers to the port config registers for each port.
1612:Generated_Source\PSoC4/CapSense.c **** *  CapSense_prtSelTbl[] - Contains pointers to the HSIOM registers for each port.
1613:Generated_Source\PSoC4/CapSense.c **** *
1614:Generated_Source\PSoC4/CapSense.c **** * Side Effects:
1615:Generated_Source\PSoC4/CapSense.c **** *  None
1616:Generated_Source\PSoC4/CapSense.c **** *
1617:Generated_Source\PSoC4/CapSense.c **** *******************************************************************************/
1618:Generated_Source\PSoC4/CapSense.c **** void CapSense_EnableShieldElectrode(uint32 pinNumber, uint32 portNumber)
1619:Generated_Source\PSoC4/CapSense.c **** {
 797              		.loc 1 1619 0
 798              		.cfi_startproc
 799              		@ args = 0, pretend = 0, frame = 0
 800              		@ frame_needed = 0, uses_anonymous_args = 0
 801              	.LVL94:
 802 0000 30B5     		push	{r4, r5, lr}
 803              		.cfi_def_cfa_offset 12
 804              		.cfi_offset 4, -12
 805              		.cfi_offset 5, -8
 806              		.cfi_offset 14, -4
1620:Generated_Source\PSoC4/CapSense.c ****     uint32 newRegValue;
1621:Generated_Source\PSoC4/CapSense.c **** 
1622:Generated_Source\PSoC4/CapSense.c ****     *CapSense_prtCfgTbl[portNumber] &= ~(CapSense_CSD_PIN_MODE_MASK << (pinNumber * CapSense_PC_PIN
ARM GAS  C:\Users\JamesN4\AppData\Local\Temp\cceXLNdw.s 			page 44


 807              		.loc 1 1622 0
 808 0002 8900     		lsls	r1, r1, #2
 809              	.LVL95:
 810 0004 0A4B     		ldr	r3, .L50
 811 0006 5918     		adds	r1, r3, r1
 812 0008 8D6A     		ldr	r5, [r1, #40]
 813 000a 2B68     		ldr	r3, [r5]
 814 000c 4400     		lsls	r4, r0, #1
 815 000e 2418     		adds	r4, r4, r0
 816 0010 0722     		movs	r2, #7
 817 0012 A240     		lsls	r2, r2, r4
 818 0014 9343     		bics	r3, r2
 819 0016 2B60     		str	r3, [r5]
1623:Generated_Source\PSoC4/CapSense.c ****     newRegValue = *CapSense_prtSelTbl[portNumber];
 820              		.loc 1 1623 0
 821 0018 8968     		ldr	r1, [r1, #8]
 822 001a 0B68     		ldr	r3, [r1]
 823              	.LVL96:
1624:Generated_Source\PSoC4/CapSense.c ****     newRegValue &= ~(CapSense_CSD_HSIOM_MASK << (pinNumber * CapSense_HSIOM_PIN_CFG_SIZE));
 824              		.loc 1 1624 0
 825 001c 8000     		lsls	r0, r0, #2
 826              	.LVL97:
 827 001e 0F22     		movs	r2, #15
 828 0020 8240     		lsls	r2, r2, r0
 829 0022 9343     		bics	r3, r2
 830              	.LVL98:
 831 0024 1A00     		movs	r2, r3
 832              	.LVL99:
1625:Generated_Source\PSoC4/CapSense.c ****     newRegValue |= (CapSense_CSD_SHIELD_PORT_MODE << (pinNumber * CapSense_HSIOM_PIN_CFG_SIZE));
 833              		.loc 1 1625 0
 834 0026 0523     		movs	r3, #5
 835 0028 8340     		lsls	r3, r3, r0
 836 002a 1343     		orrs	r3, r2
 837              	.LVL100:
1626:Generated_Source\PSoC4/CapSense.c ****     *CapSense_prtSelTbl[portNumber] = newRegValue;
 838              		.loc 1 1626 0
 839 002c 0B60     		str	r3, [r1]
1627:Generated_Source\PSoC4/CapSense.c **** }
 840              		.loc 1 1627 0
 841              		@ sp needed
 842 002e 30BD     		pop	{r4, r5, pc}
 843              	.L51:
 844              		.align	2
 845              	.L50:
 846 0030 00000000 		.word	.LANCHOR2
 847              		.cfi_endproc
 848              	.LFE55:
 849              		.size	CapSense_EnableShieldElectrode, .-CapSense_EnableShieldElectrode
 850              		.section	.text.CapSense_SetShieldDelay,"ax",%progbits
 851              		.align	2
 852              		.global	CapSense_SetShieldDelay
 853              		.code	16
 854              		.thumb_func
 855              		.type	CapSense_SetShieldDelay, %function
 856              	CapSense_SetShieldDelay:
 857              	.LFB56:
1628:Generated_Source\PSoC4/CapSense.c **** 
ARM GAS  C:\Users\JamesN4\AppData\Local\Temp\cceXLNdw.s 			page 45


1629:Generated_Source\PSoC4/CapSense.c **** 
1630:Generated_Source\PSoC4/CapSense.c **** /*******************************************************************************
1631:Generated_Source\PSoC4/CapSense.c **** * Function Name: CapSense_SetShieldDelay
1632:Generated_Source\PSoC4/CapSense.c **** ********************************************************************************
1633:Generated_Source\PSoC4/CapSense.c **** *
1634:Generated_Source\PSoC4/CapSense.c **** * Summary:
1635:Generated_Source\PSoC4/CapSense.c **** *  This API sets a shield delay.
1636:Generated_Source\PSoC4/CapSense.c **** *
1637:Generated_Source\PSoC4/CapSense.c **** * Parameters:
1638:Generated_Source\PSoC4/CapSense.c **** *  delay:  shield delay value:
1639:Generated_Source\PSoC4/CapSense.c **** *                               0 - no delay
1640:Generated_Source\PSoC4/CapSense.c **** *                               1 - 1 cycle delay
1641:Generated_Source\PSoC4/CapSense.c **** *                               2 - 2 cycles delay
1642:Generated_Source\PSoC4/CapSense.c **** *
1643:Generated_Source\PSoC4/CapSense.c **** * Return:
1644:Generated_Source\PSoC4/CapSense.c **** *  None
1645:Generated_Source\PSoC4/CapSense.c **** *
1646:Generated_Source\PSoC4/CapSense.c **** * Global Variables:
1647:Generated_Source\PSoC4/CapSense.c **** *  None
1648:Generated_Source\PSoC4/CapSense.c **** *
1649:Generated_Source\PSoC4/CapSense.c **** * Side Effects:
1650:Generated_Source\PSoC4/CapSense.c **** *  None
1651:Generated_Source\PSoC4/CapSense.c **** *
1652:Generated_Source\PSoC4/CapSense.c **** *******************************************************************************/
1653:Generated_Source\PSoC4/CapSense.c **** void CapSense_SetShieldDelay(uint32 delay)
1654:Generated_Source\PSoC4/CapSense.c **** {
 858              		.loc 1 1654 0
 859              		.cfi_startproc
 860              		@ args = 0, pretend = 0, frame = 0
 861              		@ frame_needed = 0, uses_anonymous_args = 0
 862              		@ link register save eliminated.
 863              	.LVL101:
1655:Generated_Source\PSoC4/CapSense.c ****     uint32 newRegValue;
1656:Generated_Source\PSoC4/CapSense.c **** 
1657:Generated_Source\PSoC4/CapSense.c ****     delay &= 0x03u;
1658:Generated_Source\PSoC4/CapSense.c **** 
1659:Generated_Source\PSoC4/CapSense.c ****     newRegValue = CapSense_CSD_CFG_REG;
 864              		.loc 1 1659 0
 865 0000 044A     		ldr	r2, .L53
 866 0002 1168     		ldr	r1, [r2]
 867              	.LVL102:
1660:Generated_Source\PSoC4/CapSense.c ****     newRegValue &= (uint32)(~(uint32)CapSense_SHIELD_DELAY);
1661:Generated_Source\PSoC4/CapSense.c ****     newRegValue |= (delay << CapSense_CSD_CFG_SHIELD_DELAY_POS);
 868              		.loc 1 1661 0
 869 0004 4002     		lsls	r0, r0, #9
 870              	.LVL103:
 871 0006 C023     		movs	r3, #192
 872 0008 DB00     		lsls	r3, r3, #3
 873 000a 1840     		ands	r0, r3
 874 000c 0843     		orrs	r0, r1
 875              	.LVL104:
1662:Generated_Source\PSoC4/CapSense.c ****     CapSense_CSD_CFG_REG = newRegValue;
 876              		.loc 1 1662 0
 877 000e 1060     		str	r0, [r2]
1663:Generated_Source\PSoC4/CapSense.c **** }
 878              		.loc 1 1663 0
 879              		@ sp needed
ARM GAS  C:\Users\JamesN4\AppData\Local\Temp\cceXLNdw.s 			page 46


 880 0010 7047     		bx	lr
 881              	.L54:
 882 0012 C046     		.align	2
 883              	.L53:
 884 0014 04002840 		.word	1076363268
 885              		.cfi_endproc
 886              	.LFE56:
 887              		.size	CapSense_SetShieldDelay, .-CapSense_SetShieldDelay
 888              		.section	.text.CapSense_ReadCurrentScanningSensor,"ax",%progbits
 889              		.align	2
 890              		.global	CapSense_ReadCurrentScanningSensor
 891              		.code	16
 892              		.thumb_func
 893              		.type	CapSense_ReadCurrentScanningSensor, %function
 894              	CapSense_ReadCurrentScanningSensor:
 895              	.LFB57:
1664:Generated_Source\PSoC4/CapSense.c **** 
1665:Generated_Source\PSoC4/CapSense.c **** 
1666:Generated_Source\PSoC4/CapSense.c **** /*******************************************************************************
1667:Generated_Source\PSoC4/CapSense.c **** * Function Name: CapSense_ReadCurrentScanningSensor
1668:Generated_Source\PSoC4/CapSense.c **** ********************************************************************************
1669:Generated_Source\PSoC4/CapSense.c **** *
1670:Generated_Source\PSoC4/CapSense.c **** * Summary:
1671:Generated_Source\PSoC4/CapSense.c **** *  This API returns scanning sensor number when sensor scan is in progress.
1672:Generated_Source\PSoC4/CapSense.c **** *  When sensor scan is completed the API returns
1673:Generated_Source\PSoC4/CapSense.c **** *  $INSTANCE_NAME`_NOT_SENSOR (0xFFFFFFFF) (when no sensor is scanned).
1674:Generated_Source\PSoC4/CapSense.c **** *
1675:Generated_Source\PSoC4/CapSense.c **** * Parameters:
1676:Generated_Source\PSoC4/CapSense.c **** *   None.
1677:Generated_Source\PSoC4/CapSense.c **** *
1678:Generated_Source\PSoC4/CapSense.c **** * Return:
1679:Generated_Source\PSoC4/CapSense.c **** *  Returns Sensor number if sensor is being scanned and
1680:Generated_Source\PSoC4/CapSense.c **** *  $INSTANCE_NAME`_NOT_SENSOR (0xFFFFFFFF) if scanning is complete.
1681:Generated_Source\PSoC4/CapSense.c **** *
1682:Generated_Source\PSoC4/CapSense.c **** * Global Variables:
1683:Generated_Source\PSoC4/CapSense.c **** *  CapSense_sensorIndex - the sensor number is being scanned.
1684:Generated_Source\PSoC4/CapSense.c **** *
1685:Generated_Source\PSoC4/CapSense.c **** * Side Effects:
1686:Generated_Source\PSoC4/CapSense.c **** *  None
1687:Generated_Source\PSoC4/CapSense.c **** *
1688:Generated_Source\PSoC4/CapSense.c **** *******************************************************************************/
1689:Generated_Source\PSoC4/CapSense.c **** uint32 CapSense_ReadCurrentScanningSensor(void)
1690:Generated_Source\PSoC4/CapSense.c **** {
 896              		.loc 1 1690 0
 897              		.cfi_startproc
 898              		@ args = 0, pretend = 0, frame = 0
 899              		@ frame_needed = 0, uses_anonymous_args = 0
 900              		@ link register save eliminated.
1691:Generated_Source\PSoC4/CapSense.c ****     return ((uint32)(( 0u != (CapSense_csdStatusVar & CapSense_SW_STS_BUSY)) ?
 901              		.loc 1 1691 0
 902 0000 054B     		ldr	r3, .L58
 903 0002 1B78     		ldrb	r3, [r3]
 904 0004 DB07     		lsls	r3, r3, #31
 905 0006 03D5     		bpl	.L57
 906              		.loc 1 1691 0 is_stmt 0 discriminator 1
 907 0008 034B     		ldr	r3, .L58
 908 000a 187A     		ldrb	r0, [r3, #8]
ARM GAS  C:\Users\JamesN4\AppData\Local\Temp\cceXLNdw.s 			page 47


 909 000c C0B2     		uxtb	r0, r0
 910 000e 01E0     		b	.L56
 911              	.L57:
 912              		.loc 1 1691 0
 913 0010 0120     		movs	r0, #1
 914 0012 4042     		rsbs	r0, r0, #0
 915              	.L56:
1692:Generated_Source\PSoC4/CapSense.c ****                      CapSense_sensorIndex : CapSense_NOT_SENSOR));
1693:Generated_Source\PSoC4/CapSense.c **** }
 916              		.loc 1 1693 0 is_stmt 1 discriminator 4
 917              		@ sp needed
 918 0014 7047     		bx	lr
 919              	.L59:
 920 0016 C046     		.align	2
 921              	.L58:
 922 0018 00000000 		.word	.LANCHOR0
 923              		.cfi_endproc
 924              	.LFE57:
 925              		.size	CapSense_ReadCurrentScanningSensor, .-CapSense_ReadCurrentScanningSensor
 926              		.section	.text.CapSense_GetBitValue,"ax",%progbits
 927              		.align	2
 928              		.global	CapSense_GetBitValue
 929              		.code	16
 930              		.thumb_func
 931              		.type	CapSense_GetBitValue, %function
 932              	CapSense_GetBitValue:
 933              	.LFB58:
1694:Generated_Source\PSoC4/CapSense.c **** 
1695:Generated_Source\PSoC4/CapSense.c **** 
1696:Generated_Source\PSoC4/CapSense.c **** /*******************************************************************************
1697:Generated_Source\PSoC4/CapSense.c **** * Function Name: CapSense_GetBitValue
1698:Generated_Source\PSoC4/CapSense.c **** ********************************************************************************
1699:Generated_Source\PSoC4/CapSense.c **** *
1700:Generated_Source\PSoC4/CapSense.c **** * Summary:
1701:Generated_Source\PSoC4/CapSense.c **** *  The API returns a bit status of the bit in the table array which contains the masks.
1702:Generated_Source\PSoC4/CapSense.c **** *
1703:Generated_Source\PSoC4/CapSense.c **** * Parameters:
1704:Generated_Source\PSoC4/CapSense.c **** *  table[] - array with bit masks.
1705:Generated_Source\PSoC4/CapSense.c **** *  position - position of bit in the table[] array.
1706:Generated_Source\PSoC4/CapSense.c **** *
1707:Generated_Source\PSoC4/CapSense.c **** * Return:
1708:Generated_Source\PSoC4/CapSense.c **** *  0 - bit is not set; 1 - bit is set.
1709:Generated_Source\PSoC4/CapSense.c **** *
1710:Generated_Source\PSoC4/CapSense.c **** * Global Variables:
1711:Generated_Source\PSoC4/CapSense.c **** *  None
1712:Generated_Source\PSoC4/CapSense.c **** *
1713:Generated_Source\PSoC4/CapSense.c **** * Side Effects:
1714:Generated_Source\PSoC4/CapSense.c **** *  None
1715:Generated_Source\PSoC4/CapSense.c **** *
1716:Generated_Source\PSoC4/CapSense.c **** *******************************************************************************/
1717:Generated_Source\PSoC4/CapSense.c **** uint32 CapSense_GetBitValue(const uint8 table[], uint32 position)
1718:Generated_Source\PSoC4/CapSense.c **** {
 934              		.loc 1 1718 0
 935              		.cfi_startproc
 936              		@ args = 0, pretend = 0, frame = 0
 937              		@ frame_needed = 0, uses_anonymous_args = 0
 938              		@ link register save eliminated.
ARM GAS  C:\Users\JamesN4\AppData\Local\Temp\cceXLNdw.s 			page 48


 939              	.LVL105:
1719:Generated_Source\PSoC4/CapSense.c ****     uint32 offset;
1720:Generated_Source\PSoC4/CapSense.c ****     uint8 enMask;
1721:Generated_Source\PSoC4/CapSense.c **** 
1722:Generated_Source\PSoC4/CapSense.c ****     /* position is divided by 8 to calculate the element of the
1723:Generated_Source\PSoC4/CapSense.c ****        table[] array that contains the enable bit
1724:Generated_Source\PSoC4/CapSense.c ****        for an appropriate sensor.
1725:Generated_Source\PSoC4/CapSense.c ****     */
1726:Generated_Source\PSoC4/CapSense.c ****     offset = (position >> 3u);
 940              		.loc 1 1726 0
 941 0000 CA08     		lsrs	r2, r1, #3
 942              	.LVL106:
1727:Generated_Source\PSoC4/CapSense.c **** 
1728:Generated_Source\PSoC4/CapSense.c ****     /* The enMask calculation for the appropriate sensor. Operation (position & 0x07u)
1729:Generated_Source\PSoC4/CapSense.c ****        intends to calculate the enable bit offset for the 8-bit element of the
1730:Generated_Source\PSoC4/CapSense.c ****        table[] array.
1731:Generated_Source\PSoC4/CapSense.c ****     */
1732:Generated_Source\PSoC4/CapSense.c ****     enMask = 0x01u << (position & 0x07u);
 943              		.loc 1 1732 0
 944 0002 0723     		movs	r3, #7
 945 0004 1940     		ands	r1, r3
 946              	.LVL107:
 947 0006 063B     		subs	r3, r3, #6
 948 0008 8B40     		lsls	r3, r3, r1
 949              	.LVL108:
1733:Generated_Source\PSoC4/CapSense.c **** 
1734:Generated_Source\PSoC4/CapSense.c ****     return ((0u !=(table[offset] & enMask)) ? 1Lu : 0Lu);
 950              		.loc 1 1734 0
 951 000a 825C     		ldrb	r2, [r0, r2]
 952              	.LVL109:
 953 000c 1342     		tst	r3, r2
 954 000e 01D0     		beq	.L62
 955 0010 0120     		movs	r0, #1
 956              	.LVL110:
 957 0012 00E0     		b	.L61
 958              	.LVL111:
 959              	.L62:
 960 0014 0020     		movs	r0, #0
 961              	.LVL112:
 962              	.L61:
1735:Generated_Source\PSoC4/CapSense.c **** }
 963              		.loc 1 1735 0 discriminator 4
 964              		@ sp needed
 965 0016 7047     		bx	lr
 966              		.cfi_endproc
 967              	.LFE58:
 968              		.size	CapSense_GetBitValue, .-CapSense_GetBitValue
 969              		.section	.text.CapSense_FindNextSensor,"ax",%progbits
 970              		.align	2
 971              		.global	CapSense_FindNextSensor
 972              		.code	16
 973              		.thumb_func
 974              		.type	CapSense_FindNextSensor, %function
 975              	CapSense_FindNextSensor:
 976              	.LFB38:
 500:Generated_Source\PSoC4/CapSense.c ****     uint32 enableFlag;
 977              		.loc 1 500 0
ARM GAS  C:\Users\JamesN4\AppData\Local\Temp\cceXLNdw.s 			page 49


 978              		.cfi_startproc
 979              		@ args = 0, pretend = 0, frame = 0
 980              		@ frame_needed = 0, uses_anonymous_args = 0
 981              	.LVL113:
 982 0000 10B5     		push	{r4, lr}
 983              		.cfi_def_cfa_offset 8
 984              		.cfi_offset 4, -8
 985              		.cfi_offset 14, -4
 986 0002 0400     		movs	r4, r0
 987              	.LVL114:
 988              	.L65:
 507:Generated_Source\PSoC4/CapSense.c ****         if(snsIndex == CapSense_TOTAL_SENSOR_COUNT)
 989              		.loc 1 507 0
 990 0004 0134     		adds	r4, r4, #1
 991              	.LVL115:
 992 0006 E4B2     		uxtb	r4, r4
 993              	.LVL116:
 508:Generated_Source\PSoC4/CapSense.c ****         {
 994              		.loc 1 508 0
 995 0008 022C     		cmp	r4, #2
 996 000a 06D0     		beq	.L64
 512:Generated_Source\PSoC4/CapSense.c ****     }
 997              		.loc 1 512 0
 998 000c 2100     		movs	r1, r4
 999 000e 0448     		ldr	r0, .L66
 1000 0010 0830     		adds	r0, r0, #8
 1001 0012 FFF7FEFF 		bl	CapSense_GetBitValue
 1002              	.LVL117:
 514:Generated_Source\PSoC4/CapSense.c **** 
 1003              		.loc 1 514 0
 1004 0016 0028     		cmp	r0, #0
 1005 0018 F4D0     		beq	.L65
 1006              	.LVL118:
 1007              	.L64:
 517:Generated_Source\PSoC4/CapSense.c **** 
 1008              		.loc 1 517 0
 1009 001a 2000     		movs	r0, r4
 1010              		@ sp needed
 1011              	.LVL119:
 1012 001c 10BD     		pop	{r4, pc}
 1013              	.L67:
 1014 001e C046     		.align	2
 1015              	.L66:
 1016 0020 00000000 		.word	.LANCHOR1
 1017              		.cfi_endproc
 1018              	.LFE38:
 1019              		.size	CapSense_FindNextSensor, .-CapSense_FindNextSensor
 1020              		.section	.text.CapSense_PreScan,"ax",%progbits
 1021              		.align	2
 1022              		.global	CapSense_PreScan
 1023              		.code	16
 1024              		.thumb_func
 1025              		.type	CapSense_PreScan, %function
 1026              	CapSense_PreScan:
 1027              	.LFB53:
1329:Generated_Source\PSoC4/CapSense.c ****     uint8 widget;
 1028              		.loc 1 1329 0
ARM GAS  C:\Users\JamesN4\AppData\Local\Temp\cceXLNdw.s 			page 50


 1029              		.cfi_startproc
 1030              		@ args = 0, pretend = 0, frame = 0
 1031              		@ frame_needed = 0, uses_anonymous_args = 0
 1032              	.LVL120:
 1033 0000 F8B5     		push	{r3, r4, r5, r6, r7, lr}
 1034              		.cfi_def_cfa_offset 24
 1035              		.cfi_offset 3, -24
 1036              		.cfi_offset 4, -20
 1037              		.cfi_offset 5, -16
 1038              		.cfi_offset 6, -12
 1039              		.cfi_offset 7, -8
 1040              		.cfi_offset 14, -4
 1041 0002 0400     		movs	r4, r0
1347:Generated_Source\PSoC4/CapSense.c **** 
 1042              		.loc 1 1347 0
 1043 0004 324B     		ldr	r3, .L71
 1044 0006 1B18     		adds	r3, r3, r0
 1045 0008 6822     		movs	r2, #104
 1046 000a 9B5C     		ldrb	r3, [r3, r2]
 1047              	.LVL121:
1350:Generated_Source\PSoC4/CapSense.c **** 
 1048              		.loc 1 1350 0
 1049 000c 9B00     		lsls	r3, r3, #2
 1050              	.LVL122:
 1051 000e 314A     		ldr	r2, .L71+4
 1052              	.LVL123:
 1053 0010 9D58     		ldr	r5, [r3, r2]
 1054              	.LVL124:
1354:Generated_Source\PSoC4/CapSense.c **** 
 1055              		.loc 1 1354 0
 1056 0012 0100     		movs	r1, r0
 1057 0014 3048     		ldr	r0, .L71+8
 1058              	.LVL125:
 1059 0016 FFF7FEFF 		bl	CapSense_GetBitValue
 1060              	.LVL126:
1356:Generated_Source\PSoC4/CapSense.c ****         {
 1061              		.loc 1 1356 0
 1062 001a 304B     		ldr	r3, .L71+12
 1063 001c 9D42     		cmp	r5, r3
 1064 001e 03D8     		bhi	.L69
1358:Generated_Source\PSoC4/CapSense.c ****             counterResolution |= (uint32)(CapSense_RESOLUTION_8_BITS);
 1065              		.loc 1 1358 0
 1066 0020 8540     		lsls	r5, r5, r0
 1067              	.LVL127:
1359:Generated_Source\PSoC4/CapSense.c ****         }
 1068              		.loc 1 1359 0
 1069 0022 FF23     		movs	r3, #255
 1070 0024 1B04     		lsls	r3, r3, #16
 1071 0026 1D43     		orrs	r5, r3
 1072              	.LVL128:
 1073              	.L69:
1365:Generated_Source\PSoC4/CapSense.c ****         CapSense_SampleClk_Stop();
 1074              		.loc 1 1365 0
 1075 0028 FFF7FEFF 		bl	CapSense_SenseClk_Stop
 1076              	.LVL129:
1366:Generated_Source\PSoC4/CapSense.c ****     #endif /* (0u != CapSense_IS_M0S8PERI_BLOCK) */
 1077              		.loc 1 1366 0
ARM GAS  C:\Users\JamesN4\AppData\Local\Temp\cceXLNdw.s 			page 51


 1078 002c FFF7FEFF 		bl	CapSense_SampleClk_Stop
 1079              	.LVL130:
1370:Generated_Source\PSoC4/CapSense.c ****         CapSense_SenseClk_SetDividerValue((uint16)CapSense_senseClkDividerVal[sensor]);
 1080              		.loc 1 1370 0
 1081 0030 2B4B     		ldr	r3, .L71+16
 1082 0032 185D     		ldrb	r0, [r3, r4]
 1083 0034 0138     		subs	r0, r0, #1
 1084 0036 80B2     		uxth	r0, r0
 1085 0038 0021     		movs	r1, #0
 1086 003a FFF7FEFF 		bl	CapSense_SampleClk_SetFractionalDividerRegister
 1087              	.LVL131:
1371:Generated_Source\PSoC4/CapSense.c ****     #else
 1088              		.loc 1 1371 0
 1089 003e 294B     		ldr	r3, .L71+20
 1090 0040 185D     		ldrb	r0, [r3, r4]
 1091 0042 0138     		subs	r0, r0, #1
 1092 0044 80B2     		uxth	r0, r0
 1093 0046 0021     		movs	r1, #0
 1094 0048 FFF7FEFF 		bl	CapSense_SenseClk_SetFractionalDividerRegister
 1095              	.LVL132:
1378:Generated_Source\PSoC4/CapSense.c ****         CapSense_SenseClk_StartEx(CapSense_SampleClk__DIV_ID);
 1096              		.loc 1 1378 0
 1097 004c FF20     		movs	r0, #255
 1098 004e FFF7FEFF 		bl	CapSense_SampleClk_StartEx
 1099              	.LVL133:
1379:Generated_Source\PSoC4/CapSense.c **** 
 1100              		.loc 1 1379 0
 1101 0052 4020     		movs	r0, #64
 1102 0054 FFF7FEFF 		bl	CapSense_SenseClk_StartEx
 1103              	.LVL134:
1382:Generated_Source\PSoC4/CapSense.c ****             CapSense_CSD_CNT_REG = CapSense_ONE_CYCLE;
 1104              		.loc 1 1382 0
 1105 0058 1120     		movs	r0, #17
 1106 005a FFF7FEFF 		bl	CyIntDisable
 1107              	.LVL135:
1383:Generated_Source\PSoC4/CapSense.c ****             while(0u != (CapSense_CSD_CNT_REG & CapSense_RESOLUTION_16_BITS))
 1108              		.loc 1 1383 0
 1109 005e 8022     		movs	r2, #128
 1110 0060 5202     		lsls	r2, r2, #9
 1111 0062 214B     		ldr	r3, .L71+24
 1112 0064 1A60     		str	r2, [r3]
 1113              	.L70:
1384:Generated_Source\PSoC4/CapSense.c ****             {
 1114              		.loc 1 1384 0 discriminator 1
 1115 0066 204B     		ldr	r3, .L71+24
 1116 0068 1B68     		ldr	r3, [r3]
 1117 006a 1B0C     		lsrs	r3, r3, #16
 1118 006c FBD1     		bne	.L70
1388:Generated_Source\PSoC4/CapSense.c ****             CyIntClearPending(CapSense_ISR_NUMBER);
 1119              		.loc 1 1388 0
 1120 006e 0122     		movs	r2, #1
 1121 0070 1E4B     		ldr	r3, .L71+28
 1122 0072 1A60     		str	r2, [r3]
1389:Generated_Source\PSoC4/CapSense.c ****             CyIntEnable(CapSense_ISR_NUMBER);
 1123              		.loc 1 1389 0
 1124 0074 1120     		movs	r0, #17
 1125 0076 FFF7FEFF 		bl	CyIntClearPending
ARM GAS  C:\Users\JamesN4\AppData\Local\Temp\cceXLNdw.s 			page 52


 1126              	.LVL136:
1390:Generated_Source\PSoC4/CapSense.c ****         #endif /* CapSense_PRS_OPTIONS == CapSense__PRS_NONE */
 1127              		.loc 1 1390 0
 1128 007a 1120     		movs	r0, #17
 1129 007c FFF7FEFF 		bl	CyIntEnable
 1130              	.LVL137:
1440:Generated_Source\PSoC4/CapSense.c ****     newRegValue = CapSense_CSD_IDAC_REG;
 1131              		.loc 1 1440 0
 1132 0080 1120     		movs	r0, #17
 1133 0082 FFF7FEFF 		bl	CyIntDisable
 1134              	.LVL138:
1441:Generated_Source\PSoC4/CapSense.c **** 
 1135              		.loc 1 1441 0
 1136 0086 1A48     		ldr	r0, .L71+32
 1137 0088 0168     		ldr	r1, [r0]
 1138              	.LVL139:
1447:Generated_Source\PSoC4/CapSense.c ****     newRegValue |= (CapSense_modulationIDAC[sensor] |
 1139              		.loc 1 1447 0
 1140 008a 1A4B     		ldr	r3, .L71+36
 1141 008c 1940     		ands	r1, r3
 1142              	.LVL140:
1448:Generated_Source\PSoC4/CapSense.c ****                             (uint32)((uint32)CapSense_compensationIDAC[sensor] <<
 1143              		.loc 1 1448 0
 1144 008e 1A4B     		ldr	r3, .L71+40
 1145 0090 1B5D     		ldrb	r3, [r3, r4]
1449:Generated_Source\PSoC4/CapSense.c ****                             CapSense_CSD_IDAC2_DATA_OFFSET));
 1146              		.loc 1 1449 0
 1147 0092 1A4A     		ldr	r2, .L71+44
 1148 0094 125D     		ldrb	r2, [r2, r4]
 1149 0096 1204     		lsls	r2, r2, #16
1448:Generated_Source\PSoC4/CapSense.c ****                             (uint32)((uint32)CapSense_compensationIDAC[sensor] <<
 1150              		.loc 1 1448 0
 1151 0098 1343     		orrs	r3, r2
 1152 009a 0B43     		orrs	r3, r1
 1153              	.LVL141:
1453:Generated_Source\PSoC4/CapSense.c **** 
 1154              		.loc 1 1453 0
 1155 009c 0360     		str	r3, [r0]
1468:Generated_Source\PSoC4/CapSense.c ****     newRegValue &= ~(CapSense_PRECHARGE_CONFIG_MASK);
 1156              		.loc 1 1468 0
 1157 009e 184F     		ldr	r7, .L71+48
 1158 00a0 3E68     		ldr	r6, [r7]
 1159              	.LVL142:
1469:Generated_Source\PSoC4/CapSense.c ****     newRegValue |= CapSense_CTANK_PRECHARGE_CONFIG;
 1160              		.loc 1 1469 0
 1161 00a2 184B     		ldr	r3, .L71+52
 1162 00a4 1E40     		ands	r6, r3
 1163              	.LVL143:
1470:Generated_Source\PSoC4/CapSense.c **** 
 1164              		.loc 1 1470 0
 1165 00a6 184B     		ldr	r3, .L71+56
 1166 00a8 1E43     		orrs	r6, r3
 1167              	.LVL144:
1472:Generated_Source\PSoC4/CapSense.c **** 
 1168              		.loc 1 1472 0
 1169 00aa 1120     		movs	r0, #17
 1170 00ac FFF7FEFF 		bl	CyIntEnable
ARM GAS  C:\Users\JamesN4\AppData\Local\Temp\cceXLNdw.s 			page 53


 1171              	.LVL145:
1475:Generated_Source\PSoC4/CapSense.c **** 
 1172              		.loc 1 1475 0
 1173 00b0 2000     		movs	r0, r4
 1174 00b2 FFF7FEFF 		bl	CapSense_EnableSensor
 1175              	.LVL146:
1477:Generated_Source\PSoC4/CapSense.c ****     CapSense_CSD_CFG_REG = newRegValue;
 1176              		.loc 1 1477 0
 1177 00b6 FFF7FEFF 		bl	CyEnterCriticalSection
 1178              	.LVL147:
 1179 00ba 0400     		movs	r4, r0
 1180              	.LVL148:
1478:Generated_Source\PSoC4/CapSense.c **** 
 1181              		.loc 1 1478 0
 1182 00bc 3E60     		str	r6, [r7]
1488:Generated_Source\PSoC4/CapSense.c **** 
 1183              		.loc 1 1488 0
 1184 00be 0020     		movs	r0, #0
 1185 00c0 FFF7FEFF 		bl	CyDelayCycles
 1186              	.LVL149:
1498:Generated_Source\PSoC4/CapSense.c ****     CyExitCriticalSection(interruptState);
 1187              		.loc 1 1498 0
 1188 00c4 084B     		ldr	r3, .L71+24
 1189 00c6 1D60     		str	r5, [r3]
1499:Generated_Source\PSoC4/CapSense.c **** }
 1190              		.loc 1 1499 0
 1191 00c8 2000     		movs	r0, r4
 1192 00ca FFF7FEFF 		bl	CyExitCriticalSection
 1193              	.LVL150:
1500:Generated_Source\PSoC4/CapSense.c **** 
 1194              		.loc 1 1500 0
 1195              		@ sp needed
 1196              	.LVL151:
 1197              	.LVL152:
 1198              	.LVL153:
 1199 00ce F8BD     		pop	{r3, r4, r5, r6, r7, pc}
 1200              	.L72:
 1201              		.align	2
 1202              	.L71:
 1203 00d0 00000000 		.word	.LANCHOR2
 1204 00d4 00000000 		.word	.LANCHOR1
 1205 00d8 00000000 		.word	CapSense_scanSpeedTbl
 1206 00dc FFFFFEFF 		.word	-65537
 1207 00e0 00000000 		.word	CapSense_sampleClkDividerVal
 1208 00e4 00000000 		.word	CapSense_senseClkDividerVal
 1209 00e8 0C002840 		.word	1076363276
 1210 00ec 14002840 		.word	1076363284
 1211 00f0 08002840 		.word	1076363272
 1212 00f4 00FF80FF 		.word	-8323328
 1213 00f8 00000000 		.word	CapSense_modulationIDAC
 1214 00fc 00000000 		.word	CapSense_compensationIDAC
 1215 0100 04002840 		.word	1076363268
 1216 0104 FF1FDFFF 		.word	-2154497
 1217 0108 20E02000 		.word	2154528
 1218              		.cfi_endproc
 1219              	.LFE53:
 1220              		.size	CapSense_PreScan, .-CapSense_PreScan
ARM GAS  C:\Users\JamesN4\AppData\Local\Temp\cceXLNdw.s 			page 54


 1221              		.section	.text.CapSense_ScanSensor,"ax",%progbits
 1222              		.align	2
 1223              		.global	CapSense_ScanSensor
 1224              		.code	16
 1225              		.thumb_func
 1226              		.type	CapSense_ScanSensor, %function
 1227              	CapSense_ScanSensor:
 1228              	.LFB39:
 548:Generated_Source\PSoC4/CapSense.c ****     /* Clears status/control variable and set sensorIndex */
 1229              		.loc 1 548 0
 1230              		.cfi_startproc
 1231              		@ args = 0, pretend = 0, frame = 0
 1232              		@ frame_needed = 0, uses_anonymous_args = 0
 1233              	.LVL154:
 1234 0000 10B5     		push	{r4, lr}
 1235              		.cfi_def_cfa_offset 8
 1236              		.cfi_offset 4, -8
 1237              		.cfi_offset 14, -4
 550:Generated_Source\PSoC4/CapSense.c ****     CapSense_sensorIndex = (uint8)sensor;
 1238              		.loc 1 550 0
 1239 0002 054B     		ldr	r3, .L74
 1240 0004 0022     		movs	r2, #0
 1241 0006 1A70     		strb	r2, [r3]
 551:Generated_Source\PSoC4/CapSense.c **** 
 1242              		.loc 1 551 0
 1243 0008 C2B2     		uxtb	r2, r0
 1244 000a 1A72     		strb	r2, [r3, #8]
 554:Generated_Source\PSoC4/CapSense.c ****     CapSense_PreScan(sensor);
 1245              		.loc 1 554 0
 1246 000c 8122     		movs	r2, #129
 1247 000e 1A70     		strb	r2, [r3]
 555:Generated_Source\PSoC4/CapSense.c **** }
 1248              		.loc 1 555 0
 1249 0010 FFF7FEFF 		bl	CapSense_PreScan
 1250              	.LVL155:
 556:Generated_Source\PSoC4/CapSense.c **** 
 1251              		.loc 1 556 0
 1252              		@ sp needed
 1253 0014 10BD     		pop	{r4, pc}
 1254              	.L75:
 1255 0016 C046     		.align	2
 1256              	.L74:
 1257 0018 00000000 		.word	.LANCHOR0
 1258              		.cfi_endproc
 1259              	.LFE39:
 1260              		.size	CapSense_ScanSensor, .-CapSense_ScanSensor
 1261              		.section	.text.CapSense_ScanEnabledWidgets,"ax",%progbits
 1262              		.align	2
 1263              		.global	CapSense_ScanEnabledWidgets
 1264              		.code	16
 1265              		.thumb_func
 1266              		.type	CapSense_ScanEnabledWidgets, %function
 1267              	CapSense_ScanEnabledWidgets:
 1268              	.LFB41:
 672:Generated_Source\PSoC4/CapSense.c ****     /* Clears status/control variable and set sensorIndex */
 1269              		.loc 1 672 0
 1270              		.cfi_startproc
ARM GAS  C:\Users\JamesN4\AppData\Local\Temp\cceXLNdw.s 			page 55


 1271              		@ args = 0, pretend = 0, frame = 0
 1272              		@ frame_needed = 0, uses_anonymous_args = 0
 1273 0000 10B5     		push	{r4, lr}
 1274              		.cfi_def_cfa_offset 8
 1275              		.cfi_offset 4, -8
 1276              		.cfi_offset 14, -4
 674:Generated_Source\PSoC4/CapSense.c ****     CapSense_sensorIndex = 0xFFu;
 1277              		.loc 1 674 0
 1278 0002 0C4C     		ldr	r4, .L78
 1279 0004 0023     		movs	r3, #0
 1280 0006 2370     		strb	r3, [r4]
 675:Generated_Source\PSoC4/CapSense.c **** 
 1281              		.loc 1 675 0
 1282 0008 FF33     		adds	r3, r3, #255
 1283 000a 2372     		strb	r3, [r4, #8]
 678:Generated_Source\PSoC4/CapSense.c **** 
 1284              		.loc 1 678 0
 1285 000c 207A     		ldrb	r0, [r4, #8]
 1286 000e C0B2     		uxtb	r0, r0
 1287 0010 FFF7FEFF 		bl	CapSense_FindNextSensor
 1288              	.LVL156:
 1289 0014 2072     		strb	r0, [r4, #8]
 681:Generated_Source\PSoC4/CapSense.c ****     {
 1290              		.loc 1 681 0
 1291 0016 237A     		ldrb	r3, [r4, #8]
 1292 0018 DBB2     		uxtb	r3, r3
 1293 001a 012B     		cmp	r3, #1
 1294 001c 08D8     		bhi	.L76
 683:Generated_Source\PSoC4/CapSense.c ****         CapSense_PreScan((uint32)CapSense_sensorIndex);
 1295              		.loc 1 683 0
 1296 001e 2178     		ldrb	r1, [r4]
 1297 0020 0123     		movs	r3, #1
 1298 0022 0B43     		orrs	r3, r1
 1299 0024 DBB2     		uxtb	r3, r3
 1300 0026 2370     		strb	r3, [r4]
 684:Generated_Source\PSoC4/CapSense.c ****     }
 1301              		.loc 1 684 0
 1302 0028 207A     		ldrb	r0, [r4, #8]
 1303 002a C0B2     		uxtb	r0, r0
 1304 002c FFF7FEFF 		bl	CapSense_PreScan
 1305              	.LVL157:
 1306              	.L76:
 686:Generated_Source\PSoC4/CapSense.c **** 
 1307              		.loc 1 686 0
 1308              		@ sp needed
 1309 0030 10BD     		pop	{r4, pc}
 1310              	.L79:
 1311 0032 C046     		.align	2
 1312              	.L78:
 1313 0034 00000000 		.word	.LANCHOR0
 1314              		.cfi_endproc
 1315              	.LFE41:
 1316              		.size	CapSense_ScanEnabledWidgets, .-CapSense_ScanEnabledWidgets
 1317              		.section	.text.CapSense_PostScan,"ax",%progbits
 1318              		.align	2
 1319              		.global	CapSense_PostScan
 1320              		.code	16
ARM GAS  C:\Users\JamesN4\AppData\Local\Temp\cceXLNdw.s 			page 56


 1321              		.thumb_func
 1322              		.type	CapSense_PostScan, %function
 1323              	CapSense_PostScan:
 1324              	.LFB54:
1526:Generated_Source\PSoC4/CapSense.c ****     uint32 newRegValue;
 1325              		.loc 1 1526 0
 1326              		.cfi_startproc
 1327              		@ args = 0, pretend = 0, frame = 0
 1328              		@ frame_needed = 0, uses_anonymous_args = 0
 1329              	.LVL158:
 1330 0000 70B5     		push	{r4, r5, r6, lr}
 1331              		.cfi_def_cfa_offset 16
 1332              		.cfi_offset 4, -16
 1333              		.cfi_offset 5, -12
 1334              		.cfi_offset 6, -8
 1335              		.cfi_offset 14, -4
 1336 0002 0500     		movs	r5, r0
1544:Generated_Source\PSoC4/CapSense.c **** 
 1337              		.loc 1 1544 0
 1338 0004 184B     		ldr	r3, .L82
 1339 0006 1C68     		ldr	r4, [r3]
 1340 0008 A4B2     		uxth	r4, r4
 1341 000a 4300     		lsls	r3, r0, #1
 1342 000c 174A     		ldr	r2, .L82+4
 1343 000e D318     		adds	r3, r2, r3
 1344 0010 9C80     		strh	r4, [r3, #4]
1548:Generated_Source\PSoC4/CapSense.c ****     if(CapSense_widgetResolution[widget] < CapSense_RESOLUTION_16_BITS)
 1345              		.loc 1 1548 0
 1346 0012 174B     		ldr	r3, .L82+8
 1347 0014 1B18     		adds	r3, r3, r0
 1348 0016 6822     		movs	r2, #104
 1349 0018 9B5C     		ldrb	r3, [r3, r2]
 1350              	.LVL159:
1549:Generated_Source\PSoC4/CapSense.c ****     {
 1351              		.loc 1 1549 0
 1352 001a 9B00     		lsls	r3, r3, #2
 1353              	.LVL160:
 1354 001c 154A     		ldr	r2, .L82+12
 1355              	.LVL161:
 1356 001e 9A58     		ldr	r2, [r3, r2]
 1357 0020 154B     		ldr	r3, .L82+16
 1358 0022 9A42     		cmp	r2, r3
 1359 0024 08D8     		bhi	.L81
1551:Generated_Source\PSoC4/CapSense.c ****         CapSense_sensorRaw[sensor] >>= oversamplingFactor;
 1360              		.loc 1 1551 0
 1361 0026 0100     		movs	r1, r0
 1362 0028 1448     		ldr	r0, .L82+20
 1363              	.LVL162:
 1364 002a FFF7FEFF 		bl	CapSense_GetBitValue
 1365              	.LVL163:
1552:Generated_Source\PSoC4/CapSense.c ****     }
 1366              		.loc 1 1552 0
 1367 002e 6B00     		lsls	r3, r5, #1
 1368 0030 0E4A     		ldr	r2, .L82+4
 1369 0032 D318     		adds	r3, r2, r3
 1370 0034 0441     		asrs	r4, r4, r0
 1371 0036 9C80     		strh	r4, [r3, #4]
ARM GAS  C:\Users\JamesN4\AppData\Local\Temp\cceXLNdw.s 			page 57


 1372              	.LVL164:
 1373              	.L81:
1558:Generated_Source\PSoC4/CapSense.c **** 
 1374              		.loc 1 1558 0
 1375 0038 2800     		movs	r0, r5
 1376 003a FFF7FEFF 		bl	CapSense_DisableSensor
 1377              	.LVL165:
1560:Generated_Source\PSoC4/CapSense.c **** 
 1378              		.loc 1 1560 0
 1379 003e 1120     		movs	r0, #17
 1380 0040 FFF7FEFF 		bl	CyIntDisable
 1381              	.LVL166:
1580:Generated_Source\PSoC4/CapSense.c ****     newRegValue &= ~(CapSense_PRECHARGE_CONFIG_MASK);
 1382              		.loc 1 1580 0
 1383 0044 0E4A     		ldr	r2, .L82+24
 1384 0046 1168     		ldr	r1, [r2]
 1385              	.LVL167:
1581:Generated_Source\PSoC4/CapSense.c ****     newRegValue |= CapSense_CMOD_PRECHARGE_CONFIG;
 1386              		.loc 1 1581 0
 1387 0048 0E4B     		ldr	r3, .L82+28
 1388 004a 0B40     		ands	r3, r1
 1389              	.LVL168:
1582:Generated_Source\PSoC4/CapSense.c ****     CapSense_CSD_CFG_REG = newRegValue;
 1390              		.loc 1 1582 0
 1391 004c A021     		movs	r1, #160
 1392 004e 0902     		lsls	r1, r1, #8
 1393 0050 0B43     		orrs	r3, r1
 1394              	.LVL169:
1583:Generated_Source\PSoC4/CapSense.c **** 
 1395              		.loc 1 1583 0
 1396 0052 1360     		str	r3, [r2]
1589:Generated_Source\PSoC4/CapSense.c **** #endif /* (CapSense_IDAC_CNT == 1u) */
 1397              		.loc 1 1589 0
 1398 0054 0C4A     		ldr	r2, .L82+32
 1399 0056 1168     		ldr	r1, [r2]
 1400 0058 0C4B     		ldr	r3, .L82+36
 1401              	.LVL170:
 1402 005a 0B40     		ands	r3, r1
 1403 005c 1360     		str	r3, [r2]
 1404              	.LVL171:
1592:Generated_Source\PSoC4/CapSense.c **** }
 1405              		.loc 1 1592 0
 1406 005e 1120     		movs	r0, #17
 1407 0060 FFF7FEFF 		bl	CyIntEnable
 1408              	.LVL172:
1593:Generated_Source\PSoC4/CapSense.c **** 
 1409              		.loc 1 1593 0
 1410              		@ sp needed
 1411              	.LVL173:
 1412 0064 70BD     		pop	{r4, r5, r6, pc}
 1413              	.L83:
 1414 0066 C046     		.align	2
 1415              	.L82:
 1416 0068 0C002840 		.word	1076363276
 1417 006c 00000000 		.word	.LANCHOR0
 1418 0070 00000000 		.word	.LANCHOR2
 1419 0074 00000000 		.word	.LANCHOR1
ARM GAS  C:\Users\JamesN4\AppData\Local\Temp\cceXLNdw.s 			page 58


 1420 0078 FFFFFEFF 		.word	-65537
 1421 007c 00000000 		.word	CapSense_scanSpeedTbl
 1422 0080 04002840 		.word	1076363268
 1423 0084 FF1FDFFF 		.word	-2154497
 1424 0088 08002840 		.word	1076363272
 1425 008c 00FF80FF 		.word	-8323328
 1426              		.cfi_endproc
 1427              	.LFE54:
 1428              		.size	CapSense_PostScan, .-CapSense_PostScan
 1429              		.section	.text.CapSense_SetBitValue,"ax",%progbits
 1430              		.align	2
 1431              		.global	CapSense_SetBitValue
 1432              		.code	16
 1433              		.thumb_func
 1434              		.type	CapSense_SetBitValue, %function
 1435              	CapSense_SetBitValue:
 1436              	.LFB59:
1736:Generated_Source\PSoC4/CapSense.c **** 
1737:Generated_Source\PSoC4/CapSense.c **** 
1738:Generated_Source\PSoC4/CapSense.c **** /*******************************************************************************
1739:Generated_Source\PSoC4/CapSense.c **** * Function Name: CapSense_SetBitValue
1740:Generated_Source\PSoC4/CapSense.c **** ********************************************************************************
1741:Generated_Source\PSoC4/CapSense.c **** *
1742:Generated_Source\PSoC4/CapSense.c **** * Summary:
1743:Generated_Source\PSoC4/CapSense.c **** *  The API sets a bit status of the bit in the table array which contains masks.
1744:Generated_Source\PSoC4/CapSense.c **** *
1745:Generated_Source\PSoC4/CapSense.c **** * Parameters:
1746:Generated_Source\PSoC4/CapSense.c **** *  table[] - array with bit masks.
1747:Generated_Source\PSoC4/CapSense.c **** *  position - position of bit in the table[] array.
1748:Generated_Source\PSoC4/CapSense.c **** *  value: 0 - bit is not set; 1 - bit is set.
1749:Generated_Source\PSoC4/CapSense.c **** *
1750:Generated_Source\PSoC4/CapSense.c **** * Return:
1751:Generated_Source\PSoC4/CapSense.c **** *  None
1752:Generated_Source\PSoC4/CapSense.c **** *
1753:Generated_Source\PSoC4/CapSense.c **** * Global Variables:
1754:Generated_Source\PSoC4/CapSense.c **** *  None
1755:Generated_Source\PSoC4/CapSense.c **** *
1756:Generated_Source\PSoC4/CapSense.c **** * Side Effects:
1757:Generated_Source\PSoC4/CapSense.c **** *  None
1758:Generated_Source\PSoC4/CapSense.c **** *
1759:Generated_Source\PSoC4/CapSense.c **** *******************************************************************************/
1760:Generated_Source\PSoC4/CapSense.c **** void CapSense_SetBitValue(uint8 table[], uint32 position, uint32 value)
1761:Generated_Source\PSoC4/CapSense.c **** {
 1437              		.loc 1 1761 0
 1438              		.cfi_startproc
 1439              		@ args = 0, pretend = 0, frame = 0
 1440              		@ frame_needed = 0, uses_anonymous_args = 0
 1441              	.LVL174:
 1442 0000 10B5     		push	{r4, lr}
 1443              		.cfi_def_cfa_offset 8
 1444              		.cfi_offset 4, -8
 1445              		.cfi_offset 14, -4
1762:Generated_Source\PSoC4/CapSense.c ****     uint32 offset;
1763:Generated_Source\PSoC4/CapSense.c ****     uint8 enMask;
1764:Generated_Source\PSoC4/CapSense.c **** 
1765:Generated_Source\PSoC4/CapSense.c ****     /* position is divided by 8 to calculate the element of the
1766:Generated_Source\PSoC4/CapSense.c ****        table[] array that contains the enable bit
ARM GAS  C:\Users\JamesN4\AppData\Local\Temp\cceXLNdw.s 			page 59


1767:Generated_Source\PSoC4/CapSense.c ****        for an appropriate sensor.
1768:Generated_Source\PSoC4/CapSense.c ****     */
1769:Generated_Source\PSoC4/CapSense.c ****     offset = (position >> 3u);
 1446              		.loc 1 1769 0
 1447 0002 CC08     		lsrs	r4, r1, #3
 1448              	.LVL175:
1770:Generated_Source\PSoC4/CapSense.c **** 
1771:Generated_Source\PSoC4/CapSense.c ****     /* The enMask calculation for the appropriate sensor. Operation (position & 0x07u)
1772:Generated_Source\PSoC4/CapSense.c ****        intends to calculate the enable bit offset for the 8-bit element of the
1773:Generated_Source\PSoC4/CapSense.c ****        table[] array.
1774:Generated_Source\PSoC4/CapSense.c ****     */
1775:Generated_Source\PSoC4/CapSense.c ****     enMask = 0x01u << (position & 0x07u);
 1449              		.loc 1 1775 0
 1450 0004 0723     		movs	r3, #7
 1451 0006 1940     		ands	r1, r3
 1452              	.LVL176:
 1453 0008 063B     		subs	r3, r3, #6
 1454 000a 8B40     		lsls	r3, r3, r1
 1455 000c DBB2     		uxtb	r3, r3
 1456              	.LVL177:
1776:Generated_Source\PSoC4/CapSense.c **** 
1777:Generated_Source\PSoC4/CapSense.c ****     if(0u != value)
 1457              		.loc 1 1777 0
 1458 000e 002A     		cmp	r2, #0
 1459 0010 04D0     		beq	.L85
1778:Generated_Source\PSoC4/CapSense.c ****     {
1779:Generated_Source\PSoC4/CapSense.c ****         table[offset] |= enMask;
 1460              		.loc 1 1779 0
 1461 0012 0419     		adds	r4, r0, r4
 1462              	.LVL178:
 1463 0014 2278     		ldrb	r2, [r4]
 1464              	.LVL179:
 1465 0016 1343     		orrs	r3, r2
 1466              	.LVL180:
 1467 0018 2370     		strb	r3, [r4]
 1468 001a 03E0     		b	.L84
 1469              	.LVL181:
 1470              	.L85:
1780:Generated_Source\PSoC4/CapSense.c ****     }
1781:Generated_Source\PSoC4/CapSense.c ****     else
1782:Generated_Source\PSoC4/CapSense.c ****     {
1783:Generated_Source\PSoC4/CapSense.c ****         table[offset] &= (uint8)~(enMask);
 1471              		.loc 1 1783 0
 1472 001c 0419     		adds	r4, r0, r4
 1473              	.LVL182:
 1474 001e 2278     		ldrb	r2, [r4]
 1475              	.LVL183:
 1476 0020 9A43     		bics	r2, r3
 1477 0022 2270     		strb	r2, [r4]
 1478              	.LVL184:
 1479              	.L84:
1784:Generated_Source\PSoC4/CapSense.c ****     }
1785:Generated_Source\PSoC4/CapSense.c **** }
 1480              		.loc 1 1785 0
 1481              		@ sp needed
 1482 0024 10BD     		pop	{r4, pc}
 1483              		.cfi_endproc
ARM GAS  C:\Users\JamesN4\AppData\Local\Temp\cceXLNdw.s 			page 60


 1484              	.LFE59:
 1485              		.size	CapSense_SetBitValue, .-CapSense_SetBitValue
 1486 0026 C046     		.section	.text.CapSense_ScanWidget,"ax",%progbits
 1487              		.align	2
 1488              		.global	CapSense_ScanWidget
 1489              		.code	16
 1490              		.thumb_func
 1491              		.type	CapSense_ScanWidget, %function
 1492              	CapSense_ScanWidget:
 1493              	.LFB40:
 587:Generated_Source\PSoC4/CapSense.c ****     uint32 sensorsPerWidget;
 1494              		.loc 1 587 0
 1495              		.cfi_startproc
 1496              		@ args = 0, pretend = 0, frame = 0
 1497              		@ frame_needed = 0, uses_anonymous_args = 0
 1498              	.LVL185:
 1499 0000 70B5     		push	{r4, r5, r6, lr}
 1500              		.cfi_def_cfa_offset 16
 1501              		.cfi_offset 4, -16
 1502              		.cfi_offset 5, -12
 1503              		.cfi_offset 6, -8
 1504              		.cfi_offset 14, -4
 593:Generated_Source\PSoC4/CapSense.c **** 
 1505              		.loc 1 593 0
 1506 0002 1D4B     		ldr	r3, .L97
 1507 0004 1D5C     		ldrb	r5, [r3, r0]
 1508 0006 1D4B     		ldr	r3, .L97+4
 1509 0008 1D72     		strb	r5, [r3, #8]
 596:Generated_Source\PSoC4/CapSense.c **** 
 1510              		.loc 1 596 0
 1511 000a 1D4B     		ldr	r3, .L97+8
 1512 000c 1B5C     		ldrb	r3, [r3, r0]
 1513              	.LVL186:
 599:Generated_Source\PSoC4/CapSense.c ****     {
 1514              		.loc 1 599 0
 1515 000e 002B     		cmp	r3, #0
 1516 0010 00D1     		bne	.L88
 601:Generated_Source\PSoC4/CapSense.c ****     }
 1517              		.loc 1 601 0
 1518 0012 0133     		adds	r3, r3, #1
 1519              	.LVL187:
 1520              	.L88:
 605:Generated_Source\PSoC4/CapSense.c **** 
 1521              		.loc 1 605 0
 1522 0014 EB18     		adds	r3, r5, r3
 1523              	.LVL188:
 1524 0016 5D1E     		subs	r5, r3, #1
 1525              	.LVL189:
 608:Generated_Source\PSoC4/CapSense.c ****     {
 1526              		.loc 1 608 0
 1527 0018 0023     		movs	r3, #0
 1528 001a 05E0     		b	.L89
 1529              	.LVL190:
 1530              	.L90:
 611:Generated_Source\PSoC4/CapSense.c ****     }
 1531              		.loc 1 611 0 discriminator 3
 1532 001c 194A     		ldr	r2, .L97+12
ARM GAS  C:\Users\JamesN4\AppData\Local\Temp\cceXLNdw.s 			page 61


 1533 001e D218     		adds	r2, r2, r3
 1534 0020 117A     		ldrb	r1, [r2, #8]
 1535 0022 194A     		ldr	r2, .L97+16
 1536 0024 D154     		strb	r1, [r2, r3]
 608:Generated_Source\PSoC4/CapSense.c ****     {
 1537              		.loc 1 608 0 discriminator 3
 1538 0026 0133     		adds	r3, r3, #1
 1539              	.LVL191:
 1540              	.L89:
 608:Generated_Source\PSoC4/CapSense.c ****     {
 1541              		.loc 1 608 0 is_stmt 0 discriminator 1
 1542 0028 002B     		cmp	r3, #0
 1543 002a F7D0     		beq	.L90
 1544 002c 0024     		movs	r4, #0
 1545 002e 14E0     		b	.L91
 1546              	.LVL192:
 1547              	.L94:
 618:Generated_Source\PSoC4/CapSense.c ****         {
 1548              		.loc 1 618 0 is_stmt 1
 1549 0030 124B     		ldr	r3, .L97+4
 1550 0032 1B7A     		ldrb	r3, [r3, #8]
 1551 0034 DBB2     		uxtb	r3, r3
 1552 0036 9C42     		cmp	r4, r3
 1553 0038 08D3     		bcc	.L92
 618:Generated_Source\PSoC4/CapSense.c ****         {
 1554              		.loc 1 618 0 is_stmt 0 discriminator 1
 1555 003a AC42     		cmp	r4, r5
 1556 003c 06D8     		bhi	.L92
 621:Generated_Source\PSoC4/CapSense.c ****         }
 1557              		.loc 1 621 0 is_stmt 1
 1558 003e 0122     		movs	r2, #1
 1559 0040 2100     		movs	r1, r4
 1560 0042 1048     		ldr	r0, .L97+12
 1561 0044 0830     		adds	r0, r0, #8
 1562 0046 FFF7FEFF 		bl	CapSense_SetBitValue
 1563              	.LVL193:
 1564 004a 05E0     		b	.L93
 1565              	.L92:
 626:Generated_Source\PSoC4/CapSense.c ****         }
 1566              		.loc 1 626 0
 1567 004c 0022     		movs	r2, #0
 1568 004e 2100     		movs	r1, r4
 1569 0050 0C48     		ldr	r0, .L97+12
 1570 0052 0830     		adds	r0, r0, #8
 1571 0054 FFF7FEFF 		bl	CapSense_SetBitValue
 1572              	.LVL194:
 1573              	.L93:
 615:Generated_Source\PSoC4/CapSense.c ****     {
 1574              		.loc 1 615 0 discriminator 2
 1575 0058 0134     		adds	r4, r4, #1
 1576              	.LVL195:
 1577              	.L91:
 615:Generated_Source\PSoC4/CapSense.c ****     {
 1578              		.loc 1 615 0 is_stmt 0 discriminator 1
 1579 005a 012C     		cmp	r4, #1
 1580 005c E8D9     		bls	.L94
 631:Generated_Source\PSoC4/CapSense.c ****     {
ARM GAS  C:\Users\JamesN4\AppData\Local\Temp\cceXLNdw.s 			page 62


 1581              		.loc 1 631 0 is_stmt 1
 1582 005e 074B     		ldr	r3, .L97+4
 1583 0060 1B7A     		ldrb	r3, [r3, #8]
 1584 0062 DBB2     		uxtb	r3, r3
 1585 0064 012B     		cmp	r3, #1
 1586 0066 06D8     		bhi	.L87
 634:Generated_Source\PSoC4/CapSense.c ****         /* Scan first sensor of widget*/
 1587              		.loc 1 634 0
 1588 0068 044B     		ldr	r3, .L97+4
 1589 006a 4122     		movs	r2, #65
 1590 006c 1A70     		strb	r2, [r3]
 636:Generated_Source\PSoC4/CapSense.c ****     }
 1591              		.loc 1 636 0
 1592 006e 187A     		ldrb	r0, [r3, #8]
 1593 0070 C0B2     		uxtb	r0, r0
 1594 0072 FFF7FEFF 		bl	CapSense_PreScan
 1595              	.LVL196:
 1596              	.L87:
 638:Generated_Source\PSoC4/CapSense.c **** #endif /* (0u != CapSense_CSHL_API_GENERATE) */
 1597              		.loc 1 638 0
 1598              		@ sp needed
 1599              	.LVL197:
 1600              	.LVL198:
 1601 0076 70BD     		pop	{r4, r5, r6, pc}
 1602              	.L98:
 1603              		.align	2
 1604              	.L97:
 1605 0078 00000000 		.word	CapSense_rawDataIndex
 1606 007c 00000000 		.word	.LANCHOR0
 1607 0080 00000000 		.word	CapSense_numberOfSensors
 1608 0084 00000000 		.word	.LANCHOR1
 1609 0088 00000000 		.word	CapSense_sensorEnableMaskBackup
 1610              		.cfi_endproc
 1611              	.LFE40:
 1612              		.size	CapSense_ScanWidget, .-CapSense_ScanWidget
 1613              		.section	.text.CapSense_GetSenseClkDivider,"ax",%progbits
 1614              		.align	2
 1615              		.global	CapSense_GetSenseClkDivider
 1616              		.code	16
 1617              		.thumb_func
 1618              		.type	CapSense_GetSenseClkDivider, %function
 1619              	CapSense_GetSenseClkDivider:
 1620              	.LFB60:
1786:Generated_Source\PSoC4/CapSense.c **** 
1787:Generated_Source\PSoC4/CapSense.c **** 
1788:Generated_Source\PSoC4/CapSense.c **** 
1789:Generated_Source\PSoC4/CapSense.c **** /*******************************************************************************
1790:Generated_Source\PSoC4/CapSense.c **** * Function Name: CapSense_GetSenseClkDivider
1791:Generated_Source\PSoC4/CapSense.c **** ********************************************************************************
1792:Generated_Source\PSoC4/CapSense.c **** *
1793:Generated_Source\PSoC4/CapSense.c **** * Summary:
1794:Generated_Source\PSoC4/CapSense.c **** *  This API returns a value of the sense clock divider for the  sensor.
1795:Generated_Source\PSoC4/CapSense.c **** *
1796:Generated_Source\PSoC4/CapSense.c **** * Parameters:
1797:Generated_Source\PSoC4/CapSense.c **** *  sensor: sensor index. The index value can be
1798:Generated_Source\PSoC4/CapSense.c **** *  from 0 to (CapSense_TOTAL_SENSOR_COUNT-1).
1799:Generated_Source\PSoC4/CapSense.c **** *
ARM GAS  C:\Users\JamesN4\AppData\Local\Temp\cceXLNdw.s 			page 63


1800:Generated_Source\PSoC4/CapSense.c **** * Return:
1801:Generated_Source\PSoC4/CapSense.c **** *  This API returns the sense clock divider of the sensor.
1802:Generated_Source\PSoC4/CapSense.c **** *
1803:Generated_Source\PSoC4/CapSense.c **** * Global Variables:
1804:Generated_Source\PSoC4/CapSense.c **** *  CapSense_senseClkDividerVal[] - stores the sense clock divider values.
1805:Generated_Source\PSoC4/CapSense.c **** *
1806:Generated_Source\PSoC4/CapSense.c **** * Side Effects:
1807:Generated_Source\PSoC4/CapSense.c **** *  None
1808:Generated_Source\PSoC4/CapSense.c **** *
1809:Generated_Source\PSoC4/CapSense.c **** *******************************************************************************/
1810:Generated_Source\PSoC4/CapSense.c **** uint32 CapSense_GetSenseClkDivider(uint32 sensor)
1811:Generated_Source\PSoC4/CapSense.c **** {
 1621              		.loc 1 1811 0
 1622              		.cfi_startproc
 1623              		@ args = 0, pretend = 0, frame = 0
 1624              		@ frame_needed = 0, uses_anonymous_args = 0
 1625              		@ link register save eliminated.
 1626              	.LVL199:
1812:Generated_Source\PSoC4/CapSense.c ****     #if(0u != CapSense_MULTIPLE_FREQUENCY_SET)
1813:Generated_Source\PSoC4/CapSense.c ****         return((uint32)CapSense_senseClkDividerVal[sensor]);
 1627              		.loc 1 1813 0
 1628 0000 014B     		ldr	r3, .L100
 1629 0002 185C     		ldrb	r0, [r3, r0]
 1630              	.LVL200:
1814:Generated_Source\PSoC4/CapSense.c ****     #else
1815:Generated_Source\PSoC4/CapSense.c ****         return((uint32)CapSense_senseClkDividerVal);
1816:Generated_Source\PSoC4/CapSense.c ****     #endif /* (0u != CapSense_MULTIPLE_FREQUENCY_SET) */
1817:Generated_Source\PSoC4/CapSense.c **** }
 1631              		.loc 1 1817 0
 1632              		@ sp needed
 1633 0004 7047     		bx	lr
 1634              	.L101:
 1635 0006 C046     		.align	2
 1636              	.L100:
 1637 0008 00000000 		.word	CapSense_senseClkDividerVal
 1638              		.cfi_endproc
 1639              	.LFE60:
 1640              		.size	CapSense_GetSenseClkDivider, .-CapSense_GetSenseClkDivider
 1641              		.section	.text.CapSense_SetSenseClkDivider,"ax",%progbits
 1642              		.align	2
 1643              		.global	CapSense_SetSenseClkDivider
 1644              		.code	16
 1645              		.thumb_func
 1646              		.type	CapSense_SetSenseClkDivider, %function
 1647              	CapSense_SetSenseClkDivider:
 1648              	.LFB61:
1818:Generated_Source\PSoC4/CapSense.c **** 
1819:Generated_Source\PSoC4/CapSense.c **** #if (CapSense_TUNING_METHOD != CapSense__TUNING_NONE)
1820:Generated_Source\PSoC4/CapSense.c ****     /*******************************************************************************
1821:Generated_Source\PSoC4/CapSense.c ****     * Function Name: CapSense_SetSenseClkDivider
1822:Generated_Source\PSoC4/CapSense.c ****     ********************************************************************************
1823:Generated_Source\PSoC4/CapSense.c ****     *
1824:Generated_Source\PSoC4/CapSense.c ****     * Summary:
1825:Generated_Source\PSoC4/CapSense.c ****     *  This API sets a value of the sense clock divider for the  sensor.
1826:Generated_Source\PSoC4/CapSense.c ****     *
1827:Generated_Source\PSoC4/CapSense.c ****     * Parameters:
1828:Generated_Source\PSoC4/CapSense.c ****     *  sensor:  Sensor index.
ARM GAS  C:\Users\JamesN4\AppData\Local\Temp\cceXLNdw.s 			page 64


1829:Generated_Source\PSoC4/CapSense.c ****     *  senseClk: represents the sense clock value.
1830:Generated_Source\PSoC4/CapSense.c ****     *
1831:Generated_Source\PSoC4/CapSense.c ****     * Return:
1832:Generated_Source\PSoC4/CapSense.c ****     *  None.
1833:Generated_Source\PSoC4/CapSense.c ****     *
1834:Generated_Source\PSoC4/CapSense.c ****     * Global Variables:
1835:Generated_Source\PSoC4/CapSense.c ****     *  CapSense_senseClkDividerVal[] - stores the sense clock divider values.
1836:Generated_Source\PSoC4/CapSense.c ****     *
1837:Generated_Source\PSoC4/CapSense.c ****     * Side Effects:
1838:Generated_Source\PSoC4/CapSense.c ****     *  None
1839:Generated_Source\PSoC4/CapSense.c ****     *
1840:Generated_Source\PSoC4/CapSense.c ****     *******************************************************************************/
1841:Generated_Source\PSoC4/CapSense.c ****     void CapSense_SetSenseClkDivider(uint32 sensor, uint32 senseClk)
1842:Generated_Source\PSoC4/CapSense.c ****     {
 1649              		.loc 1 1842 0
 1650              		.cfi_startproc
 1651              		@ args = 0, pretend = 0, frame = 0
 1652              		@ frame_needed = 0, uses_anonymous_args = 0
 1653              		@ link register save eliminated.
 1654              	.LVL201:
1843:Generated_Source\PSoC4/CapSense.c ****         #if(0u != CapSense_MULTIPLE_FREQUENCY_SET)
1844:Generated_Source\PSoC4/CapSense.c ****             CapSense_senseClkDividerVal[sensor] = (uint8)senseClk;
 1655              		.loc 1 1844 0
 1656 0000 014B     		ldr	r3, .L103
 1657 0002 1954     		strb	r1, [r3, r0]
1845:Generated_Source\PSoC4/CapSense.c ****         #else
1846:Generated_Source\PSoC4/CapSense.c ****             CapSense_senseClkDividerVal = (uint8)senseClk;
1847:Generated_Source\PSoC4/CapSense.c ****         #endif /* (0u != CapSense_MULTIPLE_FREQUENCY_SET) */
1848:Generated_Source\PSoC4/CapSense.c ****     }
 1658              		.loc 1 1848 0
 1659              		@ sp needed
 1660 0004 7047     		bx	lr
 1661              	.L104:
 1662 0006 C046     		.align	2
 1663              	.L103:
 1664 0008 00000000 		.word	CapSense_senseClkDividerVal
 1665              		.cfi_endproc
 1666              	.LFE61:
 1667              		.size	CapSense_SetSenseClkDivider, .-CapSense_SetSenseClkDivider
 1668              		.section	.text.CapSense_GetModulatorClkDivider,"ax",%progbits
 1669              		.align	2
 1670              		.global	CapSense_GetModulatorClkDivider
 1671              		.code	16
 1672              		.thumb_func
 1673              		.type	CapSense_GetModulatorClkDivider, %function
 1674              	CapSense_GetModulatorClkDivider:
 1675              	.LFB62:
1849:Generated_Source\PSoC4/CapSense.c **** #endif /* (CapSense_TUNING_METHOD != CapSense__TUNING_NONE) */
1850:Generated_Source\PSoC4/CapSense.c **** 
1851:Generated_Source\PSoC4/CapSense.c **** 
1852:Generated_Source\PSoC4/CapSense.c **** /*******************************************************************************
1853:Generated_Source\PSoC4/CapSense.c **** * Function Name: CapSense_GetModulatorClkDivider
1854:Generated_Source\PSoC4/CapSense.c **** ********************************************************************************
1855:Generated_Source\PSoC4/CapSense.c **** *
1856:Generated_Source\PSoC4/CapSense.c **** * Summary:
1857:Generated_Source\PSoC4/CapSense.c **** *  This API returns a value of the modulator sample clock divider for the  sensor.
1858:Generated_Source\PSoC4/CapSense.c **** *
ARM GAS  C:\Users\JamesN4\AppData\Local\Temp\cceXLNdw.s 			page 65


1859:Generated_Source\PSoC4/CapSense.c **** * Parameters:
1860:Generated_Source\PSoC4/CapSense.c **** *  sensor: sensor index. The value of index can be
1861:Generated_Source\PSoC4/CapSense.c **** *  from 0 to (CapSense_TOTAL_SENSOR_COUNT-1).
1862:Generated_Source\PSoC4/CapSense.c **** *
1863:Generated_Source\PSoC4/CapSense.c **** * Return:
1864:Generated_Source\PSoC4/CapSense.c **** *  This API returns the modulator sample clock divider for the  sensor.
1865:Generated_Source\PSoC4/CapSense.c **** *
1866:Generated_Source\PSoC4/CapSense.c **** * Global Variables:
1867:Generated_Source\PSoC4/CapSense.c **** *  CapSense_sampleClkDividerVal[] - stores the modulator sample divider values.
1868:Generated_Source\PSoC4/CapSense.c **** *
1869:Generated_Source\PSoC4/CapSense.c **** * Side Effects:
1870:Generated_Source\PSoC4/CapSense.c **** *  None
1871:Generated_Source\PSoC4/CapSense.c **** *
1872:Generated_Source\PSoC4/CapSense.c **** *******************************************************************************/
1873:Generated_Source\PSoC4/CapSense.c **** uint32 CapSense_GetModulatorClkDivider(uint32 sensor)
1874:Generated_Source\PSoC4/CapSense.c **** {
 1676              		.loc 1 1874 0
 1677              		.cfi_startproc
 1678              		@ args = 0, pretend = 0, frame = 0
 1679              		@ frame_needed = 0, uses_anonymous_args = 0
 1680              		@ link register save eliminated.
 1681              	.LVL202:
1875:Generated_Source\PSoC4/CapSense.c ****     #if(0u != CapSense_MULTIPLE_FREQUENCY_SET)
1876:Generated_Source\PSoC4/CapSense.c ****         return((uint32)CapSense_sampleClkDividerVal[sensor]);
 1682              		.loc 1 1876 0
 1683 0000 014B     		ldr	r3, .L106
 1684 0002 185C     		ldrb	r0, [r3, r0]
 1685              	.LVL203:
1877:Generated_Source\PSoC4/CapSense.c ****     #else
1878:Generated_Source\PSoC4/CapSense.c ****         return((uint32)CapSense_sampleClkDividerVal);
1879:Generated_Source\PSoC4/CapSense.c ****     #endif /* (0u != CapSense_MULTIPLE_FREQUENCY_SET) */
1880:Generated_Source\PSoC4/CapSense.c **** }
 1686              		.loc 1 1880 0
 1687              		@ sp needed
 1688 0004 7047     		bx	lr
 1689              	.L107:
 1690 0006 C046     		.align	2
 1691              	.L106:
 1692 0008 00000000 		.word	CapSense_sampleClkDividerVal
 1693              		.cfi_endproc
 1694              	.LFE62:
 1695              		.size	CapSense_GetModulatorClkDivider, .-CapSense_GetModulatorClkDivider
 1696              		.section	.text.CapSense_SetModulatorClkDivider,"ax",%progbits
 1697              		.align	2
 1698              		.global	CapSense_SetModulatorClkDivider
 1699              		.code	16
 1700              		.thumb_func
 1701              		.type	CapSense_SetModulatorClkDivider, %function
 1702              	CapSense_SetModulatorClkDivider:
 1703              	.LFB63:
1881:Generated_Source\PSoC4/CapSense.c **** 
1882:Generated_Source\PSoC4/CapSense.c **** #if (CapSense_TUNING_METHOD != CapSense__TUNING_NONE)
1883:Generated_Source\PSoC4/CapSense.c ****     /*******************************************************************************
1884:Generated_Source\PSoC4/CapSense.c ****     * Function Name: CapSense_SetModulatorClkDivider
1885:Generated_Source\PSoC4/CapSense.c ****     ********************************************************************************
1886:Generated_Source\PSoC4/CapSense.c ****     *
1887:Generated_Source\PSoC4/CapSense.c ****     * Summary:
ARM GAS  C:\Users\JamesN4\AppData\Local\Temp\cceXLNdw.s 			page 66


1888:Generated_Source\PSoC4/CapSense.c ****     *  This API sets a value of the modulator sample clock divider for the  sensor.
1889:Generated_Source\PSoC4/CapSense.c ****     *
1890:Generated_Source\PSoC4/CapSense.c ****     * Parameters:
1891:Generated_Source\PSoC4/CapSense.c ****     *  sensor:  Sensor index.
1892:Generated_Source\PSoC4/CapSense.c ****     *  modulatorClk: represents the modulator sample clock value.
1893:Generated_Source\PSoC4/CapSense.c ****     *
1894:Generated_Source\PSoC4/CapSense.c ****     * Return:
1895:Generated_Source\PSoC4/CapSense.c ****     *  None.
1896:Generated_Source\PSoC4/CapSense.c ****     *
1897:Generated_Source\PSoC4/CapSense.c ****     * Global Variables:
1898:Generated_Source\PSoC4/CapSense.c ****     *  CapSense_sampleClkDividerVal[] - stores the modulator sample divider values.
1899:Generated_Source\PSoC4/CapSense.c ****     *
1900:Generated_Source\PSoC4/CapSense.c ****     * Side Effects:
1901:Generated_Source\PSoC4/CapSense.c ****     *  None
1902:Generated_Source\PSoC4/CapSense.c ****     *
1903:Generated_Source\PSoC4/CapSense.c ****     *******************************************************************************/
1904:Generated_Source\PSoC4/CapSense.c ****     void CapSense_SetModulatorClkDivider(uint32 sensor, uint32 modulatorClk)
1905:Generated_Source\PSoC4/CapSense.c ****     {
 1704              		.loc 1 1905 0
 1705              		.cfi_startproc
 1706              		@ args = 0, pretend = 0, frame = 0
 1707              		@ frame_needed = 0, uses_anonymous_args = 0
 1708              		@ link register save eliminated.
 1709              	.LVL204:
1906:Generated_Source\PSoC4/CapSense.c ****         #if(0u != CapSense_MULTIPLE_FREQUENCY_SET)
1907:Generated_Source\PSoC4/CapSense.c ****             CapSense_sampleClkDividerVal[sensor] = (uint8)modulatorClk;
 1710              		.loc 1 1907 0
 1711 0000 014B     		ldr	r3, .L109
 1712 0002 1954     		strb	r1, [r3, r0]
1908:Generated_Source\PSoC4/CapSense.c ****         #else
1909:Generated_Source\PSoC4/CapSense.c ****             CapSense_sampleClkDividerVal = (uint8)modulatorClk;
1910:Generated_Source\PSoC4/CapSense.c ****         #endif /* (0u != CapSense_MULTIPLE_FREQUENCY_SET) */
1911:Generated_Source\PSoC4/CapSense.c ****     }
 1713              		.loc 1 1911 0
 1714              		@ sp needed
 1715 0004 7047     		bx	lr
 1716              	.L110:
 1717 0006 C046     		.align	2
 1718              	.L109:
 1719 0008 00000000 		.word	CapSense_sampleClkDividerVal
 1720              		.cfi_endproc
 1721              	.LFE63:
 1722              		.size	CapSense_SetModulatorClkDivider, .-CapSense_SetModulatorClkDivider
 1723              		.section	.text.CapSense_GetModulationIDAC,"ax",%progbits
 1724              		.align	2
 1725              		.global	CapSense_GetModulationIDAC
 1726              		.code	16
 1727              		.thumb_func
 1728              		.type	CapSense_GetModulationIDAC, %function
 1729              	CapSense_GetModulationIDAC:
 1730              	.LFB64:
1912:Generated_Source\PSoC4/CapSense.c **** #endif /* (CapSense_TUNING_METHOD != CapSense__TUNING_NONE) */
1913:Generated_Source\PSoC4/CapSense.c **** 
1914:Generated_Source\PSoC4/CapSense.c **** /*******************************************************************************
1915:Generated_Source\PSoC4/CapSense.c **** * Function Name: CapSense_GetModulationIDAC
1916:Generated_Source\PSoC4/CapSense.c **** ********************************************************************************
1917:Generated_Source\PSoC4/CapSense.c **** *
ARM GAS  C:\Users\JamesN4\AppData\Local\Temp\cceXLNdw.s 			page 67


1918:Generated_Source\PSoC4/CapSense.c **** * Summary:
1919:Generated_Source\PSoC4/CapSense.c **** *  This API returns a value of the modulation IDAC for the  sensor.
1920:Generated_Source\PSoC4/CapSense.c **** *
1921:Generated_Source\PSoC4/CapSense.c **** * Parameters:
1922:Generated_Source\PSoC4/CapSense.c **** *  sensor: sensor index. The index value can be
1923:Generated_Source\PSoC4/CapSense.c **** *  from 0 to (CapSense_TOTAL_SENSOR_COUNT-1).
1924:Generated_Source\PSoC4/CapSense.c **** *
1925:Generated_Source\PSoC4/CapSense.c **** * Return:
1926:Generated_Source\PSoC4/CapSense.c **** *  This API returns the modulation IDAC of the sensor.
1927:Generated_Source\PSoC4/CapSense.c **** *
1928:Generated_Source\PSoC4/CapSense.c **** * Global Variables:
1929:Generated_Source\PSoC4/CapSense.c **** *  CapSense_modulationIDAC[] - stores modulation IDAC values.
1930:Generated_Source\PSoC4/CapSense.c **** *
1931:Generated_Source\PSoC4/CapSense.c **** * Side Effects:
1932:Generated_Source\PSoC4/CapSense.c **** *  None
1933:Generated_Source\PSoC4/CapSense.c **** *
1934:Generated_Source\PSoC4/CapSense.c **** *******************************************************************************/
1935:Generated_Source\PSoC4/CapSense.c **** uint32 CapSense_GetModulationIDAC(uint32 sensor)
1936:Generated_Source\PSoC4/CapSense.c **** {
 1731              		.loc 1 1936 0
 1732              		.cfi_startproc
 1733              		@ args = 0, pretend = 0, frame = 0
 1734              		@ frame_needed = 0, uses_anonymous_args = 0
 1735              		@ link register save eliminated.
 1736              	.LVL205:
1937:Generated_Source\PSoC4/CapSense.c ****         return((uint32)CapSense_modulationIDAC[sensor]);
 1737              		.loc 1 1937 0
 1738 0000 014B     		ldr	r3, .L112
 1739 0002 185C     		ldrb	r0, [r3, r0]
 1740              	.LVL206:
1938:Generated_Source\PSoC4/CapSense.c **** }
 1741              		.loc 1 1938 0
 1742              		@ sp needed
 1743 0004 7047     		bx	lr
 1744              	.L113:
 1745 0006 C046     		.align	2
 1746              	.L112:
 1747 0008 00000000 		.word	CapSense_modulationIDAC
 1748              		.cfi_endproc
 1749              	.LFE64:
 1750              		.size	CapSense_GetModulationIDAC, .-CapSense_GetModulationIDAC
 1751              		.section	.text.CapSense_SetModulationIDAC,"ax",%progbits
 1752              		.align	2
 1753              		.global	CapSense_SetModulationIDAC
 1754              		.code	16
 1755              		.thumb_func
 1756              		.type	CapSense_SetModulationIDAC, %function
 1757              	CapSense_SetModulationIDAC:
 1758              	.LFB65:
1939:Generated_Source\PSoC4/CapSense.c **** 
1940:Generated_Source\PSoC4/CapSense.c **** #if (CapSense_TUNING_METHOD != CapSense__TUNING_NONE)
1941:Generated_Source\PSoC4/CapSense.c ****     /*******************************************************************************
1942:Generated_Source\PSoC4/CapSense.c ****     * Function Name: CapSense_SetModulationIDAC
1943:Generated_Source\PSoC4/CapSense.c ****     ********************************************************************************
1944:Generated_Source\PSoC4/CapSense.c ****     *
1945:Generated_Source\PSoC4/CapSense.c ****     * Summary:
1946:Generated_Source\PSoC4/CapSense.c ****     *  This API sets a value of the modulation IDAC for the  sensor.
ARM GAS  C:\Users\JamesN4\AppData\Local\Temp\cceXLNdw.s 			page 68


1947:Generated_Source\PSoC4/CapSense.c ****     *
1948:Generated_Source\PSoC4/CapSense.c ****     * Parameters:
1949:Generated_Source\PSoC4/CapSense.c ****     *  sensor:  Sensor index.
1950:Generated_Source\PSoC4/CapSense.c ****     *  compIdacValue: represents the modulation IDAC data register value.
1951:Generated_Source\PSoC4/CapSense.c ****     *
1952:Generated_Source\PSoC4/CapSense.c ****     * Return:
1953:Generated_Source\PSoC4/CapSense.c ****     *  None.
1954:Generated_Source\PSoC4/CapSense.c ****     *
1955:Generated_Source\PSoC4/CapSense.c ****     * Global Variables:
1956:Generated_Source\PSoC4/CapSense.c ****     *  CapSense_modulationIDAC[] - array with modulation IDAC values
1957:Generated_Source\PSoC4/CapSense.c ****     *
1958:Generated_Source\PSoC4/CapSense.c ****     * Side Effects:
1959:Generated_Source\PSoC4/CapSense.c ****     *  None
1960:Generated_Source\PSoC4/CapSense.c ****     *
1961:Generated_Source\PSoC4/CapSense.c ****     *******************************************************************************/
1962:Generated_Source\PSoC4/CapSense.c ****     void CapSense_SetModulationIDAC(uint32 sensor, uint32 modIdacValue)
1963:Generated_Source\PSoC4/CapSense.c ****     {
 1759              		.loc 1 1963 0
 1760              		.cfi_startproc
 1761              		@ args = 0, pretend = 0, frame = 0
 1762              		@ frame_needed = 0, uses_anonymous_args = 0
 1763              		@ link register save eliminated.
 1764              	.LVL207:
1964:Generated_Source\PSoC4/CapSense.c ****         CapSense_modulationIDAC[sensor] = (uint8)modIdacValue;
 1765              		.loc 1 1964 0
 1766 0000 014B     		ldr	r3, .L115
 1767 0002 1954     		strb	r1, [r3, r0]
1965:Generated_Source\PSoC4/CapSense.c ****     }
 1768              		.loc 1 1965 0
 1769              		@ sp needed
 1770 0004 7047     		bx	lr
 1771              	.L116:
 1772 0006 C046     		.align	2
 1773              	.L115:
 1774 0008 00000000 		.word	CapSense_modulationIDAC
 1775              		.cfi_endproc
 1776              	.LFE65:
 1777              		.size	CapSense_SetModulationIDAC, .-CapSense_SetModulationIDAC
 1778              		.section	.text.CapSense_GetCompensationIDAC,"ax",%progbits
 1779              		.align	2
 1780              		.global	CapSense_GetCompensationIDAC
 1781              		.code	16
 1782              		.thumb_func
 1783              		.type	CapSense_GetCompensationIDAC, %function
 1784              	CapSense_GetCompensationIDAC:
 1785              	.LFB66:
1966:Generated_Source\PSoC4/CapSense.c **** #endif /* (CapSense_TUNING_METHOD != CapSense__TUNING_NONE) */
1967:Generated_Source\PSoC4/CapSense.c **** 
1968:Generated_Source\PSoC4/CapSense.c **** 
1969:Generated_Source\PSoC4/CapSense.c **** #if(CapSense_IDAC_CNT > 1u)
1970:Generated_Source\PSoC4/CapSense.c ****     /*******************************************************************************
1971:Generated_Source\PSoC4/CapSense.c ****     * Function Name: CapSense_GetCompensationIDAC
1972:Generated_Source\PSoC4/CapSense.c ****     ********************************************************************************
1973:Generated_Source\PSoC4/CapSense.c ****     *
1974:Generated_Source\PSoC4/CapSense.c ****     * Summary:
1975:Generated_Source\PSoC4/CapSense.c ****     *  This API returns a value of the compensation IDAC for the  sensor.
1976:Generated_Source\PSoC4/CapSense.c ****     *
ARM GAS  C:\Users\JamesN4\AppData\Local\Temp\cceXLNdw.s 			page 69


1977:Generated_Source\PSoC4/CapSense.c ****     * Parameters:
1978:Generated_Source\PSoC4/CapSense.c ****     *  sensor: sensor index. The index value can be
1979:Generated_Source\PSoC4/CapSense.c ****     *  from 0 to (CapSense_TOTAL_SENSOR_COUNT-1).
1980:Generated_Source\PSoC4/CapSense.c ****     *
1981:Generated_Source\PSoC4/CapSense.c ****     * Return:
1982:Generated_Source\PSoC4/CapSense.c ****     *  This API returns the compensation IDAC of the sensor.
1983:Generated_Source\PSoC4/CapSense.c ****     *
1984:Generated_Source\PSoC4/CapSense.c ****     * Global Variables:
1985:Generated_Source\PSoC4/CapSense.c ****     *  CapSense_compensationIDAC[] - stores the compensation IDAC values.
1986:Generated_Source\PSoC4/CapSense.c ****     *
1987:Generated_Source\PSoC4/CapSense.c ****     * Side Effects:
1988:Generated_Source\PSoC4/CapSense.c ****     *  None
1989:Generated_Source\PSoC4/CapSense.c ****     *
1990:Generated_Source\PSoC4/CapSense.c ****     *******************************************************************************/
1991:Generated_Source\PSoC4/CapSense.c ****     uint32 CapSense_GetCompensationIDAC(uint32 sensor)
1992:Generated_Source\PSoC4/CapSense.c ****     {
 1786              		.loc 1 1992 0
 1787              		.cfi_startproc
 1788              		@ args = 0, pretend = 0, frame = 0
 1789              		@ frame_needed = 0, uses_anonymous_args = 0
 1790              		@ link register save eliminated.
 1791              	.LVL208:
1993:Generated_Source\PSoC4/CapSense.c ****         return((uint32)CapSense_compensationIDAC[sensor]);
 1792              		.loc 1 1993 0
 1793 0000 014B     		ldr	r3, .L118
 1794 0002 185C     		ldrb	r0, [r3, r0]
 1795              	.LVL209:
1994:Generated_Source\PSoC4/CapSense.c ****     }
 1796              		.loc 1 1994 0
 1797              		@ sp needed
 1798 0004 7047     		bx	lr
 1799              	.L119:
 1800 0006 C046     		.align	2
 1801              	.L118:
 1802 0008 00000000 		.word	CapSense_compensationIDAC
 1803              		.cfi_endproc
 1804              	.LFE66:
 1805              		.size	CapSense_GetCompensationIDAC, .-CapSense_GetCompensationIDAC
 1806              		.section	.text.CapSense_SetCompensationIDAC,"ax",%progbits
 1807              		.align	2
 1808              		.global	CapSense_SetCompensationIDAC
 1809              		.code	16
 1810              		.thumb_func
 1811              		.type	CapSense_SetCompensationIDAC, %function
 1812              	CapSense_SetCompensationIDAC:
 1813              	.LFB67:
1995:Generated_Source\PSoC4/CapSense.c **** #endif /* (CapSense_IDAC_CNT > 1u) */
1996:Generated_Source\PSoC4/CapSense.c **** 
1997:Generated_Source\PSoC4/CapSense.c **** 
1998:Generated_Source\PSoC4/CapSense.c **** #if((CapSense_TUNING_METHOD != CapSense__TUNING_NONE) && (CapSense_IDAC_CNT > 1u))
1999:Generated_Source\PSoC4/CapSense.c ****     /*******************************************************************************
2000:Generated_Source\PSoC4/CapSense.c ****     * Function Name: CapSense_SetCompensationIDAC
2001:Generated_Source\PSoC4/CapSense.c ****     ********************************************************************************
2002:Generated_Source\PSoC4/CapSense.c ****     *
2003:Generated_Source\PSoC4/CapSense.c ****     * Summary:
2004:Generated_Source\PSoC4/CapSense.c ****     *  This API sets a value of compensation IDAC for the  sensor.
2005:Generated_Source\PSoC4/CapSense.c ****     *
ARM GAS  C:\Users\JamesN4\AppData\Local\Temp\cceXLNdw.s 			page 70


2006:Generated_Source\PSoC4/CapSense.c ****     * Parameters:
2007:Generated_Source\PSoC4/CapSense.c ****     *  sensor:  Sensor index.
2008:Generated_Source\PSoC4/CapSense.c ****     *  compIdacValue: represents the compensation IDAC data register value.
2009:Generated_Source\PSoC4/CapSense.c ****     *
2010:Generated_Source\PSoC4/CapSense.c ****     * Return:
2011:Generated_Source\PSoC4/CapSense.c ****     *  None.
2012:Generated_Source\PSoC4/CapSense.c ****     *
2013:Generated_Source\PSoC4/CapSense.c ****     * Global Variables:
2014:Generated_Source\PSoC4/CapSense.c ****     *  CapSense_compensationIDAC[] - an array with compensation IDAC values
2015:Generated_Source\PSoC4/CapSense.c ****     *
2016:Generated_Source\PSoC4/CapSense.c ****     * Side Effects:
2017:Generated_Source\PSoC4/CapSense.c ****     *  None
2018:Generated_Source\PSoC4/CapSense.c ****     *
2019:Generated_Source\PSoC4/CapSense.c ****     *******************************************************************************/
2020:Generated_Source\PSoC4/CapSense.c ****     void CapSense_SetCompensationIDAC(uint32 sensor, uint32 compIdacValue)
2021:Generated_Source\PSoC4/CapSense.c ****     {
 1814              		.loc 1 2021 0
 1815              		.cfi_startproc
 1816              		@ args = 0, pretend = 0, frame = 0
 1817              		@ frame_needed = 0, uses_anonymous_args = 0
 1818              		@ link register save eliminated.
 1819              	.LVL210:
2022:Generated_Source\PSoC4/CapSense.c ****         CapSense_compensationIDAC[sensor] = (uint8)compIdacValue;
 1820              		.loc 1 2022 0
 1821 0000 014B     		ldr	r3, .L121
 1822 0002 1954     		strb	r1, [r3, r0]
2023:Generated_Source\PSoC4/CapSense.c ****     }
 1823              		.loc 1 2023 0
 1824              		@ sp needed
 1825 0004 7047     		bx	lr
 1826              	.L122:
 1827 0006 C046     		.align	2
 1828              	.L121:
 1829 0008 00000000 		.word	CapSense_compensationIDAC
 1830              		.cfi_endproc
 1831              	.LFE67:
 1832              		.size	CapSense_SetCompensationIDAC, .-CapSense_SetCompensationIDAC
 1833              		.section	.text.CapSense_GetIDACRange,"ax",%progbits
 1834              		.align	2
 1835              		.global	CapSense_GetIDACRange
 1836              		.code	16
 1837              		.thumb_func
 1838              		.type	CapSense_GetIDACRange, %function
 1839              	CapSense_GetIDACRange:
 1840              	.LFB68:
2024:Generated_Source\PSoC4/CapSense.c **** #endif /* ((CapSense_TUNING_METHOD != CapSense__TUNING_NONE) && (CapSense_IDAC_CNT > 1u)) */
2025:Generated_Source\PSoC4/CapSense.c **** 
2026:Generated_Source\PSoC4/CapSense.c **** /*******************************************************************************
2027:Generated_Source\PSoC4/CapSense.c **** * Function Name: CapSense_GetIDACRange
2028:Generated_Source\PSoC4/CapSense.c **** ********************************************************************************
2029:Generated_Source\PSoC4/CapSense.c **** *
2030:Generated_Source\PSoC4/CapSense.c **** * Summary:
2031:Generated_Source\PSoC4/CapSense.c **** *  This API returns a value that indicates the IDAC range used by the
2032:Generated_Source\PSoC4/CapSense.c **** *  component to scan sensors. The IDAC range is common for all the sensors.
2033:Generated_Source\PSoC4/CapSense.c **** *
2034:Generated_Source\PSoC4/CapSense.c **** * Parameters:
2035:Generated_Source\PSoC4/CapSense.c **** *  None
ARM GAS  C:\Users\JamesN4\AppData\Local\Temp\cceXLNdw.s 			page 71


2036:Generated_Source\PSoC4/CapSense.c **** *
2037:Generated_Source\PSoC4/CapSense.c **** * Return:
2038:Generated_Source\PSoC4/CapSense.c **** *  This API Returns a value that indicates the IDAC range:
2039:Generated_Source\PSoC4/CapSense.c **** *      0 - IDAC range set to 4x
2040:Generated_Source\PSoC4/CapSense.c **** *      1 - IDAC range set to 8x
2041:Generated_Source\PSoC4/CapSense.c **** *
2042:Generated_Source\PSoC4/CapSense.c **** * Global Variables:
2043:Generated_Source\PSoC4/CapSense.c **** *  None
2044:Generated_Source\PSoC4/CapSense.c **** *
2045:Generated_Source\PSoC4/CapSense.c **** * Side Effects:
2046:Generated_Source\PSoC4/CapSense.c **** *  None
2047:Generated_Source\PSoC4/CapSense.c **** *
2048:Generated_Source\PSoC4/CapSense.c **** *******************************************************************************/
2049:Generated_Source\PSoC4/CapSense.c **** uint32 CapSense_GetIDACRange(void)
2050:Generated_Source\PSoC4/CapSense.c **** {
 1841              		.loc 1 2050 0
 1842              		.cfi_startproc
 1843              		@ args = 0, pretend = 0, frame = 0
 1844              		@ frame_needed = 0, uses_anonymous_args = 0
 1845              		@ link register save eliminated.
2051:Generated_Source\PSoC4/CapSense.c ****     return((0u != (CapSense_CSD_IDAC_REG & CapSense_CSD_IDAC1_RANGE_8X)) ? 1uL : 0uL);
 1846              		.loc 1 2051 0
 1847 0000 034B     		ldr	r3, .L125
 1848 0002 1868     		ldr	r0, [r3]
 1849 0004 8023     		movs	r3, #128
 1850 0006 DB00     		lsls	r3, r3, #3
 1851 0008 1840     		ands	r0, r3
 1852 000a 00D0     		beq	.L124
 1853 000c 0120     		movs	r0, #1
 1854              	.L124:
2052:Generated_Source\PSoC4/CapSense.c **** }
 1855              		.loc 1 2052 0 discriminator 4
 1856              		@ sp needed
 1857 000e 7047     		bx	lr
 1858              	.L126:
 1859              		.align	2
 1860              	.L125:
 1861 0010 08002840 		.word	1076363272
 1862              		.cfi_endproc
 1863              	.LFE68:
 1864              		.size	CapSense_GetIDACRange, .-CapSense_GetIDACRange
 1865              		.section	.text.CapSense_SetIDACRange,"ax",%progbits
 1866              		.align	2
 1867              		.global	CapSense_SetIDACRange
 1868              		.code	16
 1869              		.thumb_func
 1870              		.type	CapSense_SetIDACRange, %function
 1871              	CapSense_SetIDACRange:
 1872              	.LFB69:
2053:Generated_Source\PSoC4/CapSense.c **** 
2054:Generated_Source\PSoC4/CapSense.c **** #if (CapSense_TUNING_METHOD != CapSense__TUNING_NONE)
2055:Generated_Source\PSoC4/CapSense.c ****     /*******************************************************************************
2056:Generated_Source\PSoC4/CapSense.c ****     * Function Name: CapSense_SetIDACRange
2057:Generated_Source\PSoC4/CapSense.c ****     ********************************************************************************
2058:Generated_Source\PSoC4/CapSense.c ****     *
2059:Generated_Source\PSoC4/CapSense.c ****     * Summary:
2060:Generated_Source\PSoC4/CapSense.c ****     *  This API sets the IDAC range to the 4x (1.2uA/bit) or 8x (2.4uA/bit) mode.
ARM GAS  C:\Users\JamesN4\AppData\Local\Temp\cceXLNdw.s 			page 72


2061:Generated_Source\PSoC4/CapSense.c ****     *  The IDAC range is common for all the sensors and common for the modulation and
2062:Generated_Source\PSoC4/CapSense.c ****     *  compensation IDACs.
2063:Generated_Source\PSoC4/CapSense.c ****     *
2064:Generated_Source\PSoC4/CapSense.c ****     * Parameters:
2065:Generated_Source\PSoC4/CapSense.c ****     *  iDacRange:  represents value for IDAC range
2066:Generated_Source\PSoC4/CapSense.c ****     *  0 -  IDAC range set to 4x (1.2uA/bit)
2067:Generated_Source\PSoC4/CapSense.c ****     *  1 or >1 - IDAC range set to 8x (2.4uA/bit)
2068:Generated_Source\PSoC4/CapSense.c ****     *
2069:Generated_Source\PSoC4/CapSense.c ****     * Return:
2070:Generated_Source\PSoC4/CapSense.c ****     *  None.
2071:Generated_Source\PSoC4/CapSense.c ****     *
2072:Generated_Source\PSoC4/CapSense.c ****     * Global Variables:
2073:Generated_Source\PSoC4/CapSense.c ****     *  None
2074:Generated_Source\PSoC4/CapSense.c ****     *
2075:Generated_Source\PSoC4/CapSense.c ****     * Side Effects:
2076:Generated_Source\PSoC4/CapSense.c ****     *  None
2077:Generated_Source\PSoC4/CapSense.c ****     *
2078:Generated_Source\PSoC4/CapSense.c ****     *******************************************************************************/
2079:Generated_Source\PSoC4/CapSense.c ****     void CapSense_SetIDACRange(uint32 iDacRange)
2080:Generated_Source\PSoC4/CapSense.c ****     {
 1873              		.loc 1 2080 0
 1874              		.cfi_startproc
 1875              		@ args = 0, pretend = 0, frame = 0
 1876              		@ frame_needed = 0, uses_anonymous_args = 0
 1877              		@ link register save eliminated.
 1878              	.LVL211:
2081:Generated_Source\PSoC4/CapSense.c ****         if(iDacRange != 0u)
 1879              		.loc 1 2081 0
 1880 0000 0028     		cmp	r0, #0
 1881 0002 05D0     		beq	.L128
2082:Generated_Source\PSoC4/CapSense.c ****         {
2083:Generated_Source\PSoC4/CapSense.c ****             /*  IDAC range = 8x (2.4uA/bit) */
2084:Generated_Source\PSoC4/CapSense.c ****             CapSense_CSD_IDAC_REG |= (CapSense_CSD_IDAC1_RANGE_8X |\
 1882              		.loc 1 2084 0
 1883 0004 054A     		ldr	r2, .L130
 1884 0006 1368     		ldr	r3, [r2]
 1885 0008 0549     		ldr	r1, .L130+4
 1886 000a 0B43     		orrs	r3, r1
 1887 000c 1360     		str	r3, [r2]
 1888 000e 04E0     		b	.L127
 1889              	.L128:
2085:Generated_Source\PSoC4/CapSense.c ****                                               CapSense_CSD_IDAC2_RANGE_8X);
2086:Generated_Source\PSoC4/CapSense.c ****         }
2087:Generated_Source\PSoC4/CapSense.c ****         else
2088:Generated_Source\PSoC4/CapSense.c ****         {
2089:Generated_Source\PSoC4/CapSense.c ****             /*  IDAC range = 4x (1.2uA/bit) */
2090:Generated_Source\PSoC4/CapSense.c ****             /*  IDAC range = 8x (2.4uA/bit) */
2091:Generated_Source\PSoC4/CapSense.c ****             CapSense_CSD_IDAC_REG &= ~(CapSense_CSD_IDAC1_RANGE_8X |\
 1890              		.loc 1 2091 0
 1891 0010 024A     		ldr	r2, .L130
 1892 0012 1168     		ldr	r1, [r2]
 1893 0014 034B     		ldr	r3, .L130+8
 1894 0016 0B40     		ands	r3, r1
 1895 0018 1360     		str	r3, [r2]
 1896              	.L127:
2092:Generated_Source\PSoC4/CapSense.c ****                                                CapSense_CSD_IDAC2_RANGE_8X);
2093:Generated_Source\PSoC4/CapSense.c ****         }
ARM GAS  C:\Users\JamesN4\AppData\Local\Temp\cceXLNdw.s 			page 73


2094:Generated_Source\PSoC4/CapSense.c ****     }
 1897              		.loc 1 2094 0
 1898              		@ sp needed
 1899 001a 7047     		bx	lr
 1900              	.L131:
 1901              		.align	2
 1902              	.L130:
 1903 001c 08002840 		.word	1076363272
 1904 0020 00040004 		.word	67109888
 1905 0024 FFFBFFFB 		.word	-67109889
 1906              		.cfi_endproc
 1907              	.LFE69:
 1908              		.size	CapSense_SetIDACRange, .-CapSense_SetIDACRange
 1909              		.section	.text.CapSense_GetSensorRaw,"ax",%progbits
 1910              		.align	2
 1911              		.global	CapSense_GetSensorRaw
 1912              		.code	16
 1913              		.thumb_func
 1914              		.type	CapSense_GetSensorRaw, %function
 1915              	CapSense_GetSensorRaw:
 1916              	.LFB70:
2095:Generated_Source\PSoC4/CapSense.c **** #endif /* (CapSense_TUNING_METHOD != CapSense__TUNING_NONE) */
2096:Generated_Source\PSoC4/CapSense.c **** 
2097:Generated_Source\PSoC4/CapSense.c **** 
2098:Generated_Source\PSoC4/CapSense.c **** #if((0u != CapSense_AUTOCALIBRATION_ENABLE) || (CapSense_TUNING_METHOD == CapSense__TUNING_AUTO))
2099:Generated_Source\PSoC4/CapSense.c ****     /*******************************************************************************
2100:Generated_Source\PSoC4/CapSense.c ****     * Function Name: CapSense_GetSensorRaw
2101:Generated_Source\PSoC4/CapSense.c ****     ********************************************************************************
2102:Generated_Source\PSoC4/CapSense.c ****     *
2103:Generated_Source\PSoC4/CapSense.c ****     * Summary:
2104:Generated_Source\PSoC4/CapSense.c ****     *  The API updates and gets uprated raw data from the sensor.
2105:Generated_Source\PSoC4/CapSense.c ****     *
2106:Generated_Source\PSoC4/CapSense.c ****     * Parameters:
2107:Generated_Source\PSoC4/CapSense.c ****     *  sensor - Sensor number.
2108:Generated_Source\PSoC4/CapSense.c ****     *
2109:Generated_Source\PSoC4/CapSense.c ****     * Return:
2110:Generated_Source\PSoC4/CapSense.c ****     *  Returns the current raw data value for a defined sensor number.
2111:Generated_Source\PSoC4/CapSense.c ****     *
2112:Generated_Source\PSoC4/CapSense.c ****     * Global Variables:
2113:Generated_Source\PSoC4/CapSense.c ****     *  None
2114:Generated_Source\PSoC4/CapSense.c ****     *
2115:Generated_Source\PSoC4/CapSense.c ****     * Side Effects:
2116:Generated_Source\PSoC4/CapSense.c ****     *  None
2117:Generated_Source\PSoC4/CapSense.c ****     *
2118:Generated_Source\PSoC4/CapSense.c ****     *******************************************************************************/
2119:Generated_Source\PSoC4/CapSense.c ****     uint16  CapSense_GetSensorRaw(uint32 sensor)
2120:Generated_Source\PSoC4/CapSense.c ****     {
 1917              		.loc 1 2120 0
 1918              		.cfi_startproc
 1919              		@ args = 0, pretend = 0, frame = 0
 1920              		@ frame_needed = 0, uses_anonymous_args = 0
 1921              	.LVL212:
 1922 0000 70B5     		push	{r4, r5, r6, lr}
 1923              		.cfi_def_cfa_offset 16
 1924              		.cfi_offset 4, -16
 1925              		.cfi_offset 5, -12
 1926              		.cfi_offset 6, -8
ARM GAS  C:\Users\JamesN4\AppData\Local\Temp\cceXLNdw.s 			page 74


 1927              		.cfi_offset 14, -4
 1928 0002 0600     		movs	r6, r0
 1929              	.LVL213:
2121:Generated_Source\PSoC4/CapSense.c ****         uint32 curSample;
2122:Generated_Source\PSoC4/CapSense.c ****         uint32 avgVal = 0u;
 1930              		.loc 1 2122 0
