ARM GAS  C:\Users\JamesN4\AppData\Local\Temp\ccf2QNpA.s 			page 1


   1              		.syntax unified
   2              		.cpu cortex-m0
   3              		.fpu softvfp
   4              		.eabi_attribute 20, 1
   5              		.eabi_attribute 21, 1
   6              		.eabi_attribute 23, 3
   7              		.eabi_attribute 24, 1
   8              		.eabi_attribute 25, 1
   9              		.eabi_attribute 26, 1
  10              		.eabi_attribute 30, 1
  11              		.eabi_attribute 34, 0
  12              		.eabi_attribute 18, 4
  13              		.thumb
  14              		.syntax unified
  15              		.file	"Comp_0.c"
  16              		.text
  17              	.Ltext0:
  18              		.cfi_sections	.debug_frame
  19              		.section	.text.Comp_0_Init,"ax",%progbits
  20              		.align	2
  21              		.global	Comp_0_Init
  22              		.code	16
  23              		.thumb_func
  24              		.type	Comp_0_Init, %function
  25              	Comp_0_Init:
  26              	.LFB3:
  27              		.file 1 "Generated_Source\\PSoC4\\Comp_0.c"
   1:Generated_Source\PSoC4/Comp_0.c **** /*******************************************************************************
   2:Generated_Source\PSoC4/Comp_0.c **** * File Name: Comp_0.c
   3:Generated_Source\PSoC4/Comp_0.c **** * Version 2.20
   4:Generated_Source\PSoC4/Comp_0.c **** *
   5:Generated_Source\PSoC4/Comp_0.c **** * Description:
   6:Generated_Source\PSoC4/Comp_0.c **** *  This file provides the source code to the API for the Low Power Comparator
   7:Generated_Source\PSoC4/Comp_0.c **** *  component.
   8:Generated_Source\PSoC4/Comp_0.c **** *
   9:Generated_Source\PSoC4/Comp_0.c **** * Note:
  10:Generated_Source\PSoC4/Comp_0.c **** *  None
  11:Generated_Source\PSoC4/Comp_0.c **** *
  12:Generated_Source\PSoC4/Comp_0.c **** ********************************************************************************
  13:Generated_Source\PSoC4/Comp_0.c **** * Copyright 2013-2016, Cypress Semiconductor Corporation.  All rights reserved.
  14:Generated_Source\PSoC4/Comp_0.c **** * You may use this file only in accordance with the license, terms, conditions,
  15:Generated_Source\PSoC4/Comp_0.c **** * disclaimers, and limitations in the end user license agreement accompanying
  16:Generated_Source\PSoC4/Comp_0.c **** * the software package with which this file was provided.
  17:Generated_Source\PSoC4/Comp_0.c **** *******************************************************************************/
  18:Generated_Source\PSoC4/Comp_0.c **** 
  19:Generated_Source\PSoC4/Comp_0.c **** #include "Comp_0.h"
  20:Generated_Source\PSoC4/Comp_0.c **** #include "CyLib.h"
  21:Generated_Source\PSoC4/Comp_0.c **** #include "cyPm.h"
  22:Generated_Source\PSoC4/Comp_0.c **** 
  23:Generated_Source\PSoC4/Comp_0.c **** uint8 Comp_0_initVar = 0u;
  24:Generated_Source\PSoC4/Comp_0.c **** static uint32 Comp_0_internalIntr = 0u;
  25:Generated_Source\PSoC4/Comp_0.c **** #if(Comp_0_CY_LPCOMP_V2)
  26:Generated_Source\PSoC4/Comp_0.c ****     #if(CY_IP_SRSSV2)
  27:Generated_Source\PSoC4/Comp_0.c ****         /* This variable saves INTR_MASK register since it get reset after wakeup 
  28:Generated_Source\PSoC4/Comp_0.c ****         * from Hibernate. Attribute CY_NOINIT puts SRAM variable in memory section 
  29:Generated_Source\PSoC4/Comp_0.c ****         * which is retained in low power modes 
  30:Generated_Source\PSoC4/Comp_0.c ****         */
ARM GAS  C:\Users\JamesN4\AppData\Local\Temp\ccf2QNpA.s 			page 2


  31:Generated_Source\PSoC4/Comp_0.c ****         CY_NOINIT static uint32 Comp_0_intrMaskRegState;
  32:Generated_Source\PSoC4/Comp_0.c ****     #endif /* (CY_IP_SRSSV2) */
  33:Generated_Source\PSoC4/Comp_0.c **** #endif /* (Comp_0_CY_LPCOMP_V2) */
  34:Generated_Source\PSoC4/Comp_0.c **** 
  35:Generated_Source\PSoC4/Comp_0.c **** 
  36:Generated_Source\PSoC4/Comp_0.c **** /*******************************************************************************
  37:Generated_Source\PSoC4/Comp_0.c **** * Function Name: Comp_0_Start
  38:Generated_Source\PSoC4/Comp_0.c **** ********************************************************************************
  39:Generated_Source\PSoC4/Comp_0.c **** *
  40:Generated_Source\PSoC4/Comp_0.c **** * Summary:
  41:Generated_Source\PSoC4/Comp_0.c **** *  Performs all of the required initialization for the component and enables
  42:Generated_Source\PSoC4/Comp_0.c **** *  power to the block. The first time the routine is executed, the component is
  43:Generated_Source\PSoC4/Comp_0.c **** *  initialized to the configuration from the customizer. When called to restart
  44:Generated_Source\PSoC4/Comp_0.c **** *  the comparator following a Comp_0_Stop() call, the current
  45:Generated_Source\PSoC4/Comp_0.c **** *  component parameter settings are retained.
  46:Generated_Source\PSoC4/Comp_0.c **** *
  47:Generated_Source\PSoC4/Comp_0.c **** * Parameters:
  48:Generated_Source\PSoC4/Comp_0.c **** *   None
  49:Generated_Source\PSoC4/Comp_0.c **** *
  50:Generated_Source\PSoC4/Comp_0.c **** * Return:
  51:Generated_Source\PSoC4/Comp_0.c **** *  None
  52:Generated_Source\PSoC4/Comp_0.c **** *
  53:Generated_Source\PSoC4/Comp_0.c **** * Global variables:
  54:Generated_Source\PSoC4/Comp_0.c **** *  Comp_0_initVar: Is modified when this function is called for the
  55:Generated_Source\PSoC4/Comp_0.c **** *   first time. Is used to ensure that initialization happens only once.
  56:Generated_Source\PSoC4/Comp_0.c **** *
  57:Generated_Source\PSoC4/Comp_0.c **** *******************************************************************************/
  58:Generated_Source\PSoC4/Comp_0.c **** void Comp_0_Start(void)
  59:Generated_Source\PSoC4/Comp_0.c **** {
  60:Generated_Source\PSoC4/Comp_0.c ****     if(0u == Comp_0_initVar)
  61:Generated_Source\PSoC4/Comp_0.c ****     {
  62:Generated_Source\PSoC4/Comp_0.c ****         Comp_0_Init();
  63:Generated_Source\PSoC4/Comp_0.c ****         Comp_0_initVar = 1u;
  64:Generated_Source\PSoC4/Comp_0.c ****     }
  65:Generated_Source\PSoC4/Comp_0.c ****     Comp_0_Enable();
  66:Generated_Source\PSoC4/Comp_0.c **** }
  67:Generated_Source\PSoC4/Comp_0.c **** 
  68:Generated_Source\PSoC4/Comp_0.c **** 
  69:Generated_Source\PSoC4/Comp_0.c **** /*******************************************************************************
  70:Generated_Source\PSoC4/Comp_0.c **** * Function Name: Comp_0_Init
  71:Generated_Source\PSoC4/Comp_0.c **** ********************************************************************************
  72:Generated_Source\PSoC4/Comp_0.c **** *
  73:Generated_Source\PSoC4/Comp_0.c **** * Summary:
  74:Generated_Source\PSoC4/Comp_0.c **** *  Initializes or restores the component according to the customizer settings.
  75:Generated_Source\PSoC4/Comp_0.c **** *  It is not necessary to call Comp_0_Init() because the
  76:Generated_Source\PSoC4/Comp_0.c **** *  Comp_0_Start() API calls this function and is the preferred method
  77:Generated_Source\PSoC4/Comp_0.c **** *  to begin component operation.
  78:Generated_Source\PSoC4/Comp_0.c **** *
  79:Generated_Source\PSoC4/Comp_0.c **** * Parameters:
  80:Generated_Source\PSoC4/Comp_0.c **** *  None
  81:Generated_Source\PSoC4/Comp_0.c **** *
  82:Generated_Source\PSoC4/Comp_0.c **** * Return:
  83:Generated_Source\PSoC4/Comp_0.c **** *  None
  84:Generated_Source\PSoC4/Comp_0.c **** *
  85:Generated_Source\PSoC4/Comp_0.c **** *******************************************************************************/
  86:Generated_Source\PSoC4/Comp_0.c **** void Comp_0_Init(void)
  87:Generated_Source\PSoC4/Comp_0.c **** {
ARM GAS  C:\Users\JamesN4\AppData\Local\Temp\ccf2QNpA.s 			page 3


  28              		.loc 1 87 0
  29              		.cfi_startproc
  30              		@ args = 0, pretend = 0, frame = 0
  31              		@ frame_needed = 0, uses_anonymous_args = 0
  32 0000 10B5     		push	{r4, lr}
  33              		.cfi_def_cfa_offset 8
  34              		.cfi_offset 4, -8
  35              		.cfi_offset 14, -4
  88:Generated_Source\PSoC4/Comp_0.c ****     uint8 enableInterrupts;
  89:Generated_Source\PSoC4/Comp_0.c **** 
  90:Generated_Source\PSoC4/Comp_0.c ****     enableInterrupts = CyEnterCriticalSection();
  36              		.loc 1 90 0
  37 0002 FFF7FEFF 		bl	CyEnterCriticalSection
  38              	.LVL0:
  39 0006 0400     		movs	r4, r0
  40              	.LVL1:
  91:Generated_Source\PSoC4/Comp_0.c ****     Comp_0_CONFIG_REG |= Comp_0_CONFIG_REG_DEFAULT;
  41              		.loc 1 91 0
  42 0008 0E4A     		ldr	r2, .L4
  43 000a 1368     		ldr	r3, [r2]
  44 000c 0E49     		ldr	r1, .L4+4
  45 000e 0B43     		orrs	r3, r1
  46 0010 1360     		str	r3, [r2]
  92:Generated_Source\PSoC4/Comp_0.c ****     Comp_0_internalIntr = Comp_0_GET_CONFIG_INTR(Comp_0_INTERRUPT);
  47              		.loc 1 92 0
  48 0012 3022     		movs	r2, #48
  49 0014 0D4B     		ldr	r3, .L4+8
  50 0016 1A60     		str	r2, [r3]
  93:Generated_Source\PSoC4/Comp_0.c ****     
  94:Generated_Source\PSoC4/Comp_0.c ****     #if (Comp_0_CY_LPCOMP_V2)
  95:Generated_Source\PSoC4/Comp_0.c ****         #if(CY_IP_SRSSV2)
  96:Generated_Source\PSoC4/Comp_0.c ****             if (CySysPmGetResetReason() == CY_PM_RESET_REASON_WAKEUP_HIB)
  51              		.loc 1 96 0
  52 0018 FFF7FEFF 		bl	CySysPmGetResetReason
  53              	.LVL2:
  54 001c 0228     		cmp	r0, #2
  55 001e 06D1     		bne	.L2
  97:Generated_Source\PSoC4/Comp_0.c ****             {
  98:Generated_Source\PSoC4/Comp_0.c ****                 /* Restore the INTR_MASK register state since it get reset after 
  99:Generated_Source\PSoC4/Comp_0.c ****                 * wakeup from Hibernate.  
 100:Generated_Source\PSoC4/Comp_0.c ****                 */
 101:Generated_Source\PSoC4/Comp_0.c ****                 Comp_0_INTR_MASK_REG |= Comp_0_intrMaskRegState;  
  56              		.loc 1 101 0
  57 0020 0B4A     		ldr	r2, .L4+12
  58 0022 1168     		ldr	r1, [r2]
  59 0024 0B4B     		ldr	r3, .L4+16
  60 0026 1B68     		ldr	r3, [r3]
  61 0028 0B43     		orrs	r3, r1
  62 002a 1360     		str	r3, [r2]
  63 002c 05E0     		b	.L3
  64              	.L2:
 102:Generated_Source\PSoC4/Comp_0.c ****             }
 103:Generated_Source\PSoC4/Comp_0.c ****             else
 104:Generated_Source\PSoC4/Comp_0.c ****             {
 105:Generated_Source\PSoC4/Comp_0.c ****                 Comp_0_INTR_MASK_REG |= Comp_0_INTR_MASK_REG_DEFAULT;    
  65              		.loc 1 105 0
  66 002e 084B     		ldr	r3, .L4+12
ARM GAS  C:\Users\JamesN4\AppData\Local\Temp\ccf2QNpA.s 			page 4


  67 0030 1A68     		ldr	r2, [r3]
  68 0032 1A60     		str	r2, [r3]
 106:Generated_Source\PSoC4/Comp_0.c ****                 Comp_0_intrMaskRegState = Comp_0_INTR_MASK_REG;
  69              		.loc 1 106 0
  70 0034 1A68     		ldr	r2, [r3]
  71 0036 074B     		ldr	r3, .L4+16
  72 0038 1A60     		str	r2, [r3]
  73              	.L3:
 107:Generated_Source\PSoC4/Comp_0.c ****             }
 108:Generated_Source\PSoC4/Comp_0.c ****         #else
 109:Generated_Source\PSoC4/Comp_0.c ****             Comp_0_INTR_MASK_REG |= Comp_0_INTR_MASK_REG_DEFAULT;
 110:Generated_Source\PSoC4/Comp_0.c ****         #endif /* (Comp_0_CY_LPCOMP_V2) */
 111:Generated_Source\PSoC4/Comp_0.c ****     #endif /* (Comp_0_CY_LPCOMP_V2) */
 112:Generated_Source\PSoC4/Comp_0.c ****     
 113:Generated_Source\PSoC4/Comp_0.c ****     CyExitCriticalSection(enableInterrupts);
  74              		.loc 1 113 0
  75 003a 2000     		movs	r0, r4
  76 003c FFF7FEFF 		bl	CyExitCriticalSection
  77              	.LVL3:
 114:Generated_Source\PSoC4/Comp_0.c **** }
  78              		.loc 1 114 0
  79              		@ sp needed
  80              	.LVL4:
  81 0040 10BD     		pop	{r4, pc}
  82              	.L5:
  83 0042 C046     		.align	2
  84              	.L4:
  85 0044 04002B40 		.word	1076559876
  86 0048 01000100 		.word	65537
  87 004c 00000000 		.word	.LANCHOR0
  88 0050 18002B40 		.word	1076559896
  89 0054 00000000 		.word	.LANCHOR1
  90              		.cfi_endproc
  91              	.LFE3:
  92              		.size	Comp_0_Init, .-Comp_0_Init
  93              		.section	.text.Comp_0_Enable,"ax",%progbits
  94              		.align	2
  95              		.global	Comp_0_Enable
  96              		.code	16
  97              		.thumb_func
  98              		.type	Comp_0_Enable, %function
  99              	Comp_0_Enable:
 100              	.LFB4:
 115:Generated_Source\PSoC4/Comp_0.c **** 
 116:Generated_Source\PSoC4/Comp_0.c **** 
 117:Generated_Source\PSoC4/Comp_0.c **** /*******************************************************************************
 118:Generated_Source\PSoC4/Comp_0.c **** * Function Name: Comp_0_Enable
 119:Generated_Source\PSoC4/Comp_0.c **** ********************************************************************************
 120:Generated_Source\PSoC4/Comp_0.c **** *
 121:Generated_Source\PSoC4/Comp_0.c **** * Summary:
 122:Generated_Source\PSoC4/Comp_0.c **** *  Activates the hardware and begins component operation. It is not necessary
 123:Generated_Source\PSoC4/Comp_0.c **** *  to call Comp_0_Enable() because the Comp_0_Start() API
 124:Generated_Source\PSoC4/Comp_0.c **** *  calls this function, which is the preferred method to begin component
 125:Generated_Source\PSoC4/Comp_0.c **** *  operation.
 126:Generated_Source\PSoC4/Comp_0.c **** *
 127:Generated_Source\PSoC4/Comp_0.c **** * Parameters:
 128:Generated_Source\PSoC4/Comp_0.c **** *  None
ARM GAS  C:\Users\JamesN4\AppData\Local\Temp\ccf2QNpA.s 			page 5


 129:Generated_Source\PSoC4/Comp_0.c **** *
 130:Generated_Source\PSoC4/Comp_0.c **** * Return:
 131:Generated_Source\PSoC4/Comp_0.c **** *  None
 132:Generated_Source\PSoC4/Comp_0.c **** *
 133:Generated_Source\PSoC4/Comp_0.c **** *******************************************************************************/
 134:Generated_Source\PSoC4/Comp_0.c **** void Comp_0_Enable(void)
 135:Generated_Source\PSoC4/Comp_0.c **** {
 101              		.loc 1 135 0
 102              		.cfi_startproc
 103              		@ args = 0, pretend = 0, frame = 0
 104              		@ frame_needed = 0, uses_anonymous_args = 0
 105 0000 10B5     		push	{r4, lr}
 106              		.cfi_def_cfa_offset 8
 107              		.cfi_offset 4, -8
 108              		.cfi_offset 14, -4
 136:Generated_Source\PSoC4/Comp_0.c ****     uint8 enableInterrupts;
 137:Generated_Source\PSoC4/Comp_0.c ****     
 138:Generated_Source\PSoC4/Comp_0.c ****     enableInterrupts = CyEnterCriticalSection();
 109              		.loc 1 138 0
 110 0002 FFF7FEFF 		bl	CyEnterCriticalSection
 111              	.LVL5:
 139:Generated_Source\PSoC4/Comp_0.c ****     Comp_0_CONFIG_REG |= Comp_0_CONFIG_EN;
 112              		.loc 1 139 0
 113 0006 064B     		ldr	r3, .L7
 114 0008 1968     		ldr	r1, [r3]
 115 000a 8022     		movs	r2, #128
 116 000c 0A43     		orrs	r2, r1
 117 000e 1A60     		str	r2, [r3]
 140:Generated_Source\PSoC4/Comp_0.c ****     
 141:Generated_Source\PSoC4/Comp_0.c ****     /*******************************************************
 142:Generated_Source\PSoC4/Comp_0.c ****     * When the Enable() API is called the CONFIG_EN bit is set. 
 143:Generated_Source\PSoC4/Comp_0.c ****     * This can cause fake interrupt because of the output delay 
 144:Generated_Source\PSoC4/Comp_0.c ****     * of the analog. This requires setting the CONFIG_INTR bits 
 145:Generated_Source\PSoC4/Comp_0.c ****     * after the CONFIG_EN bit is set.
 146:Generated_Source\PSoC4/Comp_0.c ****     *******************************************************/
 147:Generated_Source\PSoC4/Comp_0.c ****     Comp_0_CONFIG_REG |= Comp_0_internalIntr;
 118              		.loc 1 147 0
 119 0010 1968     		ldr	r1, [r3]
 120 0012 044A     		ldr	r2, .L7+4
 121 0014 1268     		ldr	r2, [r2]
 122 0016 0A43     		orrs	r2, r1
 123 0018 1A60     		str	r2, [r3]
 148:Generated_Source\PSoC4/Comp_0.c ****     CyExitCriticalSection(enableInterrupts);
 124              		.loc 1 148 0
 125 001a FFF7FEFF 		bl	CyExitCriticalSection
 126              	.LVL6:
 149:Generated_Source\PSoC4/Comp_0.c **** }
 127              		.loc 1 149 0
 128              		@ sp needed
 129 001e 10BD     		pop	{r4, pc}
 130              	.L8:
 131              		.align	2
 132              	.L7:
 133 0020 04002B40 		.word	1076559876
 134 0024 00000000 		.word	.LANCHOR0
 135              		.cfi_endproc
 136              	.LFE4:
ARM GAS  C:\Users\JamesN4\AppData\Local\Temp\ccf2QNpA.s 			page 6


 137              		.size	Comp_0_Enable, .-Comp_0_Enable
 138              		.section	.text.Comp_0_Start,"ax",%progbits
 139              		.align	2
 140              		.global	Comp_0_Start
 141              		.code	16
 142              		.thumb_func
 143              		.type	Comp_0_Start, %function
 144              	Comp_0_Start:
 145              	.LFB2:
  59:Generated_Source\PSoC4/Comp_0.c ****     if(0u == Comp_0_initVar)
 146              		.loc 1 59 0
 147              		.cfi_startproc
 148              		@ args = 0, pretend = 0, frame = 0
 149              		@ frame_needed = 0, uses_anonymous_args = 0
 150 0000 10B5     		push	{r4, lr}
 151              		.cfi_def_cfa_offset 8
 152              		.cfi_offset 4, -8
 153              		.cfi_offset 14, -4
  60:Generated_Source\PSoC4/Comp_0.c ****     {
 154              		.loc 1 60 0
 155 0002 064B     		ldr	r3, .L11
 156 0004 1B79     		ldrb	r3, [r3, #4]
 157 0006 002B     		cmp	r3, #0
 158 0008 04D1     		bne	.L10
  62:Generated_Source\PSoC4/Comp_0.c ****         Comp_0_initVar = 1u;
 159              		.loc 1 62 0
 160 000a FFF7FEFF 		bl	Comp_0_Init
 161              	.LVL7:
  63:Generated_Source\PSoC4/Comp_0.c ****     }
 162              		.loc 1 63 0
 163 000e 0122     		movs	r2, #1
 164 0010 024B     		ldr	r3, .L11
 165 0012 1A71     		strb	r2, [r3, #4]
 166              	.L10:
  65:Generated_Source\PSoC4/Comp_0.c **** }
 167              		.loc 1 65 0
 168 0014 FFF7FEFF 		bl	Comp_0_Enable
 169              	.LVL8:
  66:Generated_Source\PSoC4/Comp_0.c **** 
 170              		.loc 1 66 0
 171              		@ sp needed
 172 0018 10BD     		pop	{r4, pc}
 173              	.L12:
 174 001a C046     		.align	2
 175              	.L11:
 176 001c 00000000 		.word	.LANCHOR0
 177              		.cfi_endproc
 178              	.LFE2:
 179              		.size	Comp_0_Start, .-Comp_0_Start
 180              		.section	.text.Comp_0_Stop,"ax",%progbits
 181              		.align	2
 182              		.global	Comp_0_Stop
 183              		.code	16
 184              		.thumb_func
 185              		.type	Comp_0_Stop, %function
 186              	Comp_0_Stop:
 187              	.LFB5:
ARM GAS  C:\Users\JamesN4\AppData\Local\Temp\ccf2QNpA.s 			page 7


 150:Generated_Source\PSoC4/Comp_0.c **** 
 151:Generated_Source\PSoC4/Comp_0.c **** 
 152:Generated_Source\PSoC4/Comp_0.c **** /*******************************************************************************
 153:Generated_Source\PSoC4/Comp_0.c **** * Function Name: Comp_0_Stop
 154:Generated_Source\PSoC4/Comp_0.c **** ********************************************************************************
 155:Generated_Source\PSoC4/Comp_0.c **** *
 156:Generated_Source\PSoC4/Comp_0.c **** * Summary:
 157:Generated_Source\PSoC4/Comp_0.c **** *  Turns off the LP Comparator.
 158:Generated_Source\PSoC4/Comp_0.c **** *
 159:Generated_Source\PSoC4/Comp_0.c **** * Parameters:
 160:Generated_Source\PSoC4/Comp_0.c **** *  None
 161:Generated_Source\PSoC4/Comp_0.c **** *
 162:Generated_Source\PSoC4/Comp_0.c **** * Return:
 163:Generated_Source\PSoC4/Comp_0.c **** *  None
 164:Generated_Source\PSoC4/Comp_0.c **** *
 165:Generated_Source\PSoC4/Comp_0.c **** * Side Effects:
 166:Generated_Source\PSoC4/Comp_0.c **** *  The function doesn't change component Speed settings.
 167:Generated_Source\PSoC4/Comp_0.c **** *
 168:Generated_Source\PSoC4/Comp_0.c **** *******************************************************************************/
 169:Generated_Source\PSoC4/Comp_0.c **** void Comp_0_Stop(void)
 170:Generated_Source\PSoC4/Comp_0.c **** {
 188              		.loc 1 170 0
 189              		.cfi_startproc
 190              		@ args = 0, pretend = 0, frame = 0
 191              		@ frame_needed = 0, uses_anonymous_args = 0
 192 0000 10B5     		push	{r4, lr}
 193              		.cfi_def_cfa_offset 8
 194              		.cfi_offset 4, -8
 195              		.cfi_offset 14, -4
 171:Generated_Source\PSoC4/Comp_0.c ****     uint8 enableInterrupts;
 172:Generated_Source\PSoC4/Comp_0.c ****     
 173:Generated_Source\PSoC4/Comp_0.c ****     enableInterrupts = CyEnterCriticalSection();
 196              		.loc 1 173 0
 197 0002 FFF7FEFF 		bl	CyEnterCriticalSection
 198              	.LVL9:
 174:Generated_Source\PSoC4/Comp_0.c ****     #if (Comp_0_CY_LPCOMP_V0)
 175:Generated_Source\PSoC4/Comp_0.c ****         /*******************************************************
 176:Generated_Source\PSoC4/Comp_0.c ****         * When the Stop() API is called the CONFIG_EN bit is 
 177:Generated_Source\PSoC4/Comp_0.c ****         * cleared. This causes the output of the comparator to go 
 178:Generated_Source\PSoC4/Comp_0.c ****         * low. If the comparator output was high and the Interrupt 
 179:Generated_Source\PSoC4/Comp_0.c ****         * Configuration is set for Falling edge disabling the 
 180:Generated_Source\PSoC4/Comp_0.c ****         * comparator will cause an fake interrupt. This requires 
 181:Generated_Source\PSoC4/Comp_0.c ****         * to clear the CONFIG_INTR bits before the CONFIG_EN bit 
 182:Generated_Source\PSoC4/Comp_0.c ****         * is cleared.
 183:Generated_Source\PSoC4/Comp_0.c ****         *******************************************************/
 184:Generated_Source\PSoC4/Comp_0.c ****         Comp_0_CONFIG_REG &= (uint32)~Comp_0_CONFIG_INTR_MASK;
 185:Generated_Source\PSoC4/Comp_0.c ****     #endif /* (Comp_0_CY_LPCOMP_V0) */
 186:Generated_Source\PSoC4/Comp_0.c **** 
 187:Generated_Source\PSoC4/Comp_0.c ****     Comp_0_CONFIG_REG &= (uint32)~Comp_0_CONFIG_EN;
 199              		.loc 1 187 0
 200 0006 044A     		ldr	r2, .L14
 201 0008 1368     		ldr	r3, [r2]
 202 000a 8021     		movs	r1, #128
 203 000c 8B43     		bics	r3, r1
 204 000e 1360     		str	r3, [r2]
 188:Generated_Source\PSoC4/Comp_0.c ****     CyExitCriticalSection(enableInterrupts);
 205              		.loc 1 188 0
ARM GAS  C:\Users\JamesN4\AppData\Local\Temp\ccf2QNpA.s 			page 8


 206 0010 FFF7FEFF 		bl	CyExitCriticalSection
 207              	.LVL10:
 189:Generated_Source\PSoC4/Comp_0.c **** }
 208              		.loc 1 189 0
 209              		@ sp needed
 210 0014 10BD     		pop	{r4, pc}
 211              	.L15:
 212 0016 C046     		.align	2
 213              	.L14:
 214 0018 04002B40 		.word	1076559876
 215              		.cfi_endproc
 216              	.LFE5:
 217              		.size	Comp_0_Stop, .-Comp_0_Stop
 218              		.section	.text.Comp_0_SetSpeed,"ax",%progbits
 219              		.align	2
 220              		.global	Comp_0_SetSpeed
 221              		.code	16
 222              		.thumb_func
 223              		.type	Comp_0_SetSpeed, %function
 224              	Comp_0_SetSpeed:
 225              	.LFB6:
 190:Generated_Source\PSoC4/Comp_0.c **** 
 191:Generated_Source\PSoC4/Comp_0.c **** 
 192:Generated_Source\PSoC4/Comp_0.c **** /*******************************************************************************
 193:Generated_Source\PSoC4/Comp_0.c **** * Function Name: Comp_0_SetSpeed
 194:Generated_Source\PSoC4/Comp_0.c **** *
 195:Generated_Source\PSoC4/Comp_0.c **** * Summary:
 196:Generated_Source\PSoC4/Comp_0.c **** *  Sets the drive power and speed to one of three settings.
 197:Generated_Source\PSoC4/Comp_0.c **** *
 198:Generated_Source\PSoC4/Comp_0.c **** * Parameters:
 199:Generated_Source\PSoC4/Comp_0.c **** *  uint32 speed: Sets operation mode of the component:
 200:Generated_Source\PSoC4/Comp_0.c **** *   Comp_0_LOW_SPEED  - Slow/ultra low 
 201:Generated_Source\PSoC4/Comp_0.c **** *   Comp_0_MED_SPEED  - Medium/low 
 202:Generated_Source\PSoC4/Comp_0.c **** *   Comp_0_HIGH_SPEED - Fast/normal 
 203:Generated_Source\PSoC4/Comp_0.c **** *
 204:Generated_Source\PSoC4/Comp_0.c **** * Return:
 205:Generated_Source\PSoC4/Comp_0.c **** *  None
 206:Generated_Source\PSoC4/Comp_0.c **** *
 207:Generated_Source\PSoC4/Comp_0.c **** *******************************************************************************/
 208:Generated_Source\PSoC4/Comp_0.c **** void Comp_0_SetSpeed(uint32 speed)
 209:Generated_Source\PSoC4/Comp_0.c **** {
 226              		.loc 1 209 0
 227              		.cfi_startproc
 228              		@ args = 0, pretend = 0, frame = 0
 229              		@ frame_needed = 0, uses_anonymous_args = 0
 230              	.LVL11:
 231 0000 10B5     		push	{r4, lr}
 232              		.cfi_def_cfa_offset 8
 233              		.cfi_offset 4, -8
 234              		.cfi_offset 14, -4
 235 0002 0400     		movs	r4, r0
 210:Generated_Source\PSoC4/Comp_0.c ****     uint32 config;
 211:Generated_Source\PSoC4/Comp_0.c ****     uint8 enableInterrupts;
 212:Generated_Source\PSoC4/Comp_0.c ****     
 213:Generated_Source\PSoC4/Comp_0.c ****     enableInterrupts = CyEnterCriticalSection();
 236              		.loc 1 213 0
 237 0004 FFF7FEFF 		bl	CyEnterCriticalSection
ARM GAS  C:\Users\JamesN4\AppData\Local\Temp\ccf2QNpA.s 			page 9


 238              	.LVL12:
 214:Generated_Source\PSoC4/Comp_0.c ****     config = Comp_0_CONFIG_REG & (uint32)~Comp_0_CONFIG_SPEED_MODE_MASK;
 239              		.loc 1 214 0
 240 0008 044A     		ldr	r2, .L17
 241 000a 1368     		ldr	r3, [r2]
 242 000c 0321     		movs	r1, #3
 243 000e 8B43     		bics	r3, r1
 244              	.LVL13:
 215:Generated_Source\PSoC4/Comp_0.c ****     Comp_0_CONFIG_REG = config | Comp_0_GET_CONFIG_SPEED_MODE(speed);
 245              		.loc 1 215 0
 246 0010 0C40     		ands	r4, r1
 247              	.LVL14:
 248 0012 1C43     		orrs	r4, r3
 249 0014 1460     		str	r4, [r2]
 216:Generated_Source\PSoC4/Comp_0.c ****     CyExitCriticalSection(enableInterrupts);
 250              		.loc 1 216 0
 251 0016 FFF7FEFF 		bl	CyExitCriticalSection
 252              	.LVL15:
 217:Generated_Source\PSoC4/Comp_0.c **** }
 253              		.loc 1 217 0
 254              		@ sp needed
 255 001a 10BD     		pop	{r4, pc}
 256              	.L18:
 257              		.align	2
 258              	.L17:
 259 001c 04002B40 		.word	1076559876
 260              		.cfi_endproc
 261              	.LFE6:
 262              		.size	Comp_0_SetSpeed, .-Comp_0_SetSpeed
 263              		.section	.text.Comp_0_SetInterruptMode,"ax",%progbits
 264              		.align	2
 265              		.global	Comp_0_SetInterruptMode
 266              		.code	16
 267              		.thumb_func
 268              		.type	Comp_0_SetInterruptMode, %function
 269              	Comp_0_SetInterruptMode:
 270              	.LFB7:
 218:Generated_Source\PSoC4/Comp_0.c **** 
 219:Generated_Source\PSoC4/Comp_0.c **** 
 220:Generated_Source\PSoC4/Comp_0.c **** /*******************************************************************************
 221:Generated_Source\PSoC4/Comp_0.c **** * Function Name: Comp_0_SetInterruptMode
 222:Generated_Source\PSoC4/Comp_0.c **** ********************************************************************************
 223:Generated_Source\PSoC4/Comp_0.c **** *
 224:Generated_Source\PSoC4/Comp_0.c **** * Summary:
 225:Generated_Source\PSoC4/Comp_0.c **** *  Sets the interrupt edge detect mode. This also controls the value provided
 226:Generated_Source\PSoC4/Comp_0.c **** *  on the output.
 227:Generated_Source\PSoC4/Comp_0.c **** *
 228:Generated_Source\PSoC4/Comp_0.c **** * Parameters:
 229:Generated_Source\PSoC4/Comp_0.c **** *  uint32 mode: Enumerated edge detect mode value:
 230:Generated_Source\PSoC4/Comp_0.c **** *  Comp_0_INTR_DISABLE - Disable
 231:Generated_Source\PSoC4/Comp_0.c **** *  Comp_0_INTR_RISING  - Rising edge detect
 232:Generated_Source\PSoC4/Comp_0.c **** *  Comp_0_INTR_FALLING - Falling edge detect
 233:Generated_Source\PSoC4/Comp_0.c **** *  Comp_0_INTR_BOTH    - Detect both edges
 234:Generated_Source\PSoC4/Comp_0.c **** *
 235:Generated_Source\PSoC4/Comp_0.c **** * Return:
 236:Generated_Source\PSoC4/Comp_0.c **** *  None
 237:Generated_Source\PSoC4/Comp_0.c **** *
ARM GAS  C:\Users\JamesN4\AppData\Local\Temp\ccf2QNpA.s 			page 10


 238:Generated_Source\PSoC4/Comp_0.c **** *******************************************************************************/
 239:Generated_Source\PSoC4/Comp_0.c **** void Comp_0_SetInterruptMode(uint32 mode)
 240:Generated_Source\PSoC4/Comp_0.c **** {
 271              		.loc 1 240 0
 272              		.cfi_startproc
 273              		@ args = 0, pretend = 0, frame = 0
 274              		@ frame_needed = 0, uses_anonymous_args = 0
 275              	.LVL16:
 276 0000 70B5     		push	{r4, r5, r6, lr}
 277              		.cfi_def_cfa_offset 16
 278              		.cfi_offset 4, -16
 279              		.cfi_offset 5, -12
 280              		.cfi_offset 6, -8
 281              		.cfi_offset 14, -4
 241:Generated_Source\PSoC4/Comp_0.c ****     uint32 config;
 242:Generated_Source\PSoC4/Comp_0.c ****     uint8 enableInterrupts;
 243:Generated_Source\PSoC4/Comp_0.c ****     
 244:Generated_Source\PSoC4/Comp_0.c ****     Comp_0_internalIntr = Comp_0_GET_CONFIG_INTR(mode);
 282              		.loc 1 244 0
 283 0002 0001     		lsls	r0, r0, #4
 284              	.LVL17:
 285 0004 3025     		movs	r5, #48
 286 0006 2840     		ands	r0, r5
 287 0008 064C     		ldr	r4, .L20
 288 000a 2060     		str	r0, [r4]
 245:Generated_Source\PSoC4/Comp_0.c **** 
 246:Generated_Source\PSoC4/Comp_0.c ****     enableInterrupts = CyEnterCriticalSection();
 289              		.loc 1 246 0
 290 000c FFF7FEFF 		bl	CyEnterCriticalSection
 291              	.LVL18:
 247:Generated_Source\PSoC4/Comp_0.c ****     config = Comp_0_CONFIG_REG & (uint32)~Comp_0_CONFIG_INTR_MASK;
 292              		.loc 1 247 0
 293 0010 0549     		ldr	r1, .L20+4
 294 0012 0B68     		ldr	r3, [r1]
 295 0014 AB43     		bics	r3, r5
 296              	.LVL19:
 248:Generated_Source\PSoC4/Comp_0.c ****     Comp_0_CONFIG_REG = config | Comp_0_internalIntr;
 297              		.loc 1 248 0
 298 0016 2268     		ldr	r2, [r4]
 299 0018 1343     		orrs	r3, r2
 300              	.LVL20:
 301 001a 0B60     		str	r3, [r1]
 249:Generated_Source\PSoC4/Comp_0.c ****     CyExitCriticalSection(enableInterrupts);
 302              		.loc 1 249 0
 303 001c FFF7FEFF 		bl	CyExitCriticalSection
 304              	.LVL21:
 250:Generated_Source\PSoC4/Comp_0.c **** }
 305              		.loc 1 250 0
 306              		@ sp needed
 307 0020 70BD     		pop	{r4, r5, r6, pc}
 308              	.L21:
 309 0022 C046     		.align	2
 310              	.L20:
 311 0024 00000000 		.word	.LANCHOR0
 312 0028 04002B40 		.word	1076559876
 313              		.cfi_endproc
 314              	.LFE7:
ARM GAS  C:\Users\JamesN4\AppData\Local\Temp\ccf2QNpA.s 			page 11


 315              		.size	Comp_0_SetInterruptMode, .-Comp_0_SetInterruptMode
 316              		.section	.text.Comp_0_GetInterruptSource,"ax",%progbits
 317              		.align	2
 318              		.global	Comp_0_GetInterruptSource
 319              		.code	16
 320              		.thumb_func
 321              		.type	Comp_0_GetInterruptSource, %function
 322              	Comp_0_GetInterruptSource:
 323              	.LFB8:
 251:Generated_Source\PSoC4/Comp_0.c **** 
 252:Generated_Source\PSoC4/Comp_0.c **** 
 253:Generated_Source\PSoC4/Comp_0.c **** /*******************************************************************************
 254:Generated_Source\PSoC4/Comp_0.c **** * Function Name: Comp_0_GetInterruptSource
 255:Generated_Source\PSoC4/Comp_0.c **** ********************************************************************************
 256:Generated_Source\PSoC4/Comp_0.c **** *
 257:Generated_Source\PSoC4/Comp_0.c **** * Summary:
 258:Generated_Source\PSoC4/Comp_0.c **** *  Gets the interrupt requests. This function is for use when using the combined
 259:Generated_Source\PSoC4/Comp_0.c **** *  interrupt signal from the global signal reference. This function from either
 260:Generated_Source\PSoC4/Comp_0.c **** *  component instance can be used to determine the interrupt source for both the
 261:Generated_Source\PSoC4/Comp_0.c **** *  interrupts combined.
 262:Generated_Source\PSoC4/Comp_0.c **** *
 263:Generated_Source\PSoC4/Comp_0.c **** * Parameters:
 264:Generated_Source\PSoC4/Comp_0.c **** *  None
 265:Generated_Source\PSoC4/Comp_0.c **** *
 266:Generated_Source\PSoC4/Comp_0.c **** * Return:
 267:Generated_Source\PSoC4/Comp_0.c **** *  uint32: Interrupt source. Each component instance has a mask value:
 268:Generated_Source\PSoC4/Comp_0.c **** *  Comp_0_INTR.
 269:Generated_Source\PSoC4/Comp_0.c **** *
 270:Generated_Source\PSoC4/Comp_0.c **** *******************************************************************************/
 271:Generated_Source\PSoC4/Comp_0.c **** uint32 Comp_0_GetInterruptSource(void)
 272:Generated_Source\PSoC4/Comp_0.c **** {
 324              		.loc 1 272 0
 325              		.cfi_startproc
 326              		@ args = 0, pretend = 0, frame = 0
 327              		@ frame_needed = 0, uses_anonymous_args = 0
 328              		@ link register save eliminated.
 273:Generated_Source\PSoC4/Comp_0.c ****     return (Comp_0_INTR_REG); 
 329              		.loc 1 273 0
 330 0000 014B     		ldr	r3, .L23
 331 0002 1868     		ldr	r0, [r3]
 274:Generated_Source\PSoC4/Comp_0.c **** }
 332              		.loc 1 274 0
 333              		@ sp needed
 334 0004 7047     		bx	lr
 335              	.L24:
 336 0006 C046     		.align	2
 337              	.L23:
 338 0008 10002B40 		.word	1076559888
 339              		.cfi_endproc
 340              	.LFE8:
 341              		.size	Comp_0_GetInterruptSource, .-Comp_0_GetInterruptSource
 342              		.section	.text.Comp_0_ClearInterrupt,"ax",%progbits
 343              		.align	2
 344              		.global	Comp_0_ClearInterrupt
 345              		.code	16
 346              		.thumb_func
 347              		.type	Comp_0_ClearInterrupt, %function
ARM GAS  C:\Users\JamesN4\AppData\Local\Temp\ccf2QNpA.s 			page 12


 348              	Comp_0_ClearInterrupt:
 349              	.LFB9:
 275:Generated_Source\PSoC4/Comp_0.c **** 
 276:Generated_Source\PSoC4/Comp_0.c **** 
 277:Generated_Source\PSoC4/Comp_0.c **** /*******************************************************************************
 278:Generated_Source\PSoC4/Comp_0.c **** * Function Name: Comp_0_ClearInterrupt
 279:Generated_Source\PSoC4/Comp_0.c **** ********************************************************************************
 280:Generated_Source\PSoC4/Comp_0.c **** *
 281:Generated_Source\PSoC4/Comp_0.c **** * Summary:
 282:Generated_Source\PSoC4/Comp_0.c **** *  Clears the interrupt request. This function is for use when using the
 283:Generated_Source\PSoC4/Comp_0.c **** *  combined interrupt signal from the global signal reference. This function
 284:Generated_Source\PSoC4/Comp_0.c **** *  from either component instance can be used to clear either or both
 285:Generated_Source\PSoC4/Comp_0.c **** *  interrupts.
 286:Generated_Source\PSoC4/Comp_0.c **** *
 287:Generated_Source\PSoC4/Comp_0.c **** * Parameters:
 288:Generated_Source\PSoC4/Comp_0.c **** *  uint32 interruptMask: Mask of interrupts to clear. Each component instance
 289:Generated_Source\PSoC4/Comp_0.c **** *  has a mask value: Comp_0_INTR.
 290:Generated_Source\PSoC4/Comp_0.c **** *
 291:Generated_Source\PSoC4/Comp_0.c **** * Return:
 292:Generated_Source\PSoC4/Comp_0.c **** *  None
 293:Generated_Source\PSoC4/Comp_0.c **** *
 294:Generated_Source\PSoC4/Comp_0.c **** *******************************************************************************/
 295:Generated_Source\PSoC4/Comp_0.c **** void Comp_0_ClearInterrupt(uint32 interruptMask)
 296:Generated_Source\PSoC4/Comp_0.c **** {   
 350              		.loc 1 296 0
 351              		.cfi_startproc
 352              		@ args = 0, pretend = 0, frame = 0
 353              		@ frame_needed = 0, uses_anonymous_args = 0
 354              		@ link register save eliminated.
 355              	.LVL22:
 297:Generated_Source\PSoC4/Comp_0.c ****     Comp_0_INTR_REG = interruptMask;
 356              		.loc 1 297 0
 357 0000 014B     		ldr	r3, .L26
 358 0002 1860     		str	r0, [r3]
 298:Generated_Source\PSoC4/Comp_0.c **** }
 359              		.loc 1 298 0
 360              		@ sp needed
 361 0004 7047     		bx	lr
 362              	.L27:
 363 0006 C046     		.align	2
 364              	.L26:
 365 0008 10002B40 		.word	1076559888
 366              		.cfi_endproc
 367              	.LFE9:
 368              		.size	Comp_0_ClearInterrupt, .-Comp_0_ClearInterrupt
 369              		.section	.text.Comp_0_SetInterrupt,"ax",%progbits
 370              		.align	2
 371              		.global	Comp_0_SetInterrupt
 372              		.code	16
 373              		.thumb_func
 374              		.type	Comp_0_SetInterrupt, %function
 375              	Comp_0_SetInterrupt:
 376              	.LFB10:
 299:Generated_Source\PSoC4/Comp_0.c **** 
 300:Generated_Source\PSoC4/Comp_0.c **** 
 301:Generated_Source\PSoC4/Comp_0.c **** /*******************************************************************************
 302:Generated_Source\PSoC4/Comp_0.c **** * Function Name: Comp_0_SetInterrupt
ARM GAS  C:\Users\JamesN4\AppData\Local\Temp\ccf2QNpA.s 			page 13


 303:Generated_Source\PSoC4/Comp_0.c **** ********************************************************************************
 304:Generated_Source\PSoC4/Comp_0.c **** *
 305:Generated_Source\PSoC4/Comp_0.c **** * Summary:
 306:Generated_Source\PSoC4/Comp_0.c **** *  Sets a software interrupt request. This function is for use when using the
 307:Generated_Source\PSoC4/Comp_0.c **** *  combined interrupt signal from the global signal reference. This function
 308:Generated_Source\PSoC4/Comp_0.c **** *  from either component instance can be used to trigger either or both software
 309:Generated_Source\PSoC4/Comp_0.c **** *  interrupts.
 310:Generated_Source\PSoC4/Comp_0.c **** *
 311:Generated_Source\PSoC4/Comp_0.c **** * Parameters:
 312:Generated_Source\PSoC4/Comp_0.c **** *  uint32 interruptMask: Mask of interrupts to set. Each component instance has
 313:Generated_Source\PSoC4/Comp_0.c **** *  a mask value: Comp_0_INTR_SET.
 314:Generated_Source\PSoC4/Comp_0.c **** *
 315:Generated_Source\PSoC4/Comp_0.c **** * Return:
 316:Generated_Source\PSoC4/Comp_0.c **** *  None
 317:Generated_Source\PSoC4/Comp_0.c **** *
 318:Generated_Source\PSoC4/Comp_0.c **** *******************************************************************************/
 319:Generated_Source\PSoC4/Comp_0.c **** void Comp_0_SetInterrupt(uint32 interruptMask)
 320:Generated_Source\PSoC4/Comp_0.c **** {
 377              		.loc 1 320 0
 378              		.cfi_startproc
 379              		@ args = 0, pretend = 0, frame = 0
 380              		@ frame_needed = 0, uses_anonymous_args = 0
 381              	.LVL23:
 382 0000 10B5     		push	{r4, lr}
 383              		.cfi_def_cfa_offset 8
 384              		.cfi_offset 4, -8
 385              		.cfi_offset 14, -4
 386 0002 0400     		movs	r4, r0
 321:Generated_Source\PSoC4/Comp_0.c ****     uint8 enableInterrupts;
 322:Generated_Source\PSoC4/Comp_0.c ****     
 323:Generated_Source\PSoC4/Comp_0.c ****     enableInterrupts = CyEnterCriticalSection();
 387              		.loc 1 323 0
 388 0004 FFF7FEFF 		bl	CyEnterCriticalSection
 389              	.LVL24:
 324:Generated_Source\PSoC4/Comp_0.c ****     Comp_0_INTR_SET_REG |= interruptMask;
 390              		.loc 1 324 0
 391 0008 034B     		ldr	r3, .L29
 392 000a 1A68     		ldr	r2, [r3]
 393 000c 1443     		orrs	r4, r2
 394              	.LVL25:
 395 000e 1C60     		str	r4, [r3]
 325:Generated_Source\PSoC4/Comp_0.c ****     CyExitCriticalSection(enableInterrupts);
 396              		.loc 1 325 0
 397 0010 FFF7FEFF 		bl	CyExitCriticalSection
 398              	.LVL26:
 326:Generated_Source\PSoC4/Comp_0.c **** }
 399              		.loc 1 326 0
 400              		@ sp needed
 401 0014 10BD     		pop	{r4, pc}
 402              	.L30:
 403 0016 C046     		.align	2
 404              	.L29:
 405 0018 14002B40 		.word	1076559892
 406              		.cfi_endproc
 407              	.LFE10:
 408              		.size	Comp_0_SetInterrupt, .-Comp_0_SetInterrupt
 409              		.section	.text.Comp_0_SetHysteresis,"ax",%progbits
ARM GAS  C:\Users\JamesN4\AppData\Local\Temp\ccf2QNpA.s 			page 14


 410              		.align	2
 411              		.global	Comp_0_SetHysteresis
 412              		.code	16
 413              		.thumb_func
 414              		.type	Comp_0_SetHysteresis, %function
 415              	Comp_0_SetHysteresis:
 416              	.LFB11:
 327:Generated_Source\PSoC4/Comp_0.c **** 
 328:Generated_Source\PSoC4/Comp_0.c **** 
 329:Generated_Source\PSoC4/Comp_0.c **** /*******************************************************************************
 330:Generated_Source\PSoC4/Comp_0.c **** * Function Name: Comp_0_SetHysteresis
 331:Generated_Source\PSoC4/Comp_0.c **** ********************************************************************************
 332:Generated_Source\PSoC4/Comp_0.c **** *
 333:Generated_Source\PSoC4/Comp_0.c **** * Summary:
 334:Generated_Source\PSoC4/Comp_0.c **** *  Enables or disables the hysteresis.
 335:Generated_Source\PSoC4/Comp_0.c **** *
 336:Generated_Source\PSoC4/Comp_0.c **** * Parameters:
 337:Generated_Source\PSoC4/Comp_0.c **** *  hysteresis: (uint32) Enables or disables the hysteresis setting.
 338:Generated_Source\PSoC4/Comp_0.c **** *  Comp_0_HYST_ENABLE     - Enable hysteresis
 339:Generated_Source\PSoC4/Comp_0.c **** *  Comp_0_HYST_DISABLE    - Disable hysteresis
 340:Generated_Source\PSoC4/Comp_0.c **** *
 341:Generated_Source\PSoC4/Comp_0.c **** * Return:
 342:Generated_Source\PSoC4/Comp_0.c **** *  None
 343:Generated_Source\PSoC4/Comp_0.c **** *
 344:Generated_Source\PSoC4/Comp_0.c **** *******************************************************************************/
 345:Generated_Source\PSoC4/Comp_0.c **** void Comp_0_SetHysteresis(uint32 hysteresis)
 346:Generated_Source\PSoC4/Comp_0.c **** {
 417              		.loc 1 346 0
 418              		.cfi_startproc
 419              		@ args = 0, pretend = 0, frame = 0
 420              		@ frame_needed = 0, uses_anonymous_args = 0
 421              	.LVL27:
 422 0000 10B5     		push	{r4, lr}
 423              		.cfi_def_cfa_offset 8
 424              		.cfi_offset 4, -8
 425              		.cfi_offset 14, -4
 426 0002 0400     		movs	r4, r0
 347:Generated_Source\PSoC4/Comp_0.c ****     uint8 enableInterrupts;
 348:Generated_Source\PSoC4/Comp_0.c ****     
 349:Generated_Source\PSoC4/Comp_0.c ****     enableInterrupts = CyEnterCriticalSection();
 427              		.loc 1 349 0
 428 0004 FFF7FEFF 		bl	CyEnterCriticalSection
 429              	.LVL28:
 350:Generated_Source\PSoC4/Comp_0.c ****     if(0u != hysteresis)
 430              		.loc 1 350 0
 431 0008 002C     		cmp	r4, #0
 432 000a 05D0     		beq	.L32
 351:Generated_Source\PSoC4/Comp_0.c ****     {
 352:Generated_Source\PSoC4/Comp_0.c ****         Comp_0_CONFIG_REG |= Comp_0_CONFIG_HYST;
 433              		.loc 1 352 0
 434 000c 064A     		ldr	r2, .L34
 435 000e 1168     		ldr	r1, [r2]
 436 0010 0423     		movs	r3, #4
 437 0012 0B43     		orrs	r3, r1
 438 0014 1360     		str	r3, [r2]
 439 0016 04E0     		b	.L33
 440              	.L32:
ARM GAS  C:\Users\JamesN4\AppData\Local\Temp\ccf2QNpA.s 			page 15


 353:Generated_Source\PSoC4/Comp_0.c ****     }
 354:Generated_Source\PSoC4/Comp_0.c ****     else
 355:Generated_Source\PSoC4/Comp_0.c ****     {
 356:Generated_Source\PSoC4/Comp_0.c ****         Comp_0_CONFIG_REG &= (uint32)~Comp_0_CONFIG_HYST;
 441              		.loc 1 356 0
 442 0018 034A     		ldr	r2, .L34
 443 001a 1368     		ldr	r3, [r2]
 444 001c 0421     		movs	r1, #4
 445 001e 8B43     		bics	r3, r1
 446 0020 1360     		str	r3, [r2]
 447              	.L33:
 357:Generated_Source\PSoC4/Comp_0.c ****     }
 358:Generated_Source\PSoC4/Comp_0.c ****     CyExitCriticalSection(enableInterrupts);
 448              		.loc 1 358 0
 449 0022 FFF7FEFF 		bl	CyExitCriticalSection
 450              	.LVL29:
 359:Generated_Source\PSoC4/Comp_0.c **** }
 451              		.loc 1 359 0
 452              		@ sp needed
 453              	.LVL30:
 454 0026 10BD     		pop	{r4, pc}
 455              	.L35:
 456              		.align	2
 457              	.L34:
 458 0028 04002B40 		.word	1076559876
 459              		.cfi_endproc
 460              	.LFE11:
 461              		.size	Comp_0_SetHysteresis, .-Comp_0_SetHysteresis
 462              		.section	.text.Comp_0_SetFilter,"ax",%progbits
 463              		.align	2
 464              		.global	Comp_0_SetFilter
 465              		.code	16
 466              		.thumb_func
 467              		.type	Comp_0_SetFilter, %function
 468              	Comp_0_SetFilter:
 469              	.LFB12:
 360:Generated_Source\PSoC4/Comp_0.c **** 
 361:Generated_Source\PSoC4/Comp_0.c **** 
 362:Generated_Source\PSoC4/Comp_0.c **** /*******************************************************************************
 363:Generated_Source\PSoC4/Comp_0.c **** * Function Name: Comp_0_SetFilter
 364:Generated_Source\PSoC4/Comp_0.c **** ********************************************************************************
 365:Generated_Source\PSoC4/Comp_0.c **** *
 366:Generated_Source\PSoC4/Comp_0.c **** * Summary:
 367:Generated_Source\PSoC4/Comp_0.c **** *  Enables or disables the digital filter. This still exists for saving backward 
 368:Generated_Source\PSoC4/Comp_0.c **** *  compatibility, but not recommended for using.
 369:Generated_Source\PSoC4/Comp_0.c **** *  This API is DEPRECATED and should not be used in new projects.
 370:Generated_Source\PSoC4/Comp_0.c **** *
 371:Generated_Source\PSoC4/Comp_0.c **** * Parameters:
 372:Generated_Source\PSoC4/Comp_0.c **** *  uint32 filter: filter enable.
 373:Generated_Source\PSoC4/Comp_0.c **** *  Comp_0_FILT_ENABLE  - Enable filter
 374:Generated_Source\PSoC4/Comp_0.c **** *  Comp_0_FILT_DISABLE - Disable filter
 375:Generated_Source\PSoC4/Comp_0.c **** *
 376:Generated_Source\PSoC4/Comp_0.c **** * Return:
 377:Generated_Source\PSoC4/Comp_0.c **** *  None
 378:Generated_Source\PSoC4/Comp_0.c **** *
 379:Generated_Source\PSoC4/Comp_0.c **** *******************************************************************************/
 380:Generated_Source\PSoC4/Comp_0.c **** void Comp_0_SetFilter(uint32 filter)
ARM GAS  C:\Users\JamesN4\AppData\Local\Temp\ccf2QNpA.s 			page 16


 381:Generated_Source\PSoC4/Comp_0.c **** {
 470              		.loc 1 381 0
 471              		.cfi_startproc
 472              		@ args = 0, pretend = 0, frame = 0
 473              		@ frame_needed = 0, uses_anonymous_args = 0
 474              	.LVL31:
 475 0000 10B5     		push	{r4, lr}
 476              		.cfi_def_cfa_offset 8
 477              		.cfi_offset 4, -8
 478              		.cfi_offset 14, -4
 479 0002 0400     		movs	r4, r0
 382:Generated_Source\PSoC4/Comp_0.c ****     uint8 enableInterrupts;
 383:Generated_Source\PSoC4/Comp_0.c ****     
 384:Generated_Source\PSoC4/Comp_0.c ****     enableInterrupts = CyEnterCriticalSection();
 480              		.loc 1 384 0
 481 0004 FFF7FEFF 		bl	CyEnterCriticalSection
 482              	.LVL32:
 385:Generated_Source\PSoC4/Comp_0.c ****     if( 0u != filter)
 483              		.loc 1 385 0
 484 0008 002C     		cmp	r4, #0
 485 000a 05D0     		beq	.L37
 386:Generated_Source\PSoC4/Comp_0.c ****     {
 387:Generated_Source\PSoC4/Comp_0.c ****         Comp_0_CONFIG_REG |= Comp_0_CONFIG_FILT;
 486              		.loc 1 387 0
 487 000c 064A     		ldr	r2, .L39
 488 000e 1168     		ldr	r1, [r2]
 489 0010 0823     		movs	r3, #8
 490 0012 0B43     		orrs	r3, r1
 491 0014 1360     		str	r3, [r2]
 492 0016 04E0     		b	.L38
 493              	.L37:
 388:Generated_Source\PSoC4/Comp_0.c ****     }
 389:Generated_Source\PSoC4/Comp_0.c ****     else
 390:Generated_Source\PSoC4/Comp_0.c ****     {
 391:Generated_Source\PSoC4/Comp_0.c ****         Comp_0_CONFIG_REG &= (uint32)~Comp_0_CONFIG_FILT;
 494              		.loc 1 391 0
 495 0018 034A     		ldr	r2, .L39
 496 001a 1368     		ldr	r3, [r2]
 497 001c 0821     		movs	r1, #8
 498 001e 8B43     		bics	r3, r1
 499 0020 1360     		str	r3, [r2]
 500              	.L38:
 392:Generated_Source\PSoC4/Comp_0.c ****     }
 393:Generated_Source\PSoC4/Comp_0.c ****     CyExitCriticalSection(enableInterrupts);
 501              		.loc 1 393 0
 502 0022 FFF7FEFF 		bl	CyExitCriticalSection
 503              	.LVL33:
 394:Generated_Source\PSoC4/Comp_0.c **** }
 504              		.loc 1 394 0
 505              		@ sp needed
 506              	.LVL34:
 507 0026 10BD     		pop	{r4, pc}
 508              	.L40:
 509              		.align	2
 510              	.L39:
 511 0028 04002B40 		.word	1076559876
 512              		.cfi_endproc
ARM GAS  C:\Users\JamesN4\AppData\Local\Temp\ccf2QNpA.s 			page 17


 513              	.LFE12:
 514              		.size	Comp_0_SetFilter, .-Comp_0_SetFilter
 515              		.section	.text.Comp_0_GetCompare,"ax",%progbits
 516              		.align	2
 517              		.global	Comp_0_GetCompare
 518              		.code	16
 519              		.thumb_func
 520              		.type	Comp_0_GetCompare, %function
 521              	Comp_0_GetCompare:
 522              	.LFB13:
 395:Generated_Source\PSoC4/Comp_0.c **** 
 396:Generated_Source\PSoC4/Comp_0.c **** 
 397:Generated_Source\PSoC4/Comp_0.c **** /*******************************************************************************
 398:Generated_Source\PSoC4/Comp_0.c **** * Function Name: Comp_0_GetCompare
 399:Generated_Source\PSoC4/Comp_0.c **** ********************************************************************************
 400:Generated_Source\PSoC4/Comp_0.c **** *
 401:Generated_Source\PSoC4/Comp_0.c **** * Summary:
 402:Generated_Source\PSoC4/Comp_0.c **** *  This function returns a nonzero value when the voltage connected to the
 403:Generated_Source\PSoC4/Comp_0.c **** *  positive input is greater than the negative input voltage.
 404:Generated_Source\PSoC4/Comp_0.c **** *  This function reads the direct (unflopped) comparator output which can also be 
 405:Generated_Source\PSoC4/Comp_0.c **** *  metastable (since it may result in incorrect data).
 406:Generated_Source\PSoC4/Comp_0.c **** *
 407:Generated_Source\PSoC4/Comp_0.c **** * Parameters:
 408:Generated_Source\PSoC4/Comp_0.c **** *  None
 409:Generated_Source\PSoC4/Comp_0.c **** *
 410:Generated_Source\PSoC4/Comp_0.c **** * Return:
 411:Generated_Source\PSoC4/Comp_0.c **** *  (uint32) Comparator output state. This value is not impacted by the interrupt
 412:Generated_Source\PSoC4/Comp_0.c **** *  edge detect setting:
 413:Generated_Source\PSoC4/Comp_0.c **** *   0 - if positive input is less than negative one.
 414:Generated_Source\PSoC4/Comp_0.c **** *   1 - if positive input greater than negative one.
 415:Generated_Source\PSoC4/Comp_0.c **** *
 416:Generated_Source\PSoC4/Comp_0.c **** *******************************************************************************/
 417:Generated_Source\PSoC4/Comp_0.c **** uint32 Comp_0_GetCompare(void)
 418:Generated_Source\PSoC4/Comp_0.c **** {
 523              		.loc 1 418 0
 524              		.cfi_startproc
 525              		@ args = 0, pretend = 0, frame = 0
 526              		@ frame_needed = 0, uses_anonymous_args = 0
 527              		@ link register save eliminated.
 419:Generated_Source\PSoC4/Comp_0.c ****     return((uint32)((0u == (Comp_0_CONFIG_REG & Comp_0_CONFIG_OUT)) ? 0u : 1u));
 528              		.loc 1 419 0
 529 0000 034B     		ldr	r3, .L42
 530 0002 1B68     		ldr	r3, [r3]
 531 0004 4020     		movs	r0, #64
 532 0006 1840     		ands	r0, r3
 533 0008 431E     		subs	r3, r0, #1
 534 000a 9841     		sbcs	r0, r0, r3
 535 000c C0B2     		uxtb	r0, r0
 420:Generated_Source\PSoC4/Comp_0.c **** }
 536              		.loc 1 420 0
 537              		@ sp needed
 538 000e 7047     		bx	lr
 539              	.L43:
 540              		.align	2
 541              	.L42:
 542 0010 04002B40 		.word	1076559876
 543              		.cfi_endproc
ARM GAS  C:\Users\JamesN4\AppData\Local\Temp\ccf2QNpA.s 			page 18


 544              	.LFE13:
 545              		.size	Comp_0_GetCompare, .-Comp_0_GetCompare
 546              		.section	.text.Comp_0_ZeroCal,"ax",%progbits
 547              		.align	2
 548              		.global	Comp_0_ZeroCal
 549              		.code	16
 550              		.thumb_func
 551              		.type	Comp_0_ZeroCal, %function
 552              	Comp_0_ZeroCal:
 553              	.LFB14:
 421:Generated_Source\PSoC4/Comp_0.c **** 
 422:Generated_Source\PSoC4/Comp_0.c **** 
 423:Generated_Source\PSoC4/Comp_0.c **** /*******************************************************************************
 424:Generated_Source\PSoC4/Comp_0.c **** * Function Name: Comp_0_ZeroCal
 425:Generated_Source\PSoC4/Comp_0.c **** ********************************************************************************
 426:Generated_Source\PSoC4/Comp_0.c **** *
 427:Generated_Source\PSoC4/Comp_0.c **** * Summary:
 428:Generated_Source\PSoC4/Comp_0.c **** *  Performs custom calibration of the input offset to minimize error for a
 429:Generated_Source\PSoC4/Comp_0.c **** *  specific set of conditions: comparator reference voltage, supply voltage,
 430:Generated_Source\PSoC4/Comp_0.c **** *  and operating temperature. A reference voltage in the range at which the
 431:Generated_Source\PSoC4/Comp_0.c **** *  comparator will be used must be applied to one of the inputs. The two inputs
 432:Generated_Source\PSoC4/Comp_0.c **** *  will be shorted internally to perform the offset calibration.
 433:Generated_Source\PSoC4/Comp_0.c **** *
 434:Generated_Source\PSoC4/Comp_0.c **** * Parameters:
 435:Generated_Source\PSoC4/Comp_0.c **** *  None
 436:Generated_Source\PSoC4/Comp_0.c **** *
 437:Generated_Source\PSoC4/Comp_0.c **** * Return:
 438:Generated_Source\PSoC4/Comp_0.c **** *  The value from the comparator trim register after the offset calibration is
 439:Generated_Source\PSoC4/Comp_0.c **** *  complete. This value has the same format as the input parameter for the
 440:Generated_Source\PSoC4/Comp_0.c **** *  Comp_0_LoadTrim() API routine.
 441:Generated_Source\PSoC4/Comp_0.c **** *
 442:Generated_Source\PSoC4/Comp_0.c **** *******************************************************************************/
 443:Generated_Source\PSoC4/Comp_0.c **** uint32 Comp_0_ZeroCal(void)
 444:Generated_Source\PSoC4/Comp_0.c **** {
 554              		.loc 1 444 0
 555              		.cfi_startproc
 556              		@ args = 0, pretend = 0, frame = 0
 557              		@ frame_needed = 0, uses_anonymous_args = 0
 558 0000 70B5     		push	{r4, r5, r6, lr}
 559              		.cfi_def_cfa_offset 16
 560              		.cfi_offset 4, -16
 561              		.cfi_offset 5, -12
 562              		.cfi_offset 6, -8
 563              		.cfi_offset 14, -4
 445:Generated_Source\PSoC4/Comp_0.c ****     uint32 cmpOut;
 446:Generated_Source\PSoC4/Comp_0.c ****     uint32 i;
 447:Generated_Source\PSoC4/Comp_0.c **** 
 448:Generated_Source\PSoC4/Comp_0.c ****     Comp_0_DFT_REG |= Comp_0_DFT_CAL_EN;
 564              		.loc 1 448 0
 565 0002 254A     		ldr	r2, .L53
 566 0004 1168     		ldr	r1, [r2]
 567 0006 0123     		movs	r3, #1
 568 0008 0B43     		orrs	r3, r1
 569 000a 1360     		str	r3, [r2]
 449:Generated_Source\PSoC4/Comp_0.c ****     Comp_0_TRIMA_REG = 0u;
 570              		.loc 1 449 0
 571 000c 0023     		movs	r3, #0
ARM GAS  C:\Users\JamesN4\AppData\Local\Temp\ccf2QNpA.s 			page 19


 572 000e 234A     		ldr	r2, .L53+4
 573 0010 1360     		str	r3, [r2]
 450:Generated_Source\PSoC4/Comp_0.c ****     Comp_0_TRIMB_REG = 0u;
 574              		.loc 1 450 0
 575 0012 234A     		ldr	r2, .L53+8
 576 0014 1360     		str	r3, [r2]
 451:Generated_Source\PSoC4/Comp_0.c **** 
 452:Generated_Source\PSoC4/Comp_0.c ****     CyDelayUs(1u);
 577              		.loc 1 452 0
 578 0016 0120     		movs	r0, #1
 579 0018 FFF7FEFF 		bl	CyDelayUs
 580              	.LVL35:
 453:Generated_Source\PSoC4/Comp_0.c **** 
 454:Generated_Source\PSoC4/Comp_0.c ****     cmpOut = Comp_0_GetCompare();
 581              		.loc 1 454 0
 582 001c FFF7FEFF 		bl	Comp_0_GetCompare
 583              	.LVL36:
 584 0020 051E     		subs	r5, r0, #0
 585              	.LVL37:
 455:Generated_Source\PSoC4/Comp_0.c **** 
 456:Generated_Source\PSoC4/Comp_0.c ****     if(0u != cmpOut)
 586              		.loc 1 456 0
 587 0022 02D0     		beq	.L45
 457:Generated_Source\PSoC4/Comp_0.c ****     {
 458:Generated_Source\PSoC4/Comp_0.c ****         Comp_0_TRIMA_REG = ((uint32) 0x01u << Comp_0_TRIMA_SIGNBIT);
 588              		.loc 1 458 0
 589 0024 1022     		movs	r2, #16
 590 0026 1D4B     		ldr	r3, .L53+4
 591 0028 1A60     		str	r2, [r3]
 592              	.L45:
 444:Generated_Source\PSoC4/Comp_0.c ****     uint32 cmpOut;
 593              		.loc 1 444 0 discriminator 1
 594 002a 1024     		movs	r4, #16
 595 002c 0BE0     		b	.L46
 596              	.LVL38:
 597              	.L48:
 459:Generated_Source\PSoC4/Comp_0.c ****     }
 460:Generated_Source\PSoC4/Comp_0.c **** 
 461:Generated_Source\PSoC4/Comp_0.c ****     for(i = (Comp_0_TRIMA_MAX_VALUE +1u ); i != 0u; i--)
 462:Generated_Source\PSoC4/Comp_0.c ****     {
 463:Generated_Source\PSoC4/Comp_0.c ****         Comp_0_TRIMA_REG++;
 598              		.loc 1 463 0
 599 002e 1B4A     		ldr	r2, .L53+4
 600 0030 1368     		ldr	r3, [r2]
 601 0032 0133     		adds	r3, r3, #1
 602 0034 1360     		str	r3, [r2]
 464:Generated_Source\PSoC4/Comp_0.c ****         CyDelayUs(1u);
 603              		.loc 1 464 0
 604 0036 0120     		movs	r0, #1
 605 0038 FFF7FEFF 		bl	CyDelayUs
 606              	.LVL39:
 465:Generated_Source\PSoC4/Comp_0.c ****         if(cmpOut != Comp_0_GetCompare())
 607              		.loc 1 465 0
 608 003c FFF7FEFF 		bl	Comp_0_GetCompare
 609              	.LVL40:
 610 0040 8542     		cmp	r5, r0
 611 0042 02D1     		bne	.L47
ARM GAS  C:\Users\JamesN4\AppData\Local\Temp\ccf2QNpA.s 			page 20


 461:Generated_Source\PSoC4/Comp_0.c ****     {
 612              		.loc 1 461 0 discriminator 2
 613 0044 013C     		subs	r4, r4, #1
 614              	.LVL41:
 615              	.L46:
 461:Generated_Source\PSoC4/Comp_0.c ****     {
 616              		.loc 1 461 0 is_stmt 0 discriminator 1
 617 0046 002C     		cmp	r4, #0
 618 0048 F1D1     		bne	.L48
 619              	.L47:
 466:Generated_Source\PSoC4/Comp_0.c ****         {
 467:Generated_Source\PSoC4/Comp_0.c ****             break;
 468:Generated_Source\PSoC4/Comp_0.c ****         }
 469:Generated_Source\PSoC4/Comp_0.c ****     }
 470:Generated_Source\PSoC4/Comp_0.c **** 
 471:Generated_Source\PSoC4/Comp_0.c ****     if(((uint32)(Comp_0_CONFIG_REG >> Comp_0_CONFIG_REG_SHIFT) &
 620              		.loc 1 471 0 is_stmt 1
 621 004a 164B     		ldr	r3, .L53+12
 622 004c 1B68     		ldr	r3, [r3]
 623 004e 9B07     		lsls	r3, r3, #30
 624 0050 16D1     		bne	.L49
 472:Generated_Source\PSoC4/Comp_0.c ****         Comp_0_SPEED_PARAM_MASK) == Comp_0_MED_SPEED)
 473:Generated_Source\PSoC4/Comp_0.c ****     {
 474:Generated_Source\PSoC4/Comp_0.c ****         cmpOut = Comp_0_GetCompare();
 625              		.loc 1 474 0
 626 0052 FFF7FEFF 		bl	Comp_0_GetCompare
 627              	.LVL42:
 628 0056 051E     		subs	r5, r0, #0
 629              	.LVL43:
 475:Generated_Source\PSoC4/Comp_0.c **** 
 476:Generated_Source\PSoC4/Comp_0.c ****         if(0u == cmpOut)
 630              		.loc 1 476 0
 631 0058 02D1     		bne	.L50
 477:Generated_Source\PSoC4/Comp_0.c ****         {
 478:Generated_Source\PSoC4/Comp_0.c ****             Comp_0_TRIMB_REG = ((uint32)1u << Comp_0_TRIMB_SIGNBIT);
 632              		.loc 1 478 0
 633 005a 1022     		movs	r2, #16
 634 005c 104B     		ldr	r3, .L53+8
 635 005e 1A60     		str	r2, [r3]
 636              	.L50:
 444:Generated_Source\PSoC4/Comp_0.c ****     uint32 cmpOut;
 637              		.loc 1 444 0 discriminator 1
 638 0060 1024     		movs	r4, #16
 639              	.LVL44:
 640 0062 0BE0     		b	.L51
 641              	.LVL45:
 642              	.L52:
 479:Generated_Source\PSoC4/Comp_0.c ****         }
 480:Generated_Source\PSoC4/Comp_0.c **** 
 481:Generated_Source\PSoC4/Comp_0.c ****         for(i = (Comp_0_TRIMB_MAX_VALUE +1u ); i != 0u; i--)
 482:Generated_Source\PSoC4/Comp_0.c ****         {
 483:Generated_Source\PSoC4/Comp_0.c ****             Comp_0_TRIMB_REG++;
 643              		.loc 1 483 0
 644 0064 0E4A     		ldr	r2, .L53+8
 645 0066 1368     		ldr	r3, [r2]
 646 0068 0133     		adds	r3, r3, #1
 647 006a 1360     		str	r3, [r2]
ARM GAS  C:\Users\JamesN4\AppData\Local\Temp\ccf2QNpA.s 			page 21


 484:Generated_Source\PSoC4/Comp_0.c ****             CyDelayUs(1u);
 648              		.loc 1 484 0
 649 006c 0120     		movs	r0, #1
 650 006e FFF7FEFF 		bl	CyDelayUs
 651              	.LVL46:
 485:Generated_Source\PSoC4/Comp_0.c ****             if(cmpOut != Comp_0_GetCompare())
 652              		.loc 1 485 0
 653 0072 FFF7FEFF 		bl	Comp_0_GetCompare
 654              	.LVL47:
 655 0076 8542     		cmp	r5, r0
 656 0078 02D1     		bne	.L49
 481:Generated_Source\PSoC4/Comp_0.c ****         {
 657              		.loc 1 481 0 discriminator 2
 658 007a 013C     		subs	r4, r4, #1
 659              	.LVL48:
 660              	.L51:
 481:Generated_Source\PSoC4/Comp_0.c ****         {
 661              		.loc 1 481 0 is_stmt 0 discriminator 1
 662 007c 002C     		cmp	r4, #0
 663 007e F1D1     		bne	.L52
 664              	.L49:
 486:Generated_Source\PSoC4/Comp_0.c ****             {
 487:Generated_Source\PSoC4/Comp_0.c ****                 break;
 488:Generated_Source\PSoC4/Comp_0.c ****             }
 489:Generated_Source\PSoC4/Comp_0.c ****         }
 490:Generated_Source\PSoC4/Comp_0.c ****     }
 491:Generated_Source\PSoC4/Comp_0.c **** 
 492:Generated_Source\PSoC4/Comp_0.c ****     Comp_0_DFT_REG &= ((uint32)~Comp_0_DFT_CAL_EN);
 665              		.loc 1 492 0 is_stmt 1
 666 0080 054A     		ldr	r2, .L53
 667 0082 1368     		ldr	r3, [r2]
 668 0084 0121     		movs	r1, #1
 669 0086 8B43     		bics	r3, r1
 670 0088 1360     		str	r3, [r2]
 493:Generated_Source\PSoC4/Comp_0.c **** 
 494:Generated_Source\PSoC4/Comp_0.c ****     return (Comp_0_TRIMA_REG | ((uint32)Comp_0_TRIMB_REG << Comp_0_TRIMB_SHIFT));
 671              		.loc 1 494 0
 672 008a 044B     		ldr	r3, .L53+4
 673 008c 1B68     		ldr	r3, [r3]
 674 008e 044A     		ldr	r2, .L53+8
 675 0090 1068     		ldr	r0, [r2]
 676 0092 0002     		lsls	r0, r0, #8
 677 0094 1843     		orrs	r0, r3
 495:Generated_Source\PSoC4/Comp_0.c **** }
 678              		.loc 1 495 0
 679              		@ sp needed
 680              	.LVL49:
 681              	.LVL50:
 682 0096 70BD     		pop	{r4, r5, r6, pc}
 683              	.L54:
 684              		.align	2
 685              	.L53:
 686 0098 08002B40 		.word	1076559880
 687 009c 00FF2B40 		.word	1076625152
 688 00a0 04FF2B40 		.word	1076625156
 689 00a4 04002B40 		.word	1076559876
 690              		.cfi_endproc
ARM GAS  C:\Users\JamesN4\AppData\Local\Temp\ccf2QNpA.s 			page 22


 691              	.LFE14:
 692              		.size	Comp_0_ZeroCal, .-Comp_0_ZeroCal
 693              		.section	.text.Comp_0_LoadTrim,"ax",%progbits
 694              		.align	2
 695              		.global	Comp_0_LoadTrim
 696              		.code	16
 697              		.thumb_func
 698              		.type	Comp_0_LoadTrim, %function
 699              	Comp_0_LoadTrim:
 700              	.LFB15:
 496:Generated_Source\PSoC4/Comp_0.c **** 
 497:Generated_Source\PSoC4/Comp_0.c **** 
 498:Generated_Source\PSoC4/Comp_0.c **** /*******************************************************************************
 499:Generated_Source\PSoC4/Comp_0.c **** * Function Name: Comp_0_LoadTrim
 500:Generated_Source\PSoC4/Comp_0.c **** ********************************************************************************
 501:Generated_Source\PSoC4/Comp_0.c **** *
 502:Generated_Source\PSoC4/Comp_0.c **** * Summary:
 503:Generated_Source\PSoC4/Comp_0.c **** *  This function writes a value into the comparator offset trim register.
 504:Generated_Source\PSoC4/Comp_0.c **** *
 505:Generated_Source\PSoC4/Comp_0.c **** * Parameters:
 506:Generated_Source\PSoC4/Comp_0.c **** *  trimVal: Value to be stored in the comparator offset trim register. This
 507:Generated_Source\PSoC4/Comp_0.c **** *  value has the same format as the parameter returned by the
 508:Generated_Source\PSoC4/Comp_0.c **** *  Comp_0_ZeroCal() API routine.
 509:Generated_Source\PSoC4/Comp_0.c **** *
 510:Generated_Source\PSoC4/Comp_0.c **** * Return:
 511:Generated_Source\PSoC4/Comp_0.c **** *  None
 512:Generated_Source\PSoC4/Comp_0.c **** *
 513:Generated_Source\PSoC4/Comp_0.c **** *******************************************************************************/
 514:Generated_Source\PSoC4/Comp_0.c **** void Comp_0_LoadTrim(uint32 trimVal)
 515:Generated_Source\PSoC4/Comp_0.c **** {
 701              		.loc 1 515 0
 702              		.cfi_startproc
 703              		@ args = 0, pretend = 0, frame = 0
 704              		@ frame_needed = 0, uses_anonymous_args = 0
 705              		@ link register save eliminated.
 706              	.LVL51:
 516:Generated_Source\PSoC4/Comp_0.c ****     Comp_0_TRIMA_REG = (trimVal & Comp_0_TRIMA_MASK);
 707              		.loc 1 516 0
 708 0000 1F23     		movs	r3, #31
 709 0002 1900     		movs	r1, r3
 710 0004 0140     		ands	r1, r0
 711 0006 034A     		ldr	r2, .L56
 712 0008 1160     		str	r1, [r2]
 517:Generated_Source\PSoC4/Comp_0.c ****     Comp_0_TRIMB_REG = ((trimVal >> Comp_0_TRIMB_SHIFT) & Comp_0_TRIMB_MASK);
 713              		.loc 1 517 0
 714 000a 000A     		lsrs	r0, r0, #8
 715              	.LVL52:
 716 000c 1840     		ands	r0, r3
 717 000e 024B     		ldr	r3, .L56+4
 718 0010 1860     		str	r0, [r3]
 518:Generated_Source\PSoC4/Comp_0.c **** }
 719              		.loc 1 518 0
 720              		@ sp needed
 721 0012 7047     		bx	lr
 722              	.L57:
 723              		.align	2
 724              	.L56:
ARM GAS  C:\Users\JamesN4\AppData\Local\Temp\ccf2QNpA.s 			page 23


 725 0014 00FF2B40 		.word	1076625152
 726 0018 04FF2B40 		.word	1076625156
 727              		.cfi_endproc
 728              	.LFE15:
 729              		.size	Comp_0_LoadTrim, .-Comp_0_LoadTrim
 730              		.section	.text.Comp_0_SetOutputMode,"ax",%progbits
 731              		.align	2
 732              		.global	Comp_0_SetOutputMode
 733              		.code	16
 734              		.thumb_func
 735              		.type	Comp_0_SetOutputMode, %function
 736              	Comp_0_SetOutputMode:
 737              	.LFB16:
 519:Generated_Source\PSoC4/Comp_0.c **** 
 520:Generated_Source\PSoC4/Comp_0.c **** 
 521:Generated_Source\PSoC4/Comp_0.c **** #if (Comp_0_CY_LPCOMP_V2)
 522:Generated_Source\PSoC4/Comp_0.c ****     
 523:Generated_Source\PSoC4/Comp_0.c **** /*******************************************************************************
 524:Generated_Source\PSoC4/Comp_0.c **** * Function Name: Comp_0_SetOutputMode
 525:Generated_Source\PSoC4/Comp_0.c **** ********************************************************************************
 526:Generated_Source\PSoC4/Comp_0.c **** *
 527:Generated_Source\PSoC4/Comp_0.c **** * Summary:
 528:Generated_Source\PSoC4/Comp_0.c **** *  Set comparator output mode. 
 529:Generated_Source\PSoC4/Comp_0.c **** *
 530:Generated_Source\PSoC4/Comp_0.c **** * Parameters:
 531:Generated_Source\PSoC4/Comp_0.c **** *  uint32 mode: Comparator output mode value
 532:Generated_Source\PSoC4/Comp_0.c **** *  Comp_0_OUT_DIRECT - Direct output
 533:Generated_Source\PSoC4/Comp_0.c **** *  Comp_0_OUT_SYNC   - Synchronized output
 534:Generated_Source\PSoC4/Comp_0.c **** *  Comp_0_OUT_PULSE  - Pulse output
 535:Generated_Source\PSoC4/Comp_0.c **** *
 536:Generated_Source\PSoC4/Comp_0.c **** * Return:
 537:Generated_Source\PSoC4/Comp_0.c **** *  None
 538:Generated_Source\PSoC4/Comp_0.c **** *
 539:Generated_Source\PSoC4/Comp_0.c **** *******************************************************************************/
 540:Generated_Source\PSoC4/Comp_0.c **** void Comp_0_SetOutputMode(uint32 mode)
 541:Generated_Source\PSoC4/Comp_0.c **** {
 738              		.loc 1 541 0
 739              		.cfi_startproc
 740              		@ args = 0, pretend = 0, frame = 0
 741              		@ frame_needed = 0, uses_anonymous_args = 0
 742              	.LVL53:
 743 0000 10B5     		push	{r4, lr}
 744              		.cfi_def_cfa_offset 8
 745              		.cfi_offset 4, -8
 746              		.cfi_offset 14, -4
 747 0002 0400     		movs	r4, r0
 542:Generated_Source\PSoC4/Comp_0.c ****     uint32 config;
 543:Generated_Source\PSoC4/Comp_0.c ****     uint8 enableInterrupts;
 544:Generated_Source\PSoC4/Comp_0.c ****     
 545:Generated_Source\PSoC4/Comp_0.c ****     enableInterrupts = CyEnterCriticalSection();
 748              		.loc 1 545 0
 749 0004 FFF7FEFF 		bl	CyEnterCriticalSection
 750              	.LVL54:
 546:Generated_Source\PSoC4/Comp_0.c ****     config = Comp_0_CONFIG_REG & ((uint32)~(Comp_0_CONFIG_DSI_BYPASS | \
 751              		.loc 1 546 0
 752 0008 0A4B     		ldr	r3, .L61
 753 000a 1968     		ldr	r1, [r3]
ARM GAS  C:\Users\JamesN4\AppData\Local\Temp\ccf2QNpA.s 			page 24


 754 000c 0A4A     		ldr	r2, .L61+4
 755 000e 1140     		ands	r1, r2
 756              	.LVL55:
 547:Generated_Source\PSoC4/Comp_0.c ****                                                      Comp_0_CONFIG_DSI_LEVEL));
 548:Generated_Source\PSoC4/Comp_0.c ****     Comp_0_CONFIG_REG = config | Comp_0_GET_CONFIG_DSI_BYPASS(mode) | \
 757              		.loc 1 548 0
 758 0010 0223     		movs	r3, #2
 759 0012 2340     		ands	r3, r4
 760 0014 01D0     		beq	.L59
 761 0016 8023     		movs	r3, #128
 762 0018 5B02     		lsls	r3, r3, #9
 763              	.L59:
 764              		.loc 1 548 0 is_stmt 0 discriminator 4
 765 001a 0B43     		orrs	r3, r1
 766 001c 1A00     		movs	r2, r3
 549:Generated_Source\PSoC4/Comp_0.c ****                                            Comp_0_GET_CONFIG_DSI_LEVEL(mode);
 767              		.loc 1 549 0 is_stmt 1 discriminator 4
 768 001e 0123     		movs	r3, #1
 769 0020 2340     		ands	r3, r4
 770 0022 01D0     		beq	.L60
 771              		.loc 1 549 0 is_stmt 0
 772 0024 8023     		movs	r3, #128
 773 0026 9B02     		lsls	r3, r3, #10
 774              	.L60:
 548:Generated_Source\PSoC4/Comp_0.c ****                                            Comp_0_GET_CONFIG_DSI_LEVEL(mode);
 775              		.loc 1 548 0 is_stmt 1
 776 0028 1343     		orrs	r3, r2
 777 002a 024A     		ldr	r2, .L61
 778 002c 1360     		str	r3, [r2]
 550:Generated_Source\PSoC4/Comp_0.c ****     CyExitCriticalSection(enableInterrupts);
 779              		.loc 1 550 0
 780 002e FFF7FEFF 		bl	CyExitCriticalSection
 781              	.LVL56:
 551:Generated_Source\PSoC4/Comp_0.c **** }
 782              		.loc 1 551 0
 783              		@ sp needed
 784              	.LVL57:
 785 0032 10BD     		pop	{r4, pc}
 786              	.L62:
 787              		.align	2
 788              	.L61:
 789 0034 04002B40 		.word	1076559876
 790 0038 FFFFFCFF 		.word	-196609
 791              		.cfi_endproc
 792              	.LFE16:
 793              		.size	Comp_0_SetOutputMode, .-Comp_0_SetOutputMode
 794              		.section	.text.Comp_0_SetInterruptMask,"ax",%progbits
 795              		.align	2
 796              		.global	Comp_0_SetInterruptMask
 797              		.code	16
 798              		.thumb_func
 799              		.type	Comp_0_SetInterruptMask, %function
 800              	Comp_0_SetInterruptMask:
 801              	.LFB17:
 552:Generated_Source\PSoC4/Comp_0.c **** 
 553:Generated_Source\PSoC4/Comp_0.c **** 
 554:Generated_Source\PSoC4/Comp_0.c **** /*******************************************************************************
ARM GAS  C:\Users\JamesN4\AppData\Local\Temp\ccf2QNpA.s 			page 25


 555:Generated_Source\PSoC4/Comp_0.c **** * Function Name: Comp_0_SetInterruptMask
 556:Generated_Source\PSoC4/Comp_0.c **** ********************************************************************************
 557:Generated_Source\PSoC4/Comp_0.c **** *
 558:Generated_Source\PSoC4/Comp_0.c **** * Summary:
 559:Generated_Source\PSoC4/Comp_0.c **** *  Configures which bits of interrupt request register will trigger an interrupt 
 560:Generated_Source\PSoC4/Comp_0.c **** *  event.
 561:Generated_Source\PSoC4/Comp_0.c **** *
 562:Generated_Source\PSoC4/Comp_0.c **** * Parameters:
 563:Generated_Source\PSoC4/Comp_0.c **** *  uint32 interruptMask: Mask of interrupts to set. Each component instance has
 564:Generated_Source\PSoC4/Comp_0.c **** *  a mask value: Comp_0_INTR_MASK.
 565:Generated_Source\PSoC4/Comp_0.c **** *
 566:Generated_Source\PSoC4/Comp_0.c **** * Return:
 567:Generated_Source\PSoC4/Comp_0.c **** *  None
 568:Generated_Source\PSoC4/Comp_0.c **** *
 569:Generated_Source\PSoC4/Comp_0.c **** *******************************************************************************/
 570:Generated_Source\PSoC4/Comp_0.c **** void Comp_0_SetInterruptMask(uint32 interruptMask)
 571:Generated_Source\PSoC4/Comp_0.c **** {
 802              		.loc 1 571 0
 803              		.cfi_startproc
 804              		@ args = 0, pretend = 0, frame = 0
 805              		@ frame_needed = 0, uses_anonymous_args = 0
 806              		@ link register save eliminated.
 807              	.LVL58:
 572:Generated_Source\PSoC4/Comp_0.c ****     #if(CY_IP_SRSSV2)
 573:Generated_Source\PSoC4/Comp_0.c ****         Comp_0_intrMaskRegState = interruptMask;
 808              		.loc 1 573 0
 809 0000 024B     		ldr	r3, .L64
 810 0002 1860     		str	r0, [r3]
 574:Generated_Source\PSoC4/Comp_0.c ****     #endif /* (CY_IP_SRSSV2) */
 575:Generated_Source\PSoC4/Comp_0.c ****     
 576:Generated_Source\PSoC4/Comp_0.c ****     Comp_0_INTR_MASK_REG = interruptMask;
 811              		.loc 1 576 0
 812 0004 024B     		ldr	r3, .L64+4
 813 0006 1860     		str	r0, [r3]
 577:Generated_Source\PSoC4/Comp_0.c **** }
 814              		.loc 1 577 0
 815              		@ sp needed
 816 0008 7047     		bx	lr
 817              	.L65:
 818 000a C046     		.align	2
 819              	.L64:
 820 000c 00000000 		.word	.LANCHOR1
 821 0010 18002B40 		.word	1076559896
 822              		.cfi_endproc
 823              	.LFE17:
 824              		.size	Comp_0_SetInterruptMask, .-Comp_0_SetInterruptMask
 825              		.section	.text.Comp_0_GetInterruptMask,"ax",%progbits
 826              		.align	2
 827              		.global	Comp_0_GetInterruptMask
 828              		.code	16
 829              		.thumb_func
 830              		.type	Comp_0_GetInterruptMask, %function
 831              	Comp_0_GetInterruptMask:
 832              	.LFB18:
 578:Generated_Source\PSoC4/Comp_0.c **** 
 579:Generated_Source\PSoC4/Comp_0.c **** 
 580:Generated_Source\PSoC4/Comp_0.c **** /*******************************************************************************
ARM GAS  C:\Users\JamesN4\AppData\Local\Temp\ccf2QNpA.s 			page 26


 581:Generated_Source\PSoC4/Comp_0.c **** * Function Name: Comp_0_GetInterruptMask
 582:Generated_Source\PSoC4/Comp_0.c **** ********************************************************************************
 583:Generated_Source\PSoC4/Comp_0.c **** *
 584:Generated_Source\PSoC4/Comp_0.c **** * Summary:
 585:Generated_Source\PSoC4/Comp_0.c **** *  Returns interrupt mask.
 586:Generated_Source\PSoC4/Comp_0.c **** *
 587:Generated_Source\PSoC4/Comp_0.c **** * Parameters:
 588:Generated_Source\PSoC4/Comp_0.c **** *  None
 589:Generated_Source\PSoC4/Comp_0.c **** *
 590:Generated_Source\PSoC4/Comp_0.c **** * Return:
 591:Generated_Source\PSoC4/Comp_0.c **** *  uint32:  Mask of enabled interrupt source. Each component instance 
 592:Generated_Source\PSoC4/Comp_0.c **** *  has a mask value: Comp_0_INTR_MASK.
 593:Generated_Source\PSoC4/Comp_0.c **** *
 594:Generated_Source\PSoC4/Comp_0.c **** *******************************************************************************/
 595:Generated_Source\PSoC4/Comp_0.c **** uint32 Comp_0_GetInterruptMask(void)
 596:Generated_Source\PSoC4/Comp_0.c **** {
 833              		.loc 1 596 0
 834              		.cfi_startproc
 835              		@ args = 0, pretend = 0, frame = 0
 836              		@ frame_needed = 0, uses_anonymous_args = 0
 837              		@ link register save eliminated.
 597:Generated_Source\PSoC4/Comp_0.c ****     return (Comp_0_INTR_MASK_REG);
 838              		.loc 1 597 0
 839 0000 014B     		ldr	r3, .L67
 840 0002 1868     		ldr	r0, [r3]
 598:Generated_Source\PSoC4/Comp_0.c **** }
 841              		.loc 1 598 0
 842              		@ sp needed
 843 0004 7047     		bx	lr
 844              	.L68:
 845 0006 C046     		.align	2
 846              	.L67:
 847 0008 18002B40 		.word	1076559896
 848              		.cfi_endproc
 849              	.LFE18:
 850              		.size	Comp_0_GetInterruptMask, .-Comp_0_GetInterruptMask
 851              		.section	.text.Comp_0_GetInterruptSourceMasked,"ax",%progbits
 852              		.align	2
 853              		.global	Comp_0_GetInterruptSourceMasked
 854              		.code	16
 855              		.thumb_func
 856              		.type	Comp_0_GetInterruptSourceMasked, %function
 857              	Comp_0_GetInterruptSourceMasked:
 858              	.LFB19:
 599:Generated_Source\PSoC4/Comp_0.c **** 
 600:Generated_Source\PSoC4/Comp_0.c **** 
 601:Generated_Source\PSoC4/Comp_0.c **** /*******************************************************************************
 602:Generated_Source\PSoC4/Comp_0.c **** * Function Name: Comp_0_GetInterruptSourceMasked
 603:Generated_Source\PSoC4/Comp_0.c **** ********************************************************************************
 604:Generated_Source\PSoC4/Comp_0.c **** *
 605:Generated_Source\PSoC4/Comp_0.c **** * Summary:
 606:Generated_Source\PSoC4/Comp_0.c **** *  Returns interrupt request register masked by interrupt mask. Returns the result 
 607:Generated_Source\PSoC4/Comp_0.c **** *  of bitwise AND operation between corresponding interrupt request and mask bits.
 608:Generated_Source\PSoC4/Comp_0.c **** *
 609:Generated_Source\PSoC4/Comp_0.c **** * Parameters:
 610:Generated_Source\PSoC4/Comp_0.c **** *  None
 611:Generated_Source\PSoC4/Comp_0.c **** *
ARM GAS  C:\Users\JamesN4\AppData\Local\Temp\ccf2QNpA.s 			page 27


 612:Generated_Source\PSoC4/Comp_0.c **** * Return:
 613:Generated_Source\PSoC4/Comp_0.c **** *  uint32: Status of enabled interrupt source. Each component instance 
 614:Generated_Source\PSoC4/Comp_0.c **** *  has a mask value: Comp_0_INTR_MASKED.
 615:Generated_Source\PSoC4/Comp_0.c **** *
 616:Generated_Source\PSoC4/Comp_0.c **** *******************************************************************************/
 617:Generated_Source\PSoC4/Comp_0.c **** uint32 Comp_0_GetInterruptSourceMasked(void)
 618:Generated_Source\PSoC4/Comp_0.c **** {
 859              		.loc 1 618 0
 860              		.cfi_startproc
 861              		@ args = 0, pretend = 0, frame = 0
 862              		@ frame_needed = 0, uses_anonymous_args = 0
 863              		@ link register save eliminated.
 619:Generated_Source\PSoC4/Comp_0.c ****     return (Comp_0_INTR_MASKED_REG);
 864              		.loc 1 619 0
 865 0000 014B     		ldr	r3, .L70
 866 0002 1868     		ldr	r0, [r3]
 620:Generated_Source\PSoC4/Comp_0.c **** }
 867              		.loc 1 620 0
 868              		@ sp needed
 869 0004 7047     		bx	lr
 870              	.L71:
 871 0006 C046     		.align	2
 872              	.L70:
 873 0008 1C002B40 		.word	1076559900
 874              		.cfi_endproc
 875              	.LFE19:
 876              		.size	Comp_0_GetInterruptSourceMasked, .-Comp_0_GetInterruptSourceMasked
 877              		.global	Comp_0_initVar
 878              		.section	.noinit,"aw",%progbits
 879              		.align	2
 880              		.set	.LANCHOR1,. + 0
 881              		.type	Comp_0_intrMaskRegState, %object
 882              		.size	Comp_0_intrMaskRegState, 4
 883              	Comp_0_intrMaskRegState:
 884 0000 00000000 		.space	4
 885              		.bss
 886              		.align	2
 887              		.set	.LANCHOR0,. + 0
 888              		.type	Comp_0_internalIntr, %object
 889              		.size	Comp_0_internalIntr, 4
 890              	Comp_0_internalIntr:
 891 0000 00000000 		.space	4
 892              		.type	Comp_0_initVar, %object
 893              		.size	Comp_0_initVar, 1
 894              	Comp_0_initVar:
 895 0004 00       		.space	1
 896              		.text
 897              	.Letext0:
 898              		.file 2 "Generated_Source\\PSoC4\\cytypes.h"
 899              		.file 3 "Generated_Source\\PSoC4\\CyLib.h"
 900              		.file 4 "Generated_Source\\PSoC4\\cyPm.h"