ARM GAS  C:\Users\JamesN4\AppData\Local\Temp\ccPxhuv7.s 			page 1


   1              		.syntax unified
   2              		.cpu cortex-m0
   3              		.fpu softvfp
   4              		.eabi_attribute 20, 1
   5              		.eabi_attribute 21, 1
   6              		.eabi_attribute 23, 3
   7              		.eabi_attribute 24, 1
   8              		.eabi_attribute 25, 1
   9              		.eabi_attribute 26, 1
  10              		.eabi_attribute 30, 1
  11              		.eabi_attribute 34, 0
  12              		.eabi_attribute 18, 4
  13              		.thumb
  14              		.syntax unified
  15              		.file	"Comp_1.c"
  16              		.text
  17              	.Ltext0:
  18              		.cfi_sections	.debug_frame
  19              		.section	.text.Comp_1_Init,"ax",%progbits
  20              		.align	2
  21              		.global	Comp_1_Init
  22              		.code	16
  23              		.thumb_func
  24              		.type	Comp_1_Init, %function
  25              	Comp_1_Init:
  26              	.LFB3:
  27              		.file 1 "Generated_Source\\PSoC4\\Comp_1.c"
   1:Generated_Source\PSoC4/Comp_1.c **** /*******************************************************************************
   2:Generated_Source\PSoC4/Comp_1.c **** * File Name: Comp_1.c
   3:Generated_Source\PSoC4/Comp_1.c **** * Version 2.20
   4:Generated_Source\PSoC4/Comp_1.c **** *
   5:Generated_Source\PSoC4/Comp_1.c **** * Description:
   6:Generated_Source\PSoC4/Comp_1.c **** *  This file provides the source code to the API for the Low Power Comparator
   7:Generated_Source\PSoC4/Comp_1.c **** *  component.
   8:Generated_Source\PSoC4/Comp_1.c **** *
   9:Generated_Source\PSoC4/Comp_1.c **** * Note:
  10:Generated_Source\PSoC4/Comp_1.c **** *  None
  11:Generated_Source\PSoC4/Comp_1.c **** *
  12:Generated_Source\PSoC4/Comp_1.c **** ********************************************************************************
  13:Generated_Source\PSoC4/Comp_1.c **** * Copyright 2013-2016, Cypress Semiconductor Corporation.  All rights reserved.
  14:Generated_Source\PSoC4/Comp_1.c **** * You may use this file only in accordance with the license, terms, conditions,
  15:Generated_Source\PSoC4/Comp_1.c **** * disclaimers, and limitations in the end user license agreement accompanying
  16:Generated_Source\PSoC4/Comp_1.c **** * the software package with which this file was provided.
  17:Generated_Source\PSoC4/Comp_1.c **** *******************************************************************************/
  18:Generated_Source\PSoC4/Comp_1.c **** 
  19:Generated_Source\PSoC4/Comp_1.c **** #include "Comp_1.h"
  20:Generated_Source\PSoC4/Comp_1.c **** #include "CyLib.h"
  21:Generated_Source\PSoC4/Comp_1.c **** #include "cyPm.h"
  22:Generated_Source\PSoC4/Comp_1.c **** 
  23:Generated_Source\PSoC4/Comp_1.c **** uint8 Comp_1_initVar = 0u;
  24:Generated_Source\PSoC4/Comp_1.c **** static uint32 Comp_1_internalIntr = 0u;
  25:Generated_Source\PSoC4/Comp_1.c **** #if(Comp_1_CY_LPCOMP_V2)
  26:Generated_Source\PSoC4/Comp_1.c ****     #if(CY_IP_SRSSV2)
  27:Generated_Source\PSoC4/Comp_1.c ****         /* This variable saves INTR_MASK register since it get reset after wakeup 
  28:Generated_Source\PSoC4/Comp_1.c ****         * from Hibernate. Attribute CY_NOINIT puts SRAM variable in memory section 
  29:Generated_Source\PSoC4/Comp_1.c ****         * which is retained in low power modes 
  30:Generated_Source\PSoC4/Comp_1.c ****         */
ARM GAS  C:\Users\JamesN4\AppData\Local\Temp\ccPxhuv7.s 			page 2


  31:Generated_Source\PSoC4/Comp_1.c ****         CY_NOINIT static uint32 Comp_1_intrMaskRegState;
  32:Generated_Source\PSoC4/Comp_1.c ****     #endif /* (CY_IP_SRSSV2) */
  33:Generated_Source\PSoC4/Comp_1.c **** #endif /* (Comp_1_CY_LPCOMP_V2) */
  34:Generated_Source\PSoC4/Comp_1.c **** 
  35:Generated_Source\PSoC4/Comp_1.c **** 
  36:Generated_Source\PSoC4/Comp_1.c **** /*******************************************************************************
  37:Generated_Source\PSoC4/Comp_1.c **** * Function Name: Comp_1_Start
  38:Generated_Source\PSoC4/Comp_1.c **** ********************************************************************************
  39:Generated_Source\PSoC4/Comp_1.c **** *
  40:Generated_Source\PSoC4/Comp_1.c **** * Summary:
  41:Generated_Source\PSoC4/Comp_1.c **** *  Performs all of the required initialization for the component and enables
  42:Generated_Source\PSoC4/Comp_1.c **** *  power to the block. The first time the routine is executed, the component is
  43:Generated_Source\PSoC4/Comp_1.c **** *  initialized to the configuration from the customizer. When called to restart
  44:Generated_Source\PSoC4/Comp_1.c **** *  the comparator following a Comp_1_Stop() call, the current
  45:Generated_Source\PSoC4/Comp_1.c **** *  component parameter settings are retained.
  46:Generated_Source\PSoC4/Comp_1.c **** *
  47:Generated_Source\PSoC4/Comp_1.c **** * Parameters:
  48:Generated_Source\PSoC4/Comp_1.c **** *   None
  49:Generated_Source\PSoC4/Comp_1.c **** *
  50:Generated_Source\PSoC4/Comp_1.c **** * Return:
  51:Generated_Source\PSoC4/Comp_1.c **** *  None
  52:Generated_Source\PSoC4/Comp_1.c **** *
  53:Generated_Source\PSoC4/Comp_1.c **** * Global variables:
  54:Generated_Source\PSoC4/Comp_1.c **** *  Comp_1_initVar: Is modified when this function is called for the
  55:Generated_Source\PSoC4/Comp_1.c **** *   first time. Is used to ensure that initialization happens only once.
  56:Generated_Source\PSoC4/Comp_1.c **** *
  57:Generated_Source\PSoC4/Comp_1.c **** *******************************************************************************/
  58:Generated_Source\PSoC4/Comp_1.c **** void Comp_1_Start(void)
  59:Generated_Source\PSoC4/Comp_1.c **** {
  60:Generated_Source\PSoC4/Comp_1.c ****     if(0u == Comp_1_initVar)
  61:Generated_Source\PSoC4/Comp_1.c ****     {
  62:Generated_Source\PSoC4/Comp_1.c ****         Comp_1_Init();
  63:Generated_Source\PSoC4/Comp_1.c ****         Comp_1_initVar = 1u;
  64:Generated_Source\PSoC4/Comp_1.c ****     }
  65:Generated_Source\PSoC4/Comp_1.c ****     Comp_1_Enable();
  66:Generated_Source\PSoC4/Comp_1.c **** }
  67:Generated_Source\PSoC4/Comp_1.c **** 
  68:Generated_Source\PSoC4/Comp_1.c **** 
  69:Generated_Source\PSoC4/Comp_1.c **** /*******************************************************************************
  70:Generated_Source\PSoC4/Comp_1.c **** * Function Name: Comp_1_Init
  71:Generated_Source\PSoC4/Comp_1.c **** ********************************************************************************
  72:Generated_Source\PSoC4/Comp_1.c **** *
  73:Generated_Source\PSoC4/Comp_1.c **** * Summary:
  74:Generated_Source\PSoC4/Comp_1.c **** *  Initializes or restores the component according to the customizer settings.
  75:Generated_Source\PSoC4/Comp_1.c **** *  It is not necessary to call Comp_1_Init() because the
  76:Generated_Source\PSoC4/Comp_1.c **** *  Comp_1_Start() API calls this function and is the preferred method
  77:Generated_Source\PSoC4/Comp_1.c **** *  to begin component operation.
  78:Generated_Source\PSoC4/Comp_1.c **** *
  79:Generated_Source\PSoC4/Comp_1.c **** * Parameters:
  80:Generated_Source\PSoC4/Comp_1.c **** *  None
  81:Generated_Source\PSoC4/Comp_1.c **** *
  82:Generated_Source\PSoC4/Comp_1.c **** * Return:
  83:Generated_Source\PSoC4/Comp_1.c **** *  None
  84:Generated_Source\PSoC4/Comp_1.c **** *
  85:Generated_Source\PSoC4/Comp_1.c **** *******************************************************************************/
  86:Generated_Source\PSoC4/Comp_1.c **** void Comp_1_Init(void)
  87:Generated_Source\PSoC4/Comp_1.c **** {
ARM GAS  C:\Users\JamesN4\AppData\Local\Temp\ccPxhuv7.s 			page 3


  28              		.loc 1 87 0
  29              		.cfi_startproc
  30              		@ args = 0, pretend = 0, frame = 0
  31              		@ frame_needed = 0, uses_anonymous_args = 0
  32 0000 10B5     		push	{r4, lr}
  33              		.cfi_def_cfa_offset 8
  34              		.cfi_offset 4, -8
  35              		.cfi_offset 14, -4
  88:Generated_Source\PSoC4/Comp_1.c ****     uint8 enableInterrupts;
  89:Generated_Source\PSoC4/Comp_1.c **** 
  90:Generated_Source\PSoC4/Comp_1.c ****     enableInterrupts = CyEnterCriticalSection();
  36              		.loc 1 90 0
  37 0002 FFF7FEFF 		bl	CyEnterCriticalSection
  38              	.LVL0:
  39 0006 0400     		movs	r4, r0
  40              	.LVL1:
  91:Generated_Source\PSoC4/Comp_1.c ****     Comp_1_CONFIG_REG |= Comp_1_CONFIG_REG_DEFAULT;
  41              		.loc 1 91 0
  42 0008 0E4A     		ldr	r2, .L4
  43 000a 1368     		ldr	r3, [r2]
  44 000c 0E49     		ldr	r1, .L4+4
  45 000e 0B43     		orrs	r3, r1
  46 0010 1360     		str	r3, [r2]
  92:Generated_Source\PSoC4/Comp_1.c ****     Comp_1_internalIntr = Comp_1_GET_CONFIG_INTR(Comp_1_INTERRUPT);
  47              		.loc 1 92 0
  48 0012 C022     		movs	r2, #192
  49 0014 9201     		lsls	r2, r2, #6
  50 0016 0D4B     		ldr	r3, .L4+8
  51 0018 1A60     		str	r2, [r3]
  93:Generated_Source\PSoC4/Comp_1.c ****     
  94:Generated_Source\PSoC4/Comp_1.c ****     #if (Comp_1_CY_LPCOMP_V2)
  95:Generated_Source\PSoC4/Comp_1.c ****         #if(CY_IP_SRSSV2)
  96:Generated_Source\PSoC4/Comp_1.c ****             if (CySysPmGetResetReason() == CY_PM_RESET_REASON_WAKEUP_HIB)
  52              		.loc 1 96 0
  53 001a FFF7FEFF 		bl	CySysPmGetResetReason
  54              	.LVL2:
  55 001e 0228     		cmp	r0, #2
  56 0020 06D1     		bne	.L2
  97:Generated_Source\PSoC4/Comp_1.c ****             {
  98:Generated_Source\PSoC4/Comp_1.c ****                 /* Restore the INTR_MASK register state since it get reset after 
  99:Generated_Source\PSoC4/Comp_1.c ****                 * wakeup from Hibernate.  
 100:Generated_Source\PSoC4/Comp_1.c ****                 */
 101:Generated_Source\PSoC4/Comp_1.c ****                 Comp_1_INTR_MASK_REG |= Comp_1_intrMaskRegState;  
  57              		.loc 1 101 0
  58 0022 0B4A     		ldr	r2, .L4+12
  59 0024 1168     		ldr	r1, [r2]
  60 0026 0B4B     		ldr	r3, .L4+16
  61 0028 1B68     		ldr	r3, [r3]
  62 002a 0B43     		orrs	r3, r1
  63 002c 1360     		str	r3, [r2]
  64 002e 05E0     		b	.L3
  65              	.L2:
 102:Generated_Source\PSoC4/Comp_1.c ****             }
 103:Generated_Source\PSoC4/Comp_1.c ****             else
 104:Generated_Source\PSoC4/Comp_1.c ****             {
 105:Generated_Source\PSoC4/Comp_1.c ****                 Comp_1_INTR_MASK_REG |= Comp_1_INTR_MASK_REG_DEFAULT;    
  66              		.loc 1 105 0
ARM GAS  C:\Users\JamesN4\AppData\Local\Temp\ccPxhuv7.s 			page 4


  67 0030 074B     		ldr	r3, .L4+12
  68 0032 1A68     		ldr	r2, [r3]
  69 0034 1A60     		str	r2, [r3]
 106:Generated_Source\PSoC4/Comp_1.c ****                 Comp_1_intrMaskRegState = Comp_1_INTR_MASK_REG;
  70              		.loc 1 106 0
  71 0036 1A68     		ldr	r2, [r3]
  72 0038 064B     		ldr	r3, .L4+16
  73 003a 1A60     		str	r2, [r3]
  74              	.L3:
 107:Generated_Source\PSoC4/Comp_1.c ****             }
 108:Generated_Source\PSoC4/Comp_1.c ****         #else
 109:Generated_Source\PSoC4/Comp_1.c ****             Comp_1_INTR_MASK_REG |= Comp_1_INTR_MASK_REG_DEFAULT;
 110:Generated_Source\PSoC4/Comp_1.c ****         #endif /* (Comp_1_CY_LPCOMP_V2) */
 111:Generated_Source\PSoC4/Comp_1.c ****     #endif /* (Comp_1_CY_LPCOMP_V2) */
 112:Generated_Source\PSoC4/Comp_1.c ****     
 113:Generated_Source\PSoC4/Comp_1.c ****     CyExitCriticalSection(enableInterrupts);
  75              		.loc 1 113 0
  76 003c 2000     		movs	r0, r4
  77 003e FFF7FEFF 		bl	CyExitCriticalSection
  78              	.LVL3:
 114:Generated_Source\PSoC4/Comp_1.c **** }
  79              		.loc 1 114 0
  80              		@ sp needed
  81              	.LVL4:
  82 0042 10BD     		pop	{r4, pc}
  83              	.L5:
  84              		.align	2
  85              	.L4:
  86 0044 04002B40 		.word	1076559876
  87 0048 00051000 		.word	1049856
  88 004c 00000000 		.word	.LANCHOR0
  89 0050 18002B40 		.word	1076559896
  90 0054 00000000 		.word	.LANCHOR1
  91              		.cfi_endproc
  92              	.LFE3:
  93              		.size	Comp_1_Init, .-Comp_1_Init
  94              		.section	.text.Comp_1_Enable,"ax",%progbits
  95              		.align	2
  96              		.global	Comp_1_Enable
  97              		.code	16
  98              		.thumb_func
  99              		.type	Comp_1_Enable, %function
 100              	Comp_1_Enable:
 101              	.LFB4:
 115:Generated_Source\PSoC4/Comp_1.c **** 
 116:Generated_Source\PSoC4/Comp_1.c **** 
 117:Generated_Source\PSoC4/Comp_1.c **** /*******************************************************************************
 118:Generated_Source\PSoC4/Comp_1.c **** * Function Name: Comp_1_Enable
 119:Generated_Source\PSoC4/Comp_1.c **** ********************************************************************************
 120:Generated_Source\PSoC4/Comp_1.c **** *
 121:Generated_Source\PSoC4/Comp_1.c **** * Summary:
 122:Generated_Source\PSoC4/Comp_1.c **** *  Activates the hardware and begins component operation. It is not necessary
 123:Generated_Source\PSoC4/Comp_1.c **** *  to call Comp_1_Enable() because the Comp_1_Start() API
 124:Generated_Source\PSoC4/Comp_1.c **** *  calls this function, which is the preferred method to begin component
 125:Generated_Source\PSoC4/Comp_1.c **** *  operation.
 126:Generated_Source\PSoC4/Comp_1.c **** *
 127:Generated_Source\PSoC4/Comp_1.c **** * Parameters:
ARM GAS  C:\Users\JamesN4\AppData\Local\Temp\ccPxhuv7.s 			page 5


 128:Generated_Source\PSoC4/Comp_1.c **** *  None
 129:Generated_Source\PSoC4/Comp_1.c **** *
 130:Generated_Source\PSoC4/Comp_1.c **** * Return:
 131:Generated_Source\PSoC4/Comp_1.c **** *  None
 132:Generated_Source\PSoC4/Comp_1.c **** *
 133:Generated_Source\PSoC4/Comp_1.c **** *******************************************************************************/
 134:Generated_Source\PSoC4/Comp_1.c **** void Comp_1_Enable(void)
 135:Generated_Source\PSoC4/Comp_1.c **** {
 102              		.loc 1 135 0
 103              		.cfi_startproc
 104              		@ args = 0, pretend = 0, frame = 0
 105              		@ frame_needed = 0, uses_anonymous_args = 0
 106 0000 10B5     		push	{r4, lr}
 107              		.cfi_def_cfa_offset 8
 108              		.cfi_offset 4, -8
 109              		.cfi_offset 14, -4
 136:Generated_Source\PSoC4/Comp_1.c ****     uint8 enableInterrupts;
 137:Generated_Source\PSoC4/Comp_1.c ****     
 138:Generated_Source\PSoC4/Comp_1.c ****     enableInterrupts = CyEnterCriticalSection();
 110              		.loc 1 138 0
 111 0002 FFF7FEFF 		bl	CyEnterCriticalSection
 112              	.LVL5:
 139:Generated_Source\PSoC4/Comp_1.c ****     Comp_1_CONFIG_REG |= Comp_1_CONFIG_EN;
 113              		.loc 1 139 0
 114 0006 074B     		ldr	r3, .L7
 115 0008 1A68     		ldr	r2, [r3]
 116 000a 8021     		movs	r1, #128
 117 000c 0902     		lsls	r1, r1, #8
 118 000e 0A43     		orrs	r2, r1
 119 0010 1A60     		str	r2, [r3]
 140:Generated_Source\PSoC4/Comp_1.c ****     
 141:Generated_Source\PSoC4/Comp_1.c ****     /*******************************************************
 142:Generated_Source\PSoC4/Comp_1.c ****     * When the Enable() API is called the CONFIG_EN bit is set. 
 143:Generated_Source\PSoC4/Comp_1.c ****     * This can cause fake interrupt because of the output delay 
 144:Generated_Source\PSoC4/Comp_1.c ****     * of the analog. This requires setting the CONFIG_INTR bits 
 145:Generated_Source\PSoC4/Comp_1.c ****     * after the CONFIG_EN bit is set.
 146:Generated_Source\PSoC4/Comp_1.c ****     *******************************************************/
 147:Generated_Source\PSoC4/Comp_1.c ****     Comp_1_CONFIG_REG |= Comp_1_internalIntr;
 120              		.loc 1 147 0
 121 0012 1968     		ldr	r1, [r3]
 122 0014 044A     		ldr	r2, .L7+4
 123 0016 1268     		ldr	r2, [r2]
 124 0018 0A43     		orrs	r2, r1
 125 001a 1A60     		str	r2, [r3]
 148:Generated_Source\PSoC4/Comp_1.c ****     CyExitCriticalSection(enableInterrupts);
 126              		.loc 1 148 0
 127 001c FFF7FEFF 		bl	CyExitCriticalSection
 128              	.LVL6:
 149:Generated_Source\PSoC4/Comp_1.c **** }
 129              		.loc 1 149 0
 130              		@ sp needed
 131 0020 10BD     		pop	{r4, pc}
 132              	.L8:
 133 0022 C046     		.align	2
 134              	.L7:
 135 0024 04002B40 		.word	1076559876
 136 0028 00000000 		.word	.LANCHOR0
ARM GAS  C:\Users\JamesN4\AppData\Local\Temp\ccPxhuv7.s 			page 6


 137              		.cfi_endproc
 138              	.LFE4:
 139              		.size	Comp_1_Enable, .-Comp_1_Enable
 140              		.section	.text.Comp_1_Start,"ax",%progbits
 141              		.align	2
 142              		.global	Comp_1_Start
 143              		.code	16
 144              		.thumb_func
 145              		.type	Comp_1_Start, %function
 146              	Comp_1_Start:
 147              	.LFB2:
  59:Generated_Source\PSoC4/Comp_1.c ****     if(0u == Comp_1_initVar)
 148              		.loc 1 59 0
 149              		.cfi_startproc
 150              		@ args = 0, pretend = 0, frame = 0
 151              		@ frame_needed = 0, uses_anonymous_args = 0
 152 0000 10B5     		push	{r4, lr}
 153              		.cfi_def_cfa_offset 8
 154              		.cfi_offset 4, -8
 155              		.cfi_offset 14, -4
  60:Generated_Source\PSoC4/Comp_1.c ****     {
 156              		.loc 1 60 0
 157 0002 064B     		ldr	r3, .L11
 158 0004 1B79     		ldrb	r3, [r3, #4]
 159 0006 002B     		cmp	r3, #0
 160 0008 04D1     		bne	.L10
  62:Generated_Source\PSoC4/Comp_1.c ****         Comp_1_initVar = 1u;
 161              		.loc 1 62 0
 162 000a FFF7FEFF 		bl	Comp_1_Init
 163              	.LVL7:
  63:Generated_Source\PSoC4/Comp_1.c ****     }
 164              		.loc 1 63 0
 165 000e 0122     		movs	r2, #1
 166 0010 024B     		ldr	r3, .L11
 167 0012 1A71     		strb	r2, [r3, #4]
 168              	.L10:
  65:Generated_Source\PSoC4/Comp_1.c **** }
 169              		.loc 1 65 0
 170 0014 FFF7FEFF 		bl	Comp_1_Enable
 171              	.LVL8:
  66:Generated_Source\PSoC4/Comp_1.c **** 
 172              		.loc 1 66 0
 173              		@ sp needed
 174 0018 10BD     		pop	{r4, pc}
 175              	.L12:
 176 001a C046     		.align	2
 177              	.L11:
 178 001c 00000000 		.word	.LANCHOR0
 179              		.cfi_endproc
 180              	.LFE2:
 181              		.size	Comp_1_Start, .-Comp_1_Start
 182              		.section	.text.Comp_1_Stop,"ax",%progbits
 183              		.align	2
 184              		.global	Comp_1_Stop
 185              		.code	16
 186              		.thumb_func
 187              		.type	Comp_1_Stop, %function
ARM GAS  C:\Users\JamesN4\AppData\Local\Temp\ccPxhuv7.s 			page 7


 188              	Comp_1_Stop:
 189              	.LFB5:
 150:Generated_Source\PSoC4/Comp_1.c **** 
 151:Generated_Source\PSoC4/Comp_1.c **** 
 152:Generated_Source\PSoC4/Comp_1.c **** /*******************************************************************************
 153:Generated_Source\PSoC4/Comp_1.c **** * Function Name: Comp_1_Stop
 154:Generated_Source\PSoC4/Comp_1.c **** ********************************************************************************
 155:Generated_Source\PSoC4/Comp_1.c **** *
 156:Generated_Source\PSoC4/Comp_1.c **** * Summary:
 157:Generated_Source\PSoC4/Comp_1.c **** *  Turns off the LP Comparator.
 158:Generated_Source\PSoC4/Comp_1.c **** *
 159:Generated_Source\PSoC4/Comp_1.c **** * Parameters:
 160:Generated_Source\PSoC4/Comp_1.c **** *  None
 161:Generated_Source\PSoC4/Comp_1.c **** *
 162:Generated_Source\PSoC4/Comp_1.c **** * Return:
 163:Generated_Source\PSoC4/Comp_1.c **** *  None
 164:Generated_Source\PSoC4/Comp_1.c **** *
 165:Generated_Source\PSoC4/Comp_1.c **** * Side Effects:
 166:Generated_Source\PSoC4/Comp_1.c **** *  The function doesn't change component Speed settings.
 167:Generated_Source\PSoC4/Comp_1.c **** *
 168:Generated_Source\PSoC4/Comp_1.c **** *******************************************************************************/
 169:Generated_Source\PSoC4/Comp_1.c **** void Comp_1_Stop(void)
 170:Generated_Source\PSoC4/Comp_1.c **** {
 190              		.loc 1 170 0
 191              		.cfi_startproc
 192              		@ args = 0, pretend = 0, frame = 0
 193              		@ frame_needed = 0, uses_anonymous_args = 0
 194 0000 10B5     		push	{r4, lr}
 195              		.cfi_def_cfa_offset 8
 196              		.cfi_offset 4, -8
 197              		.cfi_offset 14, -4
 171:Generated_Source\PSoC4/Comp_1.c ****     uint8 enableInterrupts;
 172:Generated_Source\PSoC4/Comp_1.c ****     
 173:Generated_Source\PSoC4/Comp_1.c ****     enableInterrupts = CyEnterCriticalSection();
 198              		.loc 1 173 0
 199 0002 FFF7FEFF 		bl	CyEnterCriticalSection
 200              	.LVL9:
 174:Generated_Source\PSoC4/Comp_1.c ****     #if (Comp_1_CY_LPCOMP_V0)
 175:Generated_Source\PSoC4/Comp_1.c ****         /*******************************************************
 176:Generated_Source\PSoC4/Comp_1.c ****         * When the Stop() API is called the CONFIG_EN bit is 
 177:Generated_Source\PSoC4/Comp_1.c ****         * cleared. This causes the output of the comparator to go 
 178:Generated_Source\PSoC4/Comp_1.c ****         * low. If the comparator output was high and the Interrupt 
 179:Generated_Source\PSoC4/Comp_1.c ****         * Configuration is set for Falling edge disabling the 
 180:Generated_Source\PSoC4/Comp_1.c ****         * comparator will cause an fake interrupt. This requires 
 181:Generated_Source\PSoC4/Comp_1.c ****         * to clear the CONFIG_INTR bits before the CONFIG_EN bit 
 182:Generated_Source\PSoC4/Comp_1.c ****         * is cleared.
 183:Generated_Source\PSoC4/Comp_1.c ****         *******************************************************/
 184:Generated_Source\PSoC4/Comp_1.c ****         Comp_1_CONFIG_REG &= (uint32)~Comp_1_CONFIG_INTR_MASK;
 185:Generated_Source\PSoC4/Comp_1.c ****     #endif /* (Comp_1_CY_LPCOMP_V0) */
 186:Generated_Source\PSoC4/Comp_1.c **** 
 187:Generated_Source\PSoC4/Comp_1.c ****     Comp_1_CONFIG_REG &= (uint32)~Comp_1_CONFIG_EN;
 201              		.loc 1 187 0
 202 0006 044A     		ldr	r2, .L14
 203 0008 1168     		ldr	r1, [r2]
 204 000a 044B     		ldr	r3, .L14+4
 205 000c 0B40     		ands	r3, r1
 206 000e 1360     		str	r3, [r2]
ARM GAS  C:\Users\JamesN4\AppData\Local\Temp\ccPxhuv7.s 			page 8


 188:Generated_Source\PSoC4/Comp_1.c ****     CyExitCriticalSection(enableInterrupts);
 207              		.loc 1 188 0
 208 0010 FFF7FEFF 		bl	CyExitCriticalSection
 209              	.LVL10:
 189:Generated_Source\PSoC4/Comp_1.c **** }
 210              		.loc 1 189 0
 211              		@ sp needed
 212 0014 10BD     		pop	{r4, pc}
 213              	.L15:
 214 0016 C046     		.align	2
 215              	.L14:
 216 0018 04002B40 		.word	1076559876
 217 001c FF7FFFFF 		.word	-32769
 218              		.cfi_endproc
 219              	.LFE5:
 220              		.size	Comp_1_Stop, .-Comp_1_Stop
 221              		.section	.text.Comp_1_SetSpeed,"ax",%progbits
 222              		.align	2
 223              		.global	Comp_1_SetSpeed
 224              		.code	16
 225              		.thumb_func
 226              		.type	Comp_1_SetSpeed, %function
 227              	Comp_1_SetSpeed:
 228              	.LFB6:
 190:Generated_Source\PSoC4/Comp_1.c **** 
 191:Generated_Source\PSoC4/Comp_1.c **** 
 192:Generated_Source\PSoC4/Comp_1.c **** /*******************************************************************************
 193:Generated_Source\PSoC4/Comp_1.c **** * Function Name: Comp_1_SetSpeed
 194:Generated_Source\PSoC4/Comp_1.c **** *
 195:Generated_Source\PSoC4/Comp_1.c **** * Summary:
 196:Generated_Source\PSoC4/Comp_1.c **** *  Sets the drive power and speed to one of three settings.
 197:Generated_Source\PSoC4/Comp_1.c **** *
 198:Generated_Source\PSoC4/Comp_1.c **** * Parameters:
 199:Generated_Source\PSoC4/Comp_1.c **** *  uint32 speed: Sets operation mode of the component:
 200:Generated_Source\PSoC4/Comp_1.c **** *   Comp_1_LOW_SPEED  - Slow/ultra low 
 201:Generated_Source\PSoC4/Comp_1.c **** *   Comp_1_MED_SPEED  - Medium/low 
 202:Generated_Source\PSoC4/Comp_1.c **** *   Comp_1_HIGH_SPEED - Fast/normal 
 203:Generated_Source\PSoC4/Comp_1.c **** *
 204:Generated_Source\PSoC4/Comp_1.c **** * Return:
 205:Generated_Source\PSoC4/Comp_1.c **** *  None
 206:Generated_Source\PSoC4/Comp_1.c **** *
 207:Generated_Source\PSoC4/Comp_1.c **** *******************************************************************************/
 208:Generated_Source\PSoC4/Comp_1.c **** void Comp_1_SetSpeed(uint32 speed)
 209:Generated_Source\PSoC4/Comp_1.c **** {
 229              		.loc 1 209 0
 230              		.cfi_startproc
 231              		@ args = 0, pretend = 0, frame = 0
 232              		@ frame_needed = 0, uses_anonymous_args = 0
 233              	.LVL11:
 234 0000 70B5     		push	{r4, r5, r6, lr}
 235              		.cfi_def_cfa_offset 16
 236              		.cfi_offset 4, -16
 237              		.cfi_offset 5, -12
 238              		.cfi_offset 6, -8
 239              		.cfi_offset 14, -4
 240 0002 0400     		movs	r4, r0
 210:Generated_Source\PSoC4/Comp_1.c ****     uint32 config;
ARM GAS  C:\Users\JamesN4\AppData\Local\Temp\ccPxhuv7.s 			page 9


 211:Generated_Source\PSoC4/Comp_1.c ****     uint8 enableInterrupts;
 212:Generated_Source\PSoC4/Comp_1.c ****     
 213:Generated_Source\PSoC4/Comp_1.c ****     enableInterrupts = CyEnterCriticalSection();
 241              		.loc 1 213 0
 242 0004 FFF7FEFF 		bl	CyEnterCriticalSection
 243              	.LVL12:
 214:Generated_Source\PSoC4/Comp_1.c ****     config = Comp_1_CONFIG_REG & (uint32)~Comp_1_CONFIG_SPEED_MODE_MASK;
 244              		.loc 1 214 0
 245 0008 064D     		ldr	r5, .L17
 246 000a 2B68     		ldr	r3, [r5]
 247 000c 064A     		ldr	r2, .L17+4
 248 000e 1340     		ands	r3, r2
 249 0010 1900     		movs	r1, r3
 250              	.LVL13:
 215:Generated_Source\PSoC4/Comp_1.c ****     Comp_1_CONFIG_REG = config | Comp_1_GET_CONFIG_SPEED_MODE(speed);
 251              		.loc 1 215 0
 252 0012 2302     		lsls	r3, r4, #8
 253 0014 C022     		movs	r2, #192
 254 0016 9200     		lsls	r2, r2, #2
 255 0018 1340     		ands	r3, r2
 256 001a 0B43     		orrs	r3, r1
 257 001c 2B60     		str	r3, [r5]
 216:Generated_Source\PSoC4/Comp_1.c ****     CyExitCriticalSection(enableInterrupts);
 258              		.loc 1 216 0
 259 001e FFF7FEFF 		bl	CyExitCriticalSection
 260              	.LVL14:
 217:Generated_Source\PSoC4/Comp_1.c **** }
 261              		.loc 1 217 0
 262              		@ sp needed
 263              	.LVL15:
 264 0022 70BD     		pop	{r4, r5, r6, pc}
 265              	.L18:
 266              		.align	2
 267              	.L17:
 268 0024 04002B40 		.word	1076559876
 269 0028 FFFCFFFF 		.word	-769
 270              		.cfi_endproc
 271              	.LFE6:
 272              		.size	Comp_1_SetSpeed, .-Comp_1_SetSpeed
 273              		.section	.text.Comp_1_SetInterruptMode,"ax",%progbits
 274              		.align	2
 275              		.global	Comp_1_SetInterruptMode
 276              		.code	16
 277              		.thumb_func
 278              		.type	Comp_1_SetInterruptMode, %function
 279              	Comp_1_SetInterruptMode:
 280              	.LFB7:
 218:Generated_Source\PSoC4/Comp_1.c **** 
 219:Generated_Source\PSoC4/Comp_1.c **** 
 220:Generated_Source\PSoC4/Comp_1.c **** /*******************************************************************************
 221:Generated_Source\PSoC4/Comp_1.c **** * Function Name: Comp_1_SetInterruptMode
 222:Generated_Source\PSoC4/Comp_1.c **** ********************************************************************************
 223:Generated_Source\PSoC4/Comp_1.c **** *
 224:Generated_Source\PSoC4/Comp_1.c **** * Summary:
 225:Generated_Source\PSoC4/Comp_1.c **** *  Sets the interrupt edge detect mode. This also controls the value provided
 226:Generated_Source\PSoC4/Comp_1.c **** *  on the output.
 227:Generated_Source\PSoC4/Comp_1.c **** *
ARM GAS  C:\Users\JamesN4\AppData\Local\Temp\ccPxhuv7.s 			page 10


 228:Generated_Source\PSoC4/Comp_1.c **** * Parameters:
 229:Generated_Source\PSoC4/Comp_1.c **** *  uint32 mode: Enumerated edge detect mode value:
 230:Generated_Source\PSoC4/Comp_1.c **** *  Comp_1_INTR_DISABLE - Disable
 231:Generated_Source\PSoC4/Comp_1.c **** *  Comp_1_INTR_RISING  - Rising edge detect
 232:Generated_Source\PSoC4/Comp_1.c **** *  Comp_1_INTR_FALLING - Falling edge detect
 233:Generated_Source\PSoC4/Comp_1.c **** *  Comp_1_INTR_BOTH    - Detect both edges
 234:Generated_Source\PSoC4/Comp_1.c **** *
 235:Generated_Source\PSoC4/Comp_1.c **** * Return:
 236:Generated_Source\PSoC4/Comp_1.c **** *  None
 237:Generated_Source\PSoC4/Comp_1.c **** *
 238:Generated_Source\PSoC4/Comp_1.c **** *******************************************************************************/
 239:Generated_Source\PSoC4/Comp_1.c **** void Comp_1_SetInterruptMode(uint32 mode)
 240:Generated_Source\PSoC4/Comp_1.c **** {
 281              		.loc 1 240 0
 282              		.cfi_startproc
 283              		@ args = 0, pretend = 0, frame = 0
 284              		@ frame_needed = 0, uses_anonymous_args = 0
 285              	.LVL16:
 286 0000 10B5     		push	{r4, lr}
 287              		.cfi_def_cfa_offset 8
 288              		.cfi_offset 4, -8
 289              		.cfi_offset 14, -4
 241:Generated_Source\PSoC4/Comp_1.c ****     uint32 config;
 242:Generated_Source\PSoC4/Comp_1.c ****     uint8 enableInterrupts;
 243:Generated_Source\PSoC4/Comp_1.c ****     
 244:Generated_Source\PSoC4/Comp_1.c ****     Comp_1_internalIntr = Comp_1_GET_CONFIG_INTR(mode);
 290              		.loc 1 244 0
 291 0002 0003     		lsls	r0, r0, #12
 292              	.LVL17:
 293 0004 C023     		movs	r3, #192
 294 0006 9B01     		lsls	r3, r3, #6
 295 0008 1840     		ands	r0, r3
 296 000a 074C     		ldr	r4, .L20
 297 000c 2060     		str	r0, [r4]
 245:Generated_Source\PSoC4/Comp_1.c **** 
 246:Generated_Source\PSoC4/Comp_1.c ****     enableInterrupts = CyEnterCriticalSection();
 298              		.loc 1 246 0
 299 000e FFF7FEFF 		bl	CyEnterCriticalSection
 300              	.LVL18:
 247:Generated_Source\PSoC4/Comp_1.c ****     config = Comp_1_CONFIG_REG & (uint32)~Comp_1_CONFIG_INTR_MASK;
 301              		.loc 1 247 0
 302 0012 0649     		ldr	r1, .L20+4
 303 0014 0A68     		ldr	r2, [r1]
 304 0016 064B     		ldr	r3, .L20+8
 305 0018 1340     		ands	r3, r2
 306              	.LVL19:
 248:Generated_Source\PSoC4/Comp_1.c ****     Comp_1_CONFIG_REG = config | Comp_1_internalIntr;
 307              		.loc 1 248 0
 308 001a 2268     		ldr	r2, [r4]
 309 001c 1343     		orrs	r3, r2
 310              	.LVL20:
 311 001e 0B60     		str	r3, [r1]
 249:Generated_Source\PSoC4/Comp_1.c ****     CyExitCriticalSection(enableInterrupts);
 312              		.loc 1 249 0
 313 0020 FFF7FEFF 		bl	CyExitCriticalSection
 314              	.LVL21:
 250:Generated_Source\PSoC4/Comp_1.c **** }
ARM GAS  C:\Users\JamesN4\AppData\Local\Temp\ccPxhuv7.s 			page 11


 315              		.loc 1 250 0
 316              		@ sp needed
 317 0024 10BD     		pop	{r4, pc}
 318              	.L21:
 319 0026 C046     		.align	2
 320              	.L20:
 321 0028 00000000 		.word	.LANCHOR0
 322 002c 04002B40 		.word	1076559876
 323 0030 FFCFFFFF 		.word	-12289
 324              		.cfi_endproc
 325              	.LFE7:
 326              		.size	Comp_1_SetInterruptMode, .-Comp_1_SetInterruptMode
 327              		.section	.text.Comp_1_GetInterruptSource,"ax",%progbits
 328              		.align	2
 329              		.global	Comp_1_GetInterruptSource
 330              		.code	16
 331              		.thumb_func
 332              		.type	Comp_1_GetInterruptSource, %function
 333              	Comp_1_GetInterruptSource:
 334              	.LFB8:
 251:Generated_Source\PSoC4/Comp_1.c **** 
 252:Generated_Source\PSoC4/Comp_1.c **** 
 253:Generated_Source\PSoC4/Comp_1.c **** /*******************************************************************************
 254:Generated_Source\PSoC4/Comp_1.c **** * Function Name: Comp_1_GetInterruptSource
 255:Generated_Source\PSoC4/Comp_1.c **** ********************************************************************************
 256:Generated_Source\PSoC4/Comp_1.c **** *
 257:Generated_Source\PSoC4/Comp_1.c **** * Summary:
 258:Generated_Source\PSoC4/Comp_1.c **** *  Gets the interrupt requests. This function is for use when using the combined
 259:Generated_Source\PSoC4/Comp_1.c **** *  interrupt signal from the global signal reference. This function from either
 260:Generated_Source\PSoC4/Comp_1.c **** *  component instance can be used to determine the interrupt source for both the
 261:Generated_Source\PSoC4/Comp_1.c **** *  interrupts combined.
 262:Generated_Source\PSoC4/Comp_1.c **** *
 263:Generated_Source\PSoC4/Comp_1.c **** * Parameters:
 264:Generated_Source\PSoC4/Comp_1.c **** *  None
 265:Generated_Source\PSoC4/Comp_1.c **** *
 266:Generated_Source\PSoC4/Comp_1.c **** * Return:
 267:Generated_Source\PSoC4/Comp_1.c **** *  uint32: Interrupt source. Each component instance has a mask value:
 268:Generated_Source\PSoC4/Comp_1.c **** *  Comp_1_INTR.
 269:Generated_Source\PSoC4/Comp_1.c **** *
 270:Generated_Source\PSoC4/Comp_1.c **** *******************************************************************************/
 271:Generated_Source\PSoC4/Comp_1.c **** uint32 Comp_1_GetInterruptSource(void)
 272:Generated_Source\PSoC4/Comp_1.c **** {
 335              		.loc 1 272 0
 336              		.cfi_startproc
 337              		@ args = 0, pretend = 0, frame = 0
 338              		@ frame_needed = 0, uses_anonymous_args = 0
 339              		@ link register save eliminated.
 273:Generated_Source\PSoC4/Comp_1.c ****     return (Comp_1_INTR_REG); 
 340              		.loc 1 273 0
 341 0000 014B     		ldr	r3, .L23
 342 0002 1868     		ldr	r0, [r3]
 274:Generated_Source\PSoC4/Comp_1.c **** }
 343              		.loc 1 274 0
 344              		@ sp needed
 345 0004 7047     		bx	lr
 346              	.L24:
 347 0006 C046     		.align	2
ARM GAS  C:\Users\JamesN4\AppData\Local\Temp\ccPxhuv7.s 			page 12


 348              	.L23:
 349 0008 10002B40 		.word	1076559888
 350              		.cfi_endproc
 351              	.LFE8:
 352              		.size	Comp_1_GetInterruptSource, .-Comp_1_GetInterruptSource
 353              		.section	.text.Comp_1_ClearInterrupt,"ax",%progbits
 354              		.align	2
 355              		.global	Comp_1_ClearInterrupt
 356              		.code	16
 357              		.thumb_func
 358              		.type	Comp_1_ClearInterrupt, %function
 359              	Comp_1_ClearInterrupt:
 360              	.LFB9:
 275:Generated_Source\PSoC4/Comp_1.c **** 
 276:Generated_Source\PSoC4/Comp_1.c **** 
 277:Generated_Source\PSoC4/Comp_1.c **** /*******************************************************************************
 278:Generated_Source\PSoC4/Comp_1.c **** * Function Name: Comp_1_ClearInterrupt
 279:Generated_Source\PSoC4/Comp_1.c **** ********************************************************************************
 280:Generated_Source\PSoC4/Comp_1.c **** *
 281:Generated_Source\PSoC4/Comp_1.c **** * Summary:
 282:Generated_Source\PSoC4/Comp_1.c **** *  Clears the interrupt request. This function is for use when using the
 283:Generated_Source\PSoC4/Comp_1.c **** *  combined interrupt signal from the global signal reference. This function
 284:Generated_Source\PSoC4/Comp_1.c **** *  from either component instance can be used to clear either or both
 285:Generated_Source\PSoC4/Comp_1.c **** *  interrupts.
 286:Generated_Source\PSoC4/Comp_1.c **** *
 287:Generated_Source\PSoC4/Comp_1.c **** * Parameters:
 288:Generated_Source\PSoC4/Comp_1.c **** *  uint32 interruptMask: Mask of interrupts to clear. Each component instance
 289:Generated_Source\PSoC4/Comp_1.c **** *  has a mask value: Comp_1_INTR.
 290:Generated_Source\PSoC4/Comp_1.c **** *
 291:Generated_Source\PSoC4/Comp_1.c **** * Return:
 292:Generated_Source\PSoC4/Comp_1.c **** *  None
 293:Generated_Source\PSoC4/Comp_1.c **** *
 294:Generated_Source\PSoC4/Comp_1.c **** *******************************************************************************/
 295:Generated_Source\PSoC4/Comp_1.c **** void Comp_1_ClearInterrupt(uint32 interruptMask)
 296:Generated_Source\PSoC4/Comp_1.c **** {   
 361              		.loc 1 296 0
 362              		.cfi_startproc
 363              		@ args = 0, pretend = 0, frame = 0
 364              		@ frame_needed = 0, uses_anonymous_args = 0
 365              		@ link register save eliminated.
 366              	.LVL22:
 297:Generated_Source\PSoC4/Comp_1.c ****     Comp_1_INTR_REG = interruptMask;
 367              		.loc 1 297 0
 368 0000 014B     		ldr	r3, .L26
 369 0002 1860     		str	r0, [r3]
 298:Generated_Source\PSoC4/Comp_1.c **** }
 370              		.loc 1 298 0
 371              		@ sp needed
 372 0004 7047     		bx	lr
 373              	.L27:
 374 0006 C046     		.align	2
 375              	.L26:
 376 0008 10002B40 		.word	1076559888
 377              		.cfi_endproc
 378              	.LFE9:
 379              		.size	Comp_1_ClearInterrupt, .-Comp_1_ClearInterrupt
 380              		.section	.text.Comp_1_SetInterrupt,"ax",%progbits
ARM GAS  C:\Users\JamesN4\AppData\Local\Temp\ccPxhuv7.s 			page 13


 381              		.align	2
 382              		.global	Comp_1_SetInterrupt
 383              		.code	16
 384              		.thumb_func
 385              		.type	Comp_1_SetInterrupt, %function
 386              	Comp_1_SetInterrupt:
 387              	.LFB10:
 299:Generated_Source\PSoC4/Comp_1.c **** 
 300:Generated_Source\PSoC4/Comp_1.c **** 
 301:Generated_Source\PSoC4/Comp_1.c **** /*******************************************************************************
 302:Generated_Source\PSoC4/Comp_1.c **** * Function Name: Comp_1_SetInterrupt
 303:Generated_Source\PSoC4/Comp_1.c **** ********************************************************************************
 304:Generated_Source\PSoC4/Comp_1.c **** *
 305:Generated_Source\PSoC4/Comp_1.c **** * Summary:
 306:Generated_Source\PSoC4/Comp_1.c **** *  Sets a software interrupt request. This function is for use when using the
 307:Generated_Source\PSoC4/Comp_1.c **** *  combined interrupt signal from the global signal reference. This function
 308:Generated_Source\PSoC4/Comp_1.c **** *  from either component instance can be used to trigger either or both software
 309:Generated_Source\PSoC4/Comp_1.c **** *  interrupts.
 310:Generated_Source\PSoC4/Comp_1.c **** *
 311:Generated_Source\PSoC4/Comp_1.c **** * Parameters:
 312:Generated_Source\PSoC4/Comp_1.c **** *  uint32 interruptMask: Mask of interrupts to set. Each component instance has
 313:Generated_Source\PSoC4/Comp_1.c **** *  a mask value: Comp_1_INTR_SET.
 314:Generated_Source\PSoC4/Comp_1.c **** *
 315:Generated_Source\PSoC4/Comp_1.c **** * Return:
 316:Generated_Source\PSoC4/Comp_1.c **** *  None
 317:Generated_Source\PSoC4/Comp_1.c **** *
 318:Generated_Source\PSoC4/Comp_1.c **** *******************************************************************************/
 319:Generated_Source\PSoC4/Comp_1.c **** void Comp_1_SetInterrupt(uint32 interruptMask)
 320:Generated_Source\PSoC4/Comp_1.c **** {
 388              		.loc 1 320 0
 389              		.cfi_startproc
 390              		@ args = 0, pretend = 0, frame = 0
 391              		@ frame_needed = 0, uses_anonymous_args = 0
 392              	.LVL23:
 393 0000 10B5     		push	{r4, lr}
 394              		.cfi_def_cfa_offset 8
 395              		.cfi_offset 4, -8
 396              		.cfi_offset 14, -4
 397 0002 0400     		movs	r4, r0
 321:Generated_Source\PSoC4/Comp_1.c ****     uint8 enableInterrupts;
 322:Generated_Source\PSoC4/Comp_1.c ****     
 323:Generated_Source\PSoC4/Comp_1.c ****     enableInterrupts = CyEnterCriticalSection();
 398              		.loc 1 323 0
 399 0004 FFF7FEFF 		bl	CyEnterCriticalSection
 400              	.LVL24:
 324:Generated_Source\PSoC4/Comp_1.c ****     Comp_1_INTR_SET_REG |= interruptMask;
 401              		.loc 1 324 0
 402 0008 034B     		ldr	r3, .L29
 403 000a 1A68     		ldr	r2, [r3]
 404 000c 1443     		orrs	r4, r2
 405              	.LVL25:
 406 000e 1C60     		str	r4, [r3]
 325:Generated_Source\PSoC4/Comp_1.c ****     CyExitCriticalSection(enableInterrupts);
 407              		.loc 1 325 0
 408 0010 FFF7FEFF 		bl	CyExitCriticalSection
 409              	.LVL26:
 326:Generated_Source\PSoC4/Comp_1.c **** }
ARM GAS  C:\Users\JamesN4\AppData\Local\Temp\ccPxhuv7.s 			page 14


 410              		.loc 1 326 0
 411              		@ sp needed
 412 0014 10BD     		pop	{r4, pc}
 413              	.L30:
 414 0016 C046     		.align	2
 415              	.L29:
 416 0018 14002B40 		.word	1076559892
 417              		.cfi_endproc
 418              	.LFE10:
 419              		.size	Comp_1_SetInterrupt, .-Comp_1_SetInterrupt
 420              		.section	.text.Comp_1_SetHysteresis,"ax",%progbits
 421              		.align	2
 422              		.global	Comp_1_SetHysteresis
 423              		.code	16
 424              		.thumb_func
 425              		.type	Comp_1_SetHysteresis, %function
 426              	Comp_1_SetHysteresis:
 427              	.LFB11:
 327:Generated_Source\PSoC4/Comp_1.c **** 
 328:Generated_Source\PSoC4/Comp_1.c **** 
 329:Generated_Source\PSoC4/Comp_1.c **** /*******************************************************************************
 330:Generated_Source\PSoC4/Comp_1.c **** * Function Name: Comp_1_SetHysteresis
 331:Generated_Source\PSoC4/Comp_1.c **** ********************************************************************************
 332:Generated_Source\PSoC4/Comp_1.c **** *
 333:Generated_Source\PSoC4/Comp_1.c **** * Summary:
 334:Generated_Source\PSoC4/Comp_1.c **** *  Enables or disables the hysteresis.
 335:Generated_Source\PSoC4/Comp_1.c **** *
 336:Generated_Source\PSoC4/Comp_1.c **** * Parameters:
 337:Generated_Source\PSoC4/Comp_1.c **** *  hysteresis: (uint32) Enables or disables the hysteresis setting.
 338:Generated_Source\PSoC4/Comp_1.c **** *  Comp_1_HYST_ENABLE     - Enable hysteresis
 339:Generated_Source\PSoC4/Comp_1.c **** *  Comp_1_HYST_DISABLE    - Disable hysteresis
 340:Generated_Source\PSoC4/Comp_1.c **** *
 341:Generated_Source\PSoC4/Comp_1.c **** * Return:
 342:Generated_Source\PSoC4/Comp_1.c **** *  None
 343:Generated_Source\PSoC4/Comp_1.c **** *
 344:Generated_Source\PSoC4/Comp_1.c **** *******************************************************************************/
 345:Generated_Source\PSoC4/Comp_1.c **** void Comp_1_SetHysteresis(uint32 hysteresis)
 346:Generated_Source\PSoC4/Comp_1.c **** {
 428              		.loc 1 346 0
 429              		.cfi_startproc
 430              		@ args = 0, pretend = 0, frame = 0
 431              		@ frame_needed = 0, uses_anonymous_args = 0
 432              	.LVL27:
 433 0000 10B5     		push	{r4, lr}
 434              		.cfi_def_cfa_offset 8
 435              		.cfi_offset 4, -8
 436              		.cfi_offset 14, -4
 437 0002 0400     		movs	r4, r0
 347:Generated_Source\PSoC4/Comp_1.c ****     uint8 enableInterrupts;
 348:Generated_Source\PSoC4/Comp_1.c ****     
 349:Generated_Source\PSoC4/Comp_1.c ****     enableInterrupts = CyEnterCriticalSection();
 438              		.loc 1 349 0
 439 0004 FFF7FEFF 		bl	CyEnterCriticalSection
 440              	.LVL28:
 350:Generated_Source\PSoC4/Comp_1.c ****     if(0u != hysteresis)
 441              		.loc 1 350 0
 442 0008 002C     		cmp	r4, #0
ARM GAS  C:\Users\JamesN4\AppData\Local\Temp\ccPxhuv7.s 			page 15


 443 000a 06D0     		beq	.L32
 351:Generated_Source\PSoC4/Comp_1.c ****     {
 352:Generated_Source\PSoC4/Comp_1.c ****         Comp_1_CONFIG_REG |= Comp_1_CONFIG_HYST;
 444              		.loc 1 352 0
 445 000c 074A     		ldr	r2, .L34
 446 000e 1368     		ldr	r3, [r2]
 447 0010 8021     		movs	r1, #128
 448 0012 C900     		lsls	r1, r1, #3
 449 0014 0B43     		orrs	r3, r1
 450 0016 1360     		str	r3, [r2]
 451 0018 04E0     		b	.L33
 452              	.L32:
 353:Generated_Source\PSoC4/Comp_1.c ****     }
 354:Generated_Source\PSoC4/Comp_1.c ****     else
 355:Generated_Source\PSoC4/Comp_1.c ****     {
 356:Generated_Source\PSoC4/Comp_1.c ****         Comp_1_CONFIG_REG &= (uint32)~Comp_1_CONFIG_HYST;
 453              		.loc 1 356 0
 454 001a 044A     		ldr	r2, .L34
 455 001c 1168     		ldr	r1, [r2]
 456 001e 044B     		ldr	r3, .L34+4
 457 0020 0B40     		ands	r3, r1
 458 0022 1360     		str	r3, [r2]
 459              	.L33:
 357:Generated_Source\PSoC4/Comp_1.c ****     }
 358:Generated_Source\PSoC4/Comp_1.c ****     CyExitCriticalSection(enableInterrupts);
 460              		.loc 1 358 0
 461 0024 FFF7FEFF 		bl	CyExitCriticalSection
 462              	.LVL29:
 359:Generated_Source\PSoC4/Comp_1.c **** }
 463              		.loc 1 359 0
 464              		@ sp needed
 465              	.LVL30:
 466 0028 10BD     		pop	{r4, pc}
 467              	.L35:
 468 002a C046     		.align	2
 469              	.L34:
 470 002c 04002B40 		.word	1076559876
 471 0030 FFFBFFFF 		.word	-1025
 472              		.cfi_endproc
 473              	.LFE11:
 474              		.size	Comp_1_SetHysteresis, .-Comp_1_SetHysteresis
 475              		.section	.text.Comp_1_SetFilter,"ax",%progbits
 476              		.align	2
 477              		.global	Comp_1_SetFilter
 478              		.code	16
 479              		.thumb_func
 480              		.type	Comp_1_SetFilter, %function
 481              	Comp_1_SetFilter:
 482              	.LFB12:
 360:Generated_Source\PSoC4/Comp_1.c **** 
 361:Generated_Source\PSoC4/Comp_1.c **** 
 362:Generated_Source\PSoC4/Comp_1.c **** /*******************************************************************************
 363:Generated_Source\PSoC4/Comp_1.c **** * Function Name: Comp_1_SetFilter
 364:Generated_Source\PSoC4/Comp_1.c **** ********************************************************************************
 365:Generated_Source\PSoC4/Comp_1.c **** *
 366:Generated_Source\PSoC4/Comp_1.c **** * Summary:
 367:Generated_Source\PSoC4/Comp_1.c **** *  Enables or disables the digital filter. This still exists for saving backward 
ARM GAS  C:\Users\JamesN4\AppData\Local\Temp\ccPxhuv7.s 			page 16


 368:Generated_Source\PSoC4/Comp_1.c **** *  compatibility, but not recommended for using.
 369:Generated_Source\PSoC4/Comp_1.c **** *  This API is DEPRECATED and should not be used in new projects.
 370:Generated_Source\PSoC4/Comp_1.c **** *
 371:Generated_Source\PSoC4/Comp_1.c **** * Parameters:
 372:Generated_Source\PSoC4/Comp_1.c **** *  uint32 filter: filter enable.
 373:Generated_Source\PSoC4/Comp_1.c **** *  Comp_1_FILT_ENABLE  - Enable filter
 374:Generated_Source\PSoC4/Comp_1.c **** *  Comp_1_FILT_DISABLE - Disable filter
 375:Generated_Source\PSoC4/Comp_1.c **** *
 376:Generated_Source\PSoC4/Comp_1.c **** * Return:
 377:Generated_Source\PSoC4/Comp_1.c **** *  None
 378:Generated_Source\PSoC4/Comp_1.c **** *
 379:Generated_Source\PSoC4/Comp_1.c **** *******************************************************************************/
 380:Generated_Source\PSoC4/Comp_1.c **** void Comp_1_SetFilter(uint32 filter)
 381:Generated_Source\PSoC4/Comp_1.c **** {
 483              		.loc 1 381 0
 484              		.cfi_startproc
 485              		@ args = 0, pretend = 0, frame = 0
 486              		@ frame_needed = 0, uses_anonymous_args = 0
 487              	.LVL31:
 488 0000 10B5     		push	{r4, lr}
 489              		.cfi_def_cfa_offset 8
 490              		.cfi_offset 4, -8
 491              		.cfi_offset 14, -4
 492 0002 0400     		movs	r4, r0
 382:Generated_Source\PSoC4/Comp_1.c ****     uint8 enableInterrupts;
 383:Generated_Source\PSoC4/Comp_1.c ****     
 384:Generated_Source\PSoC4/Comp_1.c ****     enableInterrupts = CyEnterCriticalSection();
 493              		.loc 1 384 0
 494 0004 FFF7FEFF 		bl	CyEnterCriticalSection
 495              	.LVL32:
 385:Generated_Source\PSoC4/Comp_1.c ****     if( 0u != filter)
 496              		.loc 1 385 0
 497 0008 002C     		cmp	r4, #0
 498 000a 06D0     		beq	.L37
 386:Generated_Source\PSoC4/Comp_1.c ****     {
 387:Generated_Source\PSoC4/Comp_1.c ****         Comp_1_CONFIG_REG |= Comp_1_CONFIG_FILT;
 499              		.loc 1 387 0
 500 000c 074A     		ldr	r2, .L39
 501 000e 1368     		ldr	r3, [r2]
 502 0010 8021     		movs	r1, #128
 503 0012 0901     		lsls	r1, r1, #4
 504 0014 0B43     		orrs	r3, r1
 505 0016 1360     		str	r3, [r2]
 506 0018 04E0     		b	.L38
 507              	.L37:
 388:Generated_Source\PSoC4/Comp_1.c ****     }
 389:Generated_Source\PSoC4/Comp_1.c ****     else
 390:Generated_Source\PSoC4/Comp_1.c ****     {
 391:Generated_Source\PSoC4/Comp_1.c ****         Comp_1_CONFIG_REG &= (uint32)~Comp_1_CONFIG_FILT;
 508              		.loc 1 391 0
 509 001a 044A     		ldr	r2, .L39
 510 001c 1168     		ldr	r1, [r2]
 511 001e 044B     		ldr	r3, .L39+4
 512 0020 0B40     		ands	r3, r1
 513 0022 1360     		str	r3, [r2]
 514              	.L38:
 392:Generated_Source\PSoC4/Comp_1.c ****     }
ARM GAS  C:\Users\JamesN4\AppData\Local\Temp\ccPxhuv7.s 			page 17


 393:Generated_Source\PSoC4/Comp_1.c ****     CyExitCriticalSection(enableInterrupts);
 515              		.loc 1 393 0
 516 0024 FFF7FEFF 		bl	CyExitCriticalSection
 517              	.LVL33:
 394:Generated_Source\PSoC4/Comp_1.c **** }
 518              		.loc 1 394 0
 519              		@ sp needed
 520              	.LVL34:
 521 0028 10BD     		pop	{r4, pc}
 522              	.L40:
 523 002a C046     		.align	2
 524              	.L39:
 525 002c 04002B40 		.word	1076559876
 526 0030 FFF7FFFF 		.word	-2049
 527              		.cfi_endproc
 528              	.LFE12:
 529              		.size	Comp_1_SetFilter, .-Comp_1_SetFilter
 530              		.section	.text.Comp_1_GetCompare,"ax",%progbits
 531              		.align	2
 532              		.global	Comp_1_GetCompare
 533              		.code	16
 534              		.thumb_func
 535              		.type	Comp_1_GetCompare, %function
 536              	Comp_1_GetCompare:
 537              	.LFB13:
 395:Generated_Source\PSoC4/Comp_1.c **** 
 396:Generated_Source\PSoC4/Comp_1.c **** 
 397:Generated_Source\PSoC4/Comp_1.c **** /*******************************************************************************
 398:Generated_Source\PSoC4/Comp_1.c **** * Function Name: Comp_1_GetCompare
 399:Generated_Source\PSoC4/Comp_1.c **** ********************************************************************************
 400:Generated_Source\PSoC4/Comp_1.c **** *
 401:Generated_Source\PSoC4/Comp_1.c **** * Summary:
 402:Generated_Source\PSoC4/Comp_1.c **** *  This function returns a nonzero value when the voltage connected to the
 403:Generated_Source\PSoC4/Comp_1.c **** *  positive input is greater than the negative input voltage.
 404:Generated_Source\PSoC4/Comp_1.c **** *  This function reads the direct (unflopped) comparator output which can also be 
 405:Generated_Source\PSoC4/Comp_1.c **** *  metastable (since it may result in incorrect data).
 406:Generated_Source\PSoC4/Comp_1.c **** *
 407:Generated_Source\PSoC4/Comp_1.c **** * Parameters:
 408:Generated_Source\PSoC4/Comp_1.c **** *  None
 409:Generated_Source\PSoC4/Comp_1.c **** *
 410:Generated_Source\PSoC4/Comp_1.c **** * Return:
 411:Generated_Source\PSoC4/Comp_1.c **** *  (uint32) Comparator output state. This value is not impacted by the interrupt
 412:Generated_Source\PSoC4/Comp_1.c **** *  edge detect setting:
 413:Generated_Source\PSoC4/Comp_1.c **** *   0 - if positive input is less than negative one.
 414:Generated_Source\PSoC4/Comp_1.c **** *   1 - if positive input greater than negative one.
 415:Generated_Source\PSoC4/Comp_1.c **** *
 416:Generated_Source\PSoC4/Comp_1.c **** *******************************************************************************/
 417:Generated_Source\PSoC4/Comp_1.c **** uint32 Comp_1_GetCompare(void)
 418:Generated_Source\PSoC4/Comp_1.c **** {
 538              		.loc 1 418 0
 539              		.cfi_startproc
 540              		@ args = 0, pretend = 0, frame = 0
 541              		@ frame_needed = 0, uses_anonymous_args = 0
 542              		@ link register save eliminated.
 419:Generated_Source\PSoC4/Comp_1.c ****     return((uint32)((0u == (Comp_1_CONFIG_REG & Comp_1_CONFIG_OUT)) ? 0u : 1u));
 543              		.loc 1 419 0
 544 0000 044B     		ldr	r3, .L42
ARM GAS  C:\Users\JamesN4\AppData\Local\Temp\ccPxhuv7.s 			page 18


 545 0002 1868     		ldr	r0, [r3]
 546 0004 8023     		movs	r3, #128
 547 0006 DB01     		lsls	r3, r3, #7
 548 0008 1840     		ands	r0, r3
 549 000a 431E     		subs	r3, r0, #1
 550 000c 9841     		sbcs	r0, r0, r3
 551 000e C0B2     		uxtb	r0, r0
 420:Generated_Source\PSoC4/Comp_1.c **** }
 552              		.loc 1 420 0
 553              		@ sp needed
 554 0010 7047     		bx	lr
 555              	.L43:
 556 0012 C046     		.align	2
 557              	.L42:
 558 0014 04002B40 		.word	1076559876
 559              		.cfi_endproc
 560              	.LFE13:
 561              		.size	Comp_1_GetCompare, .-Comp_1_GetCompare
 562              		.section	.text.Comp_1_ZeroCal,"ax",%progbits
 563              		.align	2
 564              		.global	Comp_1_ZeroCal
 565              		.code	16
 566              		.thumb_func
 567              		.type	Comp_1_ZeroCal, %function
 568              	Comp_1_ZeroCal:
 569              	.LFB14:
 421:Generated_Source\PSoC4/Comp_1.c **** 
 422:Generated_Source\PSoC4/Comp_1.c **** 
 423:Generated_Source\PSoC4/Comp_1.c **** /*******************************************************************************
 424:Generated_Source\PSoC4/Comp_1.c **** * Function Name: Comp_1_ZeroCal
 425:Generated_Source\PSoC4/Comp_1.c **** ********************************************************************************
 426:Generated_Source\PSoC4/Comp_1.c **** *
 427:Generated_Source\PSoC4/Comp_1.c **** * Summary:
 428:Generated_Source\PSoC4/Comp_1.c **** *  Performs custom calibration of the input offset to minimize error for a
 429:Generated_Source\PSoC4/Comp_1.c **** *  specific set of conditions: comparator reference voltage, supply voltage,
 430:Generated_Source\PSoC4/Comp_1.c **** *  and operating temperature. A reference voltage in the range at which the
 431:Generated_Source\PSoC4/Comp_1.c **** *  comparator will be used must be applied to one of the inputs. The two inputs
 432:Generated_Source\PSoC4/Comp_1.c **** *  will be shorted internally to perform the offset calibration.
 433:Generated_Source\PSoC4/Comp_1.c **** *
 434:Generated_Source\PSoC4/Comp_1.c **** * Parameters:
 435:Generated_Source\PSoC4/Comp_1.c **** *  None
 436:Generated_Source\PSoC4/Comp_1.c **** *
 437:Generated_Source\PSoC4/Comp_1.c **** * Return:
 438:Generated_Source\PSoC4/Comp_1.c **** *  The value from the comparator trim register after the offset calibration is
 439:Generated_Source\PSoC4/Comp_1.c **** *  complete. This value has the same format as the input parameter for the
 440:Generated_Source\PSoC4/Comp_1.c **** *  Comp_1_LoadTrim() API routine.
 441:Generated_Source\PSoC4/Comp_1.c **** *
 442:Generated_Source\PSoC4/Comp_1.c **** *******************************************************************************/
 443:Generated_Source\PSoC4/Comp_1.c **** uint32 Comp_1_ZeroCal(void)
 444:Generated_Source\PSoC4/Comp_1.c **** {
 570              		.loc 1 444 0
 571              		.cfi_startproc
 572              		@ args = 0, pretend = 0, frame = 0
 573              		@ frame_needed = 0, uses_anonymous_args = 0
 574 0000 70B5     		push	{r4, r5, r6, lr}
 575              		.cfi_def_cfa_offset 16
 576              		.cfi_offset 4, -16
ARM GAS  C:\Users\JamesN4\AppData\Local\Temp\ccPxhuv7.s 			page 19


 577              		.cfi_offset 5, -12
 578              		.cfi_offset 6, -8
 579              		.cfi_offset 14, -4
 445:Generated_Source\PSoC4/Comp_1.c ****     uint32 cmpOut;
 446:Generated_Source\PSoC4/Comp_1.c ****     uint32 i;
 447:Generated_Source\PSoC4/Comp_1.c **** 
 448:Generated_Source\PSoC4/Comp_1.c ****     Comp_1_DFT_REG |= Comp_1_DFT_CAL_EN;
 580              		.loc 1 448 0
 581 0002 264A     		ldr	r2, .L53
 582 0004 1168     		ldr	r1, [r2]
 583 0006 0123     		movs	r3, #1
 584 0008 0B43     		orrs	r3, r1
 585 000a 1360     		str	r3, [r2]
 449:Generated_Source\PSoC4/Comp_1.c ****     Comp_1_TRIMA_REG = 0u;
 586              		.loc 1 449 0
 587 000c 0023     		movs	r3, #0
 588 000e 244A     		ldr	r2, .L53+4
 589 0010 1360     		str	r3, [r2]
 450:Generated_Source\PSoC4/Comp_1.c ****     Comp_1_TRIMB_REG = 0u;
 590              		.loc 1 450 0
 591 0012 244A     		ldr	r2, .L53+8
 592 0014 1360     		str	r3, [r2]
 451:Generated_Source\PSoC4/Comp_1.c **** 
 452:Generated_Source\PSoC4/Comp_1.c ****     CyDelayUs(1u);
 593              		.loc 1 452 0
 594 0016 0120     		movs	r0, #1
 595 0018 FFF7FEFF 		bl	CyDelayUs
 596              	.LVL35:
 453:Generated_Source\PSoC4/Comp_1.c **** 
 454:Generated_Source\PSoC4/Comp_1.c ****     cmpOut = Comp_1_GetCompare();
 597              		.loc 1 454 0
 598 001c FFF7FEFF 		bl	Comp_1_GetCompare
 599              	.LVL36:
 600 0020 051E     		subs	r5, r0, #0
 601              	.LVL37:
 455:Generated_Source\PSoC4/Comp_1.c **** 
 456:Generated_Source\PSoC4/Comp_1.c ****     if(0u != cmpOut)
 602              		.loc 1 456 0
 603 0022 02D0     		beq	.L45
 457:Generated_Source\PSoC4/Comp_1.c ****     {
 458:Generated_Source\PSoC4/Comp_1.c ****         Comp_1_TRIMA_REG = ((uint32) 0x01u << Comp_1_TRIMA_SIGNBIT);
 604              		.loc 1 458 0
 605 0024 1022     		movs	r2, #16
 606 0026 1E4B     		ldr	r3, .L53+4
 607 0028 1A60     		str	r2, [r3]
 608              	.L45:
 444:Generated_Source\PSoC4/Comp_1.c ****     uint32 cmpOut;
 609              		.loc 1 444 0 discriminator 1
 610 002a 1024     		movs	r4, #16
 611 002c 0BE0     		b	.L46
 612              	.LVL38:
 613              	.L48:
 459:Generated_Source\PSoC4/Comp_1.c ****     }
 460:Generated_Source\PSoC4/Comp_1.c **** 
 461:Generated_Source\PSoC4/Comp_1.c ****     for(i = (Comp_1_TRIMA_MAX_VALUE +1u ); i != 0u; i--)
 462:Generated_Source\PSoC4/Comp_1.c ****     {
 463:Generated_Source\PSoC4/Comp_1.c ****         Comp_1_TRIMA_REG++;
ARM GAS  C:\Users\JamesN4\AppData\Local\Temp\ccPxhuv7.s 			page 20


 614              		.loc 1 463 0
 615 002e 1C4A     		ldr	r2, .L53+4
 616 0030 1368     		ldr	r3, [r2]
 617 0032 0133     		adds	r3, r3, #1
 618 0034 1360     		str	r3, [r2]
 464:Generated_Source\PSoC4/Comp_1.c ****         CyDelayUs(1u);
 619              		.loc 1 464 0
 620 0036 0120     		movs	r0, #1
 621 0038 FFF7FEFF 		bl	CyDelayUs
 622              	.LVL39:
 465:Generated_Source\PSoC4/Comp_1.c ****         if(cmpOut != Comp_1_GetCompare())
 623              		.loc 1 465 0
 624 003c FFF7FEFF 		bl	Comp_1_GetCompare
 625              	.LVL40:
 626 0040 8542     		cmp	r5, r0
 627 0042 02D1     		bne	.L47
 461:Generated_Source\PSoC4/Comp_1.c ****     {
 628              		.loc 1 461 0 discriminator 2
 629 0044 013C     		subs	r4, r4, #1
 630              	.LVL41:
 631              	.L46:
 461:Generated_Source\PSoC4/Comp_1.c ****     {
 632              		.loc 1 461 0 is_stmt 0 discriminator 1
 633 0046 002C     		cmp	r4, #0
 634 0048 F1D1     		bne	.L48
 635              	.L47:
 466:Generated_Source\PSoC4/Comp_1.c ****         {
 467:Generated_Source\PSoC4/Comp_1.c ****             break;
 468:Generated_Source\PSoC4/Comp_1.c ****         }
 469:Generated_Source\PSoC4/Comp_1.c ****     }
 470:Generated_Source\PSoC4/Comp_1.c **** 
 471:Generated_Source\PSoC4/Comp_1.c ****     if(((uint32)(Comp_1_CONFIG_REG >> Comp_1_CONFIG_REG_SHIFT) &
 636              		.loc 1 471 0 is_stmt 1
 637 004a 174B     		ldr	r3, .L53+12
 638 004c 1B68     		ldr	r3, [r3]
 639 004e 1B0A     		lsrs	r3, r3, #8
 640 0050 9B07     		lsls	r3, r3, #30
 641 0052 16D1     		bne	.L49
 472:Generated_Source\PSoC4/Comp_1.c ****         Comp_1_SPEED_PARAM_MASK) == Comp_1_MED_SPEED)
 473:Generated_Source\PSoC4/Comp_1.c ****     {
 474:Generated_Source\PSoC4/Comp_1.c ****         cmpOut = Comp_1_GetCompare();
 642              		.loc 1 474 0
 643 0054 FFF7FEFF 		bl	Comp_1_GetCompare
 644              	.LVL42:
 645 0058 051E     		subs	r5, r0, #0
 646              	.LVL43:
 475:Generated_Source\PSoC4/Comp_1.c **** 
 476:Generated_Source\PSoC4/Comp_1.c ****         if(0u == cmpOut)
 647              		.loc 1 476 0
 648 005a 02D1     		bne	.L50
 477:Generated_Source\PSoC4/Comp_1.c ****         {
 478:Generated_Source\PSoC4/Comp_1.c ****             Comp_1_TRIMB_REG = ((uint32)1u << Comp_1_TRIMB_SIGNBIT);
 649              		.loc 1 478 0
 650 005c 1022     		movs	r2, #16
 651 005e 114B     		ldr	r3, .L53+8
 652 0060 1A60     		str	r2, [r3]
 653              	.L50:
ARM GAS  C:\Users\JamesN4\AppData\Local\Temp\ccPxhuv7.s 			page 21


 444:Generated_Source\PSoC4/Comp_1.c ****     uint32 cmpOut;
 654              		.loc 1 444 0 discriminator 1
 655 0062 1024     		movs	r4, #16
 656              	.LVL44:
 657 0064 0BE0     		b	.L51
 658              	.LVL45:
 659              	.L52:
 479:Generated_Source\PSoC4/Comp_1.c ****         }
 480:Generated_Source\PSoC4/Comp_1.c **** 
 481:Generated_Source\PSoC4/Comp_1.c ****         for(i = (Comp_1_TRIMB_MAX_VALUE +1u ); i != 0u; i--)
 482:Generated_Source\PSoC4/Comp_1.c ****         {
 483:Generated_Source\PSoC4/Comp_1.c ****             Comp_1_TRIMB_REG++;
 660              		.loc 1 483 0
 661 0066 0F4A     		ldr	r2, .L53+8
 662 0068 1368     		ldr	r3, [r2]
 663 006a 0133     		adds	r3, r3, #1
 664 006c 1360     		str	r3, [r2]
 484:Generated_Source\PSoC4/Comp_1.c ****             CyDelayUs(1u);
 665              		.loc 1 484 0
 666 006e 0120     		movs	r0, #1
 667 0070 FFF7FEFF 		bl	CyDelayUs
 668              	.LVL46:
 485:Generated_Source\PSoC4/Comp_1.c ****             if(cmpOut != Comp_1_GetCompare())
 669              		.loc 1 485 0
 670 0074 FFF7FEFF 		bl	Comp_1_GetCompare
 671              	.LVL47:
 672 0078 8542     		cmp	r5, r0
 673 007a 02D1     		bne	.L49
 481:Generated_Source\PSoC4/Comp_1.c ****         {
 674              		.loc 1 481 0 discriminator 2
 675 007c 013C     		subs	r4, r4, #1
 676              	.LVL48:
 677              	.L51:
 481:Generated_Source\PSoC4/Comp_1.c ****         {
 678              		.loc 1 481 0 is_stmt 0 discriminator 1
 679 007e 002C     		cmp	r4, #0
 680 0080 F1D1     		bne	.L52
 681              	.L49:
 486:Generated_Source\PSoC4/Comp_1.c ****             {
 487:Generated_Source\PSoC4/Comp_1.c ****                 break;
 488:Generated_Source\PSoC4/Comp_1.c ****             }
 489:Generated_Source\PSoC4/Comp_1.c ****         }
 490:Generated_Source\PSoC4/Comp_1.c ****     }
 491:Generated_Source\PSoC4/Comp_1.c **** 
 492:Generated_Source\PSoC4/Comp_1.c ****     Comp_1_DFT_REG &= ((uint32)~Comp_1_DFT_CAL_EN);
 682              		.loc 1 492 0 is_stmt 1
 683 0082 064A     		ldr	r2, .L53
 684 0084 1368     		ldr	r3, [r2]
 685 0086 0121     		movs	r1, #1
 686 0088 8B43     		bics	r3, r1
 687 008a 1360     		str	r3, [r2]
 493:Generated_Source\PSoC4/Comp_1.c **** 
 494:Generated_Source\PSoC4/Comp_1.c ****     return (Comp_1_TRIMA_REG | ((uint32)Comp_1_TRIMB_REG << Comp_1_TRIMB_SHIFT));
 688              		.loc 1 494 0
 689 008c 044B     		ldr	r3, .L53+4
 690 008e 1B68     		ldr	r3, [r3]
 691 0090 044A     		ldr	r2, .L53+8
ARM GAS  C:\Users\JamesN4\AppData\Local\Temp\ccPxhuv7.s 			page 22


 692 0092 1068     		ldr	r0, [r2]
 693 0094 0002     		lsls	r0, r0, #8
 694 0096 1843     		orrs	r0, r3
 495:Generated_Source\PSoC4/Comp_1.c **** }
 695              		.loc 1 495 0
 696              		@ sp needed
 697              	.LVL49:
 698              	.LVL50:
 699 0098 70BD     		pop	{r4, r5, r6, pc}
 700              	.L54:
 701 009a C046     		.align	2
 702              	.L53:
 703 009c 08002B40 		.word	1076559880
 704 00a0 08FF2B40 		.word	1076625160
 705 00a4 0CFF2B40 		.word	1076625164
 706 00a8 04002B40 		.word	1076559876
 707              		.cfi_endproc
 708              	.LFE14:
 709              		.size	Comp_1_ZeroCal, .-Comp_1_ZeroCal
 710              		.section	.text.Comp_1_LoadTrim,"ax",%progbits
 711              		.align	2
 712              		.global	Comp_1_LoadTrim
 713              		.code	16
 714              		.thumb_func
 715              		.type	Comp_1_LoadTrim, %function
 716              	Comp_1_LoadTrim:
 717              	.LFB15:
 496:Generated_Source\PSoC4/Comp_1.c **** 
 497:Generated_Source\PSoC4/Comp_1.c **** 
 498:Generated_Source\PSoC4/Comp_1.c **** /*******************************************************************************
 499:Generated_Source\PSoC4/Comp_1.c **** * Function Name: Comp_1_LoadTrim
 500:Generated_Source\PSoC4/Comp_1.c **** ********************************************************************************
 501:Generated_Source\PSoC4/Comp_1.c **** *
 502:Generated_Source\PSoC4/Comp_1.c **** * Summary:
 503:Generated_Source\PSoC4/Comp_1.c **** *  This function writes a value into the comparator offset trim register.
 504:Generated_Source\PSoC4/Comp_1.c **** *
 505:Generated_Source\PSoC4/Comp_1.c **** * Parameters:
 506:Generated_Source\PSoC4/Comp_1.c **** *  trimVal: Value to be stored in the comparator offset trim register. This
 507:Generated_Source\PSoC4/Comp_1.c **** *  value has the same format as the parameter returned by the
 508:Generated_Source\PSoC4/Comp_1.c **** *  Comp_1_ZeroCal() API routine.
 509:Generated_Source\PSoC4/Comp_1.c **** *
 510:Generated_Source\PSoC4/Comp_1.c **** * Return:
 511:Generated_Source\PSoC4/Comp_1.c **** *  None
 512:Generated_Source\PSoC4/Comp_1.c **** *
 513:Generated_Source\PSoC4/Comp_1.c **** *******************************************************************************/
 514:Generated_Source\PSoC4/Comp_1.c **** void Comp_1_LoadTrim(uint32 trimVal)
 515:Generated_Source\PSoC4/Comp_1.c **** {
 718              		.loc 1 515 0
 719              		.cfi_startproc
 720              		@ args = 0, pretend = 0, frame = 0
 721              		@ frame_needed = 0, uses_anonymous_args = 0
 722              		@ link register save eliminated.
 723              	.LVL51:
 516:Generated_Source\PSoC4/Comp_1.c ****     Comp_1_TRIMA_REG = (trimVal & Comp_1_TRIMA_MASK);
 724              		.loc 1 516 0
 725 0000 1F23     		movs	r3, #31
 726 0002 1900     		movs	r1, r3
ARM GAS  C:\Users\JamesN4\AppData\Local\Temp\ccPxhuv7.s 			page 23


 727 0004 0140     		ands	r1, r0
 728 0006 034A     		ldr	r2, .L56
 729 0008 1160     		str	r1, [r2]
 517:Generated_Source\PSoC4/Comp_1.c ****     Comp_1_TRIMB_REG = ((trimVal >> Comp_1_TRIMB_SHIFT) & Comp_1_TRIMB_MASK);
 730              		.loc 1 517 0
 731 000a 000A     		lsrs	r0, r0, #8
 732              	.LVL52:
 733 000c 1840     		ands	r0, r3
 734 000e 024B     		ldr	r3, .L56+4
 735 0010 1860     		str	r0, [r3]
 518:Generated_Source\PSoC4/Comp_1.c **** }
 736              		.loc 1 518 0
 737              		@ sp needed
 738 0012 7047     		bx	lr
 739              	.L57:
 740              		.align	2
 741              	.L56:
 742 0014 08FF2B40 		.word	1076625160
 743 0018 0CFF2B40 		.word	1076625164
 744              		.cfi_endproc
 745              	.LFE15:
 746              		.size	Comp_1_LoadTrim, .-Comp_1_LoadTrim
 747              		.section	.text.Comp_1_SetOutputMode,"ax",%progbits
 748              		.align	2
 749              		.global	Comp_1_SetOutputMode
 750              		.code	16
 751              		.thumb_func
 752              		.type	Comp_1_SetOutputMode, %function
 753              	Comp_1_SetOutputMode:
 754              	.LFB16:
 519:Generated_Source\PSoC4/Comp_1.c **** 
 520:Generated_Source\PSoC4/Comp_1.c **** 
 521:Generated_Source\PSoC4/Comp_1.c **** #if (Comp_1_CY_LPCOMP_V2)
 522:Generated_Source\PSoC4/Comp_1.c ****     
 523:Generated_Source\PSoC4/Comp_1.c **** /*******************************************************************************
 524:Generated_Source\PSoC4/Comp_1.c **** * Function Name: Comp_1_SetOutputMode
 525:Generated_Source\PSoC4/Comp_1.c **** ********************************************************************************
 526:Generated_Source\PSoC4/Comp_1.c **** *
 527:Generated_Source\PSoC4/Comp_1.c **** * Summary:
 528:Generated_Source\PSoC4/Comp_1.c **** *  Set comparator output mode. 
 529:Generated_Source\PSoC4/Comp_1.c **** *
 530:Generated_Source\PSoC4/Comp_1.c **** * Parameters:
 531:Generated_Source\PSoC4/Comp_1.c **** *  uint32 mode: Comparator output mode value
 532:Generated_Source\PSoC4/Comp_1.c **** *  Comp_1_OUT_DIRECT - Direct output
 533:Generated_Source\PSoC4/Comp_1.c **** *  Comp_1_OUT_SYNC   - Synchronized output
 534:Generated_Source\PSoC4/Comp_1.c **** *  Comp_1_OUT_PULSE  - Pulse output
 535:Generated_Source\PSoC4/Comp_1.c **** *
 536:Generated_Source\PSoC4/Comp_1.c **** * Return:
 537:Generated_Source\PSoC4/Comp_1.c **** *  None
 538:Generated_Source\PSoC4/Comp_1.c **** *
 539:Generated_Source\PSoC4/Comp_1.c **** *******************************************************************************/
 540:Generated_Source\PSoC4/Comp_1.c **** void Comp_1_SetOutputMode(uint32 mode)
 541:Generated_Source\PSoC4/Comp_1.c **** {
 755              		.loc 1 541 0
 756              		.cfi_startproc
 757              		@ args = 0, pretend = 0, frame = 0
 758              		@ frame_needed = 0, uses_anonymous_args = 0
ARM GAS  C:\Users\JamesN4\AppData\Local\Temp\ccPxhuv7.s 			page 24


 759              	.LVL53:
 760 0000 10B5     		push	{r4, lr}
 761              		.cfi_def_cfa_offset 8
 762              		.cfi_offset 4, -8
 763              		.cfi_offset 14, -4
 764 0002 0400     		movs	r4, r0
 542:Generated_Source\PSoC4/Comp_1.c ****     uint32 config;
 543:Generated_Source\PSoC4/Comp_1.c ****     uint8 enableInterrupts;
 544:Generated_Source\PSoC4/Comp_1.c ****     
 545:Generated_Source\PSoC4/Comp_1.c ****     enableInterrupts = CyEnterCriticalSection();
 765              		.loc 1 545 0
 766 0004 FFF7FEFF 		bl	CyEnterCriticalSection
 767              	.LVL54:
 546:Generated_Source\PSoC4/Comp_1.c ****     config = Comp_1_CONFIG_REG & ((uint32)~(Comp_1_CONFIG_DSI_BYPASS | \
 768              		.loc 1 546 0
 769 0008 0A4B     		ldr	r3, .L61
 770 000a 1968     		ldr	r1, [r3]
 771 000c 0A4A     		ldr	r2, .L61+4
 772 000e 1140     		ands	r1, r2
 773              	.LVL55:
 547:Generated_Source\PSoC4/Comp_1.c ****                                                      Comp_1_CONFIG_DSI_LEVEL));
 548:Generated_Source\PSoC4/Comp_1.c ****     Comp_1_CONFIG_REG = config | Comp_1_GET_CONFIG_DSI_BYPASS(mode) | \
 774              		.loc 1 548 0
 775 0010 0223     		movs	r3, #2
 776 0012 2340     		ands	r3, r4
 777 0014 01D0     		beq	.L59
 778 0016 8023     		movs	r3, #128
 779 0018 5B03     		lsls	r3, r3, #13
 780              	.L59:
 781              		.loc 1 548 0 is_stmt 0 discriminator 4
 782 001a 0B43     		orrs	r3, r1
 783 001c 1A00     		movs	r2, r3
 549:Generated_Source\PSoC4/Comp_1.c ****                                            Comp_1_GET_CONFIG_DSI_LEVEL(mode);
 784              		.loc 1 549 0 is_stmt 1 discriminator 4
 785 001e 0123     		movs	r3, #1
 786 0020 2340     		ands	r3, r4
 787 0022 01D0     		beq	.L60
 788              		.loc 1 549 0 is_stmt 0
 789 0024 8023     		movs	r3, #128
 790 0026 9B03     		lsls	r3, r3, #14
 791              	.L60:
 548:Generated_Source\PSoC4/Comp_1.c ****                                            Comp_1_GET_CONFIG_DSI_LEVEL(mode);
 792              		.loc 1 548 0 is_stmt 1
 793 0028 1343     		orrs	r3, r2
 794 002a 024A     		ldr	r2, .L61
 795 002c 1360     		str	r3, [r2]
 550:Generated_Source\PSoC4/Comp_1.c ****     CyExitCriticalSection(enableInterrupts);
 796              		.loc 1 550 0
 797 002e FFF7FEFF 		bl	CyExitCriticalSection
 798              	.LVL56:
 551:Generated_Source\PSoC4/Comp_1.c **** }
 799              		.loc 1 551 0
 800              		@ sp needed
 801              	.LVL57:
 802 0032 10BD     		pop	{r4, pc}
 803              	.L62:
 804              		.align	2
ARM GAS  C:\Users\JamesN4\AppData\Local\Temp\ccPxhuv7.s 			page 25


 805              	.L61:
 806 0034 04002B40 		.word	1076559876
 807 0038 FFFFCFFF 		.word	-3145729
 808              		.cfi_endproc
 809              	.LFE16:
 810              		.size	Comp_1_SetOutputMode, .-Comp_1_SetOutputMode
 811              		.section	.text.Comp_1_SetInterruptMask,"ax",%progbits
 812              		.align	2
 813              		.global	Comp_1_SetInterruptMask
 814              		.code	16
 815              		.thumb_func
 816              		.type	Comp_1_SetInterruptMask, %function
 817              	Comp_1_SetInterruptMask:
 818              	.LFB17:
 552:Generated_Source\PSoC4/Comp_1.c **** 
 553:Generated_Source\PSoC4/Comp_1.c **** 
 554:Generated_Source\PSoC4/Comp_1.c **** /*******************************************************************************
 555:Generated_Source\PSoC4/Comp_1.c **** * Function Name: Comp_1_SetInterruptMask
 556:Generated_Source\PSoC4/Comp_1.c **** ********************************************************************************
 557:Generated_Source\PSoC4/Comp_1.c **** *
 558:Generated_Source\PSoC4/Comp_1.c **** * Summary:
 559:Generated_Source\PSoC4/Comp_1.c **** *  Configures which bits of interrupt request register will trigger an interrupt 
 560:Generated_Source\PSoC4/Comp_1.c **** *  event.
 561:Generated_Source\PSoC4/Comp_1.c **** *
 562:Generated_Source\PSoC4/Comp_1.c **** * Parameters:
 563:Generated_Source\PSoC4/Comp_1.c **** *  uint32 interruptMask: Mask of interrupts to set. Each component instance has
 564:Generated_Source\PSoC4/Comp_1.c **** *  a mask value: Comp_1_INTR_MASK.
 565:Generated_Source\PSoC4/Comp_1.c **** *
 566:Generated_Source\PSoC4/Comp_1.c **** * Return:
 567:Generated_Source\PSoC4/Comp_1.c **** *  None
 568:Generated_Source\PSoC4/Comp_1.c **** *
 569:Generated_Source\PSoC4/Comp_1.c **** *******************************************************************************/
 570:Generated_Source\PSoC4/Comp_1.c **** void Comp_1_SetInterruptMask(uint32 interruptMask)
 571:Generated_Source\PSoC4/Comp_1.c **** {
 819              		.loc 1 571 0
 820              		.cfi_startproc
 821              		@ args = 0, pretend = 0, frame = 0
 822              		@ frame_needed = 0, uses_anonymous_args = 0
 823              		@ link register save eliminated.
 824              	.LVL58:
 572:Generated_Source\PSoC4/Comp_1.c ****     #if(CY_IP_SRSSV2)
 573:Generated_Source\PSoC4/Comp_1.c ****         Comp_1_intrMaskRegState = interruptMask;
 825              		.loc 1 573 0
 826 0000 024B     		ldr	r3, .L64
 827 0002 1860     		str	r0, [r3]
 574:Generated_Source\PSoC4/Comp_1.c ****     #endif /* (CY_IP_SRSSV2) */
 575:Generated_Source\PSoC4/Comp_1.c ****     
 576:Generated_Source\PSoC4/Comp_1.c ****     Comp_1_INTR_MASK_REG = interruptMask;
 828              		.loc 1 576 0
 829 0004 024B     		ldr	r3, .L64+4
 830 0006 1860     		str	r0, [r3]
 577:Generated_Source\PSoC4/Comp_1.c **** }
 831              		.loc 1 577 0
 832              		@ sp needed
 833 0008 7047     		bx	lr
 834              	.L65:
 835 000a C046     		.align	2
ARM GAS  C:\Users\JamesN4\AppData\Local\Temp\ccPxhuv7.s 			page 26


 836              	.L64:
 837 000c 00000000 		.word	.LANCHOR1
 838 0010 18002B40 		.word	1076559896
 839              		.cfi_endproc
 840              	.LFE17:
 841              		.size	Comp_1_SetInterruptMask, .-Comp_1_SetInterruptMask
 842              		.section	.text.Comp_1_GetInterruptMask,"ax",%progbits
 843              		.align	2
 844              		.global	Comp_1_GetInterruptMask
 845              		.code	16
 846              		.thumb_func
 847              		.type	Comp_1_GetInterruptMask, %function
 848              	Comp_1_GetInterruptMask:
 849              	.LFB18:
 578:Generated_Source\PSoC4/Comp_1.c **** 
 579:Generated_Source\PSoC4/Comp_1.c **** 
 580:Generated_Source\PSoC4/Comp_1.c **** /*******************************************************************************
 581:Generated_Source\PSoC4/Comp_1.c **** * Function Name: Comp_1_GetInterruptMask
 582:Generated_Source\PSoC4/Comp_1.c **** ********************************************************************************
 583:Generated_Source\PSoC4/Comp_1.c **** *
 584:Generated_Source\PSoC4/Comp_1.c **** * Summary:
 585:Generated_Source\PSoC4/Comp_1.c **** *  Returns interrupt mask.
 586:Generated_Source\PSoC4/Comp_1.c **** *
 587:Generated_Source\PSoC4/Comp_1.c **** * Parameters:
 588:Generated_Source\PSoC4/Comp_1.c **** *  None
 589:Generated_Source\PSoC4/Comp_1.c **** *
 590:Generated_Source\PSoC4/Comp_1.c **** * Return:
 591:Generated_Source\PSoC4/Comp_1.c **** *  uint32:  Mask of enabled interrupt source. Each component instance 
 592:Generated_Source\PSoC4/Comp_1.c **** *  has a mask value: Comp_1_INTR_MASK.
 593:Generated_Source\PSoC4/Comp_1.c **** *
 594:Generated_Source\PSoC4/Comp_1.c **** *******************************************************************************/
 595:Generated_Source\PSoC4/Comp_1.c **** uint32 Comp_1_GetInterruptMask(void)
 596:Generated_Source\PSoC4/Comp_1.c **** {
 850              		.loc 1 596 0
 851              		.cfi_startproc
 852              		@ args = 0, pretend = 0, frame = 0
 853              		@ frame_needed = 0, uses_anonymous_args = 0
 854              		@ link register save eliminated.
 597:Generated_Source\PSoC4/Comp_1.c ****     return (Comp_1_INTR_MASK_REG);
 855              		.loc 1 597 0
 856 0000 014B     		ldr	r3, .L67
 857 0002 1868     		ldr	r0, [r3]
 598:Generated_Source\PSoC4/Comp_1.c **** }
 858              		.loc 1 598 0
 859              		@ sp needed
 860 0004 7047     		bx	lr
 861              	.L68:
 862 0006 C046     		.align	2
 863              	.L67:
 864 0008 18002B40 		.word	1076559896
 865              		.cfi_endproc
 866              	.LFE18:
 867              		.size	Comp_1_GetInterruptMask, .-Comp_1_GetInterruptMask
 868              		.section	.text.Comp_1_GetInterruptSourceMasked,"ax",%progbits
 869              		.align	2
 870              		.global	Comp_1_GetInterruptSourceMasked
 871              		.code	16
ARM GAS  C:\Users\JamesN4\AppData\Local\Temp\ccPxhuv7.s 			page 27


 872              		.thumb_func
 873              		.type	Comp_1_GetInterruptSourceMasked, %function
 874              	Comp_1_GetInterruptSourceMasked:
 875              	.LFB19:
 599:Generated_Source\PSoC4/Comp_1.c **** 
 600:Generated_Source\PSoC4/Comp_1.c **** 
 601:Generated_Source\PSoC4/Comp_1.c **** /*******************************************************************************
 602:Generated_Source\PSoC4/Comp_1.c **** * Function Name: Comp_1_GetInterruptSourceMasked
 603:Generated_Source\PSoC4/Comp_1.c **** ********************************************************************************
 604:Generated_Source\PSoC4/Comp_1.c **** *
 605:Generated_Source\PSoC4/Comp_1.c **** * Summary:
 606:Generated_Source\PSoC4/Comp_1.c **** *  Returns interrupt request register masked by interrupt mask. Returns the result 
 607:Generated_Source\PSoC4/Comp_1.c **** *  of bitwise AND operation between corresponding interrupt request and mask bits.
 608:Generated_Source\PSoC4/Comp_1.c **** *
 609:Generated_Source\PSoC4/Comp_1.c **** * Parameters:
 610:Generated_Source\PSoC4/Comp_1.c **** *  None
 611:Generated_Source\PSoC4/Comp_1.c **** *
 612:Generated_Source\PSoC4/Comp_1.c **** * Return:
 613:Generated_Source\PSoC4/Comp_1.c **** *  uint32: Status of enabled interrupt source. Each component instance 
 614:Generated_Source\PSoC4/Comp_1.c **** *  has a mask value: Comp_1_INTR_MASKED.
 615:Generated_Source\PSoC4/Comp_1.c **** *
 616:Generated_Source\PSoC4/Comp_1.c **** *******************************************************************************/
 617:Generated_Source\PSoC4/Comp_1.c **** uint32 Comp_1_GetInterruptSourceMasked(void)
 618:Generated_Source\PSoC4/Comp_1.c **** {
 876              		.loc 1 618 0
 877              		.cfi_startproc
 878              		@ args = 0, pretend = 0, frame = 0
 879              		@ frame_needed = 0, uses_anonymous_args = 0
 880              		@ link register save eliminated.
 619:Generated_Source\PSoC4/Comp_1.c ****     return (Comp_1_INTR_MASKED_REG);
 881              		.loc 1 619 0
 882 0000 014B     		ldr	r3, .L70
 883 0002 1868     		ldr	r0, [r3]
 620:Generated_Source\PSoC4/Comp_1.c **** }
 884              		.loc 1 620 0
 885              		@ sp needed
 886 0004 7047     		bx	lr
 887              	.L71:
 888 0006 C046     		.align	2
 889              	.L70:
 890 0008 1C002B40 		.word	1076559900
 891              		.cfi_endproc
 892              	.LFE19:
 893              		.size	Comp_1_GetInterruptSourceMasked, .-Comp_1_GetInterruptSourceMasked
 894              		.global	Comp_1_initVar
 895              		.section	.noinit,"aw",%progbits
 896              		.align	2
 897              		.set	.LANCHOR1,. + 0
 898              		.type	Comp_1_intrMaskRegState, %object
 899              		.size	Comp_1_intrMaskRegState, 4
 900              	Comp_1_intrMaskRegState:
 901 0000 00000000 		.space	4
 902              		.bss
 903              		.align	2
 904              		.set	.LANCHOR0,. + 0
 905              		.type	Comp_1_internalIntr, %object
 906              		.size	Comp_1_internalIntr, 4
ARM GAS  C:\Users\JamesN4\AppData\Local\Temp\ccPxhuv7.s 			page 28


 907              	Comp_1_internalIntr:
 908 0000 00000000 		.space	4
 909              		.type	Comp_1_initVar, %object
 910              		.size	Comp_1_initVar, 1
 911              	Comp_1_initVar:
 912 0004 00       		.space	1
 913              		.text
 914              	.Letext0:
 915              		.file 2 "Generated_Source\\PSoC4\\cytypes.h"
 916              		.file 3 "Generated_Source\\PSoC4\\CyLib.h"
 917              		.file 4 "Generated_Source\\PSoC4\\cyPm.h"