ARM GAS  C:\Users\JamesN4\AppData\Local\Temp\ccgbGPCH.s 			page 1


   1              		.syntax unified
   2              		.cpu cortex-m0
   3              		.fpu softvfp
   4              		.eabi_attribute 20, 1
   5              		.eabi_attribute 21, 1
   6              		.eabi_attribute 23, 3
   7              		.eabi_attribute 24, 1
   8              		.eabi_attribute 25, 1
   9              		.eabi_attribute 26, 1
  10              		.eabi_attribute 30, 1
  11              		.eabi_attribute 34, 0
  12              		.eabi_attribute 18, 4
  13              		.thumb
  14              		.syntax unified
  15              		.file	"CyDMA.c"
  16              		.text
  17              	.Ltext0:
  18              		.cfi_sections	.debug_frame
  19              		.section	.text.CyDmaInterrupt,"ax",%progbits
  20              		.align	2
  21              		.global	CyDmaInterrupt
  22              		.code	16
  23              		.thumb_func
  24              		.type	CyDmaInterrupt, %function
  25              	CyDmaInterrupt:
  26              	.LFB15:
  27              		.file 1 "Generated_Source\\PSoC4\\CyDMA.c"
   1:Generated_Source\PSoC4/CyDMA.c **** /*******************************************************************************
   2:Generated_Source\PSoC4/CyDMA.c **** * File Name: CyDMA.c
   3:Generated_Source\PSoC4/CyDMA.c **** * Version 1.10
   4:Generated_Source\PSoC4/CyDMA.c **** *
   5:Generated_Source\PSoC4/CyDMA.c **** * Description:
   6:Generated_Source\PSoC4/CyDMA.c **** *  This file contains all of the global DMA API functions.
   7:Generated_Source\PSoC4/CyDMA.c **** *
   8:Generated_Source\PSoC4/CyDMA.c **** ********************************************************************************
   9:Generated_Source\PSoC4/CyDMA.c **** * Copyright 2015, Cypress Semiconductor Corporation. All rights reserved.
  10:Generated_Source\PSoC4/CyDMA.c **** * You may use this file only in accordance with the license, terms, conditions,
  11:Generated_Source\PSoC4/CyDMA.c **** * disclaimers, and limitations in the end user license agreement accompanying
  12:Generated_Source\PSoC4/CyDMA.c **** * the software package with which this file was provided.
  13:Generated_Source\PSoC4/CyDMA.c **** *******************************************************************************/
  14:Generated_Source\PSoC4/CyDMA.c **** 
  15:Generated_Source\PSoC4/CyDMA.c **** #include "CyDMA.h"
  16:Generated_Source\PSoC4/CyDMA.c **** #include "CyLib.h"
  17:Generated_Source\PSoC4/CyDMA.c **** 
  18:Generated_Source\PSoC4/CyDMA.c **** /* Default callback function. It is invoked if the user callback function is
  19:Generated_Source\PSoC4/CyDMA.c **** * undefined.
  20:Generated_Source\PSoC4/CyDMA.c **** */
  21:Generated_Source\PSoC4/CyDMA.c **** static void CyDmaDefaultInterruptCallback(void);
  22:Generated_Source\PSoC4/CyDMA.c **** 
  23:Generated_Source\PSoC4/CyDMA.c **** /* Array of pointers to user defined callback functions to be called
  24:Generated_Source\PSoC4/CyDMA.c **** * from DMA interrupt.
  25:Generated_Source\PSoC4/CyDMA.c **** */
  26:Generated_Source\PSoC4/CyDMA.c **** static cydma_callback_t CyDmaInterruptCallback[CYDMA_CH_NR] = {
  27:Generated_Source\PSoC4/CyDMA.c ****     &CyDmaDefaultInterruptCallback, &CyDmaDefaultInterruptCallback,
  28:Generated_Source\PSoC4/CyDMA.c ****     &CyDmaDefaultInterruptCallback, &CyDmaDefaultInterruptCallback,
  29:Generated_Source\PSoC4/CyDMA.c ****     &CyDmaDefaultInterruptCallback, &CyDmaDefaultInterruptCallback,
  30:Generated_Source\PSoC4/CyDMA.c ****     &CyDmaDefaultInterruptCallback, &CyDmaDefaultInterruptCallback
ARM GAS  C:\Users\JamesN4\AppData\Local\Temp\ccgbGPCH.s 			page 2


  31:Generated_Source\PSoC4/CyDMA.c **** };
  32:Generated_Source\PSoC4/CyDMA.c **** 
  33:Generated_Source\PSoC4/CyDMA.c **** /* The live status of all DMA channels usage. Bit i is associated to channel i,
  34:Generated_Source\PSoC4/CyDMA.c **** * with i = 0..CYDMA_CH_NR-1. '0' - channel is free. '1' - channel is in use.
  35:Generated_Source\PSoC4/CyDMA.c **** * All the channels allocated for DMA instances placed on a schematic are in use
  36:Generated_Source\PSoC4/CyDMA.c **** * by default and cannot be freed. 
  37:Generated_Source\PSoC4/CyDMA.c **** * DMA_CHANNELS_USED__MASK is generated during the build time and is a bit field
  38:Generated_Source\PSoC4/CyDMA.c **** * corresponding to the DMA channels placed on a design schematic.
  39:Generated_Source\PSoC4/CyDMA.c **** */
  40:Generated_Source\PSoC4/CyDMA.c **** static uint32 CyDmaChannelUsedMask = DMA_CHANNELS_USED__MASK;
  41:Generated_Source\PSoC4/CyDMA.c **** 
  42:Generated_Source\PSoC4/CyDMA.c **** 
  43:Generated_Source\PSoC4/CyDMA.c **** /*******************************************************************************
  44:Generated_Source\PSoC4/CyDMA.c **** * Function Name: CyDmaEnable
  45:Generated_Source\PSoC4/CyDMA.c **** ********************************************************************************
  46:Generated_Source\PSoC4/CyDMA.c **** *
  47:Generated_Source\PSoC4/CyDMA.c **** * Summary:
  48:Generated_Source\PSoC4/CyDMA.c **** *  Sets the default ISR to be called by the DMA interrupt and enables the DMA
  49:Generated_Source\PSoC4/CyDMA.c **** *  transfer engine.
  50:Generated_Source\PSoC4/CyDMA.c **** *
  51:Generated_Source\PSoC4/CyDMA.c **** * Parameters:
  52:Generated_Source\PSoC4/CyDMA.c **** *  None.
  53:Generated_Source\PSoC4/CyDMA.c **** *                   
  54:Generated_Source\PSoC4/CyDMA.c **** * Return:
  55:Generated_Source\PSoC4/CyDMA.c **** *  None.
  56:Generated_Source\PSoC4/CyDMA.c **** *
  57:Generated_Source\PSoC4/CyDMA.c **** * Side effect:
  58:Generated_Source\PSoC4/CyDMA.c **** *  Does not affect the channel enable status. Overrides the interrupt vector
  59:Generated_Source\PSoC4/CyDMA.c **** *  set prior the first time CyDmaEnable() is called.
  60:Generated_Source\PSoC4/CyDMA.c **** *
  61:Generated_Source\PSoC4/CyDMA.c **** *******************************************************************************/
  62:Generated_Source\PSoC4/CyDMA.c **** void CyDmaEnable(void)
  63:Generated_Source\PSoC4/CyDMA.c **** {
  64:Generated_Source\PSoC4/CyDMA.c ****     static uint8 initIntrVector = 0u;
  65:Generated_Source\PSoC4/CyDMA.c **** 
  66:Generated_Source\PSoC4/CyDMA.c ****     if(0u == initIntrVector)
  67:Generated_Source\PSoC4/CyDMA.c ****     {
  68:Generated_Source\PSoC4/CyDMA.c ****         CyDmaSetInterruptVector(&CyDmaInterrupt);
  69:Generated_Source\PSoC4/CyDMA.c ****         CyIntSetPriority(CYDMA_INTR_NUMBER, CYDMA_INTR_PRIO);
  70:Generated_Source\PSoC4/CyDMA.c ****         initIntrVector = 1u;
  71:Generated_Source\PSoC4/CyDMA.c ****     }
  72:Generated_Source\PSoC4/CyDMA.c ****     CYDMA_CTL_REG = CYDMA_ENABLED;
  73:Generated_Source\PSoC4/CyDMA.c **** }
  74:Generated_Source\PSoC4/CyDMA.c **** 
  75:Generated_Source\PSoC4/CyDMA.c **** 
  76:Generated_Source\PSoC4/CyDMA.c **** /*******************************************************************************
  77:Generated_Source\PSoC4/CyDMA.c **** * Function Name: CyDmaDisable
  78:Generated_Source\PSoC4/CyDMA.c **** ********************************************************************************
  79:Generated_Source\PSoC4/CyDMA.c **** *
  80:Generated_Source\PSoC4/CyDMA.c **** * Summary:
  81:Generated_Source\PSoC4/CyDMA.c **** *  Disables the DMA transfer engine.
  82:Generated_Source\PSoC4/CyDMA.c **** *
  83:Generated_Source\PSoC4/CyDMA.c **** * Parameters:
  84:Generated_Source\PSoC4/CyDMA.c **** *  None.
  85:Generated_Source\PSoC4/CyDMA.c **** *                   
  86:Generated_Source\PSoC4/CyDMA.c **** * Return:
  87:Generated_Source\PSoC4/CyDMA.c **** *  None.
ARM GAS  C:\Users\JamesN4\AppData\Local\Temp\ccgbGPCH.s 			page 3


  88:Generated_Source\PSoC4/CyDMA.c **** *
  89:Generated_Source\PSoC4/CyDMA.c **** * Side effect:
  90:Generated_Source\PSoC4/CyDMA.c **** *  Does not affect the channel enable status.
  91:Generated_Source\PSoC4/CyDMA.c **** *
  92:Generated_Source\PSoC4/CyDMA.c **** *******************************************************************************/
  93:Generated_Source\PSoC4/CyDMA.c **** void CyDmaDisable(void)
  94:Generated_Source\PSoC4/CyDMA.c **** {
  95:Generated_Source\PSoC4/CyDMA.c ****     CYDMA_CTL_REG = (uint32)~CYDMA_ENABLED;
  96:Generated_Source\PSoC4/CyDMA.c **** }
  97:Generated_Source\PSoC4/CyDMA.c **** 
  98:Generated_Source\PSoC4/CyDMA.c **** 
  99:Generated_Source\PSoC4/CyDMA.c **** /*******************************************************************************
 100:Generated_Source\PSoC4/CyDMA.c **** * Function Name: CyDmaGetStatus
 101:Generated_Source\PSoC4/CyDMA.c **** ********************************************************************************
 102:Generated_Source\PSoC4/CyDMA.c **** *
 103:Generated_Source\PSoC4/CyDMA.c **** * Summary:
 104:Generated_Source\PSoC4/CyDMA.c **** *  Returns the status of the DMA transfer engine.
 105:Generated_Source\PSoC4/CyDMA.c **** *
 106:Generated_Source\PSoC4/CyDMA.c **** * Parameters:
 107:Generated_Source\PSoC4/CyDMA.c **** *  None.
 108:Generated_Source\PSoC4/CyDMA.c **** *                   
 109:Generated_Source\PSoC4/CyDMA.c **** * Return:
 110:Generated_Source\PSoC4/CyDMA.c **** *  The contents of the DMA status register. Refer to the status register bit
 111:Generated_Source\PSoC4/CyDMA.c **** *  definitions in CyDMA_P4.h or the API description in the DMA channel
 112:Generated_Source\PSoC4/CyDMA.c **** *  datasheet.
 113:Generated_Source\PSoC4/CyDMA.c **** *
 114:Generated_Source\PSoC4/CyDMA.c **** * Side effect:
 115:Generated_Source\PSoC4/CyDMA.c **** *  The series of function calls CyDmaGetActiveSrcAddress(),
 116:Generated_Source\PSoC4/CyDMA.c **** *  CyDmaGetActiveDstAddress(), CyDmaGetStatus() are not atomic, the DMA
 117:Generated_Source\PSoC4/CyDMA.c **** *  engine may have advanced after one or more of these function calls. Meaning
 118:Generated_Source\PSoC4/CyDMA.c **** *  the returns from these three functions may not be related to each other.
 119:Generated_Source\PSoC4/CyDMA.c **** *
 120:Generated_Source\PSoC4/CyDMA.c **** *******************************************************************************/
 121:Generated_Source\PSoC4/CyDMA.c **** uint32 CyDmaGetStatus(void)
 122:Generated_Source\PSoC4/CyDMA.c **** {
 123:Generated_Source\PSoC4/CyDMA.c ****     return (CYDMA_STATUS_REG);
 124:Generated_Source\PSoC4/CyDMA.c **** }
 125:Generated_Source\PSoC4/CyDMA.c **** 
 126:Generated_Source\PSoC4/CyDMA.c **** 
 127:Generated_Source\PSoC4/CyDMA.c **** /*******************************************************************************
 128:Generated_Source\PSoC4/CyDMA.c **** * Function Name: CyDmaGetActiveChannels
 129:Generated_Source\PSoC4/CyDMA.c **** ********************************************************************************
 130:Generated_Source\PSoC4/CyDMA.c **** *
 131:Generated_Source\PSoC4/CyDMA.c **** * Summary:
 132:Generated_Source\PSoC4/CyDMA.c **** *  Returns a bit field of all the DMA channels that are either active or
 133:Generated_Source\PSoC4/CyDMA.c **** *  pending.
 134:Generated_Source\PSoC4/CyDMA.c **** *
 135:Generated_Source\PSoC4/CyDMA.c **** * Parameters:
 136:Generated_Source\PSoC4/CyDMA.c **** *  None.
 137:Generated_Source\PSoC4/CyDMA.c **** *                   
 138:Generated_Source\PSoC4/CyDMA.c **** * Return:
 139:Generated_Source\PSoC4/CyDMA.c **** *  Bit field of active and pending channels. 
 140:Generated_Source\PSoC4/CyDMA.c **** *
 141:Generated_Source\PSoC4/CyDMA.c **** *******************************************************************************/
 142:Generated_Source\PSoC4/CyDMA.c **** uint32 CyDmaGetActiveChannels(void)
 143:Generated_Source\PSoC4/CyDMA.c **** {
 144:Generated_Source\PSoC4/CyDMA.c ****     return (CYDMA_STATUS_CH_ACT_REG);
ARM GAS  C:\Users\JamesN4\AppData\Local\Temp\ccgbGPCH.s 			page 4


 145:Generated_Source\PSoC4/CyDMA.c **** }
 146:Generated_Source\PSoC4/CyDMA.c **** 
 147:Generated_Source\PSoC4/CyDMA.c **** 
 148:Generated_Source\PSoC4/CyDMA.c **** /*******************************************************************************
 149:Generated_Source\PSoC4/CyDMA.c **** * Function Name: CyDmaGetActiveSrcAddress
 150:Generated_Source\PSoC4/CyDMA.c **** ********************************************************************************
 151:Generated_Source\PSoC4/CyDMA.c **** *
 152:Generated_Source\PSoC4/CyDMA.c **** * Summary:
 153:Generated_Source\PSoC4/CyDMA.c **** *  Returns the source address currently being used by the DMA transfer engine.
 154:Generated_Source\PSoC4/CyDMA.c **** *  This function can be used to debug the DMA, or observe where it is at in a
 155:Generated_Source\PSoC4/CyDMA.c **** *  transfer. It will not be used in normal DMA operation.
 156:Generated_Source\PSoC4/CyDMA.c **** *
 157:Generated_Source\PSoC4/CyDMA.c **** * Parameters:
 158:Generated_Source\PSoC4/CyDMA.c **** *  None.
 159:Generated_Source\PSoC4/CyDMA.c **** *                   
 160:Generated_Source\PSoC4/CyDMA.c **** * Return:
 161:Generated_Source\PSoC4/CyDMA.c **** *  Source address currently being used by the DMA transfer engine.
 162:Generated_Source\PSoC4/CyDMA.c **** *
 163:Generated_Source\PSoC4/CyDMA.c **** * Side effect:
 164:Generated_Source\PSoC4/CyDMA.c **** *  The series of function calls CyDmaGetActiveSrcAddress(),
 165:Generated_Source\PSoC4/CyDMA.c **** *  CyDmaGetActiveDstAddress(), CyDmaGetStatus() are not atomic, the DMA
 166:Generated_Source\PSoC4/CyDMA.c **** *  engine may have advanced after one or more of these function calls. Meaning
 167:Generated_Source\PSoC4/CyDMA.c **** *  the returns from these three functions may not be related to each other.
 168:Generated_Source\PSoC4/CyDMA.c **** *
 169:Generated_Source\PSoC4/CyDMA.c **** *******************************************************************************/
 170:Generated_Source\PSoC4/CyDMA.c **** void * CyDmaGetActiveSrcAddress(void)
 171:Generated_Source\PSoC4/CyDMA.c **** {
 172:Generated_Source\PSoC4/CyDMA.c ****     return ((void *)CYDMA_STATUS_SRC_ADDR_REG);
 173:Generated_Source\PSoC4/CyDMA.c **** }
 174:Generated_Source\PSoC4/CyDMA.c **** 
 175:Generated_Source\PSoC4/CyDMA.c **** 
 176:Generated_Source\PSoC4/CyDMA.c **** /*******************************************************************************
 177:Generated_Source\PSoC4/CyDMA.c **** * Function Name: CyDmaGetActiveDstAddress
 178:Generated_Source\PSoC4/CyDMA.c **** ********************************************************************************
 179:Generated_Source\PSoC4/CyDMA.c **** *
 180:Generated_Source\PSoC4/CyDMA.c **** * Summary:
 181:Generated_Source\PSoC4/CyDMA.c **** *  Returns the destination address currently being used by the DMA transfer
 182:Generated_Source\PSoC4/CyDMA.c **** *  engine. This function can be used to debug the DMA, or observe where it is at
 183:Generated_Source\PSoC4/CyDMA.c **** *  in a transfer. It will not be used in normal DMA operation.
 184:Generated_Source\PSoC4/CyDMA.c **** *
 185:Generated_Source\PSoC4/CyDMA.c **** * Parameters:
 186:Generated_Source\PSoC4/CyDMA.c **** *  None.
 187:Generated_Source\PSoC4/CyDMA.c **** *                   
 188:Generated_Source\PSoC4/CyDMA.c **** * Return:
 189:Generated_Source\PSoC4/CyDMA.c **** *  Destination address currently being used by the DMA transfer engine.
 190:Generated_Source\PSoC4/CyDMA.c **** *
 191:Generated_Source\PSoC4/CyDMA.c **** * Side effect:
 192:Generated_Source\PSoC4/CyDMA.c **** *  The series of function calls CyDmaGetActiveSrcAddress(),
 193:Generated_Source\PSoC4/CyDMA.c **** *  CyDmaGetActiveDstAddress(), CyDmaGetStatus() are not atomic, the DMA
 194:Generated_Source\PSoC4/CyDMA.c **** *  engine may have advanced after one or more of these function calls. Meaning
 195:Generated_Source\PSoC4/CyDMA.c **** *  the returns from these three functions may not be related to each other.
 196:Generated_Source\PSoC4/CyDMA.c **** *
 197:Generated_Source\PSoC4/CyDMA.c **** *******************************************************************************/
 198:Generated_Source\PSoC4/CyDMA.c **** void * CyDmaGetActiveDstAddress(void)
 199:Generated_Source\PSoC4/CyDMA.c **** {
 200:Generated_Source\PSoC4/CyDMA.c ****     return ((void *)CYDMA_STATUS_DST_ADDR_REG);
 201:Generated_Source\PSoC4/CyDMA.c **** }
ARM GAS  C:\Users\JamesN4\AppData\Local\Temp\ccgbGPCH.s 			page 5


 202:Generated_Source\PSoC4/CyDMA.c **** 
 203:Generated_Source\PSoC4/CyDMA.c **** 
 204:Generated_Source\PSoC4/CyDMA.c **** /*******************************************************************************
 205:Generated_Source\PSoC4/CyDMA.c **** * Function Name: CyDmaSetInterruptVector
 206:Generated_Source\PSoC4/CyDMA.c **** ********************************************************************************
 207:Generated_Source\PSoC4/CyDMA.c **** *
 208:Generated_Source\PSoC4/CyDMA.c **** * Summary:
 209:Generated_Source\PSoC4/CyDMA.c **** *  Sets the function that will be called by the DMA interrupt. Note, calling
 210:Generated_Source\PSoC4/CyDMA.c **** *  CyDmaEnable() for the first time overrides any effect this API could have.
 211:Generated_Source\PSoC4/CyDMA.c **** *  Call CyDmaSetInterruptVector() after calling CyDmaEnable() to change
 212:Generated_Source\PSoC4/CyDMA.c **** *  the default ISR.
 213:Generated_Source\PSoC4/CyDMA.c **** *
 214:Generated_Source\PSoC4/CyDMA.c **** * Parameters:
 215:Generated_Source\PSoC4/CyDMA.c **** *  interruptVector: Address of the function that will be called by the DMA
 216:Generated_Source\PSoC4/CyDMA.c **** *                   interrupt.
 217:Generated_Source\PSoC4/CyDMA.c **** * Return:
 218:Generated_Source\PSoC4/CyDMA.c **** *  None.
 219:Generated_Source\PSoC4/CyDMA.c **** *
 220:Generated_Source\PSoC4/CyDMA.c **** * Side effect:
 221:Generated_Source\PSoC4/CyDMA.c **** *  Other components that use DMA may register their callback functions to be
 222:Generated_Source\PSoC4/CyDMA.c **** *  called from the default DMA ISR. Therefore, changing the DMA ISR to a user
 223:Generated_Source\PSoC4/CyDMA.c **** *  defined ISR using this API may prevent these other components from
 224:Generated_Source\PSoC4/CyDMA.c **** *  functioning correctly.
 225:Generated_Source\PSoC4/CyDMA.c **** *
 226:Generated_Source\PSoC4/CyDMA.c **** *******************************************************************************/
 227:Generated_Source\PSoC4/CyDMA.c **** void CyDmaSetInterruptVector(cyisraddress interruptVector)
 228:Generated_Source\PSoC4/CyDMA.c **** {
 229:Generated_Source\PSoC4/CyDMA.c ****     (void)CyIntSetVector(CYDMA_INTR_NUMBER, interruptVector);
 230:Generated_Source\PSoC4/CyDMA.c **** }
 231:Generated_Source\PSoC4/CyDMA.c **** 
 232:Generated_Source\PSoC4/CyDMA.c **** 
 233:Generated_Source\PSoC4/CyDMA.c **** /*******************************************************************************
 234:Generated_Source\PSoC4/CyDMA.c **** * Function Name: CyDmaGetInterruptSource
 235:Generated_Source\PSoC4/CyDMA.c **** ********************************************************************************
 236:Generated_Source\PSoC4/CyDMA.c **** *
 237:Generated_Source\PSoC4/CyDMA.c **** * Summary:
 238:Generated_Source\PSoC4/CyDMA.c **** *  Returns the bit field of which channels generated an interrupt request.
 239:Generated_Source\PSoC4/CyDMA.c **** *
 240:Generated_Source\PSoC4/CyDMA.c **** * Parameters:
 241:Generated_Source\PSoC4/CyDMA.c **** *  None.
 242:Generated_Source\PSoC4/CyDMA.c **** *                   
 243:Generated_Source\PSoC4/CyDMA.c **** * Return:
 244:Generated_Source\PSoC4/CyDMA.c **** *  Bit filed of which channels generated an interrupt request.
 245:Generated_Source\PSoC4/CyDMA.c **** *
 246:Generated_Source\PSoC4/CyDMA.c **** *******************************************************************************/
 247:Generated_Source\PSoC4/CyDMA.c **** uint32 CyDmaGetInterruptSource(void)
 248:Generated_Source\PSoC4/CyDMA.c **** {
 249:Generated_Source\PSoC4/CyDMA.c ****     return (CYDMA_INTR_REG);
 250:Generated_Source\PSoC4/CyDMA.c **** }
 251:Generated_Source\PSoC4/CyDMA.c **** 
 252:Generated_Source\PSoC4/CyDMA.c **** 
 253:Generated_Source\PSoC4/CyDMA.c **** /*******************************************************************************
 254:Generated_Source\PSoC4/CyDMA.c **** * Function Name: CyDmaClearInterruptSource
 255:Generated_Source\PSoC4/CyDMA.c **** ********************************************************************************
 256:Generated_Source\PSoC4/CyDMA.c **** *
 257:Generated_Source\PSoC4/CyDMA.c **** * Summary:
 258:Generated_Source\PSoC4/CyDMA.c **** *  Clears the pending interrupts.
ARM GAS  C:\Users\JamesN4\AppData\Local\Temp\ccgbGPCH.s 			page 6


 259:Generated_Source\PSoC4/CyDMA.c **** *
 260:Generated_Source\PSoC4/CyDMA.c **** * Parameters:
 261:Generated_Source\PSoC4/CyDMA.c **** *  interruptMask: Bit field of interrupts to clear.
 262:Generated_Source\PSoC4/CyDMA.c **** *                   
 263:Generated_Source\PSoC4/CyDMA.c **** * Return:
 264:Generated_Source\PSoC4/CyDMA.c **** *  None.
 265:Generated_Source\PSoC4/CyDMA.c **** *
 266:Generated_Source\PSoC4/CyDMA.c **** *******************************************************************************/
 267:Generated_Source\PSoC4/CyDMA.c **** void CyDmaClearInterruptSource(uint32 interruptMask)
 268:Generated_Source\PSoC4/CyDMA.c **** {
 269:Generated_Source\PSoC4/CyDMA.c ****     CYDMA_INTR_REG = interruptMask;
 270:Generated_Source\PSoC4/CyDMA.c **** }
 271:Generated_Source\PSoC4/CyDMA.c **** 
 272:Generated_Source\PSoC4/CyDMA.c **** 
 273:Generated_Source\PSoC4/CyDMA.c **** /*******************************************************************************
 274:Generated_Source\PSoC4/CyDMA.c **** * Function Name: CyDmaSetInterruptSourceMask
 275:Generated_Source\PSoC4/CyDMA.c **** ********************************************************************************
 276:Generated_Source\PSoC4/CyDMA.c **** *
 277:Generated_Source\PSoC4/CyDMA.c **** * Summary:
 278:Generated_Source\PSoC4/CyDMA.c **** *  Sets mask for interrupt source.
 279:Generated_Source\PSoC4/CyDMA.c **** *
 280:Generated_Source\PSoC4/CyDMA.c **** * Parameters:
 281:Generated_Source\PSoC4/CyDMA.c **** *  interruptmask: Mask corresponding to interrupt bit field.
 282:Generated_Source\PSoC4/CyDMA.c **** *                   
 283:Generated_Source\PSoC4/CyDMA.c **** * Return:
 284:Generated_Source\PSoC4/CyDMA.c **** *  None.
 285:Generated_Source\PSoC4/CyDMA.c **** *
 286:Generated_Source\PSoC4/CyDMA.c **** *******************************************************************************/
 287:Generated_Source\PSoC4/CyDMA.c **** void CyDmaSetInterruptSourceMask(uint32 interruptMask)
 288:Generated_Source\PSoC4/CyDMA.c **** {
 289:Generated_Source\PSoC4/CyDMA.c ****     CYDMA_INTR_MASK_REG = interruptMask;
 290:Generated_Source\PSoC4/CyDMA.c **** }
 291:Generated_Source\PSoC4/CyDMA.c **** 
 292:Generated_Source\PSoC4/CyDMA.c **** 
 293:Generated_Source\PSoC4/CyDMA.c **** /*******************************************************************************
 294:Generated_Source\PSoC4/CyDMA.c **** * Function Name: CyDmaGetInterruptSourceMask
 295:Generated_Source\PSoC4/CyDMA.c **** ********************************************************************************
 296:Generated_Source\PSoC4/CyDMA.c **** *
 297:Generated_Source\PSoC4/CyDMA.c **** * Summary:
 298:Generated_Source\PSoC4/CyDMA.c **** *  Returns mask for interrupt source.
 299:Generated_Source\PSoC4/CyDMA.c **** *
 300:Generated_Source\PSoC4/CyDMA.c **** * Parameters:
 301:Generated_Source\PSoC4/CyDMA.c **** *  None.
 302:Generated_Source\PSoC4/CyDMA.c **** *                   
 303:Generated_Source\PSoC4/CyDMA.c **** * Return:
 304:Generated_Source\PSoC4/CyDMA.c **** *  Mask corresponding to interrupt bit field.
 305:Generated_Source\PSoC4/CyDMA.c **** *
 306:Generated_Source\PSoC4/CyDMA.c **** *******************************************************************************/
 307:Generated_Source\PSoC4/CyDMA.c **** uint32 CyDmaGetInterruptSourceMask(void)
 308:Generated_Source\PSoC4/CyDMA.c **** {
 309:Generated_Source\PSoC4/CyDMA.c ****     return (CYDMA_INTR_MASK_REG);
 310:Generated_Source\PSoC4/CyDMA.c **** }
 311:Generated_Source\PSoC4/CyDMA.c **** 
 312:Generated_Source\PSoC4/CyDMA.c **** 
 313:Generated_Source\PSoC4/CyDMA.c **** /*******************************************************************************
 314:Generated_Source\PSoC4/CyDMA.c **** * Function Name: CyDmaGetInterruptSourceMasked
 315:Generated_Source\PSoC4/CyDMA.c **** ********************************************************************************
ARM GAS  C:\Users\JamesN4\AppData\Local\Temp\ccgbGPCH.s 			page 7


 316:Generated_Source\PSoC4/CyDMA.c **** *
 317:Generated_Source\PSoC4/CyDMA.c **** * Summary:
 318:Generated_Source\PSoC4/CyDMA.c **** *  Returns the bitwise AND of the interrupt source and the interrupt mask.
 319:Generated_Source\PSoC4/CyDMA.c **** *
 320:Generated_Source\PSoC4/CyDMA.c **** * Parameters:
 321:Generated_Source\PSoC4/CyDMA.c **** *  None.
 322:Generated_Source\PSoC4/CyDMA.c **** *                   
 323:Generated_Source\PSoC4/CyDMA.c **** * Return:
 324:Generated_Source\PSoC4/CyDMA.c **** *  Bitwise AND of the interrupt source and the interrupt mask.
 325:Generated_Source\PSoC4/CyDMA.c **** *
 326:Generated_Source\PSoC4/CyDMA.c **** *******************************************************************************/
 327:Generated_Source\PSoC4/CyDMA.c **** uint32 CyDmaGetInterruptSourceMasked(void)
 328:Generated_Source\PSoC4/CyDMA.c **** {
 329:Generated_Source\PSoC4/CyDMA.c ****     return (CYDMA_INTR_MASKED_REG);
 330:Generated_Source\PSoC4/CyDMA.c **** }
 331:Generated_Source\PSoC4/CyDMA.c **** 
 332:Generated_Source\PSoC4/CyDMA.c **** 
 333:Generated_Source\PSoC4/CyDMA.c **** /*******************************************************************************
 334:Generated_Source\PSoC4/CyDMA.c **** * Function Name: CyDmaSetInterruptCallback
 335:Generated_Source\PSoC4/CyDMA.c **** ********************************************************************************
 336:Generated_Source\PSoC4/CyDMA.c **** *
 337:Generated_Source\PSoC4/CyDMA.c **** * Summary:
 338:Generated_Source\PSoC4/CyDMA.c **** *  Sets a user defined callback function to be called by the DMA interrupt. The
 339:Generated_Source\PSoC4/CyDMA.c **** *  function should contain code to process the interrupt request for the 
 340:Generated_Source\PSoC4/CyDMA.c **** *  associated DMA channel.
 341:Generated_Source\PSoC4/CyDMA.c **** *
 342:Generated_Source\PSoC4/CyDMA.c **** * Parameters:
 343:Generated_Source\PSoC4/CyDMA.c **** *  channel:  Channel used by this function.
 344:Generated_Source\PSoC4/CyDMA.c **** *  callback: Pointer to the user defined callback function.
 345:Generated_Source\PSoC4/CyDMA.c **** *
 346:Generated_Source\PSoC4/CyDMA.c **** * Return:
 347:Generated_Source\PSoC4/CyDMA.c **** *  Pointer to the function previously set for the specified channel. 
 348:Generated_Source\PSoC4/CyDMA.c **** *
 349:Generated_Source\PSoC4/CyDMA.c **** *******************************************************************************/
 350:Generated_Source\PSoC4/CyDMA.c **** cydma_callback_t CyDmaSetInterruptCallback(int32 channel, cydma_callback_t callback)
 351:Generated_Source\PSoC4/CyDMA.c **** {
 352:Generated_Source\PSoC4/CyDMA.c ****     cydma_callback_t prevCallback;
 353:Generated_Source\PSoC4/CyDMA.c **** 
 354:Generated_Source\PSoC4/CyDMA.c ****     CYASSERT((channel >= 0) && (channel < CYDMA_CH_NR));
 355:Generated_Source\PSoC4/CyDMA.c **** 
 356:Generated_Source\PSoC4/CyDMA.c ****     prevCallback = CyDmaInterruptCallback[channel];
 357:Generated_Source\PSoC4/CyDMA.c ****     CyDmaInterruptCallback[channel] = callback;
 358:Generated_Source\PSoC4/CyDMA.c ****     return (prevCallback);
 359:Generated_Source\PSoC4/CyDMA.c **** }
 360:Generated_Source\PSoC4/CyDMA.c **** 
 361:Generated_Source\PSoC4/CyDMA.c **** 
 362:Generated_Source\PSoC4/CyDMA.c **** /*******************************************************************************
 363:Generated_Source\PSoC4/CyDMA.c **** * Function Name: CyDmaGetInterruptCallback
 364:Generated_Source\PSoC4/CyDMA.c **** ********************************************************************************
 365:Generated_Source\PSoC4/CyDMA.c **** *
 366:Generated_Source\PSoC4/CyDMA.c **** * Summary:
 367:Generated_Source\PSoC4/CyDMA.c **** *  Returns the pointer to the interrupt callback function for the specified DMA
 368:Generated_Source\PSoC4/CyDMA.c **** *  channel.
 369:Generated_Source\PSoC4/CyDMA.c **** *
 370:Generated_Source\PSoC4/CyDMA.c **** * Parameters:
 371:Generated_Source\PSoC4/CyDMA.c **** *  channel: Channel used by this function.
 372:Generated_Source\PSoC4/CyDMA.c **** *
ARM GAS  C:\Users\JamesN4\AppData\Local\Temp\ccgbGPCH.s 			page 8


 373:Generated_Source\PSoC4/CyDMA.c **** * Return:
 374:Generated_Source\PSoC4/CyDMA.c **** *  Callback function pointer for the specified channel.
 375:Generated_Source\PSoC4/CyDMA.c **** *
 376:Generated_Source\PSoC4/CyDMA.c **** *******************************************************************************/
 377:Generated_Source\PSoC4/CyDMA.c **** cydma_callback_t CyDmaGetInterruptCallback(int32 channel)
 378:Generated_Source\PSoC4/CyDMA.c **** {
 379:Generated_Source\PSoC4/CyDMA.c ****     CYASSERT((channel >= 0) && (channel < CYDMA_CH_NR));
 380:Generated_Source\PSoC4/CyDMA.c ****     
 381:Generated_Source\PSoC4/CyDMA.c ****     return (CyDmaInterruptCallback[channel]);
 382:Generated_Source\PSoC4/CyDMA.c **** }
 383:Generated_Source\PSoC4/CyDMA.c **** 
 384:Generated_Source\PSoC4/CyDMA.c **** 
 385:Generated_Source\PSoC4/CyDMA.c **** /*******************************************************************************
 386:Generated_Source\PSoC4/CyDMA.c **** * Function Name: CyDmaInterrupt
 387:Generated_Source\PSoC4/CyDMA.c **** ********************************************************************************
 388:Generated_Source\PSoC4/CyDMA.c **** *
 389:Generated_Source\PSoC4/CyDMA.c **** * Summary:
 390:Generated_Source\PSoC4/CyDMA.c **** *  The default ISR for DMA interrupts. The handler checks which DMA channel has
 391:Generated_Source\PSoC4/CyDMA.c **** *  triggered the interrupt and calls the user defined callback function.
 392:Generated_Source\PSoC4/CyDMA.c **** *  The callback function is set using CyDmaSetInteruptCallback() API.
 393:Generated_Source\PSoC4/CyDMA.c **** *
 394:Generated_Source\PSoC4/CyDMA.c **** * Parameters:
 395:Generated_Source\PSoC4/CyDMA.c **** *  None.
 396:Generated_Source\PSoC4/CyDMA.c **** *
 397:Generated_Source\PSoC4/CyDMA.c **** * Return:
 398:Generated_Source\PSoC4/CyDMA.c **** *  None.
 399:Generated_Source\PSoC4/CyDMA.c **** *
 400:Generated_Source\PSoC4/CyDMA.c **** * Side Effects:
 401:Generated_Source\PSoC4/CyDMA.c **** *  This function clears the pending interrupts.
 402:Generated_Source\PSoC4/CyDMA.c **** *
 403:Generated_Source\PSoC4/CyDMA.c **** *******************************************************************************/
 404:Generated_Source\PSoC4/CyDMA.c **** CY_ISR(CyDmaInterrupt)
 405:Generated_Source\PSoC4/CyDMA.c **** {
  28              		.loc 1 405 0
  29              		.cfi_startproc
  30              		@ args = 0, pretend = 0, frame = 0
  31              		@ frame_needed = 0, uses_anonymous_args = 0
  32 0000 70B5     		push	{r4, r5, r6, lr}
  33              		.cfi_def_cfa_offset 16
  34              		.cfi_offset 4, -16
  35              		.cfi_offset 5, -12
  36              		.cfi_offset 6, -8
  37              		.cfi_offset 14, -4
  38              	.LVL0:
 406:Generated_Source\PSoC4/CyDMA.c ****     uint32 intr;
 407:Generated_Source\PSoC4/CyDMA.c ****     uint32 cbIdx = 0u;
 408:Generated_Source\PSoC4/CyDMA.c **** 
 409:Generated_Source\PSoC4/CyDMA.c ****     /* Get interrupt source. */
 410:Generated_Source\PSoC4/CyDMA.c ****     intr = CYDMA_INTR_MASKED_REG;
  39              		.loc 1 410 0
  40 0002 084B     		ldr	r3, .L5
  41 0004 1C68     		ldr	r4, [r3]
  42              	.LVL1:
 411:Generated_Source\PSoC4/CyDMA.c **** 
 412:Generated_Source\PSoC4/CyDMA.c ****     /* Clear pending interrupts. */
 413:Generated_Source\PSoC4/CyDMA.c ****     CYDMA_INTR_REG = intr;
  43              		.loc 1 413 0
ARM GAS  C:\Users\JamesN4\AppData\Local\Temp\ccgbGPCH.s 			page 9


  44 0006 084B     		ldr	r3, .L5+4
  45 0008 1C60     		str	r4, [r3]
 407:Generated_Source\PSoC4/CyDMA.c **** 
  46              		.loc 1 407 0
  47 000a 0025     		movs	r5, #0
 414:Generated_Source\PSoC4/CyDMA.c **** 
 415:Generated_Source\PSoC4/CyDMA.c ****     /* Call user defined callback functions for triggered interrupt sources. */
 416:Generated_Source\PSoC4/CyDMA.c ****     while(0u != intr)
  48              		.loc 1 416 0
  49 000c 07E0     		b	.L2
  50              	.LVL2:
  51              	.L4:
 417:Generated_Source\PSoC4/CyDMA.c ****     {
 418:Generated_Source\PSoC4/CyDMA.c ****         if(0u != (intr & 0x1u))
  52              		.loc 1 418 0
  53 000e E307     		lsls	r3, r4, #31
  54 0010 03D5     		bpl	.L3
 419:Generated_Source\PSoC4/CyDMA.c ****         {
 420:Generated_Source\PSoC4/CyDMA.c ****             CyDmaInterruptCallback[cbIdx]();
  55              		.loc 1 420 0
  56 0012 AB00     		lsls	r3, r5, #2
  57 0014 054A     		ldr	r2, .L5+8
  58 0016 9B58     		ldr	r3, [r3, r2]
  59 0018 9847     		blx	r3
  60              	.LVL3:
  61              	.L3:
 421:Generated_Source\PSoC4/CyDMA.c ****         }
 422:Generated_Source\PSoC4/CyDMA.c ****         intr >>= 1;
  62              		.loc 1 422 0
  63 001a 6408     		lsrs	r4, r4, #1
  64              	.LVL4:
 423:Generated_Source\PSoC4/CyDMA.c ****         ++cbIdx;
  65              		.loc 1 423 0
  66 001c 0135     		adds	r5, r5, #1
  67              	.LVL5:
  68              	.L2:
 416:Generated_Source\PSoC4/CyDMA.c ****     {
  69              		.loc 1 416 0
  70 001e 002C     		cmp	r4, #0
  71 0020 F5D1     		bne	.L4
 424:Generated_Source\PSoC4/CyDMA.c ****     }
 425:Generated_Source\PSoC4/CyDMA.c **** }
  72              		.loc 1 425 0
  73              		@ sp needed
  74              	.LVL6:
  75              	.LVL7:
  76 0022 70BD     		pop	{r4, r5, r6, pc}
  77              	.L6:
  78              		.align	2
  79              	.L5:
  80 0024 FC171040 		.word	1074796540
  81 0028 F0171040 		.word	1074796528
  82 002c 00000000 		.word	.LANCHOR0
  83              		.cfi_endproc
  84              	.LFE15:
  85              		.size	CyDmaInterrupt, .-CyDmaInterrupt
  86              		.section	.text.CyDmaDefaultInterruptCallback,"ax",%progbits
ARM GAS  C:\Users\JamesN4\AppData\Local\Temp\ccgbGPCH.s 			page 10


  87              		.align	2
  88              		.code	16
  89              		.thumb_func
  90              		.type	CyDmaDefaultInterruptCallback, %function
  91              	CyDmaDefaultInterruptCallback:
  92              	.LFB16:
 426:Generated_Source\PSoC4/CyDMA.c **** 
 427:Generated_Source\PSoC4/CyDMA.c **** 
 428:Generated_Source\PSoC4/CyDMA.c **** /*******************************************************************************
 429:Generated_Source\PSoC4/CyDMA.c **** * Function Name: CyDmaDefaultInterruptCallback
 430:Generated_Source\PSoC4/CyDMA.c **** ********************************************************************************
 431:Generated_Source\PSoC4/CyDMA.c **** *
 432:Generated_Source\PSoC4/CyDMA.c **** * Summary:
 433:Generated_Source\PSoC4/CyDMA.c **** *  This function is invoked when the user defined callback function is undefined
 434:Generated_Source\PSoC4/CyDMA.c **** *  for the interrupt source.
 435:Generated_Source\PSoC4/CyDMA.c **** *
 436:Generated_Source\PSoC4/CyDMA.c **** * Parameters:
 437:Generated_Source\PSoC4/CyDMA.c **** *  None.
 438:Generated_Source\PSoC4/CyDMA.c **** *
 439:Generated_Source\PSoC4/CyDMA.c **** * Return:
 440:Generated_Source\PSoC4/CyDMA.c **** *  None.
 441:Generated_Source\PSoC4/CyDMA.c **** *
 442:Generated_Source\PSoC4/CyDMA.c **** *******************************************************************************/
 443:Generated_Source\PSoC4/CyDMA.c **** static void CyDmaDefaultInterruptCallback(void)
 444:Generated_Source\PSoC4/CyDMA.c **** {
  93              		.loc 1 444 0
  94              		.cfi_startproc
  95              		@ args = 0, pretend = 0, frame = 0
  96              		@ frame_needed = 0, uses_anonymous_args = 0
  97 0000 10B5     		push	{r4, lr}
  98              		.cfi_def_cfa_offset 8
  99              		.cfi_offset 4, -8
 100              		.cfi_offset 14, -4
 445:Generated_Source\PSoC4/CyDMA.c ****     /* Halt CPU in debug mode. We get here because there is no user defined
 446:Generated_Source\PSoC4/CyDMA.c ****     * callback function for the interrupt source. You should either set a
 447:Generated_Source\PSoC4/CyDMA.c ****     * callback function or disable generating an interrupt from this
 448:Generated_Source\PSoC4/CyDMA.c ****     * interrupt source.
 449:Generated_Source\PSoC4/CyDMA.c ****     * To set a callback, use the CyDmaSetInterruptCallback() API function.
 450:Generated_Source\PSoC4/CyDMA.c ****     * To disable interrupt generation, write '0' to the corresponding bit
 451:Generated_Source\PSoC4/CyDMA.c ****     * in the interrupt mask by calling CyDmaSetInterruptSourceMask().
 452:Generated_Source\PSoC4/CyDMA.c ****     */
 453:Generated_Source\PSoC4/CyDMA.c ****     CYASSERT(0 != 0);
 101              		.loc 1 453 0
 102 0002 0020     		movs	r0, #0
 103 0004 FFF7FEFF 		bl	CyHalt
 104              	.LVL8:
 454:Generated_Source\PSoC4/CyDMA.c **** }
 105              		.loc 1 454 0
 106              		@ sp needed
 107 0008 10BD     		pop	{r4, pc}
 108              		.cfi_endproc
 109              	.LFE16:
 110              		.size	CyDmaDefaultInterruptCallback, .-CyDmaDefaultInterruptCallback
 111              		.section	.text.CyDmaDisable,"ax",%progbits
 112              		.align	2
 113              		.global	CyDmaDisable
 114              		.code	16
ARM GAS  C:\Users\JamesN4\AppData\Local\Temp\ccgbGPCH.s 			page 11


 115              		.thumb_func
 116              		.type	CyDmaDisable, %function
 117              	CyDmaDisable:
 118              	.LFB2:
  94:Generated_Source\PSoC4/CyDMA.c ****     CYDMA_CTL_REG = (uint32)~CYDMA_ENABLED;
 119              		.loc 1 94 0
 120              		.cfi_startproc
 121              		@ args = 0, pretend = 0, frame = 0
 122              		@ frame_needed = 0, uses_anonymous_args = 0
 123              		@ link register save eliminated.
  95:Generated_Source\PSoC4/CyDMA.c **** }
 124              		.loc 1 95 0
 125 0000 014A     		ldr	r2, .L9
 126 0002 024B     		ldr	r3, .L9+4
 127 0004 1A60     		str	r2, [r3]
  96:Generated_Source\PSoC4/CyDMA.c **** 
 128              		.loc 1 96 0
 129              		@ sp needed
 130 0006 7047     		bx	lr
 131              	.L10:
 132              		.align	2
 133              	.L9:
 134 0008 FFFFFF7F 		.word	2147483647
 135 000c 00101040 		.word	1074794496
 136              		.cfi_endproc
 137              	.LFE2:
 138              		.size	CyDmaDisable, .-CyDmaDisable
 139              		.section	.text.CyDmaGetStatus,"ax",%progbits
 140              		.align	2
 141              		.global	CyDmaGetStatus
 142              		.code	16
 143              		.thumb_func
 144              		.type	CyDmaGetStatus, %function
 145              	CyDmaGetStatus:
 146              	.LFB3:
 122:Generated_Source\PSoC4/CyDMA.c ****     return (CYDMA_STATUS_REG);
 147              		.loc 1 122 0
 148              		.cfi_startproc
 149              		@ args = 0, pretend = 0, frame = 0
 150              		@ frame_needed = 0, uses_anonymous_args = 0
 151              		@ link register save eliminated.
 123:Generated_Source\PSoC4/CyDMA.c **** }
 152              		.loc 1 123 0
 153 0000 014B     		ldr	r3, .L12
 154 0002 1868     		ldr	r0, [r3]
 124:Generated_Source\PSoC4/CyDMA.c **** 
 155              		.loc 1 124 0
 156              		@ sp needed
 157 0004 7047     		bx	lr
 158              	.L13:
 159 0006 C046     		.align	2
 160              	.L12:
 161 0008 10101040 		.word	1074794512
 162              		.cfi_endproc
 163              	.LFE3:
 164              		.size	CyDmaGetStatus, .-CyDmaGetStatus
 165              		.section	.text.CyDmaGetActiveChannels,"ax",%progbits
ARM GAS  C:\Users\JamesN4\AppData\Local\Temp\ccgbGPCH.s 			page 12


 166              		.align	2
 167              		.global	CyDmaGetActiveChannels
 168              		.code	16
 169              		.thumb_func
 170              		.type	CyDmaGetActiveChannels, %function
 171              	CyDmaGetActiveChannels:
 172              	.LFB4:
 143:Generated_Source\PSoC4/CyDMA.c ****     return (CYDMA_STATUS_CH_ACT_REG);
 173              		.loc 1 143 0
 174              		.cfi_startproc
 175              		@ args = 0, pretend = 0, frame = 0
 176              		@ frame_needed = 0, uses_anonymous_args = 0
 177              		@ link register save eliminated.
 144:Generated_Source\PSoC4/CyDMA.c **** }
 178              		.loc 1 144 0
 179 0000 014B     		ldr	r3, .L15
 180 0002 1868     		ldr	r0, [r3]
 145:Generated_Source\PSoC4/CyDMA.c **** 
 181              		.loc 1 145 0
 182              		@ sp needed
 183 0004 7047     		bx	lr
 184              	.L16:
 185 0006 C046     		.align	2
 186              	.L15:
 187 0008 1C101040 		.word	1074794524
 188              		.cfi_endproc
 189              	.LFE4:
 190              		.size	CyDmaGetActiveChannels, .-CyDmaGetActiveChannels
 191              		.section	.text.CyDmaGetActiveSrcAddress,"ax",%progbits
 192              		.align	2
 193              		.global	CyDmaGetActiveSrcAddress
 194              		.code	16
 195              		.thumb_func
 196              		.type	CyDmaGetActiveSrcAddress, %function
 197              	CyDmaGetActiveSrcAddress:
 198              	.LFB5:
 171:Generated_Source\PSoC4/CyDMA.c ****     return ((void *)CYDMA_STATUS_SRC_ADDR_REG);
 199              		.loc 1 171 0
 200              		.cfi_startproc
 201              		@ args = 0, pretend = 0, frame = 0
 202              		@ frame_needed = 0, uses_anonymous_args = 0
 203              		@ link register save eliminated.
 172:Generated_Source\PSoC4/CyDMA.c **** }
 204              		.loc 1 172 0
 205 0000 014B     		ldr	r3, .L18
 206 0002 1868     		ldr	r0, [r3]
 173:Generated_Source\PSoC4/CyDMA.c **** 
 207              		.loc 1 173 0
 208              		@ sp needed
 209 0004 7047     		bx	lr
 210              	.L19:
 211 0006 C046     		.align	2
 212              	.L18:
 213 0008 14101040 		.word	1074794516
 214              		.cfi_endproc
 215              	.LFE5:
 216              		.size	CyDmaGetActiveSrcAddress, .-CyDmaGetActiveSrcAddress
ARM GAS  C:\Users\JamesN4\AppData\Local\Temp\ccgbGPCH.s 			page 13


 217              		.section	.text.CyDmaGetActiveDstAddress,"ax",%progbits
 218              		.align	2
 219              		.global	CyDmaGetActiveDstAddress
 220              		.code	16
 221              		.thumb_func
 222              		.type	CyDmaGetActiveDstAddress, %function
 223              	CyDmaGetActiveDstAddress:
 224              	.LFB6:
 199:Generated_Source\PSoC4/CyDMA.c ****     return ((void *)CYDMA_STATUS_DST_ADDR_REG);
 225              		.loc 1 199 0
 226              		.cfi_startproc
 227              		@ args = 0, pretend = 0, frame = 0
 228              		@ frame_needed = 0, uses_anonymous_args = 0
 229              		@ link register save eliminated.
 200:Generated_Source\PSoC4/CyDMA.c **** }
 230              		.loc 1 200 0
 231 0000 014B     		ldr	r3, .L21
 232 0002 1868     		ldr	r0, [r3]
 201:Generated_Source\PSoC4/CyDMA.c **** 
 233              		.loc 1 201 0
 234              		@ sp needed
 235 0004 7047     		bx	lr
 236              	.L22:
 237 0006 C046     		.align	2
 238              	.L21:
 239 0008 18101040 		.word	1074794520
 240              		.cfi_endproc
 241              	.LFE6:
 242              		.size	CyDmaGetActiveDstAddress, .-CyDmaGetActiveDstAddress
 243              		.section	.text.CyDmaSetInterruptVector,"ax",%progbits
 244              		.align	2
 245              		.global	CyDmaSetInterruptVector
 246              		.code	16
 247              		.thumb_func
 248              		.type	CyDmaSetInterruptVector, %function
 249              	CyDmaSetInterruptVector:
 250              	.LFB7:
 228:Generated_Source\PSoC4/CyDMA.c ****     (void)CyIntSetVector(CYDMA_INTR_NUMBER, interruptVector);
 251              		.loc 1 228 0
 252              		.cfi_startproc
 253              		@ args = 0, pretend = 0, frame = 0
 254              		@ frame_needed = 0, uses_anonymous_args = 0
 255              	.LVL9:
 256 0000 10B5     		push	{r4, lr}
 257              		.cfi_def_cfa_offset 8
 258              		.cfi_offset 4, -8
 259              		.cfi_offset 14, -4
 260 0002 0100     		movs	r1, r0
 229:Generated_Source\PSoC4/CyDMA.c **** }
 261              		.loc 1 229 0
 262 0004 0D20     		movs	r0, #13
 263              	.LVL10:
 264 0006 FFF7FEFF 		bl	CyIntSetVector
 265              	.LVL11:
 230:Generated_Source\PSoC4/CyDMA.c **** 
 266              		.loc 1 230 0
 267              		@ sp needed
ARM GAS  C:\Users\JamesN4\AppData\Local\Temp\ccgbGPCH.s 			page 14


 268 000a 10BD     		pop	{r4, pc}
 269              		.cfi_endproc
 270              	.LFE7:
 271              		.size	CyDmaSetInterruptVector, .-CyDmaSetInterruptVector
 272              		.section	.text.CyDmaEnable,"ax",%progbits
 273              		.align	2
 274              		.global	CyDmaEnable
 275              		.code	16
 276              		.thumb_func
 277              		.type	CyDmaEnable, %function
 278              	CyDmaEnable:
 279              	.LFB1:
  63:Generated_Source\PSoC4/CyDMA.c ****     static uint8 initIntrVector = 0u;
 280              		.loc 1 63 0
 281              		.cfi_startproc
 282              		@ args = 0, pretend = 0, frame = 0
 283              		@ frame_needed = 0, uses_anonymous_args = 0
 284 0000 10B5     		push	{r4, lr}
 285              		.cfi_def_cfa_offset 8
 286              		.cfi_offset 4, -8
 287              		.cfi_offset 14, -4
  66:Generated_Source\PSoC4/CyDMA.c ****     {
 288              		.loc 1 66 0
 289 0002 094B     		ldr	r3, .L26
 290 0004 1B78     		ldrb	r3, [r3]
 291 0006 002B     		cmp	r3, #0
 292 0008 09D1     		bne	.L25
  68:Generated_Source\PSoC4/CyDMA.c ****         CyIntSetPriority(CYDMA_INTR_NUMBER, CYDMA_INTR_PRIO);
 293              		.loc 1 68 0
 294 000a 0848     		ldr	r0, .L26+4
 295 000c FFF7FEFF 		bl	CyDmaSetInterruptVector
 296              	.LVL12:
  69:Generated_Source\PSoC4/CyDMA.c ****         initIntrVector = 1u;
 297              		.loc 1 69 0
 298 0010 0321     		movs	r1, #3
 299 0012 0D20     		movs	r0, #13
 300 0014 FFF7FEFF 		bl	CyIntSetPriority
 301              	.LVL13:
  70:Generated_Source\PSoC4/CyDMA.c ****     }
 302              		.loc 1 70 0
 303 0018 0122     		movs	r2, #1
 304 001a 034B     		ldr	r3, .L26
 305 001c 1A70     		strb	r2, [r3]
 306              	.L25:
  72:Generated_Source\PSoC4/CyDMA.c **** }
 307              		.loc 1 72 0
 308 001e 8022     		movs	r2, #128
 309 0020 1206     		lsls	r2, r2, #24
 310 0022 034B     		ldr	r3, .L26+8
 311 0024 1A60     		str	r2, [r3]
  73:Generated_Source\PSoC4/CyDMA.c **** 
 312              		.loc 1 73 0
 313              		@ sp needed
 314 0026 10BD     		pop	{r4, pc}
 315              	.L27:
 316              		.align	2
 317              	.L26:
ARM GAS  C:\Users\JamesN4\AppData\Local\Temp\ccgbGPCH.s 			page 15


 318 0028 00000000 		.word	.LANCHOR1
 319 002c 00000000 		.word	CyDmaInterrupt
 320 0030 00101040 		.word	1074794496
 321              		.cfi_endproc
 322              	.LFE1:
 323              		.size	CyDmaEnable, .-CyDmaEnable
 324              		.section	.text.CyDmaGetInterruptSource,"ax",%progbits
 325              		.align	2
 326              		.global	CyDmaGetInterruptSource
 327              		.code	16
 328              		.thumb_func
 329              		.type	CyDmaGetInterruptSource, %function
 330              	CyDmaGetInterruptSource:
 331              	.LFB8:
 248:Generated_Source\PSoC4/CyDMA.c ****     return (CYDMA_INTR_REG);
 332              		.loc 1 248 0
 333              		.cfi_startproc
 334              		@ args = 0, pretend = 0, frame = 0
 335              		@ frame_needed = 0, uses_anonymous_args = 0
 336              		@ link register save eliminated.
 249:Generated_Source\PSoC4/CyDMA.c **** }
 337              		.loc 1 249 0
 338 0000 014B     		ldr	r3, .L29
 339 0002 1868     		ldr	r0, [r3]
 250:Generated_Source\PSoC4/CyDMA.c **** 
 340              		.loc 1 250 0
 341              		@ sp needed
 342 0004 7047     		bx	lr
 343              	.L30:
 344 0006 C046     		.align	2
 345              	.L29:
 346 0008 F0171040 		.word	1074796528
 347              		.cfi_endproc
 348              	.LFE8:
 349              		.size	CyDmaGetInterruptSource, .-CyDmaGetInterruptSource
 350              		.section	.text.CyDmaClearInterruptSource,"ax",%progbits
 351              		.align	2
 352              		.global	CyDmaClearInterruptSource
 353              		.code	16
 354              		.thumb_func
 355              		.type	CyDmaClearInterruptSource, %function
 356              	CyDmaClearInterruptSource:
 357              	.LFB9:
 268:Generated_Source\PSoC4/CyDMA.c ****     CYDMA_INTR_REG = interruptMask;
 358              		.loc 1 268 0
 359              		.cfi_startproc
 360              		@ args = 0, pretend = 0, frame = 0
 361              		@ frame_needed = 0, uses_anonymous_args = 0
 362              		@ link register save eliminated.
 363              	.LVL14:
 269:Generated_Source\PSoC4/CyDMA.c **** }
 364              		.loc 1 269 0
 365 0000 014B     		ldr	r3, .L32
 366 0002 1860     		str	r0, [r3]
 270:Generated_Source\PSoC4/CyDMA.c **** 
 367              		.loc 1 270 0
 368              		@ sp needed
ARM GAS  C:\Users\JamesN4\AppData\Local\Temp\ccgbGPCH.s 			page 16


 369 0004 7047     		bx	lr
 370              	.L33:
 371 0006 C046     		.align	2
 372              	.L32:
 373 0008 F0171040 		.word	1074796528
 374              		.cfi_endproc
 375              	.LFE9:
 376              		.size	CyDmaClearInterruptSource, .-CyDmaClearInterruptSource
 377              		.section	.text.CyDmaSetInterruptSourceMask,"ax",%progbits
 378              		.align	2
 379              		.global	CyDmaSetInterruptSourceMask
 380              		.code	16
 381              		.thumb_func
 382              		.type	CyDmaSetInterruptSourceMask, %function
 383              	CyDmaSetInterruptSourceMask:
 384              	.LFB10:
 288:Generated_Source\PSoC4/CyDMA.c ****     CYDMA_INTR_MASK_REG = interruptMask;
 385              		.loc 1 288 0
 386              		.cfi_startproc
 387              		@ args = 0, pretend = 0, frame = 0
 388              		@ frame_needed = 0, uses_anonymous_args = 0
 389              		@ link register save eliminated.
 390              	.LVL15:
 289:Generated_Source\PSoC4/CyDMA.c **** }
 391              		.loc 1 289 0
 392 0000 014B     		ldr	r3, .L35
 393 0002 1860     		str	r0, [r3]
 290:Generated_Source\PSoC4/CyDMA.c **** 
 394              		.loc 1 290 0
 395              		@ sp needed
 396 0004 7047     		bx	lr
 397              	.L36:
 398 0006 C046     		.align	2
 399              	.L35:
 400 0008 F8171040 		.word	1074796536
 401              		.cfi_endproc
 402              	.LFE10:
 403              		.size	CyDmaSetInterruptSourceMask, .-CyDmaSetInterruptSourceMask
 404              		.section	.text.CyDmaGetInterruptSourceMask,"ax",%progbits
 405              		.align	2
 406              		.global	CyDmaGetInterruptSourceMask
 407              		.code	16
 408              		.thumb_func
 409              		.type	CyDmaGetInterruptSourceMask, %function
 410              	CyDmaGetInterruptSourceMask:
 411              	.LFB11:
 308:Generated_Source\PSoC4/CyDMA.c ****     return (CYDMA_INTR_MASK_REG);
 412              		.loc 1 308 0
 413              		.cfi_startproc
 414              		@ args = 0, pretend = 0, frame = 0
 415              		@ frame_needed = 0, uses_anonymous_args = 0
 416              		@ link register save eliminated.
 309:Generated_Source\PSoC4/CyDMA.c **** }
 417              		.loc 1 309 0
 418 0000 014B     		ldr	r3, .L38
 419 0002 1868     		ldr	r0, [r3]
 310:Generated_Source\PSoC4/CyDMA.c **** 
ARM GAS  C:\Users\JamesN4\AppData\Local\Temp\ccgbGPCH.s 			page 17


 420              		.loc 1 310 0
 421              		@ sp needed
 422 0004 7047     		bx	lr
 423              	.L39:
 424 0006 C046     		.align	2
 425              	.L38:
 426 0008 F8171040 		.word	1074796536
 427              		.cfi_endproc
 428              	.LFE11:
 429              		.size	CyDmaGetInterruptSourceMask, .-CyDmaGetInterruptSourceMask
 430              		.section	.text.CyDmaGetInterruptSourceMasked,"ax",%progbits
 431              		.align	2
 432              		.global	CyDmaGetInterruptSourceMasked
 433              		.code	16
 434              		.thumb_func
 435              		.type	CyDmaGetInterruptSourceMasked, %function
 436              	CyDmaGetInterruptSourceMasked:
 437              	.LFB12:
 328:Generated_Source\PSoC4/CyDMA.c ****     return (CYDMA_INTR_MASKED_REG);
 438              		.loc 1 328 0
 439              		.cfi_startproc
 440              		@ args = 0, pretend = 0, frame = 0
 441              		@ frame_needed = 0, uses_anonymous_args = 0
 442              		@ link register save eliminated.
 329:Generated_Source\PSoC4/CyDMA.c **** }
 443              		.loc 1 329 0
 444 0000 014B     		ldr	r3, .L41
 445 0002 1868     		ldr	r0, [r3]
 330:Generated_Source\PSoC4/CyDMA.c **** 
 446              		.loc 1 330 0
 447              		@ sp needed
 448 0004 7047     		bx	lr
 449              	.L42:
 450 0006 C046     		.align	2
 451              	.L41:
 452 0008 FC171040 		.word	1074796540
 453              		.cfi_endproc
 454              	.LFE12:
 455              		.size	CyDmaGetInterruptSourceMasked, .-CyDmaGetInterruptSourceMasked
 456              		.section	.text.CyDmaSetInterruptCallback,"ax",%progbits
 457              		.align	2
 458              		.global	CyDmaSetInterruptCallback
 459              		.code	16
 460              		.thumb_func
 461              		.type	CyDmaSetInterruptCallback, %function
 462              	CyDmaSetInterruptCallback:
 463              	.LFB13:
 351:Generated_Source\PSoC4/CyDMA.c ****     cydma_callback_t prevCallback;
 464              		.loc 1 351 0
 465              		.cfi_startproc
 466              		@ args = 0, pretend = 0, frame = 0
 467              		@ frame_needed = 0, uses_anonymous_args = 0
 468              	.LVL16:
 469 0000 70B5     		push	{r4, r5, r6, lr}
 470              		.cfi_def_cfa_offset 16
 471              		.cfi_offset 4, -16
 472              		.cfi_offset 5, -12
ARM GAS  C:\Users\JamesN4\AppData\Local\Temp\ccgbGPCH.s 			page 18


 473              		.cfi_offset 6, -8
 474              		.cfi_offset 14, -4
 475 0002 0400     		movs	r4, r0
 476 0004 0D00     		movs	r5, r1
 354:Generated_Source\PSoC4/CyDMA.c **** 
 477              		.loc 1 354 0
 478 0006 0728     		cmp	r0, #7
 479 0008 02D9     		bls	.L44
 354:Generated_Source\PSoC4/CyDMA.c **** 
 480              		.loc 1 354 0 is_stmt 0 discriminator 1
 481 000a 0020     		movs	r0, #0
 482              	.LVL17:
 483 000c FFF7FEFF 		bl	CyHalt
 484              	.LVL18:
 485              	.L44:
 356:Generated_Source\PSoC4/CyDMA.c ****     CyDmaInterruptCallback[channel] = callback;
 486              		.loc 1 356 0 is_stmt 1
 487 0010 024B     		ldr	r3, .L45
 488 0012 A400     		lsls	r4, r4, #2
 489              	.LVL19:
 490 0014 E058     		ldr	r0, [r4, r3]
 491              	.LVL20:
 357:Generated_Source\PSoC4/CyDMA.c ****     return (prevCallback);
 492              		.loc 1 357 0
 493 0016 E550     		str	r5, [r4, r3]
 359:Generated_Source\PSoC4/CyDMA.c **** 
 494              		.loc 1 359 0
 495              		@ sp needed
 496              	.LVL21:
 497 0018 70BD     		pop	{r4, r5, r6, pc}
 498              	.L46:
 499 001a C046     		.align	2
 500              	.L45:
 501 001c 00000000 		.word	.LANCHOR0
 502              		.cfi_endproc
 503              	.LFE13:
 504              		.size	CyDmaSetInterruptCallback, .-CyDmaSetInterruptCallback
 505              		.section	.text.CyDmaGetInterruptCallback,"ax",%progbits
 506              		.align	2
 507              		.global	CyDmaGetInterruptCallback
 508              		.code	16
 509              		.thumb_func
 510              		.type	CyDmaGetInterruptCallback, %function
 511              	CyDmaGetInterruptCallback:
 512              	.LFB14:
 378:Generated_Source\PSoC4/CyDMA.c ****     CYASSERT((channel >= 0) && (channel < CYDMA_CH_NR));
 513              		.loc 1 378 0
 514              		.cfi_startproc
 515              		@ args = 0, pretend = 0, frame = 0
 516              		@ frame_needed = 0, uses_anonymous_args = 0
 517              	.LVL22:
 518 0000 10B5     		push	{r4, lr}
 519              		.cfi_def_cfa_offset 8
 520              		.cfi_offset 4, -8
 521              		.cfi_offset 14, -4
 522 0002 0400     		movs	r4, r0
 379:Generated_Source\PSoC4/CyDMA.c ****     
ARM GAS  C:\Users\JamesN4\AppData\Local\Temp\ccgbGPCH.s 			page 19


 523              		.loc 1 379 0
 524 0004 0728     		cmp	r0, #7
 525 0006 02D9     		bls	.L48
 379:Generated_Source\PSoC4/CyDMA.c ****     
 526              		.loc 1 379 0 is_stmt 0 discriminator 1
 527 0008 0020     		movs	r0, #0
 528              	.LVL23:
 529 000a FFF7FEFF 		bl	CyHalt
 530              	.LVL24:
 531              	.L48:
 381:Generated_Source\PSoC4/CyDMA.c **** }
 532              		.loc 1 381 0 is_stmt 1
 533 000e A400     		lsls	r4, r4, #2
 534              	.LVL25:
 535 0010 014B     		ldr	r3, .L49
 536 0012 E058     		ldr	r0, [r4, r3]
 382:Generated_Source\PSoC4/CyDMA.c **** 
 537              		.loc 1 382 0
 538              		@ sp needed
 539 0014 10BD     		pop	{r4, pc}
 540              	.L50:
 541 0016 C046     		.align	2
 542              	.L49:
 543 0018 00000000 		.word	.LANCHOR0
 544              		.cfi_endproc
 545              	.LFE14:
 546              		.size	CyDmaGetInterruptCallback, .-CyDmaGetInterruptCallback
 547              		.section	.text.CyDmaChAlloc,"ax",%progbits
 548              		.align	2
 549              		.global	CyDmaChAlloc
 550              		.code	16
 551              		.thumb_func
 552              		.type	CyDmaChAlloc, %function
 553              	CyDmaChAlloc:
 554              	.LFB17:
 455:Generated_Source\PSoC4/CyDMA.c **** 
 456:Generated_Source\PSoC4/CyDMA.c **** 
 457:Generated_Source\PSoC4/CyDMA.c **** /*******************************************************************************
 458:Generated_Source\PSoC4/CyDMA.c **** * Function Name: CyDmaChAlloc
 459:Generated_Source\PSoC4/CyDMA.c **** ********************************************************************************
 460:Generated_Source\PSoC4/CyDMA.c **** *
 461:Generated_Source\PSoC4/CyDMA.c **** * Summary:
 462:Generated_Source\PSoC4/CyDMA.c **** *  Allocates a channel number to use with later DMA functions.
 463:Generated_Source\PSoC4/CyDMA.c **** *
 464:Generated_Source\PSoC4/CyDMA.c **** * Parameters:
 465:Generated_Source\PSoC4/CyDMA.c **** *  None.
 466:Generated_Source\PSoC4/CyDMA.c **** *                   
 467:Generated_Source\PSoC4/CyDMA.c **** * Return:
 468:Generated_Source\PSoC4/CyDMA.c **** *  The allocated channel number. Zero is a valid channel number.
 469:Generated_Source\PSoC4/CyDMA.c **** *  CYDMA_INVALID_CHANNEL is returned if there are no channels available.
 470:Generated_Source\PSoC4/CyDMA.c **** *
 471:Generated_Source\PSoC4/CyDMA.c **** *******************************************************************************/
 472:Generated_Source\PSoC4/CyDMA.c **** int32 CyDmaChAlloc(void)
 473:Generated_Source\PSoC4/CyDMA.c **** {
 555              		.loc 1 473 0
 556              		.cfi_startproc
 557              		@ args = 0, pretend = 0, frame = 0
ARM GAS  C:\Users\JamesN4\AppData\Local\Temp\ccgbGPCH.s 			page 20


 558              		@ frame_needed = 0, uses_anonymous_args = 0
 559              		@ link register save eliminated.
 560              	.LVL26:
 474:Generated_Source\PSoC4/CyDMA.c ****     int32  channel = CYDMA_CH_NR-1;
 475:Generated_Source\PSoC4/CyDMA.c ****     uint32 channelMask = (uint32)(1UL << (CYDMA_CH_NR-1));
 561              		.loc 1 475 0
 562 0000 8023     		movs	r3, #128
 474:Generated_Source\PSoC4/CyDMA.c ****     int32  channel = CYDMA_CH_NR-1;
 563              		.loc 1 474 0
 564 0002 0720     		movs	r0, #7
 476:Generated_Source\PSoC4/CyDMA.c ****     
 477:Generated_Source\PSoC4/CyDMA.c ****     while (channel >= 0)
 565              		.loc 1 477 0
 566 0004 09E0     		b	.L52
 567              	.LVL27:
 568              	.L55:
 478:Generated_Source\PSoC4/CyDMA.c ****     {
 479:Generated_Source\PSoC4/CyDMA.c ****         if(0u == (CyDmaChannelUsedMask & channelMask))
 569              		.loc 1 479 0
 570 0006 064A     		ldr	r2, .L56
 571 0008 5268     		ldr	r2, [r2, #4]
 572 000a 1A42     		tst	r2, r3
 573 000c 03D1     		bne	.L53
 480:Generated_Source\PSoC4/CyDMA.c ****         {
 481:Generated_Source\PSoC4/CyDMA.c ****             /* Mark channel as used and exit loop. */ 
 482:Generated_Source\PSoC4/CyDMA.c ****             CyDmaChannelUsedMask |= channelMask;
 574              		.loc 1 482 0
 575 000e 1343     		orrs	r3, r2
 576              	.LVL28:
 577 0010 034A     		ldr	r2, .L56
 578 0012 5360     		str	r3, [r2, #4]
 483:Generated_Source\PSoC4/CyDMA.c ****             break;
 579              		.loc 1 483 0
 580 0014 03E0     		b	.L54
 581              	.LVL29:
 582              	.L53:
 484:Generated_Source\PSoC4/CyDMA.c ****         }
 485:Generated_Source\PSoC4/CyDMA.c ****         channelMask >>= 1;
 583              		.loc 1 485 0
 584 0016 5B08     		lsrs	r3, r3, #1
 585              	.LVL30:
 486:Generated_Source\PSoC4/CyDMA.c ****         --channel;
 586              		.loc 1 486 0
 587 0018 0138     		subs	r0, r0, #1
 588              	.LVL31:
 589              	.L52:
 477:Generated_Source\PSoC4/CyDMA.c ****     {
 590              		.loc 1 477 0
 591 001a 0028     		cmp	r0, #0
 592 001c F3DA     		bge	.L55
 593              	.LVL32:
 594              	.L54:
 487:Generated_Source\PSoC4/CyDMA.c ****     }
 488:Generated_Source\PSoC4/CyDMA.c ****     return (channel);
 489:Generated_Source\PSoC4/CyDMA.c **** }
 595              		.loc 1 489 0
 596              		@ sp needed
ARM GAS  C:\Users\JamesN4\AppData\Local\Temp\ccgbGPCH.s 			page 21


 597 001e 7047     		bx	lr
 598              	.L57:
 599              		.align	2
 600              	.L56:
 601 0020 00000000 		.word	.LANCHOR1
 602              		.cfi_endproc
 603              	.LFE17:
 604              		.size	CyDmaChAlloc, .-CyDmaChAlloc
 605              		.section	.text.CyDmaChFree,"ax",%progbits
 606              		.align	2
 607              		.global	CyDmaChFree
 608              		.code	16
 609              		.thumb_func
 610              		.type	CyDmaChFree, %function
 611              	CyDmaChFree:
 612              	.LFB18:
 490:Generated_Source\PSoC4/CyDMA.c **** 
 491:Generated_Source\PSoC4/CyDMA.c **** 
 492:Generated_Source\PSoC4/CyDMA.c **** /*******************************************************************************
 493:Generated_Source\PSoC4/CyDMA.c **** * Function Name: CyDmaChFree
 494:Generated_Source\PSoC4/CyDMA.c **** ********************************************************************************
 495:Generated_Source\PSoC4/CyDMA.c **** *
 496:Generated_Source\PSoC4/CyDMA.c **** * Summary:
 497:Generated_Source\PSoC4/CyDMA.c **** *  Frees a channel handle allocated by CyDmaChAlloc(). Channels allocated for
 498:Generated_Source\PSoC4/CyDMA.c **** *  DMA instances placed on a schematic cannot be freed.
 499:Generated_Source\PSoC4/CyDMA.c **** *
 500:Generated_Source\PSoC4/CyDMA.c **** * Parameters:
 501:Generated_Source\PSoC4/CyDMA.c **** *  channel: The handle previously returned by CyDmaChAlloc().
 502:Generated_Source\PSoC4/CyDMA.c **** *                   
 503:Generated_Source\PSoC4/CyDMA.c **** * Return:
 504:Generated_Source\PSoC4/CyDMA.c **** *  CYRET_SUCCESS if successful.
 505:Generated_Source\PSoC4/CyDMA.c **** *  CYRET_BAD_PARAM if channel is invalid.
 506:Generated_Source\PSoC4/CyDMA.c **** *
 507:Generated_Source\PSoC4/CyDMA.c **** *******************************************************************************/
 508:Generated_Source\PSoC4/CyDMA.c **** cystatus CyDmaChFree(int32 channel)
 509:Generated_Source\PSoC4/CyDMA.c **** {
 613              		.loc 1 509 0
 614              		.cfi_startproc
 615              		@ args = 0, pretend = 0, frame = 0
 616              		@ frame_needed = 0, uses_anonymous_args = 0
 617              	.LVL33:
 618 0000 10B5     		push	{r4, lr}
 619              		.cfi_def_cfa_offset 8
 620              		.cfi_offset 4, -8
 621              		.cfi_offset 14, -4
 622 0002 0400     		movs	r4, r0
 623              	.LVL34:
 510:Generated_Source\PSoC4/CyDMA.c ****     uint32   channelMask;
 511:Generated_Source\PSoC4/CyDMA.c ****     cystatus result = CYRET_BAD_PARAM;
 512:Generated_Source\PSoC4/CyDMA.c **** 
 513:Generated_Source\PSoC4/CyDMA.c ****     CYASSERT((channel >= 0) && (channel < CYDMA_CH_NR));
 624              		.loc 1 513 0
 625 0004 0728     		cmp	r0, #7
 626 0006 02D9     		bls	.L59
 627              		.loc 1 513 0 is_stmt 0 discriminator 1
 628 0008 0020     		movs	r0, #0
 629              	.LVL35:
ARM GAS  C:\Users\JamesN4\AppData\Local\Temp\ccgbGPCH.s 			page 22


 630 000a FFF7FEFF 		bl	CyHalt
 631              	.LVL36:
 632              	.L59:
 514:Generated_Source\PSoC4/CyDMA.c ****     
 515:Generated_Source\PSoC4/CyDMA.c ****     channelMask = (uint32)(1UL << channel);
 633              		.loc 1 515 0 is_stmt 1
 634 000e 0123     		movs	r3, #1
 635 0010 A340     		lsls	r3, r3, r4
 636              	.LVL37:
 516:Generated_Source\PSoC4/CyDMA.c **** 
 517:Generated_Source\PSoC4/CyDMA.c ****     /* Check against attempt to free channel allocated for DMA instance
 518:Generated_Source\PSoC4/CyDMA.c ****     * placed on schematic.
 519:Generated_Source\PSoC4/CyDMA.c ****     */
 520:Generated_Source\PSoC4/CyDMA.c ****     if(0u == (channelMask & DMA_CHANNELS_USED__MASK))
 521:Generated_Source\PSoC4/CyDMA.c ****     {
 522:Generated_Source\PSoC4/CyDMA.c ****         CyDmaChannelUsedMask &= (uint32)~channelMask;
 637              		.loc 1 522 0
 638 0012 034A     		ldr	r2, .L60
 639 0014 5168     		ldr	r1, [r2, #4]
 640 0016 9943     		bics	r1, r3
 641 0018 5160     		str	r1, [r2, #4]
 642              	.LVL38:
 523:Generated_Source\PSoC4/CyDMA.c ****         result = CYRET_SUCCESS;
 524:Generated_Source\PSoC4/CyDMA.c ****     }
 525:Generated_Source\PSoC4/CyDMA.c ****     
 526:Generated_Source\PSoC4/CyDMA.c ****     return (result);
 527:Generated_Source\PSoC4/CyDMA.c **** }
 643              		.loc 1 527 0
 644 001a 0020     		movs	r0, #0
 645              		@ sp needed
 646              	.LVL39:
 647 001c 10BD     		pop	{r4, pc}
 648              	.L61:
 649 001e C046     		.align	2
 650              	.L60:
 651 0020 00000000 		.word	.LANCHOR1
 652              		.cfi_endproc
 653              	.LFE18:
 654              		.size	CyDmaChFree, .-CyDmaChFree
 655              		.section	.text.CyDmaChEnable,"ax",%progbits
 656              		.align	2
 657              		.global	CyDmaChEnable
 658              		.code	16
 659              		.thumb_func
 660              		.type	CyDmaChEnable, %function
 661              	CyDmaChEnable:
 662              	.LFB19:
 528:Generated_Source\PSoC4/CyDMA.c **** 
 529:Generated_Source\PSoC4/CyDMA.c **** 
 530:Generated_Source\PSoC4/CyDMA.c **** /*******************************************************************************
 531:Generated_Source\PSoC4/CyDMA.c **** * Function Name: CyDmaChEnable
 532:Generated_Source\PSoC4/CyDMA.c **** ********************************************************************************
 533:Generated_Source\PSoC4/CyDMA.c **** *
 534:Generated_Source\PSoC4/CyDMA.c **** * Summary:
 535:Generated_Source\PSoC4/CyDMA.c **** *  Enables the DMA channel.
 536:Generated_Source\PSoC4/CyDMA.c **** *
 537:Generated_Source\PSoC4/CyDMA.c **** * Parameters:
ARM GAS  C:\Users\JamesN4\AppData\Local\Temp\ccgbGPCH.s 			page 23


 538:Generated_Source\PSoC4/CyDMA.c **** *  channel: Channel used by this function.
 539:Generated_Source\PSoC4/CyDMA.c **** *                   
 540:Generated_Source\PSoC4/CyDMA.c **** * Return:
 541:Generated_Source\PSoC4/CyDMA.c **** *  None.
 542:Generated_Source\PSoC4/CyDMA.c **** *
 543:Generated_Source\PSoC4/CyDMA.c **** * Side effect:
 544:Generated_Source\PSoC4/CyDMA.c **** *  If this function is called before CyDmaSetConfiguration(), and
 545:Generated_Source\PSoC4/CyDMA.c **** *  CyDmaSetSrcAddress() and CyDmaSetDstAddress(), the operation of
 546:Generated_Source\PSoC4/CyDMA.c **** *  the DMA is undefined and could result in system data corruption. 
 547:Generated_Source\PSoC4/CyDMA.c **** *
 548:Generated_Source\PSoC4/CyDMA.c **** *******************************************************************************/
 549:Generated_Source\PSoC4/CyDMA.c **** void CyDmaChEnable(int32 channel)
 550:Generated_Source\PSoC4/CyDMA.c **** {
 663              		.loc 1 550 0
 664              		.cfi_startproc
 665              		@ args = 0, pretend = 0, frame = 0
 666              		@ frame_needed = 0, uses_anonymous_args = 0
 667              	.LVL40:
 668 0000 10B5     		push	{r4, lr}
 669              		.cfi_def_cfa_offset 8
 670              		.cfi_offset 4, -8
 671              		.cfi_offset 14, -4
 672 0002 0400     		movs	r4, r0
 551:Generated_Source\PSoC4/CyDMA.c ****     CYASSERT((channel >= 0) && (channel < CYDMA_CH_NR));
 673              		.loc 1 551 0
 674 0004 0728     		cmp	r0, #7
 675 0006 02D9     		bls	.L63
 676              		.loc 1 551 0 is_stmt 0 discriminator 1
 677 0008 0020     		movs	r0, #0
 678              	.LVL41:
 679 000a FFF7FEFF 		bl	CyHalt
 680              	.LVL42:
 681              	.L63:
 552:Generated_Source\PSoC4/CyDMA.c **** 
 553:Generated_Source\PSoC4/CyDMA.c ****     CYDMA_CH_CTL_BASE.ctl[channel] |= CYDMA_ENABLED;
 682              		.loc 1 553 0 is_stmt 1
 683 000e 044A     		ldr	r2, .L64
 684 0010 A400     		lsls	r4, r4, #2
 685              	.LVL43:
 686 0012 A358     		ldr	r3, [r4, r2]
 687 0014 8021     		movs	r1, #128
 688 0016 0906     		lsls	r1, r1, #24
 689 0018 0B43     		orrs	r3, r1
 690 001a A350     		str	r3, [r4, r2]
 554:Generated_Source\PSoC4/CyDMA.c **** }
 691              		.loc 1 554 0
 692              		@ sp needed
 693 001c 10BD     		pop	{r4, pc}
 694              	.L65:
 695 001e C046     		.align	2
 696              	.L64:
 697 0020 80101040 		.word	1074794624
 698              		.cfi_endproc
 699              	.LFE19:
 700              		.size	CyDmaChEnable, .-CyDmaChEnable
 701              		.section	.text.CyDmaChDisable,"ax",%progbits
 702              		.align	2
ARM GAS  C:\Users\JamesN4\AppData\Local\Temp\ccgbGPCH.s 			page 24


 703              		.global	CyDmaChDisable
 704              		.code	16
 705              		.thumb_func
 706              		.type	CyDmaChDisable, %function
 707              	CyDmaChDisable:
 708              	.LFB20:
 555:Generated_Source\PSoC4/CyDMA.c **** 
 556:Generated_Source\PSoC4/CyDMA.c **** 
 557:Generated_Source\PSoC4/CyDMA.c **** /*******************************************************************************
 558:Generated_Source\PSoC4/CyDMA.c **** * Function Name: CyDmaChDisable
 559:Generated_Source\PSoC4/CyDMA.c **** ********************************************************************************
 560:Generated_Source\PSoC4/CyDMA.c **** *
 561:Generated_Source\PSoC4/CyDMA.c **** * Summary:
 562:Generated_Source\PSoC4/CyDMA.c **** *  Disables the DMA channel.
 563:Generated_Source\PSoC4/CyDMA.c **** *
 564:Generated_Source\PSoC4/CyDMA.c **** * Parameters:
 565:Generated_Source\PSoC4/CyDMA.c **** *  channel: Channel used by this function.
 566:Generated_Source\PSoC4/CyDMA.c **** *                   
 567:Generated_Source\PSoC4/CyDMA.c **** * Return:
 568:Generated_Source\PSoC4/CyDMA.c **** *  None.
 569:Generated_Source\PSoC4/CyDMA.c **** *
 570:Generated_Source\PSoC4/CyDMA.c **** * Side effect:
 571:Generated_Source\PSoC4/CyDMA.c **** *  If this function is called during a DMA transfer the transfer is aborted. 
 572:Generated_Source\PSoC4/CyDMA.c **** *
 573:Generated_Source\PSoC4/CyDMA.c **** *******************************************************************************/
 574:Generated_Source\PSoC4/CyDMA.c **** void CyDmaChDisable(int32 channel)
 575:Generated_Source\PSoC4/CyDMA.c **** {
 709              		.loc 1 575 0
 710              		.cfi_startproc
 711              		@ args = 0, pretend = 0, frame = 0
 712              		@ frame_needed = 0, uses_anonymous_args = 0
 713              	.LVL44:
 714 0000 10B5     		push	{r4, lr}
 715              		.cfi_def_cfa_offset 8
 716              		.cfi_offset 4, -8
 717              		.cfi_offset 14, -4
 718 0002 0400     		movs	r4, r0
 576:Generated_Source\PSoC4/CyDMA.c ****     CYASSERT((channel >= 0) && (channel < CYDMA_CH_NR));
 719              		.loc 1 576 0
 720 0004 0728     		cmp	r0, #7
 721 0006 02D9     		bls	.L67
 722              		.loc 1 576 0 is_stmt 0 discriminator 1
 723 0008 0020     		movs	r0, #0
 724              	.LVL45:
 725 000a FFF7FEFF 		bl	CyHalt
 726              	.LVL46:
 727              	.L67:
 577:Generated_Source\PSoC4/CyDMA.c **** 
 578:Generated_Source\PSoC4/CyDMA.c ****     CYDMA_CH_CTL_BASE.ctl[channel] &= (uint32)~CYDMA_ENABLED;
 728              		.loc 1 578 0 is_stmt 1
 729 000e 034A     		ldr	r2, .L68
 730 0010 A400     		lsls	r4, r4, #2
 731              	.LVL47:
 732 0012 A358     		ldr	r3, [r4, r2]
 733 0014 5B00     		lsls	r3, r3, #1
 734 0016 5B08     		lsrs	r3, r3, #1
 735 0018 A350     		str	r3, [r4, r2]
ARM GAS  C:\Users\JamesN4\AppData\Local\Temp\ccgbGPCH.s 			page 25


 579:Generated_Source\PSoC4/CyDMA.c **** }
 736              		.loc 1 579 0
 737              		@ sp needed
 738 001a 10BD     		pop	{r4, pc}
 739              	.L69:
 740              		.align	2
 741              	.L68:
 742 001c 80101040 		.word	1074794624
 743              		.cfi_endproc
 744              	.LFE20:
 745              		.size	CyDmaChDisable, .-CyDmaChDisable
 746              		.section	.text.CyDmaTrigger,"ax",%progbits
 747              		.align	2
 748              		.global	CyDmaTrigger
 749              		.code	16
 750              		.thumb_func
 751              		.type	CyDmaTrigger, %function
 752              	CyDmaTrigger:
 753              	.LFB21:
 580:Generated_Source\PSoC4/CyDMA.c **** 
 581:Generated_Source\PSoC4/CyDMA.c **** 
 582:Generated_Source\PSoC4/CyDMA.c **** /*******************************************************************************
 583:Generated_Source\PSoC4/CyDMA.c **** * Function Name: CyDmaTrigger
 584:Generated_Source\PSoC4/CyDMA.c **** ********************************************************************************
 585:Generated_Source\PSoC4/CyDMA.c **** *
 586:Generated_Source\PSoC4/CyDMA.c **** * Summary:
 587:Generated_Source\PSoC4/CyDMA.c **** *  Triggers the DMA channel, this is useful only for software triggers. This is
 588:Generated_Source\PSoC4/CyDMA.c **** *  not needed when hardware triggers are used.
 589:Generated_Source\PSoC4/CyDMA.c **** *
 590:Generated_Source\PSoC4/CyDMA.c **** * Parameters:
 591:Generated_Source\PSoC4/CyDMA.c **** *  channel: Channel used by this function.
 592:Generated_Source\PSoC4/CyDMA.c **** *                   
 593:Generated_Source\PSoC4/CyDMA.c **** * Return:
 594:Generated_Source\PSoC4/CyDMA.c **** *  None. 
 595:Generated_Source\PSoC4/CyDMA.c **** *
 596:Generated_Source\PSoC4/CyDMA.c **** *******************************************************************************/
 597:Generated_Source\PSoC4/CyDMA.c **** void CyDmaTrigger(int32 channel)
 598:Generated_Source\PSoC4/CyDMA.c **** {
 754              		.loc 1 598 0
 755              		.cfi_startproc
 756              		@ args = 0, pretend = 0, frame = 0
 757              		@ frame_needed = 0, uses_anonymous_args = 0
 758              	.LVL48:
 759 0000 10B5     		push	{r4, lr}
 760              		.cfi_def_cfa_offset 8
 761              		.cfi_offset 4, -8
 762              		.cfi_offset 14, -4
 763 0002 0400     		movs	r4, r0
 599:Generated_Source\PSoC4/CyDMA.c ****     /* The LUT is device-dependent, thus it is generated during the build process. */
 600:Generated_Source\PSoC4/CyDMA.c ****     static const uint32 trCtlLut[] = {0xC0020000U};
 601:Generated_Source\PSoC4/CyDMA.c **** 
 602:Generated_Source\PSoC4/CyDMA.c ****     CYASSERT((channel >= 0) && (channel < CYDMA_CH_NR));
 764              		.loc 1 602 0
 765 0004 0728     		cmp	r0, #7
 766 0006 02D9     		bls	.L71
 767              		.loc 1 602 0 is_stmt 0 discriminator 1
 768 0008 0020     		movs	r0, #0
ARM GAS  C:\Users\JamesN4\AppData\Local\Temp\ccgbGPCH.s 			page 26


 769              	.LVL49:
 770 000a FFF7FEFF 		bl	CyHalt
 771              	.LVL50:
 772              	.L71:
 603:Generated_Source\PSoC4/CyDMA.c **** 
 604:Generated_Source\PSoC4/CyDMA.c ****     CYDMA_TR_CTL_REG = trCtlLut[(uint32)channel >> CYDMA_TR_GROUP_SHR] | ((uint32)channel & CYDMA_T
 773              		.loc 1 604 0 is_stmt 1
 774 000e 0723     		movs	r3, #7
 775 0010 1C40     		ands	r4, r3
 776              	.LVL51:
 777 0012 024B     		ldr	r3, .L72
 778 0014 1C43     		orrs	r4, r3
 779 0016 024B     		ldr	r3, .L72+4
 780 0018 1C60     		str	r4, [r3]
 605:Generated_Source\PSoC4/CyDMA.c **** }
 781              		.loc 1 605 0
 782              		@ sp needed
 783 001a 10BD     		pop	{r4, pc}
 784              	.L73:
 785              		.align	2
 786              	.L72:
 787 001c 000002C0 		.word	-1073610752
 788 0020 00060140 		.word	1073808896
 789              		.cfi_endproc
 790              	.LFE21:
 791              		.size	CyDmaTrigger, .-CyDmaTrigger
 792              		.section	.text.CyDmaSetPriority,"ax",%progbits
 793              		.align	2
 794              		.global	CyDmaSetPriority
 795              		.code	16
 796              		.thumb_func
 797              		.type	CyDmaSetPriority, %function
 798              	CyDmaSetPriority:
 799              	.LFB22:
 606:Generated_Source\PSoC4/CyDMA.c **** 
 607:Generated_Source\PSoC4/CyDMA.c **** 
 608:Generated_Source\PSoC4/CyDMA.c **** /*******************************************************************************
 609:Generated_Source\PSoC4/CyDMA.c **** * Function Name: CyDmaSetPriority
 610:Generated_Source\PSoC4/CyDMA.c **** ********************************************************************************
 611:Generated_Source\PSoC4/CyDMA.c **** *
 612:Generated_Source\PSoC4/CyDMA.c **** * Summary:
 613:Generated_Source\PSoC4/CyDMA.c **** *  Sets the priority for the channel.
 614:Generated_Source\PSoC4/CyDMA.c **** *
 615:Generated_Source\PSoC4/CyDMA.c **** * Parameters:
 616:Generated_Source\PSoC4/CyDMA.c **** *  channel:  Channel used by this function
 617:Generated_Source\PSoC4/CyDMA.c **** *  priority: Priority for channel. Priority can be 0,1,2, or 3.
 618:Generated_Source\PSoC4/CyDMA.c **** *            0 is the highest priority.
 619:Generated_Source\PSoC4/CyDMA.c **** *                   
 620:Generated_Source\PSoC4/CyDMA.c **** * Return:
 621:Generated_Source\PSoC4/CyDMA.c **** *  None.
 622:Generated_Source\PSoC4/CyDMA.c **** *
 623:Generated_Source\PSoC4/CyDMA.c **** * Side effect:
 624:Generated_Source\PSoC4/CyDMA.c **** *  This function should not be called while the channel is enabled.
 625:Generated_Source\PSoC4/CyDMA.c **** *
 626:Generated_Source\PSoC4/CyDMA.c **** *******************************************************************************/
 627:Generated_Source\PSoC4/CyDMA.c **** void CyDmaSetPriority(int32 channel, int32 priority)
 628:Generated_Source\PSoC4/CyDMA.c **** {
ARM GAS  C:\Users\JamesN4\AppData\Local\Temp\ccgbGPCH.s 			page 27


 800              		.loc 1 628 0
 801              		.cfi_startproc
 802              		@ args = 0, pretend = 0, frame = 0
 803              		@ frame_needed = 0, uses_anonymous_args = 0
 804              	.LVL52:
 805 0000 70B5     		push	{r4, r5, r6, lr}
 806              		.cfi_def_cfa_offset 16
 807              		.cfi_offset 4, -16
 808              		.cfi_offset 5, -12
 809              		.cfi_offset 6, -8
 810              		.cfi_offset 14, -4
 811 0002 0500     		movs	r5, r0
 812 0004 0C00     		movs	r4, r1
 629:Generated_Source\PSoC4/CyDMA.c ****     uint32 regValue;
 630:Generated_Source\PSoC4/CyDMA.c **** 
 631:Generated_Source\PSoC4/CyDMA.c ****     CYASSERT((channel  >= 0) && (channel  <  CYDMA_CH_NR));
 813              		.loc 1 631 0
 814 0006 0728     		cmp	r0, #7
 815 0008 02D9     		bls	.L75
 816              		.loc 1 631 0 is_stmt 0 discriminator 1
 817 000a 0020     		movs	r0, #0
 818              	.LVL53:
 819 000c FFF7FEFF 		bl	CyHalt
 820              	.LVL54:
 821              	.L75:
 632:Generated_Source\PSoC4/CyDMA.c ****     CYASSERT((priority >= 0) && (priority <= CY_DMA_MAX_PRIO));
 822              		.loc 1 632 0 is_stmt 1
 823 0010 032C     		cmp	r4, #3
 824 0012 02D9     		bls	.L76
 825              		.loc 1 632 0 is_stmt 0 discriminator 1
 826 0014 0020     		movs	r0, #0
 827 0016 FFF7FEFF 		bl	CyHalt
 828              	.LVL55:
 829              	.L76:
 633:Generated_Source\PSoC4/CyDMA.c **** 
 634:Generated_Source\PSoC4/CyDMA.c ****     regValue = CYDMA_CH_CTL_BASE.ctl[channel] & (uint32)~CYDMA_PRIO;
 830              		.loc 1 634 0 is_stmt 1
 831 001a 044A     		ldr	r2, .L77
 832 001c AD00     		lsls	r5, r5, #2
 833              	.LVL56:
 834 001e A958     		ldr	r1, [r5, r2]
 835 0020 034B     		ldr	r3, .L77+4
 836 0022 0B40     		ands	r3, r1
 837              	.LVL57:
 635:Generated_Source\PSoC4/CyDMA.c ****     CYDMA_CH_CTL_BASE.ctl[channel] = regValue | (uint32)((uint32)priority << CYDMA_PRIO_POS);
 838              		.loc 1 635 0
 839 0024 2407     		lsls	r4, r4, #28
 840              	.LVL58:
 841 0026 1C43     		orrs	r4, r3
 842 0028 AC50     		str	r4, [r5, r2]
 636:Generated_Source\PSoC4/CyDMA.c **** }
 843              		.loc 1 636 0
 844              		@ sp needed
 845 002a 70BD     		pop	{r4, r5, r6, pc}
 846              	.L78:
 847              		.align	2
 848              	.L77:
ARM GAS  C:\Users\JamesN4\AppData\Local\Temp\ccgbGPCH.s 			page 28


 849 002c 80101040 		.word	1074794624
 850 0030 FFFFFFCF 		.word	-805306369
 851              		.cfi_endproc
 852              	.LFE22:
 853              		.size	CyDmaSetPriority, .-CyDmaSetPriority
 854              		.section	.text.CyDmaGetPriority,"ax",%progbits
 855              		.align	2
 856              		.global	CyDmaGetPriority
 857              		.code	16
 858              		.thumb_func
 859              		.type	CyDmaGetPriority, %function
 860              	CyDmaGetPriority:
 861              	.LFB23:
 637:Generated_Source\PSoC4/CyDMA.c **** 
 638:Generated_Source\PSoC4/CyDMA.c **** 
 639:Generated_Source\PSoC4/CyDMA.c **** /*******************************************************************************
 640:Generated_Source\PSoC4/CyDMA.c **** * Function Name: CyDmaGetPriority
 641:Generated_Source\PSoC4/CyDMA.c **** ********************************************************************************
 642:Generated_Source\PSoC4/CyDMA.c **** *
 643:Generated_Source\PSoC4/CyDMA.c **** * Summary:
 644:Generated_Source\PSoC4/CyDMA.c **** *  Gets the priority for the channel.
 645:Generated_Source\PSoC4/CyDMA.c **** *
 646:Generated_Source\PSoC4/CyDMA.c **** * Parameters:
 647:Generated_Source\PSoC4/CyDMA.c **** *  channel: Channel used by this function.
 648:Generated_Source\PSoC4/CyDMA.c **** *                   
 649:Generated_Source\PSoC4/CyDMA.c **** * Return:
 650:Generated_Source\PSoC4/CyDMA.c **** *  Priority for channel. Priority can be 0,1,2, or 3. 0 is the highest priority.
 651:Generated_Source\PSoC4/CyDMA.c **** *
 652:Generated_Source\PSoC4/CyDMA.c **** *******************************************************************************/
 653:Generated_Source\PSoC4/CyDMA.c **** int32 CyDmaGetPriority(int32 channel)
 654:Generated_Source\PSoC4/CyDMA.c **** {
 862              		.loc 1 654 0
 863              		.cfi_startproc
 864              		@ args = 0, pretend = 0, frame = 0
 865              		@ frame_needed = 0, uses_anonymous_args = 0
 866              	.LVL59:
 867 0000 10B5     		push	{r4, lr}
 868              		.cfi_def_cfa_offset 8
 869              		.cfi_offset 4, -8
 870              		.cfi_offset 14, -4
 871 0002 0400     		movs	r4, r0
 655:Generated_Source\PSoC4/CyDMA.c ****     uint32 priority;
 656:Generated_Source\PSoC4/CyDMA.c **** 
 657:Generated_Source\PSoC4/CyDMA.c ****     CYASSERT((channel >= 0) && (channel < CYDMA_CH_NR));
 872              		.loc 1 657 0
 873 0004 0728     		cmp	r0, #7
 874 0006 02D9     		bls	.L80
 875              		.loc 1 657 0 is_stmt 0 discriminator 1
 876 0008 0020     		movs	r0, #0
 877              	.LVL60:
 878 000a FFF7FEFF 		bl	CyHalt
 879              	.LVL61:
 880              	.L80:
 658:Generated_Source\PSoC4/CyDMA.c **** 
 659:Generated_Source\PSoC4/CyDMA.c ****     priority = (CYDMA_CH_CTL_BASE.ctl[channel] & CYDMA_PRIO) >> CYDMA_PRIO_POS;
 881              		.loc 1 659 0 is_stmt 1
 882 000e A400     		lsls	r4, r4, #2
ARM GAS  C:\Users\JamesN4\AppData\Local\Temp\ccgbGPCH.s 			page 29


 883              	.LVL62:
 884 0010 024B     		ldr	r3, .L81
 885 0012 E058     		ldr	r0, [r4, r3]
 886 0014 000F     		lsrs	r0, r0, #28
 887 0016 0323     		movs	r3, #3
 888 0018 1840     		ands	r0, r3
 889              	.LVL63:
 660:Generated_Source\PSoC4/CyDMA.c ****     return ((int32)priority);
 661:Generated_Source\PSoC4/CyDMA.c **** }
 890              		.loc 1 661 0
 891              		@ sp needed
 892 001a 10BD     		pop	{r4, pc}
 893              	.L82:
 894              		.align	2
 895              	.L81:
 896 001c 80101040 		.word	1074794624
 897              		.cfi_endproc
 898              	.LFE23:
 899              		.size	CyDmaGetPriority, .-CyDmaGetPriority
 900              		.section	.text.CyDmaSetNextDescriptor,"ax",%progbits
 901              		.align	2
 902              		.global	CyDmaSetNextDescriptor
 903              		.code	16
 904              		.thumb_func
 905              		.type	CyDmaSetNextDescriptor, %function
 906              	CyDmaSetNextDescriptor:
 907              	.LFB24:
 662:Generated_Source\PSoC4/CyDMA.c **** 
 663:Generated_Source\PSoC4/CyDMA.c **** 
 664:Generated_Source\PSoC4/CyDMA.c **** /*******************************************************************************
 665:Generated_Source\PSoC4/CyDMA.c **** * Function Name: CyDmaSetNextDescriptor
 666:Generated_Source\PSoC4/CyDMA.c **** ********************************************************************************
 667:Generated_Source\PSoC4/CyDMA.c **** *
 668:Generated_Source\PSoC4/CyDMA.c **** * Summary:
 669:Generated_Source\PSoC4/CyDMA.c **** *  Sets the descriptor that should be run the next time the channel is
 670:Generated_Source\PSoC4/CyDMA.c **** *  triggered.
 671:Generated_Source\PSoC4/CyDMA.c **** *
 672:Generated_Source\PSoC4/CyDMA.c **** * Parameters:
 673:Generated_Source\PSoC4/CyDMA.c **** *  channel:    Channel used by this function.
 674:Generated_Source\PSoC4/CyDMA.c **** *  descriptor: Next Descriptor to run (0 or 1).
 675:Generated_Source\PSoC4/CyDMA.c **** *
 676:Generated_Source\PSoC4/CyDMA.c **** * Return:
 677:Generated_Source\PSoC4/CyDMA.c **** *  None.
 678:Generated_Source\PSoC4/CyDMA.c **** *                   
 679:Generated_Source\PSoC4/CyDMA.c **** * Side effect:
 680:Generated_Source\PSoC4/CyDMA.c **** *  This function should not be called while the channel is enabled.
 681:Generated_Source\PSoC4/CyDMA.c **** *
 682:Generated_Source\PSoC4/CyDMA.c **** *******************************************************************************/
 683:Generated_Source\PSoC4/CyDMA.c **** void CyDmaSetNextDescriptor(int32 channel, int32 descriptor)
 684:Generated_Source\PSoC4/CyDMA.c **** {
 908              		.loc 1 684 0
 909              		.cfi_startproc
 910              		@ args = 0, pretend = 0, frame = 0
 911              		@ frame_needed = 0, uses_anonymous_args = 0
 912              	.LVL64:
 913 0000 70B5     		push	{r4, r5, r6, lr}
 914              		.cfi_def_cfa_offset 16
ARM GAS  C:\Users\JamesN4\AppData\Local\Temp\ccgbGPCH.s 			page 30


 915              		.cfi_offset 4, -16
 916              		.cfi_offset 5, -12
 917              		.cfi_offset 6, -8
 918              		.cfi_offset 14, -4
 919 0002 0500     		movs	r5, r0
 920 0004 0C00     		movs	r4, r1
 685:Generated_Source\PSoC4/CyDMA.c ****     uint32 regValue;
 686:Generated_Source\PSoC4/CyDMA.c **** 
 687:Generated_Source\PSoC4/CyDMA.c ****     CYASSERT((channel    >= 0) && (channel    < CYDMA_CH_NR));
 921              		.loc 1 687 0
 922 0006 0728     		cmp	r0, #7
 923 0008 02D9     		bls	.L84
 924              		.loc 1 687 0 is_stmt 0 discriminator 1
 925 000a 0020     		movs	r0, #0
 926              	.LVL65:
 927 000c FFF7FEFF 		bl	CyHalt
 928              	.LVL66:
 929              	.L84:
 688:Generated_Source\PSoC4/CyDMA.c ****     CYASSERT((descriptor >= 0) && (descriptor < CYDMA_DESCR_NR));
 930              		.loc 1 688 0 is_stmt 1
 931 0010 012C     		cmp	r4, #1
 932 0012 02D9     		bls	.L85
 933              		.loc 1 688 0 is_stmt 0 discriminator 1
 934 0014 0020     		movs	r0, #0
 935 0016 FFF7FEFF 		bl	CyHalt
 936              	.LVL67:
 937              	.L85:
 689:Generated_Source\PSoC4/CyDMA.c **** 
 690:Generated_Source\PSoC4/CyDMA.c ****     regValue = CYDMA_CH_CTL_BASE.ctl[channel] & (uint32)~CYDMA_DESCRIPTOR;
 938              		.loc 1 690 0 is_stmt 1
 939 001a 044A     		ldr	r2, .L86
 940 001c AD00     		lsls	r5, r5, #2
 941              	.LVL68:
 942 001e A958     		ldr	r1, [r5, r2]
 943 0020 034B     		ldr	r3, .L86+4
 944 0022 0B40     		ands	r3, r1
 945              	.LVL69:
 691:Generated_Source\PSoC4/CyDMA.c ****     CYDMA_CH_CTL_BASE.ctl[channel] = regValue | (uint32)((uint32)descriptor << CYDMA_DESCRIPTOR_POS
 946              		.loc 1 691 0
 947 0024 A407     		lsls	r4, r4, #30
 948              	.LVL70:
 949 0026 1C43     		orrs	r4, r3
 950 0028 AC50     		str	r4, [r5, r2]
 692:Generated_Source\PSoC4/CyDMA.c **** }
 951              		.loc 1 692 0
 952              		@ sp needed
 953 002a 70BD     		pop	{r4, r5, r6, pc}
 954              	.L87:
 955              		.align	2
 956              	.L86:
 957 002c 80101040 		.word	1074794624
 958 0030 FFFFFFBF 		.word	-1073741825
 959              		.cfi_endproc
 960              	.LFE24:
 961              		.size	CyDmaSetNextDescriptor, .-CyDmaSetNextDescriptor
 962              		.section	.text.CyDmaGetNextDescriptor,"ax",%progbits
 963              		.align	2
ARM GAS  C:\Users\JamesN4\AppData\Local\Temp\ccgbGPCH.s 			page 31


 964              		.global	CyDmaGetNextDescriptor
 965              		.code	16
 966              		.thumb_func
 967              		.type	CyDmaGetNextDescriptor, %function
 968              	CyDmaGetNextDescriptor:
 969              	.LFB25:
 693:Generated_Source\PSoC4/CyDMA.c **** 
 694:Generated_Source\PSoC4/CyDMA.c **** 
 695:Generated_Source\PSoC4/CyDMA.c **** /*******************************************************************************
 696:Generated_Source\PSoC4/CyDMA.c **** * Function Name: CyDmaGetNextDescriptor
 697:Generated_Source\PSoC4/CyDMA.c **** ********************************************************************************
 698:Generated_Source\PSoC4/CyDMA.c **** *
 699:Generated_Source\PSoC4/CyDMA.c **** * Summary:
 700:Generated_Source\PSoC4/CyDMA.c **** *  Returns the next descriptor that should be run, as set by 
 701:Generated_Source\PSoC4/CyDMA.c **** *  CyDmaSetNextDescriptor().
 702:Generated_Source\PSoC4/CyDMA.c **** *
 703:Generated_Source\PSoC4/CyDMA.c **** * Parameters:
 704:Generated_Source\PSoC4/CyDMA.c **** *  channel: channel used by this function.
 705:Generated_Source\PSoC4/CyDMA.c **** *                   
 706:Generated_Source\PSoC4/CyDMA.c **** * Return:
 707:Generated_Source\PSoC4/CyDMA.c **** *  Next Descriptor to run (0 or 1).
 708:Generated_Source\PSoC4/CyDMA.c **** *
 709:Generated_Source\PSoC4/CyDMA.c **** *******************************************************************************/
 710:Generated_Source\PSoC4/CyDMA.c **** int32 CyDmaGetNextDescriptor(int32 channel)
 711:Generated_Source\PSoC4/CyDMA.c **** {
 970              		.loc 1 711 0
 971              		.cfi_startproc
 972              		@ args = 0, pretend = 0, frame = 0
 973              		@ frame_needed = 0, uses_anonymous_args = 0
 974              	.LVL71:
 975 0000 10B5     		push	{r4, lr}
 976              		.cfi_def_cfa_offset 8
 977              		.cfi_offset 4, -8
 978              		.cfi_offset 14, -4
 979 0002 0400     		movs	r4, r0
 712:Generated_Source\PSoC4/CyDMA.c ****     uint32 nextDescriptor;
 713:Generated_Source\PSoC4/CyDMA.c **** 
 714:Generated_Source\PSoC4/CyDMA.c ****     CYASSERT((channel >= 0) && (channel < CYDMA_CH_NR));
 980              		.loc 1 714 0
 981 0004 0728     		cmp	r0, #7
 982 0006 02D9     		bls	.L89
 983              		.loc 1 714 0 is_stmt 0 discriminator 1
 984 0008 0020     		movs	r0, #0
 985              	.LVL72:
 986 000a FFF7FEFF 		bl	CyHalt
 987              	.LVL73:
 988              	.L89:
 715:Generated_Source\PSoC4/CyDMA.c **** 
 716:Generated_Source\PSoC4/CyDMA.c ****     nextDescriptor = (CYDMA_CH_CTL_BASE.ctl[channel] & CYDMA_DESCRIPTOR) >> CYDMA_DESCRIPTOR_POS;
 989              		.loc 1 716 0 is_stmt 1
 990 000e A400     		lsls	r4, r4, #2
 991              	.LVL74:
 992 0010 024B     		ldr	r3, .L90
 993 0012 E058     		ldr	r0, [r4, r3]
 994 0014 800F     		lsrs	r0, r0, #30
 995 0016 0123     		movs	r3, #1
 996 0018 1840     		ands	r0, r3
ARM GAS  C:\Users\JamesN4\AppData\Local\Temp\ccgbGPCH.s 			page 32


 997              	.LVL75:
 717:Generated_Source\PSoC4/CyDMA.c ****     return ((int32)nextDescriptor);
 718:Generated_Source\PSoC4/CyDMA.c **** }
 998              		.loc 1 718 0
 999              		@ sp needed
 1000 001a 10BD     		pop	{r4, pc}
 1001              	.L91:
 1002              		.align	2
 1003              	.L90:
 1004 001c 80101040 		.word	1074794624
 1005              		.cfi_endproc
 1006              	.LFE25:
 1007              		.size	CyDmaGetNextDescriptor, .-CyDmaGetNextDescriptor
 1008              		.section	.text.CyDmaSetConfiguration,"ax",%progbits
 1009              		.align	2
 1010              		.global	CyDmaSetConfiguration
 1011              		.code	16
 1012              		.thumb_func
 1013              		.type	CyDmaSetConfiguration, %function
 1014              	CyDmaSetConfiguration:
 1015              	.LFB26:
 719:Generated_Source\PSoC4/CyDMA.c **** 
 720:Generated_Source\PSoC4/CyDMA.c **** 
 721:Generated_Source\PSoC4/CyDMA.c **** /*******************************************************************************
 722:Generated_Source\PSoC4/CyDMA.c **** * Function Name: CyDmaSetConfiguration
 723:Generated_Source\PSoC4/CyDMA.c **** ********************************************************************************
 724:Generated_Source\PSoC4/CyDMA.c **** *
 725:Generated_Source\PSoC4/CyDMA.c **** * Summary:
 726:Generated_Source\PSoC4/CyDMA.c **** *  Sets configuration information for the specified descriptor.
 727:Generated_Source\PSoC4/CyDMA.c **** *
 728:Generated_Source\PSoC4/CyDMA.c **** * Parameters:
 729:Generated_Source\PSoC4/CyDMA.c **** *  channel:    DMA channel modified by this function.
 730:Generated_Source\PSoC4/CyDMA.c **** *  descriptor: Descriptor (0 or 1) modified by this function.
 731:Generated_Source\PSoC4/CyDMA.c **** *  config:     Pointer to a configuration structure. Refer to cydma_init_struct
 732:Generated_Source\PSoC4/CyDMA.c **** *              structure definition in CyDMA_P4.h and/or DMA channel datasheet
 733:Generated_Source\PSoC4/CyDMA.c **** *              for more information.
 734:Generated_Source\PSoC4/CyDMA.c **** *                   
 735:Generated_Source\PSoC4/CyDMA.c **** * Return:
 736:Generated_Source\PSoC4/CyDMA.c **** *  None.
 737:Generated_Source\PSoC4/CyDMA.c **** *
 738:Generated_Source\PSoC4/CyDMA.c **** * Side effect:
 739:Generated_Source\PSoC4/CyDMA.c **** *  The status register associated with the specified descriptor is reset to
 740:Generated_Source\PSoC4/CyDMA.c **** *  zero after this function call. This function also validates the descriptor.
 741:Generated_Source\PSoC4/CyDMA.c **** *  This function should not be called while the descriptor is active.
 742:Generated_Source\PSoC4/CyDMA.c **** *  This can be checked by calling CyDmaGetStatus().
 743:Generated_Source\PSoC4/CyDMA.c **** *
 744:Generated_Source\PSoC4/CyDMA.c **** *******************************************************************************/
 745:Generated_Source\PSoC4/CyDMA.c **** void CyDmaSetConfiguration(int32 channel, int32 descriptor, const cydma_init_struct * config)
 746:Generated_Source\PSoC4/CyDMA.c **** {  
 1016              		.loc 1 746 0
 1017              		.cfi_startproc
 1018              		@ args = 0, pretend = 0, frame = 0
 1019              		@ frame_needed = 0, uses_anonymous_args = 0
 1020              	.LVL76:
 1021 0000 70B5     		push	{r4, r5, r6, lr}
 1022              		.cfi_def_cfa_offset 16
 1023              		.cfi_offset 4, -16
ARM GAS  C:\Users\JamesN4\AppData\Local\Temp\ccgbGPCH.s 			page 33


 1024              		.cfi_offset 5, -12
 1025              		.cfi_offset 6, -8
 1026              		.cfi_offset 14, -4
 1027 0002 0600     		movs	r6, r0
 1028 0004 0D00     		movs	r5, r1
 1029 0006 1400     		movs	r4, r2
 747:Generated_Source\PSoC4/CyDMA.c ****     CYASSERT((channel        >= 0) && (channel         < CYDMA_CH_NR));
 1030              		.loc 1 747 0
 1031 0008 0728     		cmp	r0, #7
 1032 000a 02D9     		bls	.L93
 1033              		.loc 1 747 0 is_stmt 0 discriminator 1
 1034 000c 0020     		movs	r0, #0
 1035              	.LVL77:
 1036 000e FFF7FEFF 		bl	CyHalt
 1037              	.LVL78:
 1038              	.L93:
 748:Generated_Source\PSoC4/CyDMA.c ****     CYASSERT((descriptor     >= 0) && (descriptor      < CYDMA_DESCR_NR));
 1039              		.loc 1 748 0 is_stmt 1
 1040 0012 012D     		cmp	r5, #1
 1041 0014 02D9     		bls	.L94
 1042              		.loc 1 748 0 is_stmt 0 discriminator 1
 1043 0016 0020     		movs	r0, #0
 1044 0018 FFF7FEFF 		bl	CyHalt
 1045              	.LVL79:
 1046              	.L94:
 749:Generated_Source\PSoC4/CyDMA.c **** 
 750:Generated_Source\PSoC4/CyDMA.c ****     CYASSERT(0u == (config->dataElementSize     & (uint32)~CYDMA_DATA_SIZE));   
 1047              		.loc 1 750 0 is_stmt 1
 1048 001c 294B     		ldr	r3, .L103
 1049 001e 2268     		ldr	r2, [r4]
 1050 0020 1A42     		tst	r2, r3
 1051 0022 02D0     		beq	.L95
 1052              		.loc 1 750 0 is_stmt 0 discriminator 1
 1053 0024 0020     		movs	r0, #0
 1054 0026 FFF7FEFF 		bl	CyHalt
 1055              	.LVL80:
 1056              	.L95:
 751:Generated_Source\PSoC4/CyDMA.c ****     CYASSERT((config->numDataElements > 0)     && (config->numDataElements <= CYDMA_MAX_DATA_NR));
 1057              		.loc 1 751 0 is_stmt 1
 1058 002a 6368     		ldr	r3, [r4, #4]
 1059 002c 013B     		subs	r3, r3, #1
 1060 002e 264A     		ldr	r2, .L103+4
 1061 0030 9342     		cmp	r3, r2
 1062 0032 02D9     		bls	.L96
 1063              		.loc 1 751 0 is_stmt 0 discriminator 1
 1064 0034 0020     		movs	r0, #0
 1065 0036 FFF7FEFF 		bl	CyHalt
 1066              	.LVL81:
 1067              	.L96:
 752:Generated_Source\PSoC4/CyDMA.c ****     CYASSERT(0u == (config->srcDstTransferWidth & (uint32)~CYDMA_TRANSFER_WIDTH));
 1068              		.loc 1 752 0 is_stmt 1
 1069 003a 244B     		ldr	r3, .L103+8
 1070 003c A268     		ldr	r2, [r4, #8]
 1071 003e 1A42     		tst	r2, r3
 1072 0040 02D0     		beq	.L97
 1073              		.loc 1 752 0 is_stmt 0 discriminator 1
 1074 0042 0020     		movs	r0, #0
ARM GAS  C:\Users\JamesN4\AppData\Local\Temp\ccgbGPCH.s 			page 34


 1075 0044 FFF7FEFF 		bl	CyHalt
 1076              	.LVL82:
 1077              	.L97:
 753:Generated_Source\PSoC4/CyDMA.c ****     CYASSERT(0u == (config->addressIncrement    & (uint32)~CYDMA_ADDR_INCR));
 1078              		.loc 1 753 0 is_stmt 1
 1079 0048 214B     		ldr	r3, .L103+12
 1080 004a E268     		ldr	r2, [r4, #12]
 1081 004c 1A42     		tst	r2, r3
 1082 004e 02D0     		beq	.L98
 1083              		.loc 1 753 0 is_stmt 0 discriminator 1
 1084 0050 0020     		movs	r0, #0
 1085 0052 FFF7FEFF 		bl	CyHalt
 1086              	.LVL83:
 1087              	.L98:
 754:Generated_Source\PSoC4/CyDMA.c ****     CYASSERT(0u == (config->triggerType         & (uint32)~CYDMA_TRIGGER_TYPE));
 1088              		.loc 1 754 0 is_stmt 1
 1089 0056 1F4B     		ldr	r3, .L103+16
 1090 0058 2269     		ldr	r2, [r4, #16]
 1091 005a 1A42     		tst	r2, r3
 1092 005c 02D0     		beq	.L99
 1093              		.loc 1 754 0 is_stmt 0 discriminator 1
 1094 005e 0020     		movs	r0, #0
 1095 0060 FFF7FEFF 		bl	CyHalt
 1096              	.LVL84:
 1097              	.L99:
 755:Generated_Source\PSoC4/CyDMA.c ****     CYASSERT(0u == (config->transferMode        & (uint32)~CYDMA_TRANSFER_MODE));
 1098              		.loc 1 755 0 is_stmt 1
 1099 0064 6369     		ldr	r3, [r4, #20]
 1100 0066 9B00     		lsls	r3, r3, #2
 1101 0068 02D0     		beq	.L100
 1102              		.loc 1 755 0 is_stmt 0 discriminator 1
 1103 006a 0020     		movs	r0, #0
 1104 006c FFF7FEFF 		bl	CyHalt
 1105              	.LVL85:
 1106              	.L100:
 756:Generated_Source\PSoC4/CyDMA.c ****     CYASSERT(0u == (config->preemptable         & (uint32)~CYDMA_PREEMPTABLE));
 1107              		.loc 1 756 0 is_stmt 1
 1108 0070 194B     		ldr	r3, .L103+20
 1109 0072 A269     		ldr	r2, [r4, #24]
 1110 0074 1A42     		tst	r2, r3
 1111 0076 02D0     		beq	.L101
 1112              		.loc 1 756 0 is_stmt 0 discriminator 1
 1113 0078 0020     		movs	r0, #0
 1114 007a FFF7FEFF 		bl	CyHalt
 1115              	.LVL86:
 1116              	.L101:
 757:Generated_Source\PSoC4/CyDMA.c ****     CYASSERT(0u == (config->actions             & (uint32)~CYDMA_POST_COMPLETE_ACTIONS));
 1117              		.loc 1 757 0 is_stmt 1
 1118 007e 174B     		ldr	r3, .L103+24
 1119 0080 E269     		ldr	r2, [r4, #28]
 1120 0082 1A42     		tst	r2, r3
 1121 0084 02D0     		beq	.L102
 1122              		.loc 1 757 0 is_stmt 0 discriminator 1
 1123 0086 0020     		movs	r0, #0
 1124 0088 FFF7FEFF 		bl	CyHalt
 1125              	.LVL87:
 1126              	.L102:
ARM GAS  C:\Users\JamesN4\AppData\Local\Temp\ccgbGPCH.s 			page 35


 758:Generated_Source\PSoC4/CyDMA.c ****     
 759:Generated_Source\PSoC4/CyDMA.c ****     CYDMA_DESCR_BASE.descriptor[channel][descriptor].ctl = config->dataElementSize     |
 760:Generated_Source\PSoC4/CyDMA.c ****                                                   ((uint32)config->numDataElements-1u) |
 1127              		.loc 1 760 0 is_stmt 1
 1128 008c 6368     		ldr	r3, [r4, #4]
 1129 008e 013B     		subs	r3, r3, #1
 759:Generated_Source\PSoC4/CyDMA.c ****                                                   ((uint32)config->numDataElements-1u) |
 1130              		.loc 1 759 0
 1131 0090 2268     		ldr	r2, [r4]
 1132 0092 1343     		orrs	r3, r2
 1133              		.loc 1 760 0
 1134 0094 A268     		ldr	r2, [r4, #8]
 1135 0096 1343     		orrs	r3, r2
 761:Generated_Source\PSoC4/CyDMA.c ****                                                            config->srcDstTransferWidth |
 1136              		.loc 1 761 0
 1137 0098 E268     		ldr	r2, [r4, #12]
 1138 009a 1343     		orrs	r3, r2
 762:Generated_Source\PSoC4/CyDMA.c ****                                                            config->addressIncrement    |
 1139              		.loc 1 762 0
 1140 009c 2269     		ldr	r2, [r4, #16]
 1141 009e 1343     		orrs	r3, r2
 763:Generated_Source\PSoC4/CyDMA.c ****                                                            config->triggerType         |
 1142              		.loc 1 763 0
 1143 00a0 6269     		ldr	r2, [r4, #20]
 1144 00a2 1343     		orrs	r3, r2
 764:Generated_Source\PSoC4/CyDMA.c ****                                                            config->transferMode        |
 1145              		.loc 1 764 0
 1146 00a4 A269     		ldr	r2, [r4, #24]
 1147 00a6 1343     		orrs	r3, r2
 765:Generated_Source\PSoC4/CyDMA.c ****                                                            config->preemptable         |
 766:Generated_Source\PSoC4/CyDMA.c ****                                                            config->actions;
 1148              		.loc 1 766 0
 1149 00a8 E269     		ldr	r2, [r4, #28]
 765:Generated_Source\PSoC4/CyDMA.c ****                                                            config->preemptable         |
 1150              		.loc 1 765 0
 1151 00aa 1343     		orrs	r3, r2
 759:Generated_Source\PSoC4/CyDMA.c ****                                                   ((uint32)config->numDataElements-1u) |
 1152              		.loc 1 759 0
 1153 00ac 7600     		lsls	r6, r6, #1
 1154              	.LVL88:
 1155 00ae 7519     		adds	r5, r6, r5
 1156              	.LVL89:
 1157 00b0 2D01     		lsls	r5, r5, #4
 1158 00b2 0B4A     		ldr	r2, .L103+28
 1159 00b4 9446     		mov	ip, r2
 1160 00b6 6544     		add	r5, r5, ip
 1161 00b8 AB60     		str	r3, [r5, #8]
 767:Generated_Source\PSoC4/CyDMA.c **** 
 768:Generated_Source\PSoC4/CyDMA.c ****     CYDMA_DESCR_BASE.descriptor[channel][descriptor].status = CYDMA_VALID;
 1162              		.loc 1 768 0
 1163 00ba 8023     		movs	r3, #128
 1164 00bc 1B06     		lsls	r3, r3, #24
 1165 00be EB60     		str	r3, [r5, #12]
 769:Generated_Source\PSoC4/CyDMA.c **** }
 1166              		.loc 1 769 0
 1167              		@ sp needed
 1168              	.LVL90:
ARM GAS  C:\Users\JamesN4\AppData\Local\Temp\ccgbGPCH.s 			page 36


 1169 00c0 70BD     		pop	{r4, r5, r6, pc}
 1170              	.L104:
 1171 00c2 C046     		.align	2
 1172              	.L103:
 1173 00c4 FFFFFCFF 		.word	-196609
 1174 00c8 FFFF0000 		.word	65535
 1175 00cc FFFFAFFF 		.word	-5242881
 1176 00d0 FFFF5FFF 		.word	-10485761
 1177 00d4 FFFFFFFC 		.word	-50331649
 1178 00d8 FFFFFFEF 		.word	-268435457
 1179 00dc FFFFFFD3 		.word	-738197505
 1180 00e0 00181040 		.word	1074796544
 1181              		.cfi_endproc
 1182              	.LFE26:
 1183              		.size	CyDmaSetConfiguration, .-CyDmaSetConfiguration
 1184              		.section	.text.CyDmaValidateDescriptor,"ax",%progbits
 1185              		.align	2
 1186              		.global	CyDmaValidateDescriptor
 1187              		.code	16
 1188              		.thumb_func
 1189              		.type	CyDmaValidateDescriptor, %function
 1190              	CyDmaValidateDescriptor:
 1191              	.LFB27:
 770:Generated_Source\PSoC4/CyDMA.c **** 
 771:Generated_Source\PSoC4/CyDMA.c **** 
 772:Generated_Source\PSoC4/CyDMA.c **** /*******************************************************************************
 773:Generated_Source\PSoC4/CyDMA.c **** * Function Name: CyDmaValidateDescriptor
 774:Generated_Source\PSoC4/CyDMA.c **** ********************************************************************************
 775:Generated_Source\PSoC4/CyDMA.c **** *
 776:Generated_Source\PSoC4/CyDMA.c **** * Summary:
 777:Generated_Source\PSoC4/CyDMA.c **** *  Validates the specified descriptor after it has been invalidated.
 778:Generated_Source\PSoC4/CyDMA.c **** *
 779:Generated_Source\PSoC4/CyDMA.c **** * Parameters:
 780:Generated_Source\PSoC4/CyDMA.c **** *  channel:    Channel used by this function.
 781:Generated_Source\PSoC4/CyDMA.c **** *  descriptor: Descriptor (0 or 1) modified by this function.
 782:Generated_Source\PSoC4/CyDMA.c **** *                   
 783:Generated_Source\PSoC4/CyDMA.c **** * Return:
 784:Generated_Source\PSoC4/CyDMA.c **** *  None. 
 785:Generated_Source\PSoC4/CyDMA.c **** *
 786:Generated_Source\PSoC4/CyDMA.c **** * Side effect:
 787:Generated_Source\PSoC4/CyDMA.c **** *  The status register associated with the specified descriptor is reset to
 788:Generated_Source\PSoC4/CyDMA.c **** *  zero after this function call.
 789:Generated_Source\PSoC4/CyDMA.c **** *  This function should not be called when the specified descriptor is active
 790:Generated_Source\PSoC4/CyDMA.c **** *  in the DMA transfer engine. This can be checked by calling CyDmaGetStatus().
 791:Generated_Source\PSoC4/CyDMA.c **** *
 792:Generated_Source\PSoC4/CyDMA.c **** *******************************************************************************/
 793:Generated_Source\PSoC4/CyDMA.c **** void CyDmaValidateDescriptor(int32 channel, int32 descriptor)
 794:Generated_Source\PSoC4/CyDMA.c **** {
 1192              		.loc 1 794 0
 1193              		.cfi_startproc
 1194              		@ args = 0, pretend = 0, frame = 0
 1195              		@ frame_needed = 0, uses_anonymous_args = 0
 1196              	.LVL91:
 1197 0000 70B5     		push	{r4, r5, r6, lr}
 1198              		.cfi_def_cfa_offset 16
 1199              		.cfi_offset 4, -16
 1200              		.cfi_offset 5, -12
ARM GAS  C:\Users\JamesN4\AppData\Local\Temp\ccgbGPCH.s 			page 37


 1201              		.cfi_offset 6, -8
 1202              		.cfi_offset 14, -4
 1203 0002 0500     		movs	r5, r0
 1204 0004 0C00     		movs	r4, r1
 795:Generated_Source\PSoC4/CyDMA.c ****     CYASSERT((channel    >= 0) && (channel    < CYDMA_CH_NR));
 1205              		.loc 1 795 0
 1206 0006 0728     		cmp	r0, #7
 1207 0008 02D9     		bls	.L106
 1208              		.loc 1 795 0 is_stmt 0 discriminator 1
 1209 000a 0020     		movs	r0, #0
 1210              	.LVL92:
 1211 000c FFF7FEFF 		bl	CyHalt
 1212              	.LVL93:
 1213              	.L106:
 796:Generated_Source\PSoC4/CyDMA.c ****     CYASSERT((descriptor >= 0) && (descriptor < CYDMA_DESCR_NR));
 1214              		.loc 1 796 0 is_stmt 1
 1215 0010 012C     		cmp	r4, #1
 1216 0012 02D9     		bls	.L107
 1217              		.loc 1 796 0 is_stmt 0 discriminator 1
 1218 0014 0020     		movs	r0, #0
 1219 0016 FFF7FEFF 		bl	CyHalt
 1220              	.LVL94:
 1221              	.L107:
 797:Generated_Source\PSoC4/CyDMA.c **** 
 798:Generated_Source\PSoC4/CyDMA.c ****     CYDMA_DESCR_BASE.descriptor[channel][descriptor].status = CYDMA_VALID;
 1222              		.loc 1 798 0 is_stmt 1
 1223 001a 6D00     		lsls	r5, r5, #1
 1224              	.LVL95:
 1225 001c 2C19     		adds	r4, r5, r4
 1226              	.LVL96:
 1227 001e 2401     		lsls	r4, r4, #4
 1228 0020 034B     		ldr	r3, .L108
 1229 0022 9C46     		mov	ip, r3
 1230 0024 6444     		add	r4, r4, ip
 1231 0026 8023     		movs	r3, #128
 1232 0028 1B06     		lsls	r3, r3, #24
 1233 002a E360     		str	r3, [r4, #12]
 799:Generated_Source\PSoC4/CyDMA.c **** }
 1234              		.loc 1 799 0
 1235              		@ sp needed
 1236 002c 70BD     		pop	{r4, r5, r6, pc}
 1237              	.L109:
 1238 002e C046     		.align	2
 1239              	.L108:
 1240 0030 00181040 		.word	1074796544
 1241              		.cfi_endproc
 1242              	.LFE27:
 1243              		.size	CyDmaValidateDescriptor, .-CyDmaValidateDescriptor
 1244              		.section	.text.CyDmaGetDescriptorStatus,"ax",%progbits
 1245              		.align	2
 1246              		.global	CyDmaGetDescriptorStatus
 1247              		.code	16
 1248              		.thumb_func
 1249              		.type	CyDmaGetDescriptorStatus, %function
 1250              	CyDmaGetDescriptorStatus:
 1251              	.LFB28:
 800:Generated_Source\PSoC4/CyDMA.c **** 
ARM GAS  C:\Users\JamesN4\AppData\Local\Temp\ccgbGPCH.s 			page 38


 801:Generated_Source\PSoC4/CyDMA.c **** 
 802:Generated_Source\PSoC4/CyDMA.c **** /*******************************************************************************
 803:Generated_Source\PSoC4/CyDMA.c **** * Function Name: CyDmaGetDescriptorStatus
 804:Generated_Source\PSoC4/CyDMA.c **** ********************************************************************************
 805:Generated_Source\PSoC4/CyDMA.c **** *
 806:Generated_Source\PSoC4/CyDMA.c **** * Summary:
 807:Generated_Source\PSoC4/CyDMA.c **** *  Returns the status of the specified descriptor.
 808:Generated_Source\PSoC4/CyDMA.c **** *
 809:Generated_Source\PSoC4/CyDMA.c **** * Parameters:
 810:Generated_Source\PSoC4/CyDMA.c **** *  channel:    Channel used by this function.
 811:Generated_Source\PSoC4/CyDMA.c **** *  descriptor: Descriptor (0 or 1) modified by this function.
 812:Generated_Source\PSoC4/CyDMA.c **** *                   
 813:Generated_Source\PSoC4/CyDMA.c **** * Return:
 814:Generated_Source\PSoC4/CyDMA.c **** *  Returns the contents of the specified descriptors status register. Refer to 
 815:Generated_Source\PSoC4/CyDMA.c **** *  descriptor status register bit definitions in CyDMA_P4.h or the API
 816:Generated_Source\PSoC4/CyDMA.c **** *  description in the DMA channel datasheet for more information.
 817:Generated_Source\PSoC4/CyDMA.c **** *
 818:Generated_Source\PSoC4/CyDMA.c **** *******************************************************************************/
 819:Generated_Source\PSoC4/CyDMA.c **** uint32 CyDmaGetDescriptorStatus(int32 channel, int32 descriptor)
 820:Generated_Source\PSoC4/CyDMA.c **** {
 1252              		.loc 1 820 0
 1253              		.cfi_startproc
 1254              		@ args = 0, pretend = 0, frame = 0
 1255              		@ frame_needed = 0, uses_anonymous_args = 0
 1256              	.LVL97:
 1257 0000 70B5     		push	{r4, r5, r6, lr}
 1258              		.cfi_def_cfa_offset 16
 1259              		.cfi_offset 4, -16
 1260              		.cfi_offset 5, -12
 1261              		.cfi_offset 6, -8
 1262              		.cfi_offset 14, -4
 1263 0002 0500     		movs	r5, r0
 1264 0004 0C00     		movs	r4, r1
 821:Generated_Source\PSoC4/CyDMA.c ****     CYASSERT((channel    >= 0) && (channel    < CYDMA_CH_NR));
 1265              		.loc 1 821 0
 1266 0006 0728     		cmp	r0, #7
 1267 0008 02D9     		bls	.L111
 1268              		.loc 1 821 0 is_stmt 0 discriminator 1
 1269 000a 0020     		movs	r0, #0
 1270              	.LVL98:
 1271 000c FFF7FEFF 		bl	CyHalt
 1272              	.LVL99:
 1273              	.L111:
 822:Generated_Source\PSoC4/CyDMA.c ****     CYASSERT((descriptor >= 0) && (descriptor < CYDMA_DESCR_NR));
 1274              		.loc 1 822 0 is_stmt 1
 1275 0010 012C     		cmp	r4, #1
 1276 0012 02D9     		bls	.L112
 1277              		.loc 1 822 0 is_stmt 0 discriminator 1
 1278 0014 0020     		movs	r0, #0
 1279 0016 FFF7FEFF 		bl	CyHalt
 1280              	.LVL100:
 1281              	.L112:
 823:Generated_Source\PSoC4/CyDMA.c **** 
 824:Generated_Source\PSoC4/CyDMA.c ****     return (CYDMA_DESCR_BASE.descriptor[channel][descriptor].status);
 1282              		.loc 1 824 0 is_stmt 1
 1283 001a 6D00     		lsls	r5, r5, #1
 1284              	.LVL101:
ARM GAS  C:\Users\JamesN4\AppData\Local\Temp\ccgbGPCH.s 			page 39


 1285 001c 2C19     		adds	r4, r5, r4
 1286              	.LVL102:
 1287 001e 2401     		lsls	r4, r4, #4
 1288 0020 024B     		ldr	r3, .L113
 1289 0022 9C46     		mov	ip, r3
 1290 0024 6444     		add	r4, r4, ip
 1291 0026 E068     		ldr	r0, [r4, #12]
 825:Generated_Source\PSoC4/CyDMA.c **** }
 1292              		.loc 1 825 0
 1293              		@ sp needed
 1294 0028 70BD     		pop	{r4, r5, r6, pc}
 1295              	.L114:
 1296 002a C046     		.align	2
 1297              	.L113:
 1298 002c 00181040 		.word	1074796544
 1299              		.cfi_endproc
 1300              	.LFE28:
 1301              		.size	CyDmaGetDescriptorStatus, .-CyDmaGetDescriptorStatus
 1302              		.section	.text.CyDmaSetSrcAddress,"ax",%progbits
 1303              		.align	2
 1304              		.global	CyDmaSetSrcAddress
 1305              		.code	16
 1306              		.thumb_func
 1307              		.type	CyDmaSetSrcAddress, %function
 1308              	CyDmaSetSrcAddress:
 1309              	.LFB29:
 826:Generated_Source\PSoC4/CyDMA.c **** 
 827:Generated_Source\PSoC4/CyDMA.c **** 
 828:Generated_Source\PSoC4/CyDMA.c **** /*******************************************************************************
 829:Generated_Source\PSoC4/CyDMA.c **** * Function Name: CyDmaSetSrcAddress
 830:Generated_Source\PSoC4/CyDMA.c **** ********************************************************************************
 831:Generated_Source\PSoC4/CyDMA.c **** *
 832:Generated_Source\PSoC4/CyDMA.c **** * Summary:
 833:Generated_Source\PSoC4/CyDMA.c **** *  Configures the source address for the specified descriptor.
 834:Generated_Source\PSoC4/CyDMA.c **** *
 835:Generated_Source\PSoC4/CyDMA.c **** * Parameters:
 836:Generated_Source\PSoC4/CyDMA.c **** *  channel:    Channel used by this function.
 837:Generated_Source\PSoC4/CyDMA.c **** *  descriptor: Descriptor (0 or 1) modified by this function.
 838:Generated_Source\PSoC4/CyDMA.c **** *  srcAddress: Address of DMA transfer source.
 839:Generated_Source\PSoC4/CyDMA.c **** *                   
 840:Generated_Source\PSoC4/CyDMA.c **** * Return:
 841:Generated_Source\PSoC4/CyDMA.c **** *  None.
 842:Generated_Source\PSoC4/CyDMA.c **** *
 843:Generated_Source\PSoC4/CyDMA.c **** * Side effect:
 844:Generated_Source\PSoC4/CyDMA.c **** *  This function should not be called when the specified descriptor is active
 845:Generated_Source\PSoC4/CyDMA.c **** *  in the DMA transfer engine. This can be checked by calling CyDmaGetStatus(). 
 846:Generated_Source\PSoC4/CyDMA.c **** *
 847:Generated_Source\PSoC4/CyDMA.c **** *******************************************************************************/
 848:Generated_Source\PSoC4/CyDMA.c **** void CyDmaSetSrcAddress(int32 channel, int32 descriptor, void * srcAddress)
 849:Generated_Source\PSoC4/CyDMA.c **** {
 1310              		.loc 1 849 0
 1311              		.cfi_startproc
 1312              		@ args = 0, pretend = 0, frame = 0
 1313              		@ frame_needed = 0, uses_anonymous_args = 0
 1314              	.LVL103:
 1315 0000 70B5     		push	{r4, r5, r6, lr}
 1316              		.cfi_def_cfa_offset 16
ARM GAS  C:\Users\JamesN4\AppData\Local\Temp\ccgbGPCH.s 			page 40


 1317              		.cfi_offset 4, -16
 1318              		.cfi_offset 5, -12
 1319              		.cfi_offset 6, -8
 1320              		.cfi_offset 14, -4
 1321 0002 0500     		movs	r5, r0
 1322 0004 0C00     		movs	r4, r1
 1323 0006 1600     		movs	r6, r2
 850:Generated_Source\PSoC4/CyDMA.c ****     CYASSERT((channel    >= 0) && (channel    < CYDMA_CH_NR));
 1324              		.loc 1 850 0
 1325 0008 0728     		cmp	r0, #7
 1326 000a 02D9     		bls	.L116
 1327              		.loc 1 850 0 is_stmt 0 discriminator 1
 1328 000c 0020     		movs	r0, #0
 1329              	.LVL104:
 1330 000e FFF7FEFF 		bl	CyHalt
 1331              	.LVL105:
 1332              	.L116:
 851:Generated_Source\PSoC4/CyDMA.c ****     CYASSERT((descriptor >= 0) && (descriptor < CYDMA_DESCR_NR));
 1333              		.loc 1 851 0 is_stmt 1
 1334 0012 012C     		cmp	r4, #1
 1335 0014 02D9     		bls	.L117
 1336              		.loc 1 851 0 is_stmt 0 discriminator 1
 1337 0016 0020     		movs	r0, #0
 1338 0018 FFF7FEFF 		bl	CyHalt
 1339              	.LVL106:
 1340              	.L117:
 852:Generated_Source\PSoC4/CyDMA.c **** 
 853:Generated_Source\PSoC4/CyDMA.c ****     CYDMA_DESCR_BASE.descriptor[channel][descriptor].src = srcAddress;
 1341              		.loc 1 853 0 is_stmt 1
 1342 001c 6D00     		lsls	r5, r5, #1
 1343              	.LVL107:
 1344 001e 2C19     		adds	r4, r5, r4
 1345              	.LVL108:
 1346 0020 2401     		lsls	r4, r4, #4
 1347 0022 014B     		ldr	r3, .L118
 1348 0024 E650     		str	r6, [r4, r3]
 854:Generated_Source\PSoC4/CyDMA.c **** }
 1349              		.loc 1 854 0
 1350              		@ sp needed
 1351              	.LVL109:
 1352 0026 70BD     		pop	{r4, r5, r6, pc}
 1353              	.L119:
 1354              		.align	2
 1355              	.L118:
 1356 0028 00181040 		.word	1074796544
 1357              		.cfi_endproc
 1358              	.LFE29:
 1359              		.size	CyDmaSetSrcAddress, .-CyDmaSetSrcAddress
 1360              		.section	.text.CyDmaGetSrcAddress,"ax",%progbits
 1361              		.align	2
 1362              		.global	CyDmaGetSrcAddress
 1363              		.code	16
 1364              		.thumb_func
 1365              		.type	CyDmaGetSrcAddress, %function
 1366              	CyDmaGetSrcAddress:
 1367              	.LFB30:
 855:Generated_Source\PSoC4/CyDMA.c **** 
ARM GAS  C:\Users\JamesN4\AppData\Local\Temp\ccgbGPCH.s 			page 41


 856:Generated_Source\PSoC4/CyDMA.c **** 
 857:Generated_Source\PSoC4/CyDMA.c **** /*******************************************************************************
 858:Generated_Source\PSoC4/CyDMA.c **** * Function Name: CyDmaGetSrcAddress
 859:Generated_Source\PSoC4/CyDMA.c **** ********************************************************************************
 860:Generated_Source\PSoC4/CyDMA.c **** *
 861:Generated_Source\PSoC4/CyDMA.c **** * Summary:
 862:Generated_Source\PSoC4/CyDMA.c **** *  Returns the source address for the specified descriptor, set by 
 863:Generated_Source\PSoC4/CyDMA.c **** *  CyDmaSetSrcAddress().
 864:Generated_Source\PSoC4/CyDMA.c **** *
 865:Generated_Source\PSoC4/CyDMA.c **** * Parameters:
 866:Generated_Source\PSoC4/CyDMA.c **** *  channel:    Channel used by this function.
 867:Generated_Source\PSoC4/CyDMA.c **** *  descriptor: Specifies descriptor (0 or 1) used by this function.
 868:Generated_Source\PSoC4/CyDMA.c **** *                   
 869:Generated_Source\PSoC4/CyDMA.c **** * Return:
 870:Generated_Source\PSoC4/CyDMA.c **** *  Source address written to specified descriptor.
 871:Generated_Source\PSoC4/CyDMA.c **** *
 872:Generated_Source\PSoC4/CyDMA.c **** *******************************************************************************/
 873:Generated_Source\PSoC4/CyDMA.c **** void * CyDmaGetSrcAddress(int32 channel, int32 descriptor)
 874:Generated_Source\PSoC4/CyDMA.c **** {
 1368              		.loc 1 874 0
 1369              		.cfi_startproc
 1370              		@ args = 0, pretend = 0, frame = 0
 1371              		@ frame_needed = 0, uses_anonymous_args = 0
 1372              	.LVL110:
 1373 0000 70B5     		push	{r4, r5, r6, lr}
 1374              		.cfi_def_cfa_offset 16
 1375              		.cfi_offset 4, -16
 1376              		.cfi_offset 5, -12
 1377              		.cfi_offset 6, -8
 1378              		.cfi_offset 14, -4
 1379 0002 0500     		movs	r5, r0
 1380 0004 0C00     		movs	r4, r1
 875:Generated_Source\PSoC4/CyDMA.c ****     CYASSERT((channel    >= 0) && (channel    < CYDMA_CH_NR));
 1381              		.loc 1 875 0
 1382 0006 0728     		cmp	r0, #7
 1383 0008 02D9     		bls	.L121
 1384              		.loc 1 875 0 is_stmt 0 discriminator 1
 1385 000a 0020     		movs	r0, #0
 1386              	.LVL111:
 1387 000c FFF7FEFF 		bl	CyHalt
 1388              	.LVL112:
 1389              	.L121:
 876:Generated_Source\PSoC4/CyDMA.c ****     CYASSERT((descriptor >= 0) && (descriptor < CYDMA_DESCR_NR));
 1390              		.loc 1 876 0 is_stmt 1
 1391 0010 012C     		cmp	r4, #1
 1392 0012 02D9     		bls	.L122
 1393              		.loc 1 876 0 is_stmt 0 discriminator 1
 1394 0014 0020     		movs	r0, #0
 1395 0016 FFF7FEFF 		bl	CyHalt
 1396              	.LVL113:
 1397              	.L122:
 877:Generated_Source\PSoC4/CyDMA.c **** 
 878:Generated_Source\PSoC4/CyDMA.c ****     return (CYDMA_DESCR_BASE.descriptor[channel][descriptor].src);
 1398              		.loc 1 878 0 is_stmt 1
 1399 001a 6D00     		lsls	r5, r5, #1
 1400              	.LVL114:
 1401 001c 2C19     		adds	r4, r5, r4
ARM GAS  C:\Users\JamesN4\AppData\Local\Temp\ccgbGPCH.s 			page 42


 1402              	.LVL115:
 1403 001e 2401     		lsls	r4, r4, #4
 1404 0020 014B     		ldr	r3, .L123
 1405 0022 E058     		ldr	r0, [r4, r3]
 879:Generated_Source\PSoC4/CyDMA.c **** }
 1406              		.loc 1 879 0
 1407              		@ sp needed
 1408 0024 70BD     		pop	{r4, r5, r6, pc}
 1409              	.L124:
 1410 0026 C046     		.align	2
 1411              	.L123:
 1412 0028 00181040 		.word	1074796544
 1413              		.cfi_endproc
 1414              	.LFE30:
 1415              		.size	CyDmaGetSrcAddress, .-CyDmaGetSrcAddress
 1416              		.section	.text.CyDmaSetDstAddress,"ax",%progbits
 1417              		.align	2
 1418              		.global	CyDmaSetDstAddress
 1419              		.code	16
 1420              		.thumb_func
 1421              		.type	CyDmaSetDstAddress, %function
 1422              	CyDmaSetDstAddress:
 1423              	.LFB31:
 880:Generated_Source\PSoC4/CyDMA.c **** 
 881:Generated_Source\PSoC4/CyDMA.c **** 
 882:Generated_Source\PSoC4/CyDMA.c **** /*******************************************************************************
 883:Generated_Source\PSoC4/CyDMA.c **** * Function Name: CyDmaSetDstAddress
 884:Generated_Source\PSoC4/CyDMA.c **** ********************************************************************************
 885:Generated_Source\PSoC4/CyDMA.c **** *
 886:Generated_Source\PSoC4/CyDMA.c **** * Summary:
 887:Generated_Source\PSoC4/CyDMA.c **** *  Configures the destination address for the specified descriptor.
 888:Generated_Source\PSoC4/CyDMA.c **** *
 889:Generated_Source\PSoC4/CyDMA.c **** * Parameters:
 890:Generated_Source\PSoC4/CyDMA.c **** *  channel:    Channel used by this function.
 891:Generated_Source\PSoC4/CyDMA.c **** *  descriptor: Descriptor (0 or 1) modified by this function.
 892:Generated_Source\PSoC4/CyDMA.c **** *  dstAddress: Address of DMA transfer destination.
 893:Generated_Source\PSoC4/CyDMA.c **** *                   
 894:Generated_Source\PSoC4/CyDMA.c **** * Return:
 895:Generated_Source\PSoC4/CyDMA.c **** *  None.
 896:Generated_Source\PSoC4/CyDMA.c **** *
 897:Generated_Source\PSoC4/CyDMA.c **** * Side effect:
 898:Generated_Source\PSoC4/CyDMA.c **** *  This function should not be called when the specified descriptor is active
 899:Generated_Source\PSoC4/CyDMA.c **** *  in the DMA transfer engine. This can be checked by calling CyDmaGetStatus(). 
 900:Generated_Source\PSoC4/CyDMA.c **** *
 901:Generated_Source\PSoC4/CyDMA.c **** *******************************************************************************/
 902:Generated_Source\PSoC4/CyDMA.c **** void CyDmaSetDstAddress(int32 channel, int32 descriptor, void * dstAddress)
 903:Generated_Source\PSoC4/CyDMA.c **** {
 1424              		.loc 1 903 0
 1425              		.cfi_startproc
 1426              		@ args = 0, pretend = 0, frame = 0
 1427              		@ frame_needed = 0, uses_anonymous_args = 0
 1428              	.LVL116:
 1429 0000 70B5     		push	{r4, r5, r6, lr}
 1430              		.cfi_def_cfa_offset 16
 1431              		.cfi_offset 4, -16
 1432              		.cfi_offset 5, -12
 1433              		.cfi_offset 6, -8
ARM GAS  C:\Users\JamesN4\AppData\Local\Temp\ccgbGPCH.s 			page 43


 1434              		.cfi_offset 14, -4
 1435 0002 0500     		movs	r5, r0
 1436 0004 0C00     		movs	r4, r1
 1437 0006 1600     		movs	r6, r2
 904:Generated_Source\PSoC4/CyDMA.c ****     CYASSERT((channel    >= 0) && (channel    < CYDMA_CH_NR));
 1438              		.loc 1 904 0
 1439 0008 0728     		cmp	r0, #7
 1440 000a 02D9     		bls	.L126
 1441              		.loc 1 904 0 is_stmt 0 discriminator 1
 1442 000c 0020     		movs	r0, #0
 1443              	.LVL117:
 1444 000e FFF7FEFF 		bl	CyHalt
 1445              	.LVL118:
 1446              	.L126:
 905:Generated_Source\PSoC4/CyDMA.c ****     CYASSERT((descriptor >= 0) && (descriptor < CYDMA_DESCR_NR));
 1447              		.loc 1 905 0 is_stmt 1
 1448 0012 012C     		cmp	r4, #1
 1449 0014 02D9     		bls	.L127
 1450              		.loc 1 905 0 is_stmt 0 discriminator 1
 1451 0016 0020     		movs	r0, #0
 1452 0018 FFF7FEFF 		bl	CyHalt
 1453              	.LVL119:
 1454              	.L127:
 906:Generated_Source\PSoC4/CyDMA.c **** 
 907:Generated_Source\PSoC4/CyDMA.c ****     CYDMA_DESCR_BASE.descriptor[channel][descriptor].dst = dstAddress;
 1455              		.loc 1 907 0 is_stmt 1
 1456 001c 6D00     		lsls	r5, r5, #1
 1457              	.LVL120:
 1458 001e 2C19     		adds	r4, r5, r4
 1459              	.LVL121:
 1460 0020 2401     		lsls	r4, r4, #4
 1461 0022 024B     		ldr	r3, .L128
 1462 0024 9C46     		mov	ip, r3
 1463 0026 6444     		add	r4, r4, ip
 1464 0028 6660     		str	r6, [r4, #4]
 908:Generated_Source\PSoC4/CyDMA.c **** }
 1465              		.loc 1 908 0
 1466              		@ sp needed
 1467              	.LVL122:
 1468 002a 70BD     		pop	{r4, r5, r6, pc}
 1469              	.L129:
 1470              		.align	2
 1471              	.L128:
 1472 002c 00181040 		.word	1074796544
 1473              		.cfi_endproc
 1474              	.LFE31:
 1475              		.size	CyDmaSetDstAddress, .-CyDmaSetDstAddress
 1476              		.section	.text.CyDmaGetDstAddress,"ax",%progbits
 1477              		.align	2
 1478              		.global	CyDmaGetDstAddress
 1479              		.code	16
 1480              		.thumb_func
 1481              		.type	CyDmaGetDstAddress, %function
 1482              	CyDmaGetDstAddress:
 1483              	.LFB32:
 909:Generated_Source\PSoC4/CyDMA.c **** 
 910:Generated_Source\PSoC4/CyDMA.c **** 
ARM GAS  C:\Users\JamesN4\AppData\Local\Temp\ccgbGPCH.s 			page 44


 911:Generated_Source\PSoC4/CyDMA.c **** /*******************************************************************************
 912:Generated_Source\PSoC4/CyDMA.c **** * Function Name: CyDmaGetDstAddress
 913:Generated_Source\PSoC4/CyDMA.c **** ********************************************************************************
 914:Generated_Source\PSoC4/CyDMA.c **** *
 915:Generated_Source\PSoC4/CyDMA.c **** * Summary:
 916:Generated_Source\PSoC4/CyDMA.c **** *  Returns the destination address for the specified descriptor, set by 
 917:Generated_Source\PSoC4/CyDMA.c **** *  CyDmaSetDstAddress().
 918:Generated_Source\PSoC4/CyDMA.c **** *
 919:Generated_Source\PSoC4/CyDMA.c **** * Parameters:
 920:Generated_Source\PSoC4/CyDMA.c **** *  channel:    Channel used by this function.
 921:Generated_Source\PSoC4/CyDMA.c **** *  descriptor: Specifies descriptor (0 or 1) used by this function.
 922:Generated_Source\PSoC4/CyDMA.c **** *                   
 923:Generated_Source\PSoC4/CyDMA.c **** * Return:
 924:Generated_Source\PSoC4/CyDMA.c **** *  Destination address written to specified descriptor.
 925:Generated_Source\PSoC4/CyDMA.c **** *
 926:Generated_Source\PSoC4/CyDMA.c **** *******************************************************************************/
 927:Generated_Source\PSoC4/CyDMA.c **** void * CyDmaGetDstAddress(int32 channel, int32 descriptor)
 928:Generated_Source\PSoC4/CyDMA.c **** {
 1484              		.loc 1 928 0
 1485              		.cfi_startproc
 1486              		@ args = 0, pretend = 0, frame = 0
 1487              		@ frame_needed = 0, uses_anonymous_args = 0
 1488              	.LVL123:
 1489 0000 70B5     		push	{r4, r5, r6, lr}
 1490              		.cfi_def_cfa_offset 16
 1491              		.cfi_offset 4, -16
 1492              		.cfi_offset 5, -12
 1493              		.cfi_offset 6, -8
 1494              		.cfi_offset 14, -4
 1495 0002 0500     		movs	r5, r0
 1496 0004 0C00     		movs	r4, r1
 929:Generated_Source\PSoC4/CyDMA.c ****     CYASSERT((channel    >= 0) && (channel    < CYDMA_CH_NR));
 1497              		.loc 1 929 0
 1498 0006 0728     		cmp	r0, #7
 1499 0008 02D9     		bls	.L131
 1500              		.loc 1 929 0 is_stmt 0 discriminator 1
 1501 000a 0020     		movs	r0, #0
 1502              	.LVL124:
 1503 000c FFF7FEFF 		bl	CyHalt
 1504              	.LVL125:
 1505              	.L131:
 930:Generated_Source\PSoC4/CyDMA.c ****     CYASSERT((descriptor >= 0) && (descriptor < CYDMA_DESCR_NR));
 1506              		.loc 1 930 0 is_stmt 1
 1507 0010 012C     		cmp	r4, #1
 1508 0012 02D9     		bls	.L132
 1509              		.loc 1 930 0 is_stmt 0 discriminator 1
 1510 0014 0020     		movs	r0, #0
 1511 0016 FFF7FEFF 		bl	CyHalt
 1512              	.LVL126:
 1513              	.L132:
 931:Generated_Source\PSoC4/CyDMA.c **** 
 932:Generated_Source\PSoC4/CyDMA.c ****     return (CYDMA_DESCR_BASE.descriptor[channel][descriptor].dst);
 1514              		.loc 1 932 0 is_stmt 1
 1515 001a 6D00     		lsls	r5, r5, #1
 1516              	.LVL127:
 1517 001c 2C19     		adds	r4, r5, r4
 1518              	.LVL128:
ARM GAS  C:\Users\JamesN4\AppData\Local\Temp\ccgbGPCH.s 			page 45


 1519 001e 2401     		lsls	r4, r4, #4
 1520 0020 024B     		ldr	r3, .L133
 1521 0022 9C46     		mov	ip, r3
 1522 0024 6444     		add	r4, r4, ip
 1523 0026 6068     		ldr	r0, [r4, #4]
 933:Generated_Source\PSoC4/CyDMA.c **** }
 1524              		.loc 1 933 0
 1525              		@ sp needed
 1526 0028 70BD     		pop	{r4, r5, r6, pc}
 1527              	.L134:
 1528 002a C046     		.align	2
 1529              	.L133:
 1530 002c 00181040 		.word	1074796544
 1531              		.cfi_endproc
 1532              	.LFE32:
 1533              		.size	CyDmaGetDstAddress, .-CyDmaGetDstAddress
 1534              		.section	.text.CyDmaSetDataElementSize,"ax",%progbits
 1535              		.align	2
 1536              		.global	CyDmaSetDataElementSize
 1537              		.code	16
 1538              		.thumb_func
 1539              		.type	CyDmaSetDataElementSize, %function
 1540              	CyDmaSetDataElementSize:
 1541              	.LFB33:
 934:Generated_Source\PSoC4/CyDMA.c **** 
 935:Generated_Source\PSoC4/CyDMA.c **** /*******************************************************************************
 936:Generated_Source\PSoC4/CyDMA.c **** * Function Name: CyDmaSetDataElementSize
 937:Generated_Source\PSoC4/CyDMA.c **** ********************************************************************************
 938:Generated_Source\PSoC4/CyDMA.c **** *
 939:Generated_Source\PSoC4/CyDMA.c **** * Summary:
 940:Generated_Source\PSoC4/CyDMA.c **** *  Sets the data element size for the specified descriptor.
 941:Generated_Source\PSoC4/CyDMA.c **** *
 942:Generated_Source\PSoC4/CyDMA.c **** * Parameters:
 943:Generated_Source\PSoC4/CyDMA.c **** *  channel:         Channel used by this function.
 944:Generated_Source\PSoC4/CyDMA.c **** *  descriptor:      Descriptor (0 or 1) modified by this function.
 945:Generated_Source\PSoC4/CyDMA.c **** *  dataElementSize: Specifies the size of the data element. The DMA transfer
 946:Generated_Source\PSoC4/CyDMA.c **** *                   engine transfers one data element at a time. How these
 947:Generated_Source\PSoC4/CyDMA.c **** *                   transfers occur is controlled by the transfer mode.
 948:Generated_Source\PSoC4/CyDMA.c **** *                   Refer to the API bit field definitions in CyDMA_P4.h
 949:Generated_Source\PSoC4/CyDMA.c **** *                   or API description in the DMA channel datasheet for the 
 950:Generated_Source\PSoC4/CyDMA.c **** *                   parameter options.
 951:Generated_Source\PSoC4/CyDMA.c **** *
 952:Generated_Source\PSoC4/CyDMA.c **** * Return:
 953:Generated_Source\PSoC4/CyDMA.c **** *  None.
 954:Generated_Source\PSoC4/CyDMA.c **** *
 955:Generated_Source\PSoC4/CyDMA.c **** * Side effect:
 956:Generated_Source\PSoC4/CyDMA.c **** *  This function should not be called when the specified descriptor is active
 957:Generated_Source\PSoC4/CyDMA.c **** *  in the DMA transfer engine. This can be checked by calling CyDmaGetStatus(). 
 958:Generated_Source\PSoC4/CyDMA.c **** *
 959:Generated_Source\PSoC4/CyDMA.c **** *******************************************************************************/
 960:Generated_Source\PSoC4/CyDMA.c **** void CyDmaSetDataElementSize(int32 channel, int32 descriptor, uint32 dataElementSize)
 961:Generated_Source\PSoC4/CyDMA.c **** {
 1542              		.loc 1 961 0
 1543              		.cfi_startproc
 1544              		@ args = 0, pretend = 0, frame = 0
 1545              		@ frame_needed = 0, uses_anonymous_args = 0
 1546              	.LVL129:
ARM GAS  C:\Users\JamesN4\AppData\Local\Temp\ccgbGPCH.s 			page 46


 1547 0000 70B5     		push	{r4, r5, r6, lr}
 1548              		.cfi_def_cfa_offset 16
 1549              		.cfi_offset 4, -16
 1550              		.cfi_offset 5, -12
 1551              		.cfi_offset 6, -8
 1552              		.cfi_offset 14, -4
 1553 0002 0500     		movs	r5, r0
 1554 0004 0C00     		movs	r4, r1
 1555 0006 1600     		movs	r6, r2
 962:Generated_Source\PSoC4/CyDMA.c ****     uint32 regValue;
 963:Generated_Source\PSoC4/CyDMA.c ****     
 964:Generated_Source\PSoC4/CyDMA.c ****     CYASSERT((channel    >= 0) && (channel    < CYDMA_CH_NR));
 1556              		.loc 1 964 0
 1557 0008 0728     		cmp	r0, #7
 1558 000a 02D9     		bls	.L136
 1559              		.loc 1 964 0 is_stmt 0 discriminator 1
 1560 000c 0020     		movs	r0, #0
 1561              	.LVL130:
 1562 000e FFF7FEFF 		bl	CyHalt
 1563              	.LVL131:
 1564              	.L136:
 965:Generated_Source\PSoC4/CyDMA.c ****     CYASSERT((descriptor >= 0) && (descriptor < CYDMA_DESCR_NR));
 1565              		.loc 1 965 0 is_stmt 1
 1566 0012 012C     		cmp	r4, #1
 1567 0014 02D9     		bls	.L137
 1568              		.loc 1 965 0 is_stmt 0 discriminator 1
 1569 0016 0020     		movs	r0, #0
 1570 0018 FFF7FEFF 		bl	CyHalt
 1571              	.LVL132:
 1572              	.L137:
 966:Generated_Source\PSoC4/CyDMA.c ****     CYASSERT(0u == (dataElementSize & (uint32)~CYDMA_DATA_SIZE));
 1573              		.loc 1 966 0 is_stmt 1
 1574 001c 084B     		ldr	r3, .L139
 1575 001e 1E42     		tst	r6, r3
 1576 0020 02D0     		beq	.L138
 1577              		.loc 1 966 0 is_stmt 0 discriminator 1
 1578 0022 0020     		movs	r0, #0
 1579 0024 FFF7FEFF 		bl	CyHalt
 1580              	.LVL133:
 1581              	.L138:
 967:Generated_Source\PSoC4/CyDMA.c **** 
 968:Generated_Source\PSoC4/CyDMA.c ****     regValue = CYDMA_DESCR_BASE.descriptor[channel][descriptor].ctl & (uint32)~CYDMA_DATA_SIZE;
 1582              		.loc 1 968 0 is_stmt 1
 1583 0028 6D00     		lsls	r5, r5, #1
 1584              	.LVL134:
 1585 002a 2C19     		adds	r4, r5, r4
 1586              	.LVL135:
 1587 002c 2401     		lsls	r4, r4, #4
 1588 002e 054B     		ldr	r3, .L139+4
 1589 0030 9C46     		mov	ip, r3
 1590 0032 6444     		add	r4, r4, ip
 1591 0034 A268     		ldr	r2, [r4, #8]
 1592 0036 024B     		ldr	r3, .L139
 1593 0038 1A40     		ands	r2, r3
 1594              	.LVL136:
 969:Generated_Source\PSoC4/CyDMA.c ****     CYDMA_DESCR_BASE.descriptor[channel][descriptor].ctl = regValue | dataElementSize;
 1595              		.loc 1 969 0
ARM GAS  C:\Users\JamesN4\AppData\Local\Temp\ccgbGPCH.s 			page 47


 1596 003a 3243     		orrs	r2, r6
 1597              	.LVL137:
 1598 003c A260     		str	r2, [r4, #8]
 970:Generated_Source\PSoC4/CyDMA.c **** }
 1599              		.loc 1 970 0
 1600              		@ sp needed
 1601              	.LVL138:
 1602 003e 70BD     		pop	{r4, r5, r6, pc}
 1603              	.L140:
 1604              		.align	2
 1605              	.L139:
 1606 0040 FFFFFCFF 		.word	-196609
 1607 0044 00181040 		.word	1074796544
 1608              		.cfi_endproc
 1609              	.LFE33:
 1610              		.size	CyDmaSetDataElementSize, .-CyDmaSetDataElementSize
 1611              		.section	.text.CyDmaGetDataElementSize,"ax",%progbits
 1612              		.align	2
 1613              		.global	CyDmaGetDataElementSize
 1614              		.code	16
 1615              		.thumb_func
 1616              		.type	CyDmaGetDataElementSize, %function
 1617              	CyDmaGetDataElementSize:
 1618              	.LFB34:
 971:Generated_Source\PSoC4/CyDMA.c **** 
 972:Generated_Source\PSoC4/CyDMA.c **** 
 973:Generated_Source\PSoC4/CyDMA.c **** /*******************************************************************************
 974:Generated_Source\PSoC4/CyDMA.c **** * Function Name: CyDmaGetDataElementSize
 975:Generated_Source\PSoC4/CyDMA.c **** ********************************************************************************
 976:Generated_Source\PSoC4/CyDMA.c **** *
 977:Generated_Source\PSoC4/CyDMA.c **** * Summary:
 978:Generated_Source\PSoC4/CyDMA.c **** *  Returns the data element size configured for the specified descriptor, set by
 979:Generated_Source\PSoC4/CyDMA.c **** *  CyDmaSetDataElementSize() or CyDmaSetConfiguration.
 980:Generated_Source\PSoC4/CyDMA.c **** *
 981:Generated_Source\PSoC4/CyDMA.c **** * Parameters:
 982:Generated_Source\PSoC4/CyDMA.c **** *  channel:    Channel used by this function.
 983:Generated_Source\PSoC4/CyDMA.c **** *  descriptor: Descriptor (0 or 1) modified by this function.
 984:Generated_Source\PSoC4/CyDMA.c **** *                   
 985:Generated_Source\PSoC4/CyDMA.c **** * Return:
 986:Generated_Source\PSoC4/CyDMA.c **** *  The size of the data element. The DMA transfer engine transfers one data
 987:Generated_Source\PSoC4/CyDMA.c **** *  element at a time. How these transfers occur is controlled by the transfer
 988:Generated_Source\PSoC4/CyDMA.c **** *  mode. Refer to the API bit field definitions in CyDMA_P4.h or the API 
 989:Generated_Source\PSoC4/CyDMA.c **** *  description in the DMA channel datasheet for more information.
 990:Generated_Source\PSoC4/CyDMA.c **** *
 991:Generated_Source\PSoC4/CyDMA.c **** * Note:
 992:Generated_Source\PSoC4/CyDMA.c **** *  The size of the source and destination can be configured to use the
 993:Generated_Source\PSoC4/CyDMA.c **** *  data element size, or a Word, this is set in CyDmaSetSrcDstTransferWidth().
 994:Generated_Source\PSoC4/CyDMA.c **** *
 995:Generated_Source\PSoC4/CyDMA.c **** *******************************************************************************/
 996:Generated_Source\PSoC4/CyDMA.c **** uint32 CyDmaGetDataElementSize(int32 channel, int32 descriptor)
 997:Generated_Source\PSoC4/CyDMA.c **** {
 1619              		.loc 1 997 0
 1620              		.cfi_startproc
 1621              		@ args = 0, pretend = 0, frame = 0
 1622              		@ frame_needed = 0, uses_anonymous_args = 0
 1623              	.LVL139:
 1624 0000 70B5     		push	{r4, r5, r6, lr}
ARM GAS  C:\Users\JamesN4\AppData\Local\Temp\ccgbGPCH.s 			page 48


 1625              		.cfi_def_cfa_offset 16
 1626              		.cfi_offset 4, -16
 1627              		.cfi_offset 5, -12
 1628              		.cfi_offset 6, -8
 1629              		.cfi_offset 14, -4
 1630 0002 0500     		movs	r5, r0
 1631 0004 0C00     		movs	r4, r1
 998:Generated_Source\PSoC4/CyDMA.c ****     CYASSERT((channel    >= 0) && (channel    < CYDMA_CH_NR));
 1632              		.loc 1 998 0
 1633 0006 0728     		cmp	r0, #7
 1634 0008 02D9     		bls	.L142
 1635              		.loc 1 998 0 is_stmt 0 discriminator 1
 1636 000a 0020     		movs	r0, #0
 1637              	.LVL140:
 1638 000c FFF7FEFF 		bl	CyHalt
 1639              	.LVL141:
 1640              	.L142:
 999:Generated_Source\PSoC4/CyDMA.c ****     CYASSERT((descriptor >= 0) && (descriptor < CYDMA_DESCR_NR));
 1641              		.loc 1 999 0 is_stmt 1
 1642 0010 012C     		cmp	r4, #1
 1643 0012 02D9     		bls	.L143
 1644              		.loc 1 999 0 is_stmt 0 discriminator 1
 1645 0014 0020     		movs	r0, #0
 1646 0016 FFF7FEFF 		bl	CyHalt
 1647              	.LVL142:
 1648              	.L143:
1000:Generated_Source\PSoC4/CyDMA.c **** 
1001:Generated_Source\PSoC4/CyDMA.c ****     return (CYDMA_DESCR_BASE.descriptor[channel][descriptor].ctl & CYDMA_DATA_SIZE);
 1649              		.loc 1 1001 0 is_stmt 1
 1650 001a 6D00     		lsls	r5, r5, #1
 1651              	.LVL143:
 1652 001c 2C19     		adds	r4, r5, r4
 1653              	.LVL144:
 1654 001e 2401     		lsls	r4, r4, #4
 1655 0020 034B     		ldr	r3, .L144
 1656 0022 9C46     		mov	ip, r3
 1657 0024 6444     		add	r4, r4, ip
 1658 0026 A068     		ldr	r0, [r4, #8]
 1659 0028 C023     		movs	r3, #192
 1660 002a 9B02     		lsls	r3, r3, #10
 1661 002c 1840     		ands	r0, r3
1002:Generated_Source\PSoC4/CyDMA.c **** }
 1662              		.loc 1 1002 0
 1663              		@ sp needed
 1664 002e 70BD     		pop	{r4, r5, r6, pc}
 1665              	.L145:
 1666              		.align	2
 1667              	.L144:
 1668 0030 00181040 		.word	1074796544
 1669              		.cfi_endproc
 1670              	.LFE34:
 1671              		.size	CyDmaGetDataElementSize, .-CyDmaGetDataElementSize
 1672              		.section	.text.CyDmaSetNumDataElements,"ax",%progbits
 1673              		.align	2
 1674              		.global	CyDmaSetNumDataElements
 1675              		.code	16
 1676              		.thumb_func
ARM GAS  C:\Users\JamesN4\AppData\Local\Temp\ccgbGPCH.s 			page 49


 1677              		.type	CyDmaSetNumDataElements, %function
 1678              	CyDmaSetNumDataElements:
 1679              	.LFB35:
1003:Generated_Source\PSoC4/CyDMA.c **** 
1004:Generated_Source\PSoC4/CyDMA.c **** 
1005:Generated_Source\PSoC4/CyDMA.c **** /*******************************************************************************
1006:Generated_Source\PSoC4/CyDMA.c **** * Function Name: CyDmaSetNumDataElements
1007:Generated_Source\PSoC4/CyDMA.c **** ********************************************************************************
1008:Generated_Source\PSoC4/CyDMA.c **** *
1009:Generated_Source\PSoC4/CyDMA.c **** * Summary:
1010:Generated_Source\PSoC4/CyDMA.c **** *  Sets the number of data elements to transfer for specified descriptor.
1011:Generated_Source\PSoC4/CyDMA.c **** *
1012:Generated_Source\PSoC4/CyDMA.c **** * Parameters:
1013:Generated_Source\PSoC4/CyDMA.c **** *  channel:         Channel used by this function.
1014:Generated_Source\PSoC4/CyDMA.c **** *  descriptor:      Descriptor (0 or 1) modified by this function.
1015:Generated_Source\PSoC4/CyDMA.c **** *  numDataElements: Total number of data elements this descriptor transfers.
1016:Generated_Source\PSoC4/CyDMA.c **** *                   Valid ranges are 1 to 65536.
1017:Generated_Source\PSoC4/CyDMA.c **** *                   
1018:Generated_Source\PSoC4/CyDMA.c **** * Return:
1019:Generated_Source\PSoC4/CyDMA.c **** *  None.
1020:Generated_Source\PSoC4/CyDMA.c **** *
1021:Generated_Source\PSoC4/CyDMA.c **** * Side effect:
1022:Generated_Source\PSoC4/CyDMA.c **** *  This function should not be called when the specified descriptor is active
1023:Generated_Source\PSoC4/CyDMA.c **** *  in the DMA transfer engine. This can be checked by calling CyDmaGetStatus(). 
1024:Generated_Source\PSoC4/CyDMA.c **** *
1025:Generated_Source\PSoC4/CyDMA.c **** *******************************************************************************/
1026:Generated_Source\PSoC4/CyDMA.c **** void CyDmaSetNumDataElements(int32 channel, int32 descriptor, int32 numDataElements)
1027:Generated_Source\PSoC4/CyDMA.c **** {
 1680              		.loc 1 1027 0
 1681              		.cfi_startproc
 1682              		@ args = 0, pretend = 0, frame = 0
 1683              		@ frame_needed = 0, uses_anonymous_args = 0
 1684              	.LVL145:
 1685 0000 70B5     		push	{r4, r5, r6, lr}
 1686              		.cfi_def_cfa_offset 16
 1687              		.cfi_offset 4, -16
 1688              		.cfi_offset 5, -12
 1689              		.cfi_offset 6, -8
 1690              		.cfi_offset 14, -4
 1691 0002 0600     		movs	r6, r0
 1692 0004 0C00     		movs	r4, r1
 1693 0006 1500     		movs	r5, r2
1028:Generated_Source\PSoC4/CyDMA.c ****     uint32 regValue;
1029:Generated_Source\PSoC4/CyDMA.c ****     
1030:Generated_Source\PSoC4/CyDMA.c ****     CYASSERT((channel        >= 0) && (channel         <  CYDMA_CH_NR));
 1694              		.loc 1 1030 0
 1695 0008 0728     		cmp	r0, #7
 1696 000a 02D9     		bls	.L147
 1697              		.loc 1 1030 0 is_stmt 0 discriminator 1
 1698 000c 0020     		movs	r0, #0
 1699              	.LVL146:
 1700 000e FFF7FEFF 		bl	CyHalt
 1701              	.LVL147:
 1702              	.L147:
1031:Generated_Source\PSoC4/CyDMA.c ****     CYASSERT((descriptor     >= 0) && (descriptor      <  CYDMA_DESCR_NR));
 1703              		.loc 1 1031 0 is_stmt 1
 1704 0012 012C     		cmp	r4, #1
ARM GAS  C:\Users\JamesN4\AppData\Local\Temp\ccgbGPCH.s 			page 50


 1705 0014 02D9     		bls	.L148
 1706              		.loc 1 1031 0 is_stmt 0 discriminator 1
 1707 0016 0020     		movs	r0, #0
 1708 0018 FFF7FEFF 		bl	CyHalt
 1709              	.LVL148:
 1710              	.L148:
1032:Generated_Source\PSoC4/CyDMA.c ****     CYASSERT((numDataElements > 0) && (numDataElements <= CYDMA_MAX_DATA_NR));
 1711              		.loc 1 1032 0 is_stmt 1
 1712 001c 6B1E     		subs	r3, r5, #1
 1713 001e 094A     		ldr	r2, .L150
 1714 0020 9342     		cmp	r3, r2
 1715 0022 02D9     		bls	.L149
 1716              		.loc 1 1032 0 is_stmt 0 discriminator 1
 1717 0024 0020     		movs	r0, #0
 1718 0026 FFF7FEFF 		bl	CyHalt
 1719              	.LVL149:
 1720              	.L149:
1033:Generated_Source\PSoC4/CyDMA.c ****     
1034:Generated_Source\PSoC4/CyDMA.c ****     --numDataElements;
 1721              		.loc 1 1034 0 is_stmt 1
 1722 002a 013D     		subs	r5, r5, #1
 1723              	.LVL150:
1035:Generated_Source\PSoC4/CyDMA.c ****     regValue = CYDMA_DESCR_BASE.descriptor[channel][descriptor].ctl & (uint32)~CYDMA_DATA_NR;
 1724              		.loc 1 1035 0
 1725 002c 7600     		lsls	r6, r6, #1
 1726              	.LVL151:
 1727 002e 3419     		adds	r4, r6, r4
 1728              	.LVL152:
 1729 0030 2401     		lsls	r4, r4, #4
 1730 0032 054B     		ldr	r3, .L150+4
 1731 0034 9C46     		mov	ip, r3
 1732 0036 6444     		add	r4, r4, ip
 1733 0038 A368     		ldr	r3, [r4, #8]
 1734 003a 1B0C     		lsrs	r3, r3, #16
 1735 003c 1B04     		lsls	r3, r3, #16
 1736              	.LVL153:
1036:Generated_Source\PSoC4/CyDMA.c ****     CYDMA_DESCR_BASE.descriptor[channel][descriptor].ctl = regValue | (uint32)numDataElements;
 1737              		.loc 1 1036 0
 1738 003e 1D43     		orrs	r5, r3
 1739              	.LVL154:
 1740 0040 A560     		str	r5, [r4, #8]
1037:Generated_Source\PSoC4/CyDMA.c **** }
 1741              		.loc 1 1037 0
 1742              		@ sp needed
 1743 0042 70BD     		pop	{r4, r5, r6, pc}
 1744              	.L151:
 1745              		.align	2
 1746              	.L150:
 1747 0044 FFFF0000 		.word	65535
 1748 0048 00181040 		.word	1074796544
 1749              		.cfi_endproc
 1750              	.LFE35:
 1751              		.size	CyDmaSetNumDataElements, .-CyDmaSetNumDataElements
 1752              		.section	.text.CyDmaGetNumDataElements,"ax",%progbits
 1753              		.align	2
 1754              		.global	CyDmaGetNumDataElements
 1755              		.code	16
ARM GAS  C:\Users\JamesN4\AppData\Local\Temp\ccgbGPCH.s 			page 51


 1756              		.thumb_func
 1757              		.type	CyDmaGetNumDataElements, %function
 1758              	CyDmaGetNumDataElements:
 1759              	.LFB36:
1038:Generated_Source\PSoC4/CyDMA.c **** 
1039:Generated_Source\PSoC4/CyDMA.c **** 
1040:Generated_Source\PSoC4/CyDMA.c **** /*******************************************************************************
1041:Generated_Source\PSoC4/CyDMA.c **** * Function Name: CyDmaGetNumDataElements
1042:Generated_Source\PSoC4/CyDMA.c **** ********************************************************************************
1043:Generated_Source\PSoC4/CyDMA.c **** *
1044:Generated_Source\PSoC4/CyDMA.c **** * Summary:
1045:Generated_Source\PSoC4/CyDMA.c **** *  Returns the number of data elements to be transferred. Only reflects the
1046:Generated_Source\PSoC4/CyDMA.c **** *  value written by CyDmaSetNumDataElements() or CyDmaSetConfiguration(). This
1047:Generated_Source\PSoC4/CyDMA.c **** *  does not reflect how many elements have been transferred. For that
1048:Generated_Source\PSoC4/CyDMA.c **** *  information use the CyDmaGetDescriptorStatus() function.
1049:Generated_Source\PSoC4/CyDMA.c **** *
1050:Generated_Source\PSoC4/CyDMA.c **** * Parameters:
1051:Generated_Source\PSoC4/CyDMA.c **** *  channel:    Channel used by this function.
1052:Generated_Source\PSoC4/CyDMA.c **** *  descriptor: Descriptor (0 or 1) modified by this function.
1053:Generated_Source\PSoC4/CyDMA.c **** *                   
1054:Generated_Source\PSoC4/CyDMA.c **** * Return:
1055:Generated_Source\PSoC4/CyDMA.c **** *  Number of data elements to transfer.
1056:Generated_Source\PSoC4/CyDMA.c **** *
1057:Generated_Source\PSoC4/CyDMA.c **** *******************************************************************************/
1058:Generated_Source\PSoC4/CyDMA.c **** int32 CyDmaGetNumDataElements(int32 channel, int32 descriptor)
1059:Generated_Source\PSoC4/CyDMA.c **** {
 1760              		.loc 1 1059 0
 1761              		.cfi_startproc
 1762              		@ args = 0, pretend = 0, frame = 0
 1763              		@ frame_needed = 0, uses_anonymous_args = 0
 1764              	.LVL155:
 1765 0000 70B5     		push	{r4, r5, r6, lr}
 1766              		.cfi_def_cfa_offset 16
 1767              		.cfi_offset 4, -16
 1768              		.cfi_offset 5, -12
 1769              		.cfi_offset 6, -8
 1770              		.cfi_offset 14, -4
 1771 0002 0500     		movs	r5, r0
 1772 0004 0C00     		movs	r4, r1
1060:Generated_Source\PSoC4/CyDMA.c ****     uint32 numElements;
1061:Generated_Source\PSoC4/CyDMA.c **** 
1062:Generated_Source\PSoC4/CyDMA.c ****     CYASSERT((channel    >= 0) && (channel    < CYDMA_CH_NR));
 1773              		.loc 1 1062 0
 1774 0006 0728     		cmp	r0, #7
 1775 0008 02D9     		bls	.L153
 1776              		.loc 1 1062 0 is_stmt 0 discriminator 1
 1777 000a 0020     		movs	r0, #0
 1778              	.LVL156:
 1779 000c FFF7FEFF 		bl	CyHalt
 1780              	.LVL157:
 1781              	.L153:
1063:Generated_Source\PSoC4/CyDMA.c ****     CYASSERT((descriptor >= 0) && (descriptor < CYDMA_DESCR_NR));
 1782              		.loc 1 1063 0 is_stmt 1
 1783 0010 012C     		cmp	r4, #1
 1784 0012 02D9     		bls	.L154
 1785              		.loc 1 1063 0 is_stmt 0 discriminator 1
 1786 0014 0020     		movs	r0, #0
ARM GAS  C:\Users\JamesN4\AppData\Local\Temp\ccgbGPCH.s 			page 52


 1787 0016 FFF7FEFF 		bl	CyHalt
 1788              	.LVL158:
 1789              	.L154:
1064:Generated_Source\PSoC4/CyDMA.c ****     
1065:Generated_Source\PSoC4/CyDMA.c ****     numElements = (CYDMA_DESCR_BASE.descriptor[channel][descriptor].ctl & CYDMA_DATA_NR) + 1u;
 1790              		.loc 1 1065 0 is_stmt 1
 1791 001a 6D00     		lsls	r5, r5, #1
 1792              	.LVL159:
 1793 001c 2C19     		adds	r4, r5, r4
 1794              	.LVL160:
 1795 001e 2401     		lsls	r4, r4, #4
 1796 0020 034B     		ldr	r3, .L155
 1797 0022 9C46     		mov	ip, r3
 1798 0024 6444     		add	r4, r4, ip
 1799 0026 A068     		ldr	r0, [r4, #8]
 1800 0028 0004     		lsls	r0, r0, #16
 1801 002a 000C     		lsrs	r0, r0, #16
 1802 002c 0130     		adds	r0, r0, #1
 1803              	.LVL161:
1066:Generated_Source\PSoC4/CyDMA.c ****     return ((int32)numElements);
1067:Generated_Source\PSoC4/CyDMA.c **** }
 1804              		.loc 1 1067 0
 1805              		@ sp needed
 1806 002e 70BD     		pop	{r4, r5, r6, pc}
 1807              	.L156:
 1808              		.align	2
 1809              	.L155:
 1810 0030 00181040 		.word	1074796544
 1811              		.cfi_endproc
 1812              	.LFE36:
 1813              		.size	CyDmaGetNumDataElements, .-CyDmaGetNumDataElements
 1814              		.section	.text.CyDmaSetSrcDstTransferWidth,"ax",%progbits
 1815              		.align	2
 1816              		.global	CyDmaSetSrcDstTransferWidth
 1817              		.code	16
 1818              		.thumb_func
 1819              		.type	CyDmaSetSrcDstTransferWidth, %function
 1820              	CyDmaSetSrcDstTransferWidth:
 1821              	.LFB37:
1068:Generated_Source\PSoC4/CyDMA.c **** 
1069:Generated_Source\PSoC4/CyDMA.c **** 
1070:Generated_Source\PSoC4/CyDMA.c **** /*******************************************************************************
1071:Generated_Source\PSoC4/CyDMA.c **** * Function Name: CyDmaSetSrcDstTransferWidth
1072:Generated_Source\PSoC4/CyDMA.c **** ********************************************************************************
1073:Generated_Source\PSoC4/CyDMA.c **** *
1074:Generated_Source\PSoC4/CyDMA.c **** * Summary:
1075:Generated_Source\PSoC4/CyDMA.c **** *  Sets the width of the source and destination. The DMA can either read and
1076:Generated_Source\PSoC4/CyDMA.c **** *  write data from the source and destination at the size specified by
1077:Generated_Source\PSoC4/CyDMA.c **** *  CyDmaSetDataElementSize() or by a word (4bytes). This also determines how
1078:Generated_Source\PSoC4/CyDMA.c **** *  many bytes the addresses are incremented if increment source and destination
1079:Generated_Source\PSoC4/CyDMA.c **** *  address are turned on.
1080:Generated_Source\PSoC4/CyDMA.c **** *
1081:Generated_Source\PSoC4/CyDMA.c **** * Parameters:
1082:Generated_Source\PSoC4/CyDMA.c **** *  channel:       Channel used by this function.
1083:Generated_Source\PSoC4/CyDMA.c **** *  descriptor:    Descriptor (0 or 1) modified by this function.
1084:Generated_Source\PSoC4/CyDMA.c **** *  transferWidth: Specifies the source and destination widths. Refer to 
1085:Generated_Source\PSoC4/CyDMA.c **** *                 the API bit field definitions in CyDMA_P4.h or the API
ARM GAS  C:\Users\JamesN4\AppData\Local\Temp\ccgbGPCH.s 			page 53


1086:Generated_Source\PSoC4/CyDMA.c **** *                 description in the DMA channel datasheet for the parameter
1087:Generated_Source\PSoC4/CyDMA.c **** *                 options.
1088:Generated_Source\PSoC4/CyDMA.c **** *                   
1089:Generated_Source\PSoC4/CyDMA.c **** * Return:
1090:Generated_Source\PSoC4/CyDMA.c **** *  None.
1091:Generated_Source\PSoC4/CyDMA.c **** *
1092:Generated_Source\PSoC4/CyDMA.c **** * Side effect:
1093:Generated_Source\PSoC4/CyDMA.c **** *  This function should not be called when the specified descriptor is active
1094:Generated_Source\PSoC4/CyDMA.c **** *  in the DMA transfer engine. This can be checked by calling CyDmaGetStatus(). 
1095:Generated_Source\PSoC4/CyDMA.c **** *
1096:Generated_Source\PSoC4/CyDMA.c **** *******************************************************************************/
1097:Generated_Source\PSoC4/CyDMA.c **** void CyDmaSetSrcDstTransferWidth(int32 channel, int32 descriptor, uint32 transferWidth)
1098:Generated_Source\PSoC4/CyDMA.c **** {
 1822              		.loc 1 1098 0
 1823              		.cfi_startproc
 1824              		@ args = 0, pretend = 0, frame = 0
 1825              		@ frame_needed = 0, uses_anonymous_args = 0
 1826              	.LVL162:
 1827 0000 70B5     		push	{r4, r5, r6, lr}
 1828              		.cfi_def_cfa_offset 16
 1829              		.cfi_offset 4, -16
 1830              		.cfi_offset 5, -12
 1831              		.cfi_offset 6, -8
 1832              		.cfi_offset 14, -4
 1833 0002 0500     		movs	r5, r0
 1834 0004 0C00     		movs	r4, r1
 1835 0006 1600     		movs	r6, r2
1099:Generated_Source\PSoC4/CyDMA.c ****     uint32 regValue;
1100:Generated_Source\PSoC4/CyDMA.c **** 
1101:Generated_Source\PSoC4/CyDMA.c ****     CYASSERT((channel    >= 0) && (channel    < CYDMA_CH_NR));
 1836              		.loc 1 1101 0
 1837 0008 0728     		cmp	r0, #7
 1838 000a 02D9     		bls	.L158
 1839              		.loc 1 1101 0 is_stmt 0 discriminator 1
 1840 000c 0020     		movs	r0, #0
 1841              	.LVL163:
 1842 000e FFF7FEFF 		bl	CyHalt
 1843              	.LVL164:
 1844              	.L158:
1102:Generated_Source\PSoC4/CyDMA.c ****     CYASSERT((descriptor >= 0) && (descriptor < CYDMA_DESCR_NR));
 1845              		.loc 1 1102 0 is_stmt 1
 1846 0012 012C     		cmp	r4, #1
 1847 0014 02D9     		bls	.L159
 1848              		.loc 1 1102 0 is_stmt 0 discriminator 1
 1849 0016 0020     		movs	r0, #0
 1850 0018 FFF7FEFF 		bl	CyHalt
 1851              	.LVL165:
 1852              	.L159:
1103:Generated_Source\PSoC4/CyDMA.c ****     CYASSERT(0u == (transferWidth & (uint32)~CYDMA_TRANSFER_WIDTH));
 1853              		.loc 1 1103 0 is_stmt 1
 1854 001c 084B     		ldr	r3, .L161
 1855 001e 1E42     		tst	r6, r3
 1856 0020 02D0     		beq	.L160
 1857              		.loc 1 1103 0 is_stmt 0 discriminator 1
 1858 0022 0020     		movs	r0, #0
 1859 0024 FFF7FEFF 		bl	CyHalt
 1860              	.LVL166:
ARM GAS  C:\Users\JamesN4\AppData\Local\Temp\ccgbGPCH.s 			page 54


 1861              	.L160:
1104:Generated_Source\PSoC4/CyDMA.c **** 
1105:Generated_Source\PSoC4/CyDMA.c ****     regValue = CYDMA_DESCR_BASE.descriptor[channel][descriptor].ctl & (uint32)~CYDMA_TRANSFER_WIDTH
 1862              		.loc 1 1105 0 is_stmt 1
 1863 0028 6D00     		lsls	r5, r5, #1
 1864              	.LVL167:
 1865 002a 2C19     		adds	r4, r5, r4
 1866              	.LVL168:
 1867 002c 2401     		lsls	r4, r4, #4
 1868 002e 054B     		ldr	r3, .L161+4
 1869 0030 9C46     		mov	ip, r3
 1870 0032 6444     		add	r4, r4, ip
 1871 0034 A268     		ldr	r2, [r4, #8]
 1872 0036 024B     		ldr	r3, .L161
 1873 0038 1A40     		ands	r2, r3
 1874              	.LVL169:
1106:Generated_Source\PSoC4/CyDMA.c ****     CYDMA_DESCR_BASE.descriptor[channel][descriptor].ctl = regValue | transferWidth;
 1875              		.loc 1 1106 0
 1876 003a 3243     		orrs	r2, r6
 1877              	.LVL170:
 1878 003c A260     		str	r2, [r4, #8]
1107:Generated_Source\PSoC4/CyDMA.c **** }
 1879              		.loc 1 1107 0
 1880              		@ sp needed
 1881              	.LVL171:
 1882 003e 70BD     		pop	{r4, r5, r6, pc}
 1883              	.L162:
 1884              		.align	2
 1885              	.L161:
 1886 0040 FFFFAFFF 		.word	-5242881
 1887 0044 00181040 		.word	1074796544
 1888              		.cfi_endproc
 1889              	.LFE37:
 1890              		.size	CyDmaSetSrcDstTransferWidth, .-CyDmaSetSrcDstTransferWidth
 1891              		.section	.text.CyDmaGetSrcDstTransferWidth,"ax",%progbits
 1892              		.align	2
 1893              		.global	CyDmaGetSrcDstTransferWidth
 1894              		.code	16
 1895              		.thumb_func
 1896              		.type	CyDmaGetSrcDstTransferWidth, %function
 1897              	CyDmaGetSrcDstTransferWidth:
 1898              	.LFB38:
1108:Generated_Source\PSoC4/CyDMA.c **** 
1109:Generated_Source\PSoC4/CyDMA.c **** 
1110:Generated_Source\PSoC4/CyDMA.c **** /*******************************************************************************
1111:Generated_Source\PSoC4/CyDMA.c **** * Function Name: CyDmaGetSrcDstTransferWidth
1112:Generated_Source\PSoC4/CyDMA.c **** ********************************************************************************
1113:Generated_Source\PSoC4/CyDMA.c **** *
1114:Generated_Source\PSoC4/CyDMA.c **** * Summary:
1115:Generated_Source\PSoC4/CyDMA.c **** *  Returns the width of the source and destination, as set by 
1116:Generated_Source\PSoC4/CyDMA.c **** *  CyDmaSetSrcDstTransferWidth() or CyDmaSetConfiguration().
1117:Generated_Source\PSoC4/CyDMA.c **** *
1118:Generated_Source\PSoC4/CyDMA.c **** * Parameters:
1119:Generated_Source\PSoC4/CyDMA.c **** *  channel:    Channel used by this function.
1120:Generated_Source\PSoC4/CyDMA.c **** *  descriptor: Descriptor (0 or 1) modified by this function.
1121:Generated_Source\PSoC4/CyDMA.c **** *                   
1122:Generated_Source\PSoC4/CyDMA.c **** * Return:
ARM GAS  C:\Users\JamesN4\AppData\Local\Temp\ccgbGPCH.s 			page 55


1123:Generated_Source\PSoC4/CyDMA.c **** *  Width of source and destination. Refer to the API bit field definitions in
1124:Generated_Source\PSoC4/CyDMA.c **** *  CyDMA_P4.h or the API description in the DMA channel datasheet for more
1125:Generated_Source\PSoC4/CyDMA.c **** *  information.
1126:Generated_Source\PSoC4/CyDMA.c **** *
1127:Generated_Source\PSoC4/CyDMA.c **** *******************************************************************************/
1128:Generated_Source\PSoC4/CyDMA.c **** uint32 CyDmaGetSrcDstTransferWidth(int32 channel, int32 descriptor)
1129:Generated_Source\PSoC4/CyDMA.c **** {
 1899              		.loc 1 1129 0
 1900              		.cfi_startproc
 1901              		@ args = 0, pretend = 0, frame = 0
 1902              		@ frame_needed = 0, uses_anonymous_args = 0
 1903              	.LVL172:
 1904 0000 70B5     		push	{r4, r5, r6, lr}
 1905              		.cfi_def_cfa_offset 16
 1906              		.cfi_offset 4, -16
 1907              		.cfi_offset 5, -12
 1908              		.cfi_offset 6, -8
 1909              		.cfi_offset 14, -4
 1910 0002 0500     		movs	r5, r0
 1911 0004 0C00     		movs	r4, r1
1130:Generated_Source\PSoC4/CyDMA.c ****     CYASSERT((channel    >= 0) && (channel    < CYDMA_CH_NR));
 1912              		.loc 1 1130 0
 1913 0006 0728     		cmp	r0, #7
 1914 0008 02D9     		bls	.L164
 1915              		.loc 1 1130 0 is_stmt 0 discriminator 1
 1916 000a 0020     		movs	r0, #0
 1917              	.LVL173:
 1918 000c FFF7FEFF 		bl	CyHalt
 1919              	.LVL174:
 1920              	.L164:
1131:Generated_Source\PSoC4/CyDMA.c ****     CYASSERT((descriptor >= 0) && (descriptor < CYDMA_DESCR_NR));
 1921              		.loc 1 1131 0 is_stmt 1
 1922 0010 012C     		cmp	r4, #1
 1923 0012 02D9     		bls	.L165
 1924              		.loc 1 1131 0 is_stmt 0 discriminator 1
 1925 0014 0020     		movs	r0, #0
 1926 0016 FFF7FEFF 		bl	CyHalt
 1927              	.LVL175:
 1928              	.L165:
1132:Generated_Source\PSoC4/CyDMA.c ****     return (CYDMA_DESCR_BASE.descriptor[channel][descriptor].ctl & CYDMA_TRANSFER_WIDTH);
 1929              		.loc 1 1132 0 is_stmt 1
 1930 001a 6D00     		lsls	r5, r5, #1
 1931              	.LVL176:
 1932 001c 2C19     		adds	r4, r5, r4
 1933              	.LVL177:
 1934 001e 2401     		lsls	r4, r4, #4
 1935 0020 034B     		ldr	r3, .L166
 1936 0022 9C46     		mov	ip, r3
 1937 0024 6444     		add	r4, r4, ip
 1938 0026 A068     		ldr	r0, [r4, #8]
 1939 0028 A023     		movs	r3, #160
 1940 002a DB03     		lsls	r3, r3, #15
 1941 002c 1840     		ands	r0, r3
1133:Generated_Source\PSoC4/CyDMA.c **** }
 1942              		.loc 1 1133 0
 1943              		@ sp needed
 1944 002e 70BD     		pop	{r4, r5, r6, pc}
ARM GAS  C:\Users\JamesN4\AppData\Local\Temp\ccgbGPCH.s 			page 56


 1945              	.L167:
 1946              		.align	2
 1947              	.L166:
 1948 0030 00181040 		.word	1074796544
 1949              		.cfi_endproc
 1950              	.LFE38:
 1951              		.size	CyDmaGetSrcDstTransferWidth, .-CyDmaGetSrcDstTransferWidth
 1952              		.section	.text.CyDmaSetAddressIncrement,"ax",%progbits
 1953              		.align	2
 1954              		.global	CyDmaSetAddressIncrement
 1955              		.code	16
 1956              		.thumb_func
 1957              		.type	CyDmaSetAddressIncrement, %function
 1958              	CyDmaSetAddressIncrement:
 1959              	.LFB39:
1134:Generated_Source\PSoC4/CyDMA.c **** 
1135:Generated_Source\PSoC4/CyDMA.c **** 
1136:Generated_Source\PSoC4/CyDMA.c **** /*******************************************************************************
1137:Generated_Source\PSoC4/CyDMA.c **** * Function Name: CyDmaSetAddressIncrement
1138:Generated_Source\PSoC4/CyDMA.c **** ********************************************************************************
1139:Generated_Source\PSoC4/CyDMA.c **** *
1140:Generated_Source\PSoC4/CyDMA.c **** * Summary:
1141:Generated_Source\PSoC4/CyDMA.c **** *  Sets whether the source or destination addresses are incremented after the
1142:Generated_Source\PSoC4/CyDMA.c **** *  transfer of each data element. The amount that the source and destination
1143:Generated_Source\PSoC4/CyDMA.c **** *  address are incremented is determined by the CyDmaSetSrcDstTransferWidth()
1144:Generated_Source\PSoC4/CyDMA.c **** *  function. The addresses will either be incremented by the data element size
1145:Generated_Source\PSoC4/CyDMA.c **** *  or by a word (4 bytes).
1146:Generated_Source\PSoC4/CyDMA.c **** *
1147:Generated_Source\PSoC4/CyDMA.c **** * Parameters:
1148:Generated_Source\PSoC4/CyDMA.c **** *  channel:          Channel used by this function.
1149:Generated_Source\PSoC4/CyDMA.c **** *  descriptor:       Descriptor (0 or 1) modified by this function.
1150:Generated_Source\PSoC4/CyDMA.c **** *  addressIncrement: Address increment settings. Refer to the API bit fields 
1151:Generated_Source\PSoC4/CyDMA.c **** *                    definition in CyDMA_P4.h or the API description in the DMA
1152:Generated_Source\PSoC4/CyDMA.c **** *                    channel datasheet for the parameter options.
1153:Generated_Source\PSoC4/CyDMA.c **** *    
1154:Generated_Source\PSoC4/CyDMA.c **** * Return:
1155:Generated_Source\PSoC4/CyDMA.c **** *  None.
1156:Generated_Source\PSoC4/CyDMA.c **** *
1157:Generated_Source\PSoC4/CyDMA.c **** * Side effect:
1158:Generated_Source\PSoC4/CyDMA.c **** *  This function should not be called when the specified descriptor is active
1159:Generated_Source\PSoC4/CyDMA.c **** *  in the DMA transfer engine. This can be checked by calling CyDmaGetStatus(). 
1160:Generated_Source\PSoC4/CyDMA.c **** *
1161:Generated_Source\PSoC4/CyDMA.c **** *******************************************************************************/
1162:Generated_Source\PSoC4/CyDMA.c **** void CyDmaSetAddressIncrement(int32 channel, int32 descriptor, uint32 addressIncrement)
1163:Generated_Source\PSoC4/CyDMA.c **** {
 1960              		.loc 1 1163 0
 1961              		.cfi_startproc
 1962              		@ args = 0, pretend = 0, frame = 0
 1963              		@ frame_needed = 0, uses_anonymous_args = 0
 1964              	.LVL178:
 1965 0000 70B5     		push	{r4, r5, r6, lr}
 1966              		.cfi_def_cfa_offset 16
 1967              		.cfi_offset 4, -16
 1968              		.cfi_offset 5, -12
 1969              		.cfi_offset 6, -8
 1970              		.cfi_offset 14, -4
 1971 0002 0500     		movs	r5, r0
ARM GAS  C:\Users\JamesN4\AppData\Local\Temp\ccgbGPCH.s 			page 57


 1972 0004 0C00     		movs	r4, r1
 1973 0006 1600     		movs	r6, r2
1164:Generated_Source\PSoC4/CyDMA.c ****     uint32 regValue;
1165:Generated_Source\PSoC4/CyDMA.c **** 
1166:Generated_Source\PSoC4/CyDMA.c ****     CYASSERT((channel    >= 0) && (channel    < CYDMA_CH_NR));
 1974              		.loc 1 1166 0
 1975 0008 0728     		cmp	r0, #7
 1976 000a 02D9     		bls	.L169
 1977              		.loc 1 1166 0 is_stmt 0 discriminator 1
 1978 000c 0020     		movs	r0, #0
 1979              	.LVL179:
 1980 000e FFF7FEFF 		bl	CyHalt
 1981              	.LVL180:
 1982              	.L169:
1167:Generated_Source\PSoC4/CyDMA.c ****     CYASSERT((descriptor >= 0) && (descriptor < CYDMA_DESCR_NR));
 1983              		.loc 1 1167 0 is_stmt 1
 1984 0012 012C     		cmp	r4, #1
 1985 0014 02D9     		bls	.L170
 1986              		.loc 1 1167 0 is_stmt 0 discriminator 1
 1987 0016 0020     		movs	r0, #0
 1988 0018 FFF7FEFF 		bl	CyHalt
 1989              	.LVL181:
 1990              	.L170:
1168:Generated_Source\PSoC4/CyDMA.c ****     CYASSERT(0u == (addressIncrement & (uint32)~CYDMA_ADDR_INCR));
 1991              		.loc 1 1168 0 is_stmt 1
 1992 001c 084B     		ldr	r3, .L172
 1993 001e 1E42     		tst	r6, r3
 1994 0020 02D0     		beq	.L171
 1995              		.loc 1 1168 0 is_stmt 0 discriminator 1
 1996 0022 0020     		movs	r0, #0
 1997 0024 FFF7FEFF 		bl	CyHalt
 1998              	.LVL182:
 1999              	.L171:
1169:Generated_Source\PSoC4/CyDMA.c **** 
1170:Generated_Source\PSoC4/CyDMA.c ****     regValue = CYDMA_DESCR_BASE.descriptor[channel][descriptor].ctl & (uint32)~CYDMA_ADDR_INCR;
 2000              		.loc 1 1170 0 is_stmt 1
 2001 0028 6D00     		lsls	r5, r5, #1
 2002              	.LVL183:
 2003 002a 2C19     		adds	r4, r5, r4
 2004              	.LVL184:
 2005 002c 2401     		lsls	r4, r4, #4
 2006 002e 054B     		ldr	r3, .L172+4
 2007 0030 9C46     		mov	ip, r3
 2008 0032 6444     		add	r4, r4, ip
 2009 0034 A268     		ldr	r2, [r4, #8]
 2010 0036 024B     		ldr	r3, .L172
 2011 0038 1A40     		ands	r2, r3
 2012              	.LVL185:
1171:Generated_Source\PSoC4/CyDMA.c ****     CYDMA_DESCR_BASE.descriptor[channel][descriptor].ctl = regValue | addressIncrement;
 2013              		.loc 1 1171 0
 2014 003a 3243     		orrs	r2, r6
 2015              	.LVL186:
 2016 003c A260     		str	r2, [r4, #8]
1172:Generated_Source\PSoC4/CyDMA.c **** }
 2017              		.loc 1 1172 0
 2018              		@ sp needed
 2019              	.LVL187:
ARM GAS  C:\Users\JamesN4\AppData\Local\Temp\ccgbGPCH.s 			page 58


 2020 003e 70BD     		pop	{r4, r5, r6, pc}
 2021              	.L173:
 2022              		.align	2
 2023              	.L172:
 2024 0040 FFFF5FFF 		.word	-10485761
 2025 0044 00181040 		.word	1074796544
 2026              		.cfi_endproc
 2027              	.LFE39:
 2028              		.size	CyDmaSetAddressIncrement, .-CyDmaSetAddressIncrement
 2029              		.section	.text.CyDmaGetAddressIncrement,"ax",%progbits
 2030              		.align	2
 2031              		.global	CyDmaGetAddressIncrement
 2032              		.code	16
 2033              		.thumb_func
 2034              		.type	CyDmaGetAddressIncrement, %function
 2035              	CyDmaGetAddressIncrement:
 2036              	.LFB40:
1173:Generated_Source\PSoC4/CyDMA.c **** 
1174:Generated_Source\PSoC4/CyDMA.c **** 
1175:Generated_Source\PSoC4/CyDMA.c **** /*******************************************************************************
1176:Generated_Source\PSoC4/CyDMA.c **** * Function Name: CyDmaGetAddressIncrement
1177:Generated_Source\PSoC4/CyDMA.c **** ********************************************************************************
1178:Generated_Source\PSoC4/CyDMA.c **** *
1179:Generated_Source\PSoC4/CyDMA.c **** * Summary:
1180:Generated_Source\PSoC4/CyDMA.c **** *  Returns address increment settings as set by CyDmaSetAddressIncrement() or
1181:Generated_Source\PSoC4/CyDMA.c **** *  CyDmaSetConfiguration().
1182:Generated_Source\PSoC4/CyDMA.c **** *
1183:Generated_Source\PSoC4/CyDMA.c **** * Parameters:
1184:Generated_Source\PSoC4/CyDMA.c **** *  channel:    Channel used by this function.
1185:Generated_Source\PSoC4/CyDMA.c **** *  descriptor: Descriptor (0 or 1) modified by this function.
1186:Generated_Source\PSoC4/CyDMA.c **** *                   
1187:Generated_Source\PSoC4/CyDMA.c **** * Return:
1188:Generated_Source\PSoC4/CyDMA.c **** *  Address increment settings. Refer to the API bit field definitions in
1189:Generated_Source\PSoC4/CyDMA.c **** *  CyDMA_P4.h or the API description in the DMA channel datasheet for more
1190:Generated_Source\PSoC4/CyDMA.c **** *  information.
1191:Generated_Source\PSoC4/CyDMA.c **** *
1192:Generated_Source\PSoC4/CyDMA.c **** *******************************************************************************/
1193:Generated_Source\PSoC4/CyDMA.c **** uint32 CyDmaGetAddressIncrement(int32 channel, int32 descriptor)
1194:Generated_Source\PSoC4/CyDMA.c **** {
 2037              		.loc 1 1194 0
 2038              		.cfi_startproc
 2039              		@ args = 0, pretend = 0, frame = 0
 2040              		@ frame_needed = 0, uses_anonymous_args = 0
 2041              	.LVL188:
 2042 0000 70B5     		push	{r4, r5, r6, lr}
 2043              		.cfi_def_cfa_offset 16
 2044              		.cfi_offset 4, -16
 2045              		.cfi_offset 5, -12
 2046              		.cfi_offset 6, -8
 2047              		.cfi_offset 14, -4
 2048 0002 0500     		movs	r5, r0
 2049 0004 0C00     		movs	r4, r1
1195:Generated_Source\PSoC4/CyDMA.c ****     CYASSERT((channel    >= 0) && (channel    < CYDMA_CH_NR));
 2050              		.loc 1 1195 0
 2051 0006 0728     		cmp	r0, #7
 2052 0008 02D9     		bls	.L175
 2053              		.loc 1 1195 0 is_stmt 0 discriminator 1
ARM GAS  C:\Users\JamesN4\AppData\Local\Temp\ccgbGPCH.s 			page 59


 2054 000a 0020     		movs	r0, #0
 2055              	.LVL189:
 2056 000c FFF7FEFF 		bl	CyHalt
 2057              	.LVL190:
 2058              	.L175:
1196:Generated_Source\PSoC4/CyDMA.c ****     CYASSERT((descriptor >= 0) && (descriptor < CYDMA_DESCR_NR));
 2059              		.loc 1 1196 0 is_stmt 1
 2060 0010 012C     		cmp	r4, #1
 2061 0012 02D9     		bls	.L176
 2062              		.loc 1 1196 0 is_stmt 0 discriminator 1
 2063 0014 0020     		movs	r0, #0
 2064 0016 FFF7FEFF 		bl	CyHalt
 2065              	.LVL191:
 2066              	.L176:
1197:Generated_Source\PSoC4/CyDMA.c **** 
1198:Generated_Source\PSoC4/CyDMA.c ****     return (CYDMA_DESCR_BASE.descriptor[channel][descriptor].ctl & CYDMA_ADDR_INCR);
 2067              		.loc 1 1198 0 is_stmt 1
 2068 001a 6D00     		lsls	r5, r5, #1
 2069              	.LVL192:
 2070 001c 2C19     		adds	r4, r5, r4
 2071              	.LVL193:
 2072 001e 2401     		lsls	r4, r4, #4
 2073 0020 034B     		ldr	r3, .L177
 2074 0022 9C46     		mov	ip, r3
 2075 0024 6444     		add	r4, r4, ip
 2076 0026 A068     		ldr	r0, [r4, #8]
 2077 0028 A023     		movs	r3, #160
 2078 002a 1B04     		lsls	r3, r3, #16
 2079 002c 1840     		ands	r0, r3
1199:Generated_Source\PSoC4/CyDMA.c **** }
 2080              		.loc 1 1199 0
 2081              		@ sp needed
 2082 002e 70BD     		pop	{r4, r5, r6, pc}
 2083              	.L178:
 2084              		.align	2
 2085              	.L177:
 2086 0030 00181040 		.word	1074796544
 2087              		.cfi_endproc
 2088              	.LFE40:
 2089              		.size	CyDmaGetAddressIncrement, .-CyDmaGetAddressIncrement
 2090              		.section	.text.CyDmaSetTriggerType,"ax",%progbits
 2091              		.align	2
 2092              		.global	CyDmaSetTriggerType
 2093              		.code	16
 2094              		.thumb_func
 2095              		.type	CyDmaSetTriggerType, %function
 2096              	CyDmaSetTriggerType:
 2097              	.LFB41:
1200:Generated_Source\PSoC4/CyDMA.c **** 
1201:Generated_Source\PSoC4/CyDMA.c **** 
1202:Generated_Source\PSoC4/CyDMA.c **** /*******************************************************************************
1203:Generated_Source\PSoC4/CyDMA.c **** * Function Name: CyDmaSetTriggerType
1204:Generated_Source\PSoC4/CyDMA.c **** ********************************************************************************
1205:Generated_Source\PSoC4/CyDMA.c **** *
1206:Generated_Source\PSoC4/CyDMA.c **** * Summary:
1207:Generated_Source\PSoC4/CyDMA.c **** *  Sets the type of input trigger for the DMA For level sensitive triggers sets
1208:Generated_Source\PSoC4/CyDMA.c **** *  how long the DMA waits for the trigger to go low (deactivate) before
ARM GAS  C:\Users\JamesN4\AppData\Local\Temp\ccgbGPCH.s 			page 60


1209:Generated_Source\PSoC4/CyDMA.c **** *  triggering the channel again.
1210:Generated_Source\PSoC4/CyDMA.c **** *
1211:Generated_Source\PSoC4/CyDMA.c **** * Parameters:
1212:Generated_Source\PSoC4/CyDMA.c **** *  channel:     Channel used by this function.
1213:Generated_Source\PSoC4/CyDMA.c **** *  descriptor:  Descriptor (0 or 1) modified by this function.
1214:Generated_Source\PSoC4/CyDMA.c **** *  triggerType: Type of DMA trigger. Refer to the API bit field definitions
1215:Generated_Source\PSoC4/CyDMA.c **** *               in CyDMA_P4.h or the API description in the DMA channel
1216:Generated_Source\PSoC4/CyDMA.c **** *               datasheet for the parameter options.
1217:Generated_Source\PSoC4/CyDMA.c **** *                   
1218:Generated_Source\PSoC4/CyDMA.c **** * Return:
1219:Generated_Source\PSoC4/CyDMA.c **** *  None.
1220:Generated_Source\PSoC4/CyDMA.c **** *
1221:Generated_Source\PSoC4/CyDMA.c **** * Side effect:
1222:Generated_Source\PSoC4/CyDMA.c **** *  This function should not be called when the specified descriptor is active
1223:Generated_Source\PSoC4/CyDMA.c **** *  in the DMA transfer engine. This can be checked by calling CyDmaGetStatus(). 
1224:Generated_Source\PSoC4/CyDMA.c **** *
1225:Generated_Source\PSoC4/CyDMA.c **** *******************************************************************************/
1226:Generated_Source\PSoC4/CyDMA.c **** void CyDmaSetTriggerType(int32 channel, int32 descriptor, uint32 triggerType)
1227:Generated_Source\PSoC4/CyDMA.c **** {
 2098              		.loc 1 1227 0
 2099              		.cfi_startproc
 2100              		@ args = 0, pretend = 0, frame = 0
 2101              		@ frame_needed = 0, uses_anonymous_args = 0
 2102              	.LVL194:
 2103 0000 70B5     		push	{r4, r5, r6, lr}
 2104              		.cfi_def_cfa_offset 16
 2105              		.cfi_offset 4, -16
 2106              		.cfi_offset 5, -12
 2107              		.cfi_offset 6, -8
 2108              		.cfi_offset 14, -4
 2109 0002 0500     		movs	r5, r0
 2110 0004 0C00     		movs	r4, r1
 2111 0006 1600     		movs	r6, r2
1228:Generated_Source\PSoC4/CyDMA.c ****     uint32 regValue;
1229:Generated_Source\PSoC4/CyDMA.c **** 
1230:Generated_Source\PSoC4/CyDMA.c ****     CYASSERT((channel    >= 0) && (channel    < CYDMA_CH_NR));
 2112              		.loc 1 1230 0
 2113 0008 0728     		cmp	r0, #7
 2114 000a 02D9     		bls	.L180
 2115              		.loc 1 1230 0 is_stmt 0 discriminator 1
 2116 000c 0020     		movs	r0, #0
 2117              	.LVL195:
 2118 000e FFF7FEFF 		bl	CyHalt
 2119              	.LVL196:
 2120              	.L180:
1231:Generated_Source\PSoC4/CyDMA.c ****     CYASSERT((descriptor >= 0) && (descriptor < CYDMA_DESCR_NR));
 2121              		.loc 1 1231 0 is_stmt 1
 2122 0012 012C     		cmp	r4, #1
 2123 0014 02D9     		bls	.L181
 2124              		.loc 1 1231 0 is_stmt 0 discriminator 1
 2125 0016 0020     		movs	r0, #0
 2126 0018 FFF7FEFF 		bl	CyHalt
 2127              	.LVL197:
 2128              	.L181:
1232:Generated_Source\PSoC4/CyDMA.c ****     CYASSERT(0u == (triggerType & (uint32)~CYDMA_TRIGGER_TYPE));
 2129              		.loc 1 1232 0 is_stmt 1
 2130 001c 084B     		ldr	r3, .L183
ARM GAS  C:\Users\JamesN4\AppData\Local\Temp\ccgbGPCH.s 			page 61


 2131 001e 1E42     		tst	r6, r3
 2132 0020 02D0     		beq	.L182
 2133              		.loc 1 1232 0 is_stmt 0 discriminator 1
 2134 0022 0020     		movs	r0, #0
 2135 0024 FFF7FEFF 		bl	CyHalt
 2136              	.LVL198:
 2137              	.L182:
1233:Generated_Source\PSoC4/CyDMA.c **** 
1234:Generated_Source\PSoC4/CyDMA.c ****     regValue = CYDMA_DESCR_BASE.descriptor[channel][descriptor].ctl & (uint32)~CYDMA_TRIGGER_TYPE;
 2138              		.loc 1 1234 0 is_stmt 1
 2139 0028 6D00     		lsls	r5, r5, #1
 2140              	.LVL199:
 2141 002a 2C19     		adds	r4, r5, r4
 2142              	.LVL200:
 2143 002c 2401     		lsls	r4, r4, #4
 2144 002e 054B     		ldr	r3, .L183+4
 2145 0030 9C46     		mov	ip, r3
 2146 0032 6444     		add	r4, r4, ip
 2147 0034 A268     		ldr	r2, [r4, #8]
 2148 0036 024B     		ldr	r3, .L183
 2149 0038 1A40     		ands	r2, r3
 2150              	.LVL201:
1235:Generated_Source\PSoC4/CyDMA.c ****     CYDMA_DESCR_BASE.descriptor[channel][descriptor].ctl = regValue | triggerType;
 2151              		.loc 1 1235 0
 2152 003a 3243     		orrs	r2, r6
 2153              	.LVL202:
 2154 003c A260     		str	r2, [r4, #8]
1236:Generated_Source\PSoC4/CyDMA.c **** }
 2155              		.loc 1 1236 0
 2156              		@ sp needed
 2157              	.LVL203:
 2158 003e 70BD     		pop	{r4, r5, r6, pc}
 2159              	.L184:
 2160              		.align	2
 2161              	.L183:
 2162 0040 FFFFFFFC 		.word	-50331649
 2163 0044 00181040 		.word	1074796544
 2164              		.cfi_endproc
 2165              	.LFE41:
 2166              		.size	CyDmaSetTriggerType, .-CyDmaSetTriggerType
 2167              		.section	.text.CyDmaGetTriggerType,"ax",%progbits
 2168              		.align	2
 2169              		.global	CyDmaGetTriggerType
 2170              		.code	16
 2171              		.thumb_func
 2172              		.type	CyDmaGetTriggerType, %function
 2173              	CyDmaGetTriggerType:
 2174              	.LFB42:
1237:Generated_Source\PSoC4/CyDMA.c **** 
1238:Generated_Source\PSoC4/CyDMA.c **** 
1239:Generated_Source\PSoC4/CyDMA.c **** /*******************************************************************************
1240:Generated_Source\PSoC4/CyDMA.c **** * Function Name: CyDmaGetTriggerType
1241:Generated_Source\PSoC4/CyDMA.c **** ********************************************************************************
1242:Generated_Source\PSoC4/CyDMA.c **** *
1243:Generated_Source\PSoC4/CyDMA.c **** * Summary:
1244:Generated_Source\PSoC4/CyDMA.c **** *  Returns the trigger deactivation settings as set by CyDmaSetTriggerType() or
1245:Generated_Source\PSoC4/CyDMA.c **** *  CyDmaSetConfiguration().
ARM GAS  C:\Users\JamesN4\AppData\Local\Temp\ccgbGPCH.s 			page 62


1246:Generated_Source\PSoC4/CyDMA.c **** *
1247:Generated_Source\PSoC4/CyDMA.c **** * Parameters:
1248:Generated_Source\PSoC4/CyDMA.c **** *  channel:    Channel used by this function.
1249:Generated_Source\PSoC4/CyDMA.c **** *  descriptor: Descriptor (0 or 1) modified by this function.
1250:Generated_Source\PSoC4/CyDMA.c **** *                   
1251:Generated_Source\PSoC4/CyDMA.c **** * Return:
1252:Generated_Source\PSoC4/CyDMA.c **** *  Trigger deactivation settings. Refer to the API bit field definitions in
1253:Generated_Source\PSoC4/CyDMA.c **** *  CyDMA_P4.h or the API description in the DMA channel datasheet for more
1254:Generated_Source\PSoC4/CyDMA.c **** *  information.
1255:Generated_Source\PSoC4/CyDMA.c **** *
1256:Generated_Source\PSoC4/CyDMA.c **** *******************************************************************************/
1257:Generated_Source\PSoC4/CyDMA.c **** uint32 CyDmaGetTriggerType(int32 channel, int32 descriptor)
1258:Generated_Source\PSoC4/CyDMA.c **** {
 2175              		.loc 1 1258 0
 2176              		.cfi_startproc
 2177              		@ args = 0, pretend = 0, frame = 0
 2178              		@ frame_needed = 0, uses_anonymous_args = 0
 2179              	.LVL204:
 2180 0000 70B5     		push	{r4, r5, r6, lr}
 2181              		.cfi_def_cfa_offset 16
 2182              		.cfi_offset 4, -16
 2183              		.cfi_offset 5, -12
 2184              		.cfi_offset 6, -8
 2185              		.cfi_offset 14, -4
 2186 0002 0500     		movs	r5, r0
 2187 0004 0C00     		movs	r4, r1
1259:Generated_Source\PSoC4/CyDMA.c ****     CYASSERT((channel    >= 0) && (channel    < CYDMA_CH_NR));
 2188              		.loc 1 1259 0
 2189 0006 0728     		cmp	r0, #7
 2190 0008 02D9     		bls	.L186
 2191              		.loc 1 1259 0 is_stmt 0 discriminator 1
 2192 000a 0020     		movs	r0, #0
 2193              	.LVL205:
 2194 000c FFF7FEFF 		bl	CyHalt
 2195              	.LVL206:
 2196              	.L186:
1260:Generated_Source\PSoC4/CyDMA.c ****     CYASSERT((descriptor >= 0) && (descriptor < CYDMA_DESCR_NR));
 2197              		.loc 1 1260 0 is_stmt 1
 2198 0010 012C     		cmp	r4, #1
 2199 0012 02D9     		bls	.L187
 2200              		.loc 1 1260 0 is_stmt 0 discriminator 1
 2201 0014 0020     		movs	r0, #0
 2202 0016 FFF7FEFF 		bl	CyHalt
 2203              	.LVL207:
 2204              	.L187:
1261:Generated_Source\PSoC4/CyDMA.c **** 
1262:Generated_Source\PSoC4/CyDMA.c ****     return (CYDMA_DESCR_BASE.descriptor[channel][descriptor].ctl & CYDMA_TRIGGER_TYPE);
 2205              		.loc 1 1262 0 is_stmt 1
 2206 001a 6D00     		lsls	r5, r5, #1
 2207              	.LVL208:
 2208 001c 2C19     		adds	r4, r5, r4
 2209              	.LVL209:
 2210 001e 2401     		lsls	r4, r4, #4
 2211 0020 034B     		ldr	r3, .L188
 2212 0022 9C46     		mov	ip, r3
 2213 0024 6444     		add	r4, r4, ip
 2214 0026 A068     		ldr	r0, [r4, #8]
ARM GAS  C:\Users\JamesN4\AppData\Local\Temp\ccgbGPCH.s 			page 63


 2215 0028 C023     		movs	r3, #192
 2216 002a 9B04     		lsls	r3, r3, #18
 2217 002c 1840     		ands	r0, r3
1263:Generated_Source\PSoC4/CyDMA.c **** }
 2218              		.loc 1 1263 0
 2219              		@ sp needed
 2220 002e 70BD     		pop	{r4, r5, r6, pc}
 2221              	.L189:
 2222              		.align	2
 2223              	.L188:
 2224 0030 00181040 		.word	1074796544
 2225              		.cfi_endproc
 2226              	.LFE42:
 2227              		.size	CyDmaGetTriggerType, .-CyDmaGetTriggerType
 2228              		.section	.text.CyDmaSetTransferMode,"ax",%progbits
 2229              		.align	2
 2230              		.global	CyDmaSetTransferMode
 2231              		.code	16
 2232              		.thumb_func
 2233              		.type	CyDmaSetTransferMode, %function
 2234              	CyDmaSetTransferMode:
 2235              	.LFB43:
1264:Generated_Source\PSoC4/CyDMA.c **** 
1265:Generated_Source\PSoC4/CyDMA.c **** 
1266:Generated_Source\PSoC4/CyDMA.c **** /*******************************************************************************
1267:Generated_Source\PSoC4/CyDMA.c **** * Function Name: CyDmaSetTransferMode
1268:Generated_Source\PSoC4/CyDMA.c **** ********************************************************************************
1269:Generated_Source\PSoC4/CyDMA.c **** *
1270:Generated_Source\PSoC4/CyDMA.c **** * Summary:
1271:Generated_Source\PSoC4/CyDMA.c **** *  Sets the DMA transfer mode. This determines how the DMA reacts to each trigger
1272:Generated_Source\PSoC4/CyDMA.c **** *  event.
1273:Generated_Source\PSoC4/CyDMA.c **** *
1274:Generated_Source\PSoC4/CyDMA.c **** * Parameters:
1275:Generated_Source\PSoC4/CyDMA.c **** *  channel:      Channel used by this function.
1276:Generated_Source\PSoC4/CyDMA.c **** *  descriptor:   Descriptor (0 or 1) modified by this function.
1277:Generated_Source\PSoC4/CyDMA.c **** *  transferMode: Specifies the DMA transfer mode settings. Refer to the API bit
1278:Generated_Source\PSoC4/CyDMA.c **** *                field definitions in CyDMA_P4.h or the API description in the
1279:Generated_Source\PSoC4/CyDMA.c **** *                DMA channel datasheet for the parameter options.
1280:Generated_Source\PSoC4/CyDMA.c **** *                   
1281:Generated_Source\PSoC4/CyDMA.c **** * Return:
1282:Generated_Source\PSoC4/CyDMA.c **** *  None.
1283:Generated_Source\PSoC4/CyDMA.c **** *
1284:Generated_Source\PSoC4/CyDMA.c **** * Side effect:
1285:Generated_Source\PSoC4/CyDMA.c **** *  This function should not be called when the specified descriptor is active
1286:Generated_Source\PSoC4/CyDMA.c **** *  in the DMA transfer engine. This can be checked by calling CyDmaGetStatus(). 
1287:Generated_Source\PSoC4/CyDMA.c **** *
1288:Generated_Source\PSoC4/CyDMA.c **** *******************************************************************************/
1289:Generated_Source\PSoC4/CyDMA.c **** void CyDmaSetTransferMode(int32 channel, int32 descriptor, uint32 transferMode)
1290:Generated_Source\PSoC4/CyDMA.c **** {
 2236              		.loc 1 1290 0
 2237              		.cfi_startproc
 2238              		@ args = 0, pretend = 0, frame = 0
 2239              		@ frame_needed = 0, uses_anonymous_args = 0
 2240              	.LVL210:
 2241 0000 70B5     		push	{r4, r5, r6, lr}
 2242              		.cfi_def_cfa_offset 16
 2243              		.cfi_offset 4, -16
ARM GAS  C:\Users\JamesN4\AppData\Local\Temp\ccgbGPCH.s 			page 64


 2244              		.cfi_offset 5, -12
 2245              		.cfi_offset 6, -8
 2246              		.cfi_offset 14, -4
 2247 0002 0600     		movs	r6, r0
 2248 0004 0C00     		movs	r4, r1
 2249 0006 1500     		movs	r5, r2
1291:Generated_Source\PSoC4/CyDMA.c ****     uint32 regValue;
1292:Generated_Source\PSoC4/CyDMA.c **** 
1293:Generated_Source\PSoC4/CyDMA.c ****     CYASSERT((channel    >= 0) && (channel    < CYDMA_CH_NR));
 2250              		.loc 1 1293 0
 2251 0008 0728     		cmp	r0, #7
 2252 000a 02D9     		bls	.L191
 2253              		.loc 1 1293 0 is_stmt 0 discriminator 1
 2254 000c 0020     		movs	r0, #0
 2255              	.LVL211:
 2256 000e FFF7FEFF 		bl	CyHalt
 2257              	.LVL212:
 2258              	.L191:
1294:Generated_Source\PSoC4/CyDMA.c ****     CYASSERT((descriptor >= 0) && (descriptor < CYDMA_DESCR_NR));
 2259              		.loc 1 1294 0 is_stmt 1
 2260 0012 012C     		cmp	r4, #1
 2261 0014 02D9     		bls	.L192
 2262              		.loc 1 1294 0 is_stmt 0 discriminator 1
 2263 0016 0020     		movs	r0, #0
 2264 0018 FFF7FEFF 		bl	CyHalt
 2265              	.LVL213:
 2266              	.L192:
1295:Generated_Source\PSoC4/CyDMA.c ****     CYASSERT(0u == (transferMode & (uint32)~CYDMA_TRANSFER_MODE));
 2267              		.loc 1 1295 0 is_stmt 1
 2268 001c AB00     		lsls	r3, r5, #2
 2269 001e 02D0     		beq	.L193
 2270              		.loc 1 1295 0 is_stmt 0 discriminator 1
 2271 0020 0020     		movs	r0, #0
 2272 0022 FFF7FEFF 		bl	CyHalt
 2273              	.LVL214:
 2274              	.L193:
1296:Generated_Source\PSoC4/CyDMA.c **** 
1297:Generated_Source\PSoC4/CyDMA.c ****     regValue = CYDMA_DESCR_BASE.descriptor[channel][descriptor].ctl & (uint32)~CYDMA_TRANSFER_MODE;
 2275              		.loc 1 1297 0 is_stmt 1
 2276 0026 7600     		lsls	r6, r6, #1
 2277              	.LVL215:
 2278 0028 3419     		adds	r4, r6, r4
 2279              	.LVL216:
 2280 002a 2401     		lsls	r4, r4, #4
 2281 002c 044B     		ldr	r3, .L194
 2282 002e 9C46     		mov	ip, r3
 2283 0030 6444     		add	r4, r4, ip
 2284 0032 A268     		ldr	r2, [r4, #8]
 2285 0034 9200     		lsls	r2, r2, #2
 2286 0036 9208     		lsrs	r2, r2, #2
 2287              	.LVL217:
1298:Generated_Source\PSoC4/CyDMA.c ****     CYDMA_DESCR_BASE.descriptor[channel][descriptor].ctl = regValue | transferMode;
 2288              		.loc 1 1298 0
 2289 0038 2A43     		orrs	r2, r5
 2290              	.LVL218:
 2291 003a A260     		str	r2, [r4, #8]
1299:Generated_Source\PSoC4/CyDMA.c **** }
ARM GAS  C:\Users\JamesN4\AppData\Local\Temp\ccgbGPCH.s 			page 65


 2292              		.loc 1 1299 0
 2293              		@ sp needed
 2294              	.LVL219:
 2295 003c 70BD     		pop	{r4, r5, r6, pc}
 2296              	.L195:
 2297 003e C046     		.align	2
 2298              	.L194:
 2299 0040 00181040 		.word	1074796544
 2300              		.cfi_endproc
 2301              	.LFE43:
 2302              		.size	CyDmaSetTransferMode, .-CyDmaSetTransferMode
 2303              		.section	.text.CyDmaGetTransferMode,"ax",%progbits
 2304              		.align	2
 2305              		.global	CyDmaGetTransferMode
 2306              		.code	16
 2307              		.thumb_func
 2308              		.type	CyDmaGetTransferMode, %function
 2309              	CyDmaGetTransferMode:
 2310              	.LFB44:
1300:Generated_Source\PSoC4/CyDMA.c **** 
1301:Generated_Source\PSoC4/CyDMA.c **** 
1302:Generated_Source\PSoC4/CyDMA.c **** /*******************************************************************************
1303:Generated_Source\PSoC4/CyDMA.c **** * Function Name: CyDmaGetTransferMode
1304:Generated_Source\PSoC4/CyDMA.c **** ********************************************************************************
1305:Generated_Source\PSoC4/CyDMA.c **** *
1306:Generated_Source\PSoC4/CyDMA.c **** * Summary:
1307:Generated_Source\PSoC4/CyDMA.c **** *  Returns the transfer mode for the specified descriptor as set by 
1308:Generated_Source\PSoC4/CyDMA.c **** *  CyDmaSetTransferMode() or CyDmaSetConfiguration.
1309:Generated_Source\PSoC4/CyDMA.c **** *
1310:Generated_Source\PSoC4/CyDMA.c **** * Parameters:
1311:Generated_Source\PSoC4/CyDMA.c **** *  channel:    Channel used by this function.
1312:Generated_Source\PSoC4/CyDMA.c **** *  descriptor: Descriptor (0 or 1) modified by this function.
1313:Generated_Source\PSoC4/CyDMA.c **** *                   
1314:Generated_Source\PSoC4/CyDMA.c **** * Return:
1315:Generated_Source\PSoC4/CyDMA.c **** *  DMA transfer mode settings. Refer to the API bit field definitions in
1316:Generated_Source\PSoC4/CyDMA.c **** *  CyDMA_P4.h or the API description in the DMA channel datasheet for more
1317:Generated_Source\PSoC4/CyDMA.c **** *  information.
1318:Generated_Source\PSoC4/CyDMA.c **** *
1319:Generated_Source\PSoC4/CyDMA.c **** *******************************************************************************/
1320:Generated_Source\PSoC4/CyDMA.c **** uint32 CyDmaGetTransferMode(int32 channel, int32 descriptor)
1321:Generated_Source\PSoC4/CyDMA.c **** {
 2311              		.loc 1 1321 0
 2312              		.cfi_startproc
 2313              		@ args = 0, pretend = 0, frame = 0
 2314              		@ frame_needed = 0, uses_anonymous_args = 0
 2315              	.LVL220:
 2316 0000 70B5     		push	{r4, r5, r6, lr}
 2317              		.cfi_def_cfa_offset 16
 2318              		.cfi_offset 4, -16
 2319              		.cfi_offset 5, -12
 2320              		.cfi_offset 6, -8
 2321              		.cfi_offset 14, -4
 2322 0002 0500     		movs	r5, r0
 2323 0004 0C00     		movs	r4, r1
1322:Generated_Source\PSoC4/CyDMA.c ****     CYASSERT((channel    >= 0) && (channel    < CYDMA_CH_NR));
 2324              		.loc 1 1322 0
 2325 0006 0728     		cmp	r0, #7
ARM GAS  C:\Users\JamesN4\AppData\Local\Temp\ccgbGPCH.s 			page 66


 2326 0008 02D9     		bls	.L197
 2327              		.loc 1 1322 0 is_stmt 0 discriminator 1
 2328 000a 0020     		movs	r0, #0
 2329              	.LVL221:
 2330 000c FFF7FEFF 		bl	CyHalt
 2331              	.LVL222:
 2332              	.L197:
1323:Generated_Source\PSoC4/CyDMA.c ****     CYASSERT((descriptor >= 0) && (descriptor < CYDMA_DESCR_NR));
 2333              		.loc 1 1323 0 is_stmt 1
 2334 0010 012C     		cmp	r4, #1
 2335 0012 02D9     		bls	.L198
 2336              		.loc 1 1323 0 is_stmt 0 discriminator 1
 2337 0014 0020     		movs	r0, #0
 2338 0016 FFF7FEFF 		bl	CyHalt
 2339              	.LVL223:
 2340              	.L198:
1324:Generated_Source\PSoC4/CyDMA.c **** 
1325:Generated_Source\PSoC4/CyDMA.c ****     return (CYDMA_DESCR_BASE.descriptor[channel][descriptor].ctl & CYDMA_TRANSFER_MODE);
 2341              		.loc 1 1325 0 is_stmt 1
 2342 001a 6D00     		lsls	r5, r5, #1
 2343              	.LVL224:
 2344 001c 2C19     		adds	r4, r5, r4
 2345              	.LVL225:
 2346 001e 2401     		lsls	r4, r4, #4
 2347 0020 034B     		ldr	r3, .L199
 2348 0022 9C46     		mov	ip, r3
 2349 0024 6444     		add	r4, r4, ip
 2350 0026 A068     		ldr	r0, [r4, #8]
 2351 0028 800F     		lsrs	r0, r0, #30
 2352 002a 8007     		lsls	r0, r0, #30
1326:Generated_Source\PSoC4/CyDMA.c **** }
 2353              		.loc 1 1326 0
 2354              		@ sp needed
 2355 002c 70BD     		pop	{r4, r5, r6, pc}
 2356              	.L200:
 2357 002e C046     		.align	2
 2358              	.L199:
 2359 0030 00181040 		.word	1074796544
 2360              		.cfi_endproc
 2361              	.LFE44:
 2362              		.size	CyDmaGetTransferMode, .-CyDmaGetTransferMode
 2363              		.section	.text.CyDmaSetPreemptable,"ax",%progbits
 2364              		.align	2
 2365              		.global	CyDmaSetPreemptable
 2366              		.code	16
 2367              		.thumb_func
 2368              		.type	CyDmaSetPreemptable, %function
 2369              	CyDmaSetPreemptable:
 2370              	.LFB45:
1327:Generated_Source\PSoC4/CyDMA.c **** 
1328:Generated_Source\PSoC4/CyDMA.c **** 
1329:Generated_Source\PSoC4/CyDMA.c **** /*******************************************************************************
1330:Generated_Source\PSoC4/CyDMA.c **** * Function Name: CyDmaSetPreemptable
1331:Generated_Source\PSoC4/CyDMA.c **** ********************************************************************************
1332:Generated_Source\PSoC4/CyDMA.c **** *
1333:Generated_Source\PSoC4/CyDMA.c **** * Summary:
1334:Generated_Source\PSoC4/CyDMA.c **** *  Determines if the descriptor is preemptable.
ARM GAS  C:\Users\JamesN4\AppData\Local\Temp\ccgbGPCH.s 			page 67


1335:Generated_Source\PSoC4/CyDMA.c **** *
1336:Generated_Source\PSoC4/CyDMA.c **** * Parameters:
1337:Generated_Source\PSoC4/CyDMA.c **** *  channel:     Channel used by this function.
1338:Generated_Source\PSoC4/CyDMA.c **** *  descriptor:  Descriptor (0 or 1) modified by this function.
1339:Generated_Source\PSoC4/CyDMA.c **** *  preemptable: Descriptor preemption settings. Refer to the API bit fields
1340:Generated_Source\PSoC4/CyDMA.c **** *               definition in CyDMA_P4.h or the API description in the DMA 
1341:Generated_Source\PSoC4/CyDMA.c **** *               channel datasheet for the parameter options.
1342:Generated_Source\PSoC4/CyDMA.c **** *                   
1343:Generated_Source\PSoC4/CyDMA.c **** * Return:
1344:Generated_Source\PSoC4/CyDMA.c **** *  None.
1345:Generated_Source\PSoC4/CyDMA.c **** *
1346:Generated_Source\PSoC4/CyDMA.c **** * Side effect:
1347:Generated_Source\PSoC4/CyDMA.c **** *  This function should not be called when the specified descriptor is active
1348:Generated_Source\PSoC4/CyDMA.c **** *  in the DMA transfer engine. This can be checked by calling CyDmaGetStatus(). 
1349:Generated_Source\PSoC4/CyDMA.c **** *
1350:Generated_Source\PSoC4/CyDMA.c **** *******************************************************************************/
1351:Generated_Source\PSoC4/CyDMA.c **** void CyDmaSetPreemptable(int32 channel, int32 descriptor, uint32 preemptable)
1352:Generated_Source\PSoC4/CyDMA.c **** {
 2371              		.loc 1 1352 0
 2372              		.cfi_startproc
 2373              		@ args = 0, pretend = 0, frame = 0
 2374              		@ frame_needed = 0, uses_anonymous_args = 0
 2375              	.LVL226:
 2376 0000 70B5     		push	{r4, r5, r6, lr}
 2377              		.cfi_def_cfa_offset 16
 2378              		.cfi_offset 4, -16
 2379              		.cfi_offset 5, -12
 2380              		.cfi_offset 6, -8
 2381              		.cfi_offset 14, -4
 2382 0002 0500     		movs	r5, r0
 2383 0004 0C00     		movs	r4, r1
 2384 0006 1600     		movs	r6, r2
1353:Generated_Source\PSoC4/CyDMA.c ****     uint32 regValue;
1354:Generated_Source\PSoC4/CyDMA.c **** 
1355:Generated_Source\PSoC4/CyDMA.c ****     CYASSERT((channel    >= 0) && (channel    < CYDMA_CH_NR));
 2385              		.loc 1 1355 0
 2386 0008 0728     		cmp	r0, #7
 2387 000a 02D9     		bls	.L202
 2388              		.loc 1 1355 0 is_stmt 0 discriminator 1
 2389 000c 0020     		movs	r0, #0
 2390              	.LVL227:
 2391 000e FFF7FEFF 		bl	CyHalt
 2392              	.LVL228:
 2393              	.L202:
1356:Generated_Source\PSoC4/CyDMA.c ****     CYASSERT((descriptor >= 0) && (descriptor < CYDMA_DESCR_NR));
 2394              		.loc 1 1356 0 is_stmt 1
 2395 0012 012C     		cmp	r4, #1
 2396 0014 02D9     		bls	.L203
 2397              		.loc 1 1356 0 is_stmt 0 discriminator 1
 2398 0016 0020     		movs	r0, #0
 2399 0018 FFF7FEFF 		bl	CyHalt
 2400              	.LVL229:
 2401              	.L203:
1357:Generated_Source\PSoC4/CyDMA.c ****     CYASSERT(0u == (preemptable & (uint32)~CYDMA_PREEMPTABLE));
 2402              		.loc 1 1357 0 is_stmt 1
 2403 001c 084B     		ldr	r3, .L205
 2404 001e 1E42     		tst	r6, r3
ARM GAS  C:\Users\JamesN4\AppData\Local\Temp\ccgbGPCH.s 			page 68


 2405 0020 02D0     		beq	.L204
 2406              		.loc 1 1357 0 is_stmt 0 discriminator 1
 2407 0022 0020     		movs	r0, #0
 2408 0024 FFF7FEFF 		bl	CyHalt
 2409              	.LVL230:
 2410              	.L204:
1358:Generated_Source\PSoC4/CyDMA.c **** 
1359:Generated_Source\PSoC4/CyDMA.c ****     regValue = CYDMA_DESCR_BASE.descriptor[channel][descriptor].ctl & (uint32)~CYDMA_PREEMPTABLE;
 2411              		.loc 1 1359 0 is_stmt 1
 2412 0028 6D00     		lsls	r5, r5, #1
 2413              	.LVL231:
 2414 002a 2C19     		adds	r4, r5, r4
 2415              	.LVL232:
 2416 002c 2401     		lsls	r4, r4, #4
 2417 002e 054B     		ldr	r3, .L205+4
 2418 0030 9C46     		mov	ip, r3
 2419 0032 6444     		add	r4, r4, ip
 2420 0034 A268     		ldr	r2, [r4, #8]
 2421 0036 024B     		ldr	r3, .L205
 2422 0038 1A40     		ands	r2, r3
 2423              	.LVL233:
1360:Generated_Source\PSoC4/CyDMA.c ****     CYDMA_DESCR_BASE.descriptor[channel][descriptor].ctl = regValue | preemptable;
 2424              		.loc 1 1360 0
 2425 003a 3243     		orrs	r2, r6
 2426              	.LVL234:
 2427 003c A260     		str	r2, [r4, #8]
1361:Generated_Source\PSoC4/CyDMA.c **** }
 2428              		.loc 1 1361 0
 2429              		@ sp needed
 2430              	.LVL235:
 2431 003e 70BD     		pop	{r4, r5, r6, pc}
 2432              	.L206:
 2433              		.align	2
 2434              	.L205:
 2435 0040 FFFFFFEF 		.word	-268435457
 2436 0044 00181040 		.word	1074796544
 2437              		.cfi_endproc
 2438              	.LFE45:
 2439              		.size	CyDmaSetPreemptable, .-CyDmaSetPreemptable
 2440              		.section	.text.CyDmaGetPreemptable,"ax",%progbits
 2441              		.align	2
 2442              		.global	CyDmaGetPreemptable
 2443              		.code	16
 2444              		.thumb_func
 2445              		.type	CyDmaGetPreemptable, %function
 2446              	CyDmaGetPreemptable:
 2447              	.LFB46:
1362:Generated_Source\PSoC4/CyDMA.c **** 
1363:Generated_Source\PSoC4/CyDMA.c **** 
1364:Generated_Source\PSoC4/CyDMA.c **** /*******************************************************************************
1365:Generated_Source\PSoC4/CyDMA.c **** * Function Name: CyDmaGetPreemptable
1366:Generated_Source\PSoC4/CyDMA.c **** ********************************************************************************
1367:Generated_Source\PSoC4/CyDMA.c **** *
1368:Generated_Source\PSoC4/CyDMA.c **** * Summary:
1369:Generated_Source\PSoC4/CyDMA.c **** *  Returns whether or not the descriptor is preemptable.
1370:Generated_Source\PSoC4/CyDMA.c **** *
1371:Generated_Source\PSoC4/CyDMA.c **** * Parameters:
ARM GAS  C:\Users\JamesN4\AppData\Local\Temp\ccgbGPCH.s 			page 69


1372:Generated_Source\PSoC4/CyDMA.c **** *  channel:    Channel used by this function.
1373:Generated_Source\PSoC4/CyDMA.c **** *  descriptor: Descriptor (0 or 1) modified by this function.
1374:Generated_Source\PSoC4/CyDMA.c **** *                   
1375:Generated_Source\PSoC4/CyDMA.c **** * Return:
1376:Generated_Source\PSoC4/CyDMA.c **** *  Descriptor preemption setting. Refer to the API bit field definitions in
1377:Generated_Source\PSoC4/CyDMA.c **** *  CyDMA_P4.h or the API description in the DMA channel datasheet for more
1378:Generated_Source\PSoC4/CyDMA.c **** *  information.
1379:Generated_Source\PSoC4/CyDMA.c **** *
1380:Generated_Source\PSoC4/CyDMA.c **** *******************************************************************************/
1381:Generated_Source\PSoC4/CyDMA.c **** uint32 CyDmaGetPreemptable(int32 channel, int32 descriptor)
1382:Generated_Source\PSoC4/CyDMA.c **** {
 2448              		.loc 1 1382 0
 2449              		.cfi_startproc
 2450              		@ args = 0, pretend = 0, frame = 0
 2451              		@ frame_needed = 0, uses_anonymous_args = 0
 2452              	.LVL236:
 2453 0000 70B5     		push	{r4, r5, r6, lr}
 2454              		.cfi_def_cfa_offset 16
 2455              		.cfi_offset 4, -16
 2456              		.cfi_offset 5, -12
 2457              		.cfi_offset 6, -8
 2458              		.cfi_offset 14, -4
 2459 0002 0500     		movs	r5, r0
 2460 0004 0C00     		movs	r4, r1
1383:Generated_Source\PSoC4/CyDMA.c ****     CYASSERT((channel    >= 0) && (channel    < CYDMA_CH_NR));
 2461              		.loc 1 1383 0
 2462 0006 0728     		cmp	r0, #7
 2463 0008 02D9     		bls	.L208
 2464              		.loc 1 1383 0 is_stmt 0 discriminator 1
 2465 000a 0020     		movs	r0, #0
 2466              	.LVL237:
 2467 000c FFF7FEFF 		bl	CyHalt
 2468              	.LVL238:
 2469              	.L208:
1384:Generated_Source\PSoC4/CyDMA.c ****     CYASSERT((descriptor >= 0) && (descriptor < CYDMA_DESCR_NR));
 2470              		.loc 1 1384 0 is_stmt 1
 2471 0010 012C     		cmp	r4, #1
 2472 0012 02D9     		bls	.L209
 2473              		.loc 1 1384 0 is_stmt 0 discriminator 1
 2474 0014 0020     		movs	r0, #0
 2475 0016 FFF7FEFF 		bl	CyHalt
 2476              	.LVL239:
 2477              	.L209:
1385:Generated_Source\PSoC4/CyDMA.c **** 
1386:Generated_Source\PSoC4/CyDMA.c ****     return (CYDMA_DESCR_BASE.descriptor[channel][descriptor].ctl & CYDMA_PREEMPTABLE);
 2478              		.loc 1 1386 0 is_stmt 1
 2479 001a 6D00     		lsls	r5, r5, #1
 2480              	.LVL240:
 2481 001c 2C19     		adds	r4, r5, r4
 2482              	.LVL241:
 2483 001e 2401     		lsls	r4, r4, #4
 2484 0020 034B     		ldr	r3, .L210
 2485 0022 9C46     		mov	ip, r3
 2486 0024 6444     		add	r4, r4, ip
 2487 0026 A068     		ldr	r0, [r4, #8]
 2488 0028 8023     		movs	r3, #128
 2489 002a 5B05     		lsls	r3, r3, #21
ARM GAS  C:\Users\JamesN4\AppData\Local\Temp\ccgbGPCH.s 			page 70


 2490 002c 1840     		ands	r0, r3
1387:Generated_Source\PSoC4/CyDMA.c **** }
 2491              		.loc 1 1387 0
 2492              		@ sp needed
 2493 002e 70BD     		pop	{r4, r5, r6, pc}
 2494              	.L211:
 2495              		.align	2
 2496              	.L210:
 2497 0030 00181040 		.word	1074796544
 2498              		.cfi_endproc
 2499              	.LFE46:
 2500              		.size	CyDmaGetPreemptable, .-CyDmaGetPreemptable
 2501              		.section	.text.CyDmaSetPostCompletionActions,"ax",%progbits
 2502              		.align	2
 2503              		.global	CyDmaSetPostCompletionActions
 2504              		.code	16
 2505              		.thumb_func
 2506              		.type	CyDmaSetPostCompletionActions, %function
 2507              	CyDmaSetPostCompletionActions:
 2508              	.LFB47:
1388:Generated_Source\PSoC4/CyDMA.c **** 
1389:Generated_Source\PSoC4/CyDMA.c **** 
1390:Generated_Source\PSoC4/CyDMA.c **** /*******************************************************************************
1391:Generated_Source\PSoC4/CyDMA.c **** * Function Name: CyDmaSetPostCompletionActions
1392:Generated_Source\PSoC4/CyDMA.c **** ********************************************************************************
1393:Generated_Source\PSoC4/CyDMA.c **** *
1394:Generated_Source\PSoC4/CyDMA.c **** * Summary:
1395:Generated_Source\PSoC4/CyDMA.c **** *  Determines what occurs after a descriptor completes.
1396:Generated_Source\PSoC4/CyDMA.c **** *
1397:Generated_Source\PSoC4/CyDMA.c **** * Parameters:
1398:Generated_Source\PSoC4/CyDMA.c **** *  channel:    Channel used by this function.
1399:Generated_Source\PSoC4/CyDMA.c **** *  descriptor: Descriptor (0 or 1) modified by this function.
1400:Generated_Source\PSoC4/CyDMA.c **** *  actions:    Specifies descriptor post completion actions. Refer to the API
1401:Generated_Source\PSoC4/CyDMA.c **** *              bit field definitions in CyDMA_P4.h or the API description
1402:Generated_Source\PSoC4/CyDMA.c **** *              in the DMA channel datasheet for the parameter options.
1403:Generated_Source\PSoC4/CyDMA.c **** *                   
1404:Generated_Source\PSoC4/CyDMA.c **** * Return:
1405:Generated_Source\PSoC4/CyDMA.c **** *  None.  
1406:Generated_Source\PSoC4/CyDMA.c **** *
1407:Generated_Source\PSoC4/CyDMA.c **** * Side effect:
1408:Generated_Source\PSoC4/CyDMA.c **** *  This function should not be called when the specified descriptor is active
1409:Generated_Source\PSoC4/CyDMA.c **** *  in the DMA transfer engine. This can be checked by calling CyDmaGetStatus(). 
1410:Generated_Source\PSoC4/CyDMA.c **** *
1411:Generated_Source\PSoC4/CyDMA.c **** *******************************************************************************/
1412:Generated_Source\PSoC4/CyDMA.c **** void CyDmaSetPostCompletionActions(int32 channel, int32 descriptor, uint32 actions)
1413:Generated_Source\PSoC4/CyDMA.c **** {
 2509              		.loc 1 1413 0
 2510              		.cfi_startproc
 2511              		@ args = 0, pretend = 0, frame = 0
 2512              		@ frame_needed = 0, uses_anonymous_args = 0
 2513              	.LVL242:
 2514 0000 70B5     		push	{r4, r5, r6, lr}
 2515              		.cfi_def_cfa_offset 16
 2516              		.cfi_offset 4, -16
 2517              		.cfi_offset 5, -12
 2518              		.cfi_offset 6, -8
 2519              		.cfi_offset 14, -4
ARM GAS  C:\Users\JamesN4\AppData\Local\Temp\ccgbGPCH.s 			page 71


 2520 0002 0500     		movs	r5, r0
 2521 0004 0C00     		movs	r4, r1
 2522 0006 1600     		movs	r6, r2
1414:Generated_Source\PSoC4/CyDMA.c ****     uint32 regValue;
1415:Generated_Source\PSoC4/CyDMA.c **** 
1416:Generated_Source\PSoC4/CyDMA.c ****     CYASSERT((channel    >= 0) && (channel    < CYDMA_CH_NR));
 2523              		.loc 1 1416 0
 2524 0008 0728     		cmp	r0, #7
 2525 000a 02D9     		bls	.L213
 2526              		.loc 1 1416 0 is_stmt 0 discriminator 1
 2527 000c 0020     		movs	r0, #0
 2528              	.LVL243:
 2529 000e FFF7FEFF 		bl	CyHalt
 2530              	.LVL244:
 2531              	.L213:
1417:Generated_Source\PSoC4/CyDMA.c ****     CYASSERT((descriptor >= 0) && (descriptor < CYDMA_DESCR_NR));
 2532              		.loc 1 1417 0 is_stmt 1
 2533 0012 012C     		cmp	r4, #1
 2534 0014 02D9     		bls	.L214
 2535              		.loc 1 1417 0 is_stmt 0 discriminator 1
 2536 0016 0020     		movs	r0, #0
 2537 0018 FFF7FEFF 		bl	CyHalt
 2538              	.LVL245:
 2539              	.L214:
1418:Generated_Source\PSoC4/CyDMA.c ****     CYASSERT(0u == (actions & (uint32)~CYDMA_POST_COMPLETE_ACTIONS));
 2540              		.loc 1 1418 0 is_stmt 1
 2541 001c 084B     		ldr	r3, .L216
 2542 001e 1E42     		tst	r6, r3
 2543 0020 02D0     		beq	.L215
 2544              		.loc 1 1418 0 is_stmt 0 discriminator 1
 2545 0022 0020     		movs	r0, #0
 2546 0024 FFF7FEFF 		bl	CyHalt
 2547              	.LVL246:
 2548              	.L215:
1419:Generated_Source\PSoC4/CyDMA.c **** 
1420:Generated_Source\PSoC4/CyDMA.c ****     regValue = CYDMA_DESCR_BASE.descriptor[channel][descriptor].ctl & (uint32)~CYDMA_POST_COMPLETE_
 2549              		.loc 1 1420 0 is_stmt 1
 2550 0028 6D00     		lsls	r5, r5, #1
 2551              	.LVL247:
 2552 002a 2C19     		adds	r4, r5, r4
 2553              	.LVL248:
 2554 002c 2401     		lsls	r4, r4, #4
 2555 002e 054B     		ldr	r3, .L216+4
 2556 0030 9C46     		mov	ip, r3
 2557 0032 6444     		add	r4, r4, ip
 2558 0034 A268     		ldr	r2, [r4, #8]
 2559 0036 024B     		ldr	r3, .L216
 2560 0038 1A40     		ands	r2, r3
 2561              	.LVL249:
1421:Generated_Source\PSoC4/CyDMA.c ****     CYDMA_DESCR_BASE.descriptor[channel][descriptor].ctl = regValue | actions;
 2562              		.loc 1 1421 0
 2563 003a 3243     		orrs	r2, r6
 2564              	.LVL250:
 2565 003c A260     		str	r2, [r4, #8]
1422:Generated_Source\PSoC4/CyDMA.c **** }
 2566              		.loc 1 1422 0
 2567              		@ sp needed
ARM GAS  C:\Users\JamesN4\AppData\Local\Temp\ccgbGPCH.s 			page 72


 2568              	.LVL251:
 2569 003e 70BD     		pop	{r4, r5, r6, pc}
 2570              	.L217:
 2571              		.align	2
 2572              	.L216:
 2573 0040 FFFFFFD3 		.word	-738197505
 2574 0044 00181040 		.word	1074796544
 2575              		.cfi_endproc
 2576              	.LFE47:
 2577              		.size	CyDmaSetPostCompletionActions, .-CyDmaSetPostCompletionActions
 2578              		.section	.text.CyDmaGetPostCompletionActions,"ax",%progbits
 2579              		.align	2
 2580              		.global	CyDmaGetPostCompletionActions
 2581              		.code	16
 2582              		.thumb_func
 2583              		.type	CyDmaGetPostCompletionActions, %function
 2584              	CyDmaGetPostCompletionActions:
 2585              	.LFB48:
1423:Generated_Source\PSoC4/CyDMA.c **** 
1424:Generated_Source\PSoC4/CyDMA.c **** 
1425:Generated_Source\PSoC4/CyDMA.c **** /*******************************************************************************
1426:Generated_Source\PSoC4/CyDMA.c **** * Function Name: CyDmaGetPostCompletionActions
1427:Generated_Source\PSoC4/CyDMA.c **** ********************************************************************************
1428:Generated_Source\PSoC4/CyDMA.c **** *
1429:Generated_Source\PSoC4/CyDMA.c **** * Summary:
1430:Generated_Source\PSoC4/CyDMA.c **** *  Returns the post descriptor action settings as set by 
1431:Generated_Source\PSoC4/CyDMA.c **** *  CyDmaSetPostCompletionActions() or CyDmaSetConfiguration().
1432:Generated_Source\PSoC4/CyDMA.c **** *
1433:Generated_Source\PSoC4/CyDMA.c **** * Parameters:
1434:Generated_Source\PSoC4/CyDMA.c **** *  channel:    Channel used by this function.
1435:Generated_Source\PSoC4/CyDMA.c **** *  descriptor: Descriptor (0 or 1) modified by this function.
1436:Generated_Source\PSoC4/CyDMA.c **** *                   
1437:Generated_Source\PSoC4/CyDMA.c **** * Return:
1438:Generated_Source\PSoC4/CyDMA.c **** *  Post descriptor actions. Refer to the API bit field definitions in
1439:Generated_Source\PSoC4/CyDMA.c **** *  CyDMA_P4.h or the API description in the DMA channel datasheet for more
1440:Generated_Source\PSoC4/CyDMA.c **** *  information.
1441:Generated_Source\PSoC4/CyDMA.c **** *
1442:Generated_Source\PSoC4/CyDMA.c **** *******************************************************************************/
1443:Generated_Source\PSoC4/CyDMA.c **** uint32 CyDmaGetPostCompletionActions(int32 channel, int32 descriptor)
1444:Generated_Source\PSoC4/CyDMA.c **** {
 2586              		.loc 1 1444 0
 2587              		.cfi_startproc
 2588              		@ args = 0, pretend = 0, frame = 0
 2589              		@ frame_needed = 0, uses_anonymous_args = 0
 2590              	.LVL252:
 2591 0000 70B5     		push	{r4, r5, r6, lr}
 2592              		.cfi_def_cfa_offset 16
 2593              		.cfi_offset 4, -16
 2594              		.cfi_offset 5, -12
 2595              		.cfi_offset 6, -8
 2596              		.cfi_offset 14, -4
 2597 0002 0500     		movs	r5, r0
 2598 0004 0C00     		movs	r4, r1
1445:Generated_Source\PSoC4/CyDMA.c ****     CYASSERT((channel    >= 0) && (channel    < CYDMA_CH_NR));
 2599              		.loc 1 1445 0
 2600 0006 0728     		cmp	r0, #7
 2601 0008 02D9     		bls	.L219
ARM GAS  C:\Users\JamesN4\AppData\Local\Temp\ccgbGPCH.s 			page 73


 2602              		.loc 1 1445 0 is_stmt 0 discriminator 1
 2603 000a 0020     		movs	r0, #0
 2604              	.LVL253:
 2605 000c FFF7FEFF 		bl	CyHalt
 2606              	.LVL254:
 2607              	.L219:
1446:Generated_Source\PSoC4/CyDMA.c ****     CYASSERT((descriptor >= 0) && (descriptor < CYDMA_DESCR_NR));
 2608              		.loc 1 1446 0 is_stmt 1
 2609 0010 012C     		cmp	r4, #1
 2610 0012 02D9     		bls	.L220
 2611              		.loc 1 1446 0 is_stmt 0 discriminator 1
 2612 0014 0020     		movs	r0, #0
 2613 0016 FFF7FEFF 		bl	CyHalt
 2614              	.LVL255:
 2615              	.L220:
1447:Generated_Source\PSoC4/CyDMA.c **** 
1448:Generated_Source\PSoC4/CyDMA.c ****     return (CYDMA_DESCR_BASE.descriptor[channel][descriptor].ctl & CYDMA_POST_COMPLETE_ACTIONS);
 2616              		.loc 1 1448 0 is_stmt 1
 2617 001a 6D00     		lsls	r5, r5, #1
 2618              	.LVL256:
 2619 001c 2C19     		adds	r4, r5, r4
 2620              	.LVL257:
 2621 001e 2401     		lsls	r4, r4, #4
 2622 0020 034B     		ldr	r3, .L221
 2623 0022 9C46     		mov	ip, r3
 2624 0024 6444     		add	r4, r4, ip
 2625 0026 A068     		ldr	r0, [r4, #8]
 2626 0028 B023     		movs	r3, #176
 2627 002a 9B05     		lsls	r3, r3, #22
 2628 002c 1840     		ands	r0, r3
1449:Generated_Source\PSoC4/CyDMA.c **** }
 2629              		.loc 1 1449 0
 2630              		@ sp needed
 2631 002e 70BD     		pop	{r4, r5, r6, pc}
 2632              	.L222:
 2633              		.align	2
 2634              	.L221:
 2635 0030 00181040 		.word	1074796544
 2636              		.cfi_endproc
 2637              	.LFE48:
 2638              		.size	CyDmaGetPostCompletionActions, .-CyDmaGetPostCompletionActions
 2639              		.data
 2640              		.align	2
 2641              		.set	.LANCHOR0,. + 0
 2642              		.type	CyDmaInterruptCallback, %object
 2643              		.size	CyDmaInterruptCallback, 32
 2644              	CyDmaInterruptCallback:
 2645 0000 00000000 		.word	CyDmaDefaultInterruptCallback
 2646 0004 00000000 		.word	CyDmaDefaultInterruptCallback
 2647 0008 00000000 		.word	CyDmaDefaultInterruptCallback
 2648 000c 00000000 		.word	CyDmaDefaultInterruptCallback
 2649 0010 00000000 		.word	CyDmaDefaultInterruptCallback
 2650 0014 00000000 		.word	CyDmaDefaultInterruptCallback
 2651 0018 00000000 		.word	CyDmaDefaultInterruptCallback
 2652 001c 00000000 		.word	CyDmaDefaultInterruptCallback
 2653              		.bss
 2654              		.align	2
ARM GAS  C:\Users\JamesN4\AppData\Local\Temp\ccgbGPCH.s 			page 74


 2655              		.set	.LANCHOR1,. + 0
 2656              		.type	initIntrVector.5006, %object
 2657              		.size	initIntrVector.5006, 1
 2658              	initIntrVector.5006:
 2659 0000 00       		.space	1
 2660 0001 000000   		.space	3
 2661              		.type	CyDmaChannelUsedMask, %object
 2662              		.size	CyDmaChannelUsedMask, 4
 2663              	CyDmaChannelUsedMask:
 2664 0004 00000000 		.space	4
 2665              		.text
 2666              	.Letext0:
 2667              		.file 2 "Generated_Source\\PSoC4\\cytypes.h"
 2668              		.file 3 "Generated_Source\\PSoC4\\CyDMA.h"
 2669              		.file 4 "Generated_Source\\PSoC4\\CyLib.h"