ARM GAS  C:\Users\JamesN4\AppData\Local\Temp\ccgbGPCH.s 			page 1


   1              		.syntax unified
   2              		.cpu cortex-m0
   3              		.fpu softvfp
   4              		.eabi_attribute 20, 1
   5              		.eabi_attribute 21, 1
   6              		.eabi_attribute 23, 3
   7              		.eabi_attribute 24, 1
   8              		.eabi_attribute 25, 1
   9              		.eabi_attribute 26, 1
  10              		.eabi_attribute 30, 1
  11              		.eabi_attribute 34, 0
  12              		.eabi_attribute 18, 4
  13              		.thumb
  14              		.syntax unified
  15              		.file	"CyDMA.c"
  16              		.text
  17              	.Ltext0:
  18              		.cfi_sections	.debug_frame
  19              		.section	.text.CyDmaInterrupt,"ax",%progbits
  20              		.align	2
  21              		.global	CyDmaInterrupt
  22              		.code	16
  23              		.thumb_func
  24              		.type	CyDmaInterrupt, %function
  25              	CyDmaInterrupt:
  26              	.LFB15:
  27              		.file 1 "Generated_Source\\PSoC4\\CyDMA.c"
   1:Generated_Source\PSoC4/CyDMA.c **** /*******************************************************************************
   2:Generated_Source\PSoC4/CyDMA.c **** * File Name: CyDMA.c
   3:Generated_Source\PSoC4/CyDMA.c **** * Version 1.10
   4:Generated_Source\PSoC4/CyDMA.c **** *
   5:Generated_Source\PSoC4/CyDMA.c **** * Description:
   6:Generated_Source\PSoC4/CyDMA.c **** *  This file contains all of the global DMA API functions.
   7:Generated_Source\PSoC4/CyDMA.c **** *
   8:Generated_Source\PSoC4/CyDMA.c **** ********************************************************************************
   9:Generated_Source\PSoC4/CyDMA.c **** * Copyright 2015, Cypress Semiconductor Corporation. All rights reserved.
  10:Generated_Source\PSoC4/CyDMA.c **** * You may use this file only in accordance with the license, terms, conditions,
  11:Generated_Source\PSoC4/CyDMA.c **** * disclaimers, and limitations in the end user license agreement accompanying
  12:Generated_Source\PSoC4/CyDMA.c **** * the software package with which this file was provided.
  13:Generated_Source\PSoC4/CyDMA.c **** *******************************************************************************/
  14:Generated_Source\PSoC4/CyDMA.c **** 
  15:Generated_Source\PSoC4/CyDMA.c **** #include "CyDMA.h"
  16:Generated_Source\PSoC4/CyDMA.c **** #include "CyLib.h"
  17:Generated_Source\PSoC4/CyDMA.c **** 
  18:Generated_Source\PSoC4/CyDMA.c **** /* Default callback function. It is invoked if the user callback function is
  19:Generated_Source\PSoC4/CyDMA.c **** * undefined.
  20:Generated_Source\PSoC4/CyDMA.c **** */
  21:Generated_Source\PSoC4/CyDMA.c **** static void CyDmaDefaultInterruptCallback(void);
  22:Generated_Source\PSoC4/CyDMA.c **** 
  23:Generated_Source\PSoC4/CyDMA.c **** /* Array of pointers to user defined callback functions to be called
  24:Generated_Source\PSoC4/CyDMA.c **** * from DMA interrupt.
  25:Generated_Source\PSoC4/CyDMA.c **** */
  26:Generated_Source\PSoC4/CyDMA.c **** static cydma_callback_t CyDmaInterruptCallback[CYDMA_CH_NR] = {
  27:Generated_Source\PSoC4/CyDMA.c ****     &CyDmaDefaultInterruptCallback, &CyDmaDefaultInterruptCallback,
  28:Generated_Source\PSoC4/CyDMA.c ****     &CyDmaDefaultInterruptCallback, &CyDmaDefaultInterruptCallback,
  29:Generated_Source\PSoC4/CyDMA.c ****     &CyDmaDefaultInterruptCallback, &CyDmaDefaultInterruptCallback,
  30:Generated_Source\PSoC4/CyDMA.c ****     &CyDmaDefaultInterruptCallback, &CyDmaDefaultInterruptCallback
ARM GAS  C:\Users\JamesN4\AppData\Local\Temp\ccgbGPCH.s 			page 2


  31:Generated_Source\PSoC4/CyDMA.c **** };
  32:Generated_Source\PSoC4/CyDMA.c **** 
  33:Generated_Source\PSoC4/CyDMA.c **** /* The live status of all DMA channels usage. Bit i is associated to channel i,
  34:Generated_Source\PSoC4/CyDMA.c **** * with i = 0..CYDMA_CH_NR-1. '0' - channel is free. '1' - channel is in use.
  35:Generated_Source\PSoC4/CyDMA.c **** * All the channels allocated for DMA instances placed on a schematic are in use
  36:Generated_Source\PSoC4/CyDMA.c **** * by default and cannot be freed. 
  37:Generated_Source\PSoC4/CyDMA.c **** * DMA_CHANNELS_USED__MASK is generated during the build time and is a bit field
  38:Generated_Source\PSoC4/CyDMA.c **** * corresponding to the DMA channels placed on a design schematic.
  39:Generated_Source\PSoC4/CyDMA.c **** */
  40:Generated_Source\PSoC4/CyDMA.c **** static uint32 CyDmaChannelUsedMask = DMA_CHANNELS_USED__MASK;
  41:Generated_Source\PSoC4/CyDMA.c **** 
  42:Generated_Source\PSoC4/CyDMA.c **** 
  43:Generated_Source\PSoC4/CyDMA.c **** /*******************************************************************************
  44:Generated_Source\PSoC4/CyDMA.c **** * Function Name: CyDmaEnable
  45:Generated_Source\PSoC4/CyDMA.c **** ********************************************************************************
  46:Generated_Source\PSoC4/CyDMA.c **** *
  47:Generated_Source\PSoC4/CyDMA.c **** * Summary:
  48:Generated_Source\PSoC4/CyDMA.c **** *  Sets the default ISR to be called by the DMA interrupt and enables the DMA
  49:Generated_Source\PSoC4/CyDMA.c **** *  transfer engine.
  50:Generated_Source\PSoC4/CyDMA.c **** *
  51:Generated_Source\PSoC4/CyDMA.c **** * Parameters:
  52:Generated_Source\PSoC4/CyDMA.c **** *  None.
  53:Generated_Source\PSoC4/CyDMA.c **** *                   
  54:Generated_Source\PSoC4/CyDMA.c **** * Return:
  55:Generated_Source\PSoC4/CyDMA.c **** *  None.
  56:Generated_Source\PSoC4/CyDMA.c **** *
  57:Generated_Source\PSoC4/CyDMA.c **** * Side effect:
  58:Generated_Source\PSoC4/CyDMA.c **** *  Does not affect the channel enable status. Overrides the interrupt vector
  59:Generated_Source\PSoC4/CyDMA.c **** *  set prior the first time CyDmaEnable() is called.
  60:Generated_Source\PSoC4/CyDMA.c **** *
  61:Generated_Source\PSoC4/CyDMA.c **** *******************************************************************************/
  62:Generated_Source\PSoC4/CyDMA.c **** void CyDmaEnable(void)
  63:Generated_Source\PSoC4/CyDMA.c **** {
  64:Generated_Source\PSoC4/CyDMA.c ****     static uint8 initIntrVector = 0u;
  65:Generated_Source\PSoC4/CyDMA.c **** 
  66:Generated_Source\PSoC4/CyDMA.c ****     if(0u == initIntrVector)
  67:Generated_Source\PSoC4/CyDMA.c ****     {
  68:Generated_Source\PSoC4/CyDMA.c ****         CyDmaSetInterruptVector(&CyDmaInterrupt);
  69:Generated_Source\PSoC4/CyDMA.c ****         CyIntSetPriority(CYDMA_INTR_NUMBER, CYDMA_INTR_PRIO);
  70:Generated_Source\PSoC4/CyDMA.c ****         initIntrVector = 1u;
  71:Generated_Source\PSoC4/CyDMA.c ****     }
  72:Generated_Source\PSoC4/CyDMA.c ****     CYDMA_CTL_REG = CYDMA_ENABLED;
  73:Generated_Source\PSoC4/CyDMA.c **** }
  74:Generated_Source\PSoC4/CyDMA.c **** 
  75:Generated_Source\PSoC4/CyDMA.c **** 
  76:Generated_Source\PSoC4/CyDMA.c **** /*******************************************************************************
  77:Generated_Source\PSoC4/CyDMA.c **** * Function Name: CyDmaDisable
  78:Generated_Source\PSoC4/CyDMA.c **** ********************************************************************************
  79:Generated_Source\PSoC4/CyDMA.c **** *
  80:Generated_Source\PSoC4/CyDMA.c **** * Summary:
  81:Generated_Source\PSoC4/CyDMA.c **** *  Disables the DMA transfer engine.
  82:Generated_Source\PSoC4/CyDMA.c **** *
  83:Generated_Source\PSoC4/CyDMA.c **** * Parameters:
  84:Generated_Source\PSoC4/CyDMA.c **** *  None.
  85:Generated_Source\PSoC4/CyDMA.c **** *                   
  86:Generated_Source\PSoC4/CyDMA.c **** * Return:
  87:Generated_Source\PSoC4/CyDMA.c **** *  None.
ARM GAS  C:\Users\JamesN4\AppData\Local\Temp\ccgbGPCH.s 			page 3


  88:Generated_Source\PSoC4/CyDMA.c **** *
  89:Generated_Source\PSoC4/CyDMA.c **** * Side effect:
  90:Generated_Source\PSoC4/CyDMA.c **** *  Does not affect the channel enable status.
  91:Generated_Source\PSoC4/CyDMA.c **** *
  92:Generated_Source\PSoC4/CyDMA.c **** *******************************************************************************/
  93:Generated_Source\PSoC4/CyDMA.c **** void CyDmaDisable(void)
  94:Generated_Source\PSoC4/CyDMA.c **** {
  95:Generated_Source\PSoC4/CyDMA.c ****     CYDMA_CTL_REG = (uint32)~CYDMA_ENABLED;
  96:Generated_Source\PSoC4/CyDMA.c **** }
  97:Generated_Source\PSoC4/CyDMA.c **** 
  98:Generated_Source\PSoC4/CyDMA.c **** 
  99:Generated_Source\PSoC4/CyDMA.c **** /*******************************************************************************
 100:Generated_Source\PSoC4/CyDMA.c **** * Function Name: CyDmaGetStatus
 101:Generated_Source\PSoC4/CyDMA.c **** ********************************************************************************
 102:Generated_Source\PSoC4/CyDMA.c **** *
 103:Generated_Source\PSoC4/CyDMA.c **** * Summary:
 104:Generated_Source\PSoC4/CyDMA.c **** *  Returns the status of the DMA transfer engine.
 105:Generated_Source\PSoC4/CyDMA.c **** *
 106:Generated_Source\PSoC4/CyDMA.c **** * Parameters:
 107:Generated_Source\PSoC4/CyDMA.c **** *  None.
 108:Generated_Source\PSoC4/CyDMA.c **** *                   
 109:Generated_Source\PSoC4/CyDMA.c **** * Return:
 110:Generated_Source\PSoC4/CyDMA.c **** *  The contents of the DMA status register. Refer to the status register bit
 111:Generated_Source\PSoC4/CyDMA.c **** *  definitions in CyDMA_P4.h or the API description in the DMA channel
 112:Generated_Source\PSoC4/CyDMA.c **** *  datasheet.
 113:Generated_Source\PSoC4/CyDMA.c **** *
 114:Generated_Source\PSoC4/CyDMA.c **** * Side effect:
 115:Generated_Source\PSoC4/CyDMA.c **** *  The series of function calls CyDmaGetActiveSrcAddress(),
 116:Generated_Source\PSoC4/CyDMA.c **** *  CyDmaGetActiveDstAddress(), CyDmaGetStatus() are not atomic, the DMA
 117:Generated_Source\PSoC4/CyDMA.c **** *  engine may have advanced after one or more of these function calls. Meaning
 118:Generated_Source\PSoC4/CyDMA.c **** *  the returns from these three functions may not be related to each other.
 119:Generated_Source\PSoC4/CyDMA.c **** *
 120:Generated_Source\PSoC4/CyDMA.c **** *******************************************************************************/
 121:Generated_Source\PSoC4/CyDMA.c **** uint32 CyDmaGetStatus(void)
 122:Generated_Source\PSoC4/CyDMA.c **** {
 123:Generated_Source\PSoC4/CyDMA.c ****     return (CYDMA_STATUS_REG);
 124:Generated_Source\PSoC4/CyDMA.c **** }
 125:Generated_Source\PSoC4/CyDMA.c **** 
 126:Generated_Source\PSoC4/CyDMA.c **** 
 127:Generated_Source\PSoC4/CyDMA.c **** /*******************************************************************************
 128:Generated_Source\PSoC4/CyDMA.c **** * Function Name: CyDmaGetActiveChannels
 129:Generated_Source\PSoC4/CyDMA.c **** ********************************************************************************
 130:Generated_Source\PSoC4/CyDMA.c **** *
 131:Generated_Source\PSoC4/CyDMA.c **** * Summary:
 132:Generated_Source\PSoC4/CyDMA.c **** *  Returns a bit field of all the DMA channels that are either active or
 133:Generated_Source\PSoC4/CyDMA.c **** *  pending.
 134:Generated_Source\PSoC4/CyDMA.c **** *
 135:Generated_Source\PSoC4/CyDMA.c **** * Parameters:
 136:Generated_Source\PSoC4/CyDMA.c **** *  None.
 137:Generated_Source\PSoC4/CyDMA.c **** *                   
 138:Generated_Source\PSoC4/CyDMA.c **** * Return:
 139:Generated_Source\PSoC4/CyDMA.c **** *  Bit field of active and pending channels. 
 140:Generated_Source\PSoC4/CyDMA.c **** *
 141:Generated_Source\PSoC4/CyDMA.c **** *******************************************************************************/
 142:Generated_Source\PSoC4/CyDMA.c **** uint32 CyDmaGetActiveChannels(void)
 143:Generated_Source\PSoC4/CyDMA.c **** {
 144:Generated_Source\PSoC4/CyDMA.c ****     return (CYDMA_STATUS_CH_ACT_REG);
ARM GAS  C:\Users\JamesN4\AppData\Local\Temp\ccgbGPCH.s 			page 4


 145:Generated_Source\PSoC4/CyDMA.c **** }
 146:Generated_Source\PSoC4/CyDMA.c **** 
 147:Generated_Source\PSoC4/CyDMA.c **** 
 148:Generated_Source\PSoC4/CyDMA.c **** /*******************************************************************************
 149:Generated_Source\PSoC4/CyDMA.c **** * Function Name: CyDmaGetActiveSrcAddress
 150:Generated_Source\PSoC4/CyDMA.c **** ********************************************************************************
 151:Generated_Source\PSoC4/CyDMA.c **** *
 152:Generated_Source\PSoC4/CyDMA.c **** * Summary:
 153:Generated_Source\PSoC4/CyDMA.c **** *  Returns the source address currently being used by the DMA transfer engine.
 154:Generated_Source\PSoC4/CyDMA.c **** *  This function can be used to debug the DMA, or observe where it is at in a
 155:Generated_Source\PSoC4/CyDMA.c **** *  transfer. It will not be used in normal DMA operation.
 156:Generated_Source\PSoC4/CyDMA.c **** *
 157:Generated_Source\PSoC4/CyDMA.c **** * Parameters:
 158:Generated_Source\PSoC4/CyDMA.c **** *  None.
 159:Generated_Source\PSoC4/CyDMA.c **** *                   
 160:Generated_Source\PSoC4/CyDMA.c **** * Return:
 161:Generated_Source\PSoC4/CyDMA.c **** *  Source address currently being used by the DMA transfer engine.
 162:Generated_Source\PSoC4/CyDMA.c **** *
 163:Generated_Source\PSoC4/CyDMA.c **** * Side effect:
 164:Generated_Source\PSoC4/CyDMA.c **** *  The series of function calls CyDmaGetActiveSrcAddress(),
 165:Generated_Source\PSoC4/CyDMA.c **** *  CyDmaGetActiveDstAddress(), CyDmaGetStatus() are not atomic, the DMA
 166:Generated_Source\PSoC4/CyDMA.c **** *  engine may have advanced after one or more of these function calls. Meaning
 167:Generated_Source\PSoC4/CyDMA.c **** *  the returns from these three functions may not be related to each other.
 168:Generated_Source\PSoC4/CyDMA.c **** *
 169:Generated_Source\PSoC4/CyDMA.c **** *******************************************************************************/
 170:Generated_Source\PSoC4/CyDMA.c **** void * CyDmaGetActiveSrcAddress(void)
 171:Generated_Source\PSoC4/CyDMA.c **** {
 172:Generated_Source\PSoC4/CyDMA.c ****     return ((void *)CYDMA_STATUS_SRC_ADDR_REG);
 173:Generated_Source\PSoC4/CyDMA.c **** }
 174:Generated_Source\PSoC4/CyDMA.c **** 
 175:Generated_Source\PSoC4/CyDMA.c **** 
 176:Generated_Source\PSoC4/CyDMA.c **** /*******************************************************************************
 177:Generated_Source\PSoC4/CyDMA.c **** * Function Name: CyDmaGetActiveDstAddress
 178:Generated_Source\PSoC4/CyDMA.c **** ********************************************************************************
 179:Generated_Source\PSoC4/CyDMA.c **** *
 180:Generated_Source\PSoC4/CyDMA.c **** * Summary:
 181:Generated_Source\PSoC4/CyDMA.c **** *  Returns the destination address currently being used by the DMA transfer
 182:Generated_Source\PSoC4/CyDMA.c **** *  engine. This function can be used to debug the DMA, or observe where it is at
 183:Generated_Source\PSoC4/CyDMA.c **** *  in a transfer. It will not be used in normal DMA operation.
 184:Generated_Source\PSoC4/CyDMA.c **** *
 185:Generated_Source\PSoC4/CyDMA.c **** * Parameters:
 186:Generated_Source\PSoC4/CyDMA.c **** *  None.
 187:Generated_Source\PSoC4/CyDMA.c **** *                   
 188:Generated_Source\PSoC4/CyDMA.c **** * Return:
 189:Generated_Source\PSoC4/CyDMA.c **** *  Destination address currently being used by the DMA transfer engine.
 190:Generated_Source\PSoC4/CyDMA.c **** *
 191:Generated_Source\PSoC4/CyDMA.c **** * Side effect:
 192:Generated_Source\PSoC4/CyDMA.c **** *  The series of function calls CyDmaGetActiveSrcAddress(),
 193:Generated_Source\PSoC4/CyDMA.c **** *  CyDmaGetActiveDstAddress(), CyDmaGetStatus() are not atomic, the DMA
 194:Generated_Source\PSoC4/CyDMA.c **** *  engine may have advanced after one or more of these function calls. Meaning
 195:Generated_Source\PSoC4/CyDMA.c **** *  the returns from these three functions may not be related to each other.
 196:Generated_Source\PSoC4/CyDMA.c **** *
 197:Generated_Source\PSoC4/CyDMA.c **** *******************************************************************************/
 198:Generated_Source\PSoC4/CyDMA.c **** void * CyDmaGetActiveDstAddress(void)
 199:Generated_Source\PSoC4/CyDMA.c **** {
 200:Generated_Source\PSoC4/CyDMA.c ****     return ((void *)CYDMA_STATUS_DST_ADDR_REG);
 201:Generated_Source\PSoC4/CyDMA.c **** }
ARM GAS  C:\Users\JamesN4\AppData\Local\Temp\ccgbGPCH.s 			page 5


 202:Generated_Source\PSoC4/CyDMA.c **** 
 203:Generated_Source\PSoC4/CyDMA.c **** 
 204:Generated_Source\PSoC4/CyDMA.c **** /*******************************************************************************
 205:Generated_Source\PSoC4/CyDMA.c **** * Function Name: CyDmaSetInterruptVector
 206:Generated_Source\PSoC4/CyDMA.c **** ********************************************************************************
 207:Generated_Source\PSoC4/CyDMA.c **** *
 208:Generated_Source\PSoC4/CyDMA.c **** * Summary:
 209:Generated_Source\PSoC4/CyDMA.c **** *  Sets the function that will be called by the DMA interrupt. Note, calling
 210:Generated_Source\PSoC4/CyDMA.c **** *  CyDmaEnable() for the first time overrides any effect this API could have.
 211:Generated_Source\PSoC4/CyDMA.c **** *  Call CyDmaSetInterruptVector() after calling CyDmaEnable() to change
 212:Generated_Source\PSoC4/CyDMA.c **** *  the default ISR.
 213:Generated_Source\PSoC4/CyDMA.c **** *
 214:Generated_Source\PSoC4/CyDMA.c **** * Parameters:
 215:Generated_Source\PSoC4/CyDMA.c **** *  interruptVector: Address of the function that will be called by the DMA
 216:Generated_Source\PSoC4/CyDMA.c **** *                   interrupt.
 217:Generated_Source\PSoC4/CyDMA.c **** * Return:
 218:Generated_Source\PSoC4/CyDMA.c **** *  None.
 219:Generated_Source\PSoC4/CyDMA.c **** *
 220:Generated_Source\PSoC4/CyDMA.c **** * Side effect:
 221:Generated_Source\PSoC4/CyDMA.c **** *  Other components that use DMA may register their callback functions to be
 222:Generated_Source\PSoC4/CyDMA.c **** *  called from the default DMA ISR. Therefore, changing the DMA ISR to a user
 223:Generated_Source\PSoC4/CyDMA.c **** *  defined ISR using this API may prevent these other components from
 224:Generated_Source\PSoC4/CyDMA.c **** *  functioning correctly.
 225:Generated_Source\PSoC4/CyDMA.c **** *
 226:Generated_Source\PSoC4/CyDMA.c **** *******************************************************************************/
 227:Generated_Source\PSoC4/CyDMA.c **** void CyDmaSetInterruptVector(cyisraddress interruptVector)
 228:Generated_Source\PSoC4/CyDMA.c **** {
 229:Generated_Source\PSoC4/CyDMA.c ****     (void)CyIntSetVector(CYDMA_INTR_NUMBER, interruptVector);
 230:Generated_Source\PSoC4/CyDMA.c **** }
 231:Generated_Source\PSoC4/CyDMA.c **** 
 232:Generated_Source\PSoC4/CyDMA.c **** 
 233:Generated_Source\PSoC4/CyDMA.c **** /*******************************************************************************
 234:Generated_Source\PSoC4/CyDMA.c **** * Function Name: CyDmaGetInterruptSource
 235:Generated_Source\PSoC4/CyDMA.c **** ********************************************************************************
 236:Generated_Source\PSoC4/CyDMA.c **** *
 237:Generated_Source\PSoC4/CyDMA.c **** * Summary:
 238:Generated_Source\PSoC4/CyDMA.c **** *  Returns the bit field of which channels generated an interrupt request.
 239:Generated_Source\PSoC4/CyDMA.c **** *
 240:Generated_Source\PSoC4/CyDMA.c **** * Parameters:
 241:Generated_Source\PSoC4/CyDMA.c **** *  None.
 242:Generated_Source\PSoC4/CyDMA.c **** *                   
 243:Generated_Source\PSoC4/CyDMA.c **** * Return:
 244:Generated_Source\PSoC4/CyDMA.c **** *  Bit filed of which channels generated an interrupt request.
 245:Generated_Source\PSoC4/CyDMA.c **** *
 246:Generated_Source\PSoC4/CyDMA.c **** *******************************************************************************/
 247:Generated_Source\PSoC4/CyDMA.c **** uint32 CyDmaGetInterruptSource(void)
 248:Generated_Source\PSoC4/CyDMA.c **** {
 249:Generated_Source\PSoC4/CyDMA.c ****     return (CYDMA_INTR_REG);
 250:Generated_Source\PSoC4/CyDMA.c **** }
 251:Generated_Source\PSoC4/CyDMA.c **** 
 252:Generated_Source\PSoC4/CyDMA.c **** 
 253:Generated_Source\PSoC4/CyDMA.c **** /*******************************************************************************
 254:Generated_Source\PSoC4/CyDMA.c **** * Function Name: CyDmaClearInterruptSource
 255:Generated_Source\PSoC4/CyDMA.c **** ********************************************************************************
 256:Generated_Source\PSoC4/CyDMA.c **** *
 257:Generated_Source\PSoC4/CyDMA.c **** * Summary:
 258:Generated_Source\PSoC4/CyDMA.c **** *  Clears the pending interrupts.
ARM GAS  C:\Users\JamesN4\AppData\Local\Temp\ccgbGPCH.s 			page 6


 259:Generated_Source\PSoC4/CyDMA.c **** *
 260:Generated_Source\PSoC4/CyDMA.c **** * Parameters:
 261:Generated_Source\PSoC4/CyDMA.c **** *  interruptMask: Bit field of interrupts to clear.
 262:Generated_Source\PSoC4/CyDMA.c **** *                   
 263:Generated_Source\PSoC4/CyDMA.c **** * Return:
 264:Generated_Source\PSoC4/CyDMA.c **** *  None.
 265:Generated_Source\PSoC4/CyDMA.c **** *
 266:Generated_Source\PSoC4/CyDMA.c **** *******************************************************************************/
 267:Generated_Source\PSoC4/CyDMA.c **** void CyDmaClearInterruptSource(uint32 interruptMask)
 268:Generated_Source\PSoC4/CyDMA.c **** {
 269:Generated_Source\PSoC4/CyDMA.c ****     CYDMA_INTR_REG = interruptMask;
 270:Generated_Source\PSoC4/CyDMA.c **** }
 271:Generated_Source\PSoC4/CyDMA.c **** 
 272:Generated_Source\PSoC4/CyDMA.c **** 
 273:Generated_Source\PSoC4/CyDMA.c **** /*******************************************************************************
 274:Generated_Source\PSoC4/CyDMA.c **** * Function Name: CyDmaSetInterruptSourceMask
 275:Generated_Source\PSoC4/CyDMA.c **** ********************************************************************************
 276:Generated_Source\PSoC4/CyDMA.c **** *
 277:Generated_Source\PSoC4/CyDMA.c **** * Summary:
 278:Generated_Source\PSoC4/CyDMA.c **** *  Sets mask for interrupt source.
 279:Generated_Source\PSoC4/CyDMA.c **** *
 280:Generated_Source\PSoC4/CyDMA.c **** * Parameters:
 281:Generated_Source\PSoC4/CyDMA.c **** *  interruptmask: Mask corresponding to interrupt bit field.
 282:Generated_Source\PSoC4/CyDMA.c **** *                   
 283:Generated_Source\PSoC4/CyDMA.c **** * Return:
 284:Generated_Source\PSoC4/CyDMA.c **** *  None.
 285:Generated_Source\PSoC4/CyDMA.c **** *
 286:Generated_Source\PSoC4/CyDMA.c **** *******************************************************************************/
 287:Generated_Source\PSoC4/CyDMA.c **** void CyDmaSetInterruptSourceMask(uint32 interruptMask)
 288:Generated_Source\PSoC4/CyDMA.c **** {
 289:Generated_Source\PSoC4/CyDMA.c ****     CYDMA_INTR_MASK_REG = interruptMask;
 290:Generated_Source\PSoC4/CyDMA.c **** }
 291:Generated_Source\PSoC4/CyDMA.c **** 
 292:Generated_Source\PSoC4/CyDMA.c **** 
 293:Generated_Source\PSoC4/CyDMA.c **** /*******************************************************************************
 294:Generated_Source\PSoC4/CyDMA.c **** * Function Name: CyDmaGetInterruptSourceMask
 295:Generated_Source\PSoC4/CyDMA.c **** ********************************************************************************
 296:Generated_Source\PSoC4/CyDMA.c **** *
 297:Generated_Source\PSoC4/CyDMA.c **** * Summary:
 298:Generated_Source\PSoC4/CyDMA.c **** *  Returns mask for interrupt source.
 299:Generated_Source\PSoC4/CyDMA.c **** *
 300:Generated_Source\PSoC4/CyDMA.c **** * Parameters:
 301:Generated_Source\PSoC4/CyDMA.c **** *  None.
 302:Generated_Source\PSoC4/CyDMA.c **** *                   
 303:Generated_Source\PSoC4/CyDMA.c **** * Return:
 304:Generated_Source\PSoC4/CyDMA.c **** *  Mask corresponding to interrupt bit field.
 305:Generated_Source\PSoC4/CyDMA.c **** *
 306:Generated_Source\PSoC4/CyDMA.c **** *******************************************************************************/
 307:Generated_Source\PSoC4/CyDMA.c **** uint32 CyDmaGetInterruptSourceMask(void)
 308:Generated_Source\PSoC4/CyDMA.c **** {
 309:Generated_Source\PSoC4/CyDMA.c ****     return (CYDMA_INTR_MASK_REG);
 310:Generated_Source\PSoC4/CyDMA.c **** }
 311:Generated_Source\PSoC4/CyDMA.c **** 
 312:Generated_Source\PSoC4/CyDMA.c **** 
 313:Generated_Source\PSoC4/CyDMA.c **** /*******************************************************************************
 314:Generated_Source\PSoC4/CyDMA.c **** * Function Name: CyDmaGetInterruptSourceMasked
 315:Generated_Source\PSoC4/CyDMA.c **** ********************************************************************************
ARM GAS  C:\Users\JamesN4\AppData\Local\Temp\ccgbGPCH.s 			page 7


 316:Generated_Source\PSoC4/CyDMA.c **** *
 317:Generated_Source\PSoC4/CyDMA.c **** * Summary:
 318:Generated_Source\PSoC4/CyDMA.c **** *  Returns the bitwise AND of the interrupt source and the interrupt mask.
 319:Generated_Source\PSoC4/CyDMA.c **** *
 320:Generated_Source\PSoC4/CyDMA.c **** * Parameters:
 321:Generated_Source\PSoC4/CyDMA.c **** *  None.
 322:Generated_Source\PSoC4/CyDMA.c **** *                   
 323:Generated_Source\PSoC4/CyDMA.c **** * Return:
 324:Generated_Source\PSoC4/CyDMA.c **** *  Bitwise AND of the interrupt source and the interrupt mask.
 325:Generated_Source\PSoC4/CyDMA.c **** *
 326:Generated_Source\PSoC4/CyDMA.c **** *******************************************************************************/
 327:Generated_Source\PSoC4/CyDMA.c **** uint32 CyDmaGetInterruptSourceMasked(void)
 328:Generated_Source\PSoC4/CyDMA.c **** {
 329:Generated_Source\PSoC4/CyDMA.c ****     return (CYDMA_INTR_MASKED_REG);
 330:Generated_Source\PSoC4/CyDMA.c **** }
 331:Generated_Source\PSoC4/CyDMA.c **** 
 332:Generated_Source\PSoC4/CyDMA.c **** 
 333:Generated_Source\PSoC4/CyDMA.c **** /*******************************************************************************
 334:Generated_Source\PSoC4/CyDMA.c **** * Function Name: CyDmaSetInterruptCallback
 335:Generated_Source\PSoC4/CyDMA.c **** ********************************************************************************
 336:Generated_Source\PSoC4/CyDMA.c **** *
 337:Generated_Source\PSoC4/CyDMA.c **** * Summary:
 338:Generated_Source\PSoC4/CyDMA.c **** *  Sets a user defined callback function to be called by the DMA interrupt. The
 339:Generated_Source\PSoC4/CyDMA.c **** *  function should contain code to process the interrupt request for the 
 340:Generated_Source\PSoC4/CyDMA.c **** *  associated DMA channel.
 341:Generated_Source\PSoC4/CyDMA.c **** *
 342:Generated_Source\PSoC4/CyDMA.c **** * Parameters:
 343:Generated_Source\PSoC4/CyDMA.c **** *  channel:  Channel used by this function.
 344:Generated_Source\PSoC4/CyDMA.c **** *  callback: Pointer to the user defined callback function.
 345:Generated_Source\PSoC4/CyDMA.c **** *
 346:Generated_Source\PSoC4/CyDMA.c **** * Return:
 347:Generated_Source\PSoC4/CyDMA.c **** *  Pointer to the function previously set for the specified channel. 
 348:Generated_Source\PSoC4/CyDMA.c **** *
 349:Generated_Source\PSoC4/CyDMA.c **** *******************************************************************************/
 350:Generated_Source\PSoC4/CyDMA.c **** cydma_callback_t CyDmaSetInterruptCallback(int32 channel, cydma_callback_t callback)
 351:Generated_Source\PSoC4/CyDMA.c **** {
 352:Generated_Source\PSoC4/CyDMA.c ****     cydma_callback_t prevCallback;
 353:Generated_Source\PSoC4/CyDMA.c **** 
 354:Generated_Source\PSoC4/CyDMA.c ****     CYASSERT((channel >= 0) && (channel < CYDMA_CH_NR));
 355:Generated_Source\PSoC4/CyDMA.c **** 
 356:Generated_Source\PSoC4/CyDMA.c ****     prevCallback = CyDmaInterruptCallback[channel];
 357:Generated_Source\PSoC4/CyDMA.c ****     CyDmaInterruptCallback[channel] = callback;
 358:Generated_Source\PSoC4/CyDMA.c ****     return (prevCallback);
 359:Generated_Source\PSoC4/CyDMA.c **** }
 360:Generated_Source\PSoC4/CyDMA.c **** 
 361:Generated_Source\PSoC4/CyDMA.c **** 
 362:Generated_Source\PSoC4/CyDMA.c **** /*******************************************************************************
 363:Generated_Source\PSoC4/CyDMA.c **** * Function Name: CyDmaGetInterruptCallback
 364:Generated_Source\PSoC4/CyDMA.c **** ********************************************************************************
 365:Generated_Source\PSoC4/CyDMA.c **** *
 366:Generated_Source\PSoC4/CyDMA.c **** * Summary:
 367:Generated_Source\PSoC4/CyDMA.c **** *  Returns the pointer to the interrupt callback function for the specified DMA
 368:Generated_Source\PSoC4/CyDMA.c **** *  channel.
 369:Generated_Source\PSoC4/CyDMA.c **** *
 370:Generated_Source\PSoC4/CyDMA.c **** * Parameters:
 371:Generated_Source\PSoC4/CyDMA.c **** *  channel: Channel used by this function.
 372:Generated_Source\PSoC4/CyDMA.c **** *
ARM GAS  C:\Users\JamesN4\AppData\Local\Temp\ccgbGPCH.s 			page 8


 373:Generated_Source\PSoC4/CyDMA.c **** * Return:
 374:Generated_Source\PSoC4/CyDMA.c **** *  Callback function pointer for the specified channel.
 375:Generated_Source\PSoC4/CyDMA.c **** *
 376:Generated_Source\PSoC4/CyDMA.c **** *******************************************************************************/
 377:Generated_Source\PSoC4/CyDMA.c **** cydma_callback_t CyDmaGetInterruptCallback(int32 channel)
 378:Generated_Source\PSoC4/CyDMA.c **** {
 379:Generated_Source\PSoC4/CyDMA.c ****     CYASSERT((channel >= 0) && (channel < CYDMA_CH_NR));
 380:Generated_Source\PSoC4/CyDMA.c ****     
 381:Generated_Source\PSoC4/CyDMA.c ****     return (CyDmaInterruptCallback[channel]);
 382:Generated_Source\PSoC4/CyDMA.c **** }
 383:Generated_Source\PSoC4/CyDMA.c **** 
 384:Generated_Source\PSoC4/CyDMA.c **** 
 385:Generated_Source\PSoC4/CyDMA.c **** /*******************************************************************************
 386:Generated_Source\PSoC4/CyDMA.c **** * Function Name: CyDmaInterrupt
 387:Generated_Source\PSoC4/CyDMA.c **** ********************************************************************************
 388:Generated_Source\PSoC4/CyDMA.c **** *
 389:Generated_Source\PSoC4/CyDMA.c **** * Summary:
 390:Generated_Source\PSoC4/CyDMA.c **** *  The default ISR for DMA interrupts. The handler checks which DMA channel has
 391:Generated_Source\PSoC4/CyDMA.c **** *  triggered the interrupt and calls the user defined callback function.
 392:Generated_Source\PSoC4/CyDMA.c **** *  The callback function is set using CyDmaSetInteruptCallback() API.
 393:Generated_Source\PSoC4/CyDMA.c **** *
 394:Generated_Source\PSoC4/CyDMA.c **** * Parameters:
 395:Generated_Source\PSoC4/CyDMA.c **** *  None.
 396:Generated_Source\PSoC4/CyDMA.c **** *
 397:Generated_Source\PSoC4/CyDMA.c **** * Return:
 398:Generated_Source\PSoC4/CyDMA.c **** *  None.
 399:Generated_Source\PSoC4/CyDMA.c **** *
 400:Generated_Source\PSoC4/CyDMA.c **** * Side Effects:
 401:Generated_Source\PSoC4/CyDMA.c **** *  This function clears the pending interrupts.
 402:Generated_Source\PSoC4/CyDMA.c **** *
 403:Generated_Source\PSoC4/CyDMA.c **** *******************************************************************************/
 404:Generated_Source\PSoC4/CyDMA.c **** CY_ISR(CyDmaInterrupt)
 405:Generated_Source\PSoC4/CyDMA.c **** {
  28              		.loc 1 405 0
  29              		.cfi_startproc
  30              		@ args = 0, pretend = 0, frame = 0
  31              		@ frame_needed = 0, uses_anonymous_args = 0
  32 0000 70B5     		push	{r4, r5, r6, lr}
  33              		.cfi_def_cfa_offset 16
  34              		.cfi_offset 4, -16
  35              		.cfi_offset 5, -12
  36              		.cfi_offset 6, -8
  37              		.cfi_offset 14, -4
  38              	.LVL0:
 406:Generated_Source\PSoC4/CyDMA.c ****     uint32 intr;
 407:Generated_Source\PSoC4/CyDMA.c ****     uint32 cbIdx = 0u;
 408:Generated_Source\PSoC4/CyDMA.c **** 
 409:Generated_Source\PSoC4/CyDMA.c ****     /* Get interrupt source. */
 410:Generated_Source\PSoC4/CyDMA.c ****     intr = CYDMA_INTR_MASKED_REG;
  39              		.loc 1 410 0
  40 0002 084B     		ldr	r3, .L5
  41 0004 1C68     		ldr	r4, [r3]
  42              	.LVL1:
 411:Generated_Source\PSoC4/CyDMA.c **** 
 412:Generated_Source\PSoC4/CyDMA.c ****     /* Clear pending interrupts. */
 413:Generated_Source\PSoC4/CyDMA.c ****     CYDMA_INTR_REG = intr;
  43              		.loc 1 413 0
ARM GAS  C:\Users\JamesN4\AppData\Local\Temp\ccgbGPCH.s 			page 9


  44 0006 084B     		ldr	r3, .L5+4
  45 0008 1C60     		str	r4, [r3]
 407:Generated_Source\PSoC4/CyDMA.c **** 
  46              		.loc 1 407 0
  47 000a 0025     		movs	r5, #0
 414:Generated_Source\PSoC4/CyDMA.c **** 
 415:Generated_Source\PSoC4/CyDMA.c ****     /* Call user defined callback functions for triggered interrupt sources. */
 416:Generated_Source\PSoC4/CyDMA.c ****     while(0u != intr)
  48              		.loc 1 416 0
  49 000c 07E0     		b	.L2
  50              	.LVL2:
  51              	.L4:
 417:Generated_Source\PSoC4/CyDMA.c ****     {
 418:Generated_Source\PSoC4/CyDMA.c ****         if(0u != (intr & 0x1u))
  52              		.loc 1 418 0
  53 000e E307     		lsls	r3, r4, #31
  54 0010 03D5     		bpl	.L3
 419:Generated_Source\PSoC4/CyDMA.c ****         {
 420:Generated_Source\PSoC4/CyDMA.c ****             CyDmaInterruptCallback[cbIdx]();
  55              		.loc 1 420 0
  56 0012 AB00     		lsls	r3, r5, #2
  57 0014 054A     		ldr	r2, .L5+8
  58 0016 9B58     		ldr	r3, [r3, r2]
  59 0018 9847     		blx	r3
  60              	.LVL3:
  61              	.L3:
 421:Generated_Source\PSoC4/CyDMA.c ****         }
 422:Generated_Source\PSoC4/CyDMA.c ****         intr >>= 1;
  62              		.loc 1 422 0
  63 001a 6408     		lsrs	r4, r4, #1
  64              	.LVL4:
 423:Generated_Source\PSoC4/CyDMA.c ****         ++cbIdx;
  65              		.loc 1 423 0
  66 001c 0135     		adds	r5, r5, #1
  67              	.LVL5:
  68              	.L2:
 416:Generated_Source\PSoC4/CyDMA.c ****     {
  69              		.loc 1 416 0
  70 001e 002C     		cmp	r4, #0
  71 0020 F5D1     		bne	.L4
 424:Generated_Source\PSoC4/CyDMA.c ****     }
 425:Generated_Source\PSoC4/CyDMA.c **** }
  72              		.loc 1 425 0
  73              		@ sp needed
  74              	.LVL6:
  75              	.LVL7:
  76 0022 70BD     		pop	{r4, r5, r6, pc}
  77              	.L6:
  78              		.align	2
  79              	.L5:
  80 0024 FC171040 		.word	1074796540
  81 0028 F0171040 		.word	1074796528
  82 002c 00000000 		.word	.LANCHOR0
  83              		.cfi_endproc
  84              	.LFE15:
  85              		.size	CyDmaInterrupt, .-CyDmaInterrupt
  86              		.section	.text.CyDmaDefaultInterruptCallback,"ax",%progbits
ARM GAS  C:\Users\JamesN4\AppData\Local\Temp\ccgbGPCH.s 			page 10


  87              		.align	2
  88              		.code	16
  89              		.thumb_func
  90              		.type	CyDmaDefaultInterruptCallback, %function
  91              	CyDmaDefaultInterruptCallback:
  92              	.LFB16:
 426:Generated_Source\PSoC4/CyDMA.c **** 
 427:Generated_Source\PSoC4/CyDMA.c **** 
 428:Generated_Source\PSoC4/CyDMA.c **** /*******************************************************************************
 429:Generated_Source\PSoC4/CyDMA.c **** * Function Name: CyDmaDefaultInterruptCallback
 430:Generated_Source\PSoC4/CyDMA.c **** ********************************************************************************
 431:Generated_Source\PSoC4/CyDMA.c **** *
 432:Generated_Source\PSoC4/CyDMA.c **** * Summary:
 433:Generated_Source\PSoC4/CyDMA.c **** *  This function is invoked when the user defined callback function is undefined
 434:Generated_Source\PSoC4/CyDMA.c **** *  for the interrupt source.
 435:Generated_Source\PSoC4/CyDMA.c **** *
 436:Generated_Source\PSoC4/CyDMA.c **** * Parameters:
 437:Generated_Source\PSoC4/CyDMA.c **** *  None.
 438:Generated_Source\PSoC4/CyDMA.c **** *
 439:Generated_Source\PSoC4/CyDMA.c **** * Return:
 440:Generated_Source\PSoC4/CyDMA.c **** *  None.
 441:Generated_Source\PSoC4/CyDMA.c **** *
 442:Generated_Source\PSoC4/CyDMA.c **** *******************************************************************************/
 443:Generated_Source\PSoC4/CyDMA.c **** static void CyDmaDefaultInterruptCallback(void)
 444:Generated_Source\PSoC4/CyDMA.c **** {
  93              		.loc 1 444 0
  94              		.cfi_startproc
  95              		@ args = 0, pretend = 0, frame = 0
  96              		@ frame_needed = 0, uses_anonymous_args = 0
  97 0000 10B5     		push	{r4, lr}
  98              		.cfi_def_cfa_offset 8
  99              		.cfi_offset 4, -8
 100              		.cfi_offset 14, -4
 445:Generated_Source\PSoC4/CyDMA.c ****     /* Halt CPU in debug mode. We get here because there is no user defined
 446:Generated_Source\PSoC4/CyDMA.c ****     * callback function for the interrupt source. You should either set a
 447:Generated_Source\PSoC4/CyDMA.c ****     * callback function or disable generating an interrupt from this
 448:Generated_Source\PSoC4/CyDMA.c ****     * interrupt source.
 449:Generated_Source\PSoC4/CyDMA.c ****     * To set a callback, use the CyDmaSetInterruptCallback() API function.
 450:Generated_Source\PSoC4/CyDMA.c ****     * To disable interrupt generation, write '0' to the corresponding bit
 451:Generated_Source\PSoC4/CyDMA.c ****     * in the interrupt mask by calling CyDmaSetInterruptSourceMask().
 452:Generated_Source\PSoC4/CyDMA.c ****     */
 453:Generated_Source\PSoC4/CyDMA.c ****     CYASSERT(0 != 0);
 101              		.loc 1 453 0
 102 0002 0020     		movs	r0, #0
 103 0004 FFF7FEFF 		bl	CyHalt
 104              	.LVL8:
 454:Generated_Source\PSoC4/CyDMA.c **** }
 105              		.loc 1 454 0
 106              		@ sp needed
 107 0008 10BD     		pop	{r4, pc}
 108              		.cfi_endproc
 109              	.LFE16:
 110              		.size	CyDmaDefaultInterruptCallback, .-CyDmaDefaultInterruptCallback
 111              		.section	.text.CyDmaDisable,"ax",%progbits
 112              		.align	2
 113              		.global	CyDmaDisable
 114              		.code	16
ARM GAS  C:\Users\JamesN4\AppData\Local\Temp\ccgbGPCH.s 			page 11


 115              		.thumb_func
 116              		.type	CyDmaDisable, %function
 117              	CyDmaDisable:
 118              	.LFB2:
  94:Generated_Source\PSoC4/CyDMA.c ****     CYDMA_CTL_REG = (uint32)~CYDMA_ENABLED;
 119              		.loc 1 94 0
 120              		.cfi_startproc
 121              		@ args = 0, pretend = 0, frame = 0
 122              		@ frame_needed = 0, uses_anonymous_args = 0
 123              		@ link register save eliminated.
  95:Generated_Source\PSoC4/CyDMA.c **** }
 124              		.loc 1 95 0
 125 0000 014A     		ldr	r2, .L9
 126 0002 024B     		ldr	r3, .L9+4
 127 0004 1A60     		str	r2, [r3]
  96:Generated_Source\PSoC4/CyDMA.c **** 
 128              		.loc 1 96 0
 129              		@ sp needed
 130 0006 7047     		bx	lr
 131              	.L10:
 132              		.align	2
 133              	.L9:
 134 0008 FFFFFF7F 		.word	2147483647
 135 000c 00101040 		.word	1074794496
 136              		.cfi_endproc
 137              	.LFE2:
 138              		.size	CyDmaDisable, .-CyDmaDisable
 139              		.section	.text.CyDmaGetStatus,"ax",%progbits
 140              		.align	2
 141              		.global	CyDmaGetStatus
 142              		.code	16
 143              		.thumb_func
 144              		.type	CyDmaGetStatus, %function
 145              	CyDmaGetStatus:
 146              	.LFB3:
 122:Generated_Source\PSoC4/CyDMA.c ****     return (CYDMA_STATUS_REG);
 147              		.loc 1 122 0
 148              		.cfi_startproc
 149              		@ args = 0, pretend = 0, frame = 0
 150              		@ frame_needed = 0, uses_anonymous_args = 0
 151              		@ link register save eliminated.
 123:Generated_Source\PSoC4/CyDMA.c **** }
 152              		.loc 1 123 0
 153 0000 014B     		ldr	r3, .L12
 154 0002 1868     		ldr	r0, [r3]
 124:Generated_Source\PSoC4/CyDMA.c **** 
 155              		.loc 1 124 0
 156              		@ sp needed
 157 0004 7047     		bx	lr
 158              	.L13:
 159 0006 C046     		.align	2
 160              	.L12:
 161 0008 10101040 		.word	1074794512
 162              		.cfi_endproc
 163              	.LFE3:
 164              		.size	CyDmaGetStatus, .-CyDmaGetStatus
 165              		.section	.text.CyDmaGetActiveChannels,"ax",%progbits
ARM GAS  C:\Users\JamesN4\AppData\Local\Temp\ccgbGPCH.s 			page 12


 166              		.align	2
 167              		.global	CyDmaGetActiveChannels
 168              		.code	16
 169              		.thumb_func
 170              		.type	CyDmaGetActiveChannels, %function
 171              	CyDmaGetActiveChannels:
 172              	.LFB4:
 143:Generated_Source\PSoC4/CyDMA.c ****     return (CYDMA_STATUS_CH_ACT_REG);
 173              		.loc 1 143 0
 174              		.cfi_startproc
 175              		@ args = 0, pretend = 0, frame = 0
 176              		@ frame_needed = 0, uses_anonymous_args = 0
 177              		@ link register save eliminated.
 144:Generated_Source\PSoC4/CyDMA.c **** }
 178              		.loc 1 144 0
 179 0000 014B     		ldr	r3, .L15
 180 0002 1868     		ldr	r0, [r3]
 145:Generated_Source\PSoC4/CyDMA.c **** 
 181              		.loc 1 145 0
 182              		@ sp needed
 183 0004 7047     		bx	lr
 184              	.L16:
 185 0006 C046     		.align	2
 186              	.L15:
 187 0008 1C101040 		.word	1074794524
 188              		.cfi_endproc
 189              	.LFE4:
 190              		.size	CyDmaGetActiveChannels, .-CyDmaGetActiveChannels
 191              		.section	.text.CyDmaGetActiveSrcAddress,"ax",%progbits
 192              		.align	2
 193              		.global	CyDmaGetActiveSrcAddress
 194              		.code	16
 195              		.thumb_func
 196              		.type	CyDmaGetActiveSrcAddress, %function
 197              	CyDmaGetActiveSrcAddress:
 198              	.LFB5:
 171:Generated_Source\PSoC4/CyDMA.c ****     return ((void *)CYDMA_STATUS_SRC_ADDR_REG);
 199              		.loc 1 171 0
 200              		.cfi_startproc
 201              		@ args = 0, pretend = 0, frame = 0
 202              		@ frame_needed = 0, uses_anonymous_args = 0
 203              		@ link register save eliminated.
 172:Generated_Source\PSoC4/CyDMA.c **** }
 204              		.loc 1 172 0
 205 0000 014B     		ldr	r3, .L18
 206 0002 1868     		ldr	r0, [r3]
 173:Generated_Source\PSoC4/CyDMA.c **** 
 207              		.loc 1 173 0
 208              		@ sp needed
 209 0004 7047     		bx	lr
 210              	.L19:
 211 0006 C046     		.align	2
 212              	.L18:
 213 0008 14101040 		.word	1074794516
 214              		.cfi_endproc
 215              	.LFE5:
 216              		.size	CyDmaGetActiveSrcAddress, .-CyDmaGetActiveSrcAddress
ARM GAS  C:\Users\JamesN4\AppData\Local\Temp\ccgbGPCH.s 			page 13


 217              		.section	.text.CyDmaGetActiveDstAddress,"ax",%progbits
 218              		.align	2
 219              		.global	CyDmaGetActiveDstAddress
 220              		.code	16
 221              		.thumb_func
 222              		.type	CyDmaGetActiveDstAddress, %function
 223              	CyDmaGetActiveDstAddress:
 224              	.LFB6:
 199:Generated_Source\PSoC4/CyDMA.c ****     return ((void *)CYDMA_STATUS_DST_ADDR_REG);
 225              		.loc 1 199 0
 226              		.cfi_startproc
 227              		@ args = 0, pretend = 0, frame = 0
 228              		@ frame_needed = 0, uses_anonymous_args = 0
 229              		@ link register save eliminated.
 200:Generated_Source\PSoC4/CyDMA.c **** }
 230              		.loc 1 200 0
 231 0000 014B     		ldr	r3, .L21
 232 0002 1868     		ldr	r0, [r3]
 201:Generated_Source\PSoC4/CyDMA.c **** 
 233              		.loc 1 201 0
 234              		@ sp needed
 235 0004 7047     		bx	lr
 236              	.L22:
 237 0006 C046     		.align	2
 238              	.L21:
 239 0008 18101040 		.word	1074794520
 240              		.cfi_endproc
 241              	.LFE6:
 242              		.size	CyDmaGetActiveDstAddress, .-CyDmaGetActiveDstAddress
 243              		.section	.text.CyDmaSetInterruptVector,"ax",%progbits
 244              		.align	2
 245              		.global	CyDmaSetInterruptVector
 246              		.code	16
 247              		.thumb_func
 248              		.type	CyDmaSetInterruptVector, %function
 249              	CyDmaSetInterruptVector:
 250              	.LFB7:
 228:Generated_Source\PSoC4/CyDMA.c ****     (void)CyIntSetVector(CYDMA_INTR_NUMBER, interruptVector);
 251              		.loc 1 228 0
 252              		.cfi_startproc
 253              		@ args = 0, pretend = 0, frame = 0
 254              		@ frame_needed = 0, uses_anonymous_args = 0
 255              	.LVL9:
 256 0000 10B5     		push	{r4, lr}
 257              		.cfi_def_cfa_offset 8
 258              		.cfi_offset 4, -8
 259              		.cfi_offset 14, -4
 260 0002 0100     		movs	r1, r0
 229:Generated_Source\PSoC4/CyDMA.c **** }
 261              		.loc 1 229 0
 262 0004 0D20     		movs	r0, #13
 263              	.LVL10:
 264 0006 FFF7FEFF 		bl	CyIntSetVector
 265              	.LVL11:
 230:Generated_Source\PSoC4/CyDMA.c **** 
 266              		.loc 1 230 0
 267              		@ sp needed
ARM GAS  C:\Users\JamesN4\AppData\Local\Temp\ccgbGPCH.s 			page 14


 268 000a 10BD     		pop	{r4, pc}
 269              		.cfi_endproc
 270              	.LFE7:
 271              		.size	CyDmaSetInterruptVector, .-CyDmaSetInterruptVector
 272              		.section	.text.CyDmaEnable,"ax",%progbits
 273              		.align	2
 274              		.global	CyDmaEnable
 275              		.code	16
 276              		.thumb_func
 277              		.type	CyDmaEnable, %function
 278              	CyDmaEnable:
 279              	.LFB1:
  63:Generated_Source\PSoC4/CyDMA.c ****     static uint8 initIntrVector = 0u;
 280              		.loc 1 63 0
 281              		.cfi_startproc
 282              		@ args = 0, pretend = 0, frame = 0
 283              		@ frame_needed = 0, uses_anonymous_args = 0
 284 0000 10B5     		push	{r4, lr}
 285              		.cfi_def_cfa_offset 8
 286              		.cfi_offset 4, -8
 287              		.cfi_offset 14, -4
  66:Generated_Source\PSoC4/CyDMA.c ****     {
 288              		.loc 1 66 0
 289 0002 094B     		ldr	r3, .L26
 290 0004 1B78     		ldrb	r3, [r3]
 291 0006 002B     		cmp	r3, #0
 292 0008 09D1     		bne	.L25
  68:Generated_Source\PSoC4/CyDMA.c ****         CyIntSetPriority(CYDMA_INTR_NUMBER, CYDMA_INTR_PRIO);
 293              		.loc 1 68 0
 294 000a 0848     		ldr	r0, .L26+4
 295 000c FFF7FEFF 		bl	CyDmaSetInterruptVector
 296              	.LVL12:
  69:Generated_Source\PSoC4/CyDMA.c ****         initIntrVector = 1u;
 297              		.loc 1 69 0
 298 0010 0321     		movs	r1, #3
 299 0012 0D20     		movs	r0, #13
 300 0014 FFF7FEFF 		bl	CyIntSetPriority
 301              	.LVL13:
  70:Generated_Source\PSoC4/CyDMA.c ****     }
 302              		.loc 1 70 0
 303 0018 0122     		movs	r2, #1
 304 001a 034B     		ldr	r3, .L26
 305 001c 1A70     		strb	r2, [r3]
 306              	.L25:
  72:Generated_Source\PSoC4/CyDMA.c **** }
 307              		.loc 1 72 0
 308 001e 8022     		movs	r2, #128
 309 0020 1206     		lsls	r2, r2, #24
 310 0022 034B     		ldr	r3, .L26+8
 311 0024 1A60     		str	r2, [r3]
  73:Generated_Source\PSoC4/CyDMA.c **** 
 312              		.loc 1 73 0
 313              		@ sp needed
 314 0026 10BD     		pop	{r4, pc}
 315              	.L27:
 316              		.align	2
 317              	.L26:
ARM GAS  C:\Users\JamesN4\AppData\Local\Temp\ccgbGPCH.s 			page 15


 318 0028 00000000 		.word	.LANCHOR1
 319 002c 00000000 		.word	CyDmaInterrupt
 320 0030 00101040 		.word	1074794496
 321              		.cfi_endproc
 322              	.LFE1:
 323              		.size	CyDmaEnable, .-CyDmaEnable
 324              		.section	.text.CyDmaGetInterruptSource,"ax",%progbits
 325              		.align	2
 326              		.global	CyDmaGetInterruptSource
 327              		.code	16
 328              		.thumb_func
 329              		.type	CyDmaGetInterruptSource, %function
 330              	CyDmaGetInterruptSource:
 331              	.LFB8:
 248:Generated_Source\PSoC4/CyDMA.c ****     return (CYDMA_INTR_REG);
 332              		.loc 1 248 0
 333              		.cfi_startproc
 334              		@ args = 0, pretend = 0, frame = 0
 335              		@ frame_needed = 0, uses_anonymous_args = 0
 336              		@ link register save eliminated.
 249:Generated_Source\PSoC4/CyDMA.c **** }
 337              		.loc 1 249 0
 338 0000 014B     		ldr	r3, .L29
 339 0002 1868     		ldr	r0, [r3]
 250:Generated_Source\PSoC4/CyDMA.c **** 
 340              		.loc 1 250 0
 341              		@ sp needed
 342 0004 7047     		bx	lr
 343              	.L30:
 344 0006 C046     		.align	2
 345              	.L29:
 346 0008 F0171040 		.word	1074796528
 347              		.cfi_endproc
 348              	.LFE8:
 349              		.size	CyDmaGetInterruptSource, .-CyDmaGetInterruptSource
 350              		.section	.text.CyDmaClearInterruptSource,"ax",%progbits
 351              		.align	2
 352              		.global	CyDmaClearInterruptSource
 353              		.code	16
 354              		.thumb_func
 355              		.type	CyDmaClearInterruptSource, %function
 356              	CyDmaClearInterruptSource:
 357              	.LFB9:
 268:Generated_Source\PSoC4/CyDMA.c ****     CYDMA_INTR_REG = interruptMask;
 358              		.loc 1 268 0
 359              		.cfi_startproc
 360              		@ args = 0, pretend = 0, frame = 0
 361              		@ frame_needed = 0, uses_anonymous_args = 0
 362              		@ link register save eliminated.
 363              	.LVL14:
 269:Generated_Source\PSoC4/CyDMA.c **** }
 364              		.loc 1 269 0
 365 0000 014B     		ldr	r3, .L32
 366 0002 1860     		str	r0, [r3]
 270:Generated_Source\PSoC4/CyDMA.c **** 
 367              		.loc 1 270 0
 368              		@ sp needed
ARM GAS  C:\Users\JamesN4\AppData\Local\Temp\ccgbGPCH.s 			page 16


 369 0004 7047     		bx	lr
 370              	.L33:
 371 0006 C046     		.align	2
 372              	.L32:
 373 0008 F0171040 		.word	1074796528
 374              		.cfi_endproc
 375              	.LFE9:
 376              		.size	CyDmaClearInterruptSource, .-CyDmaClearInterruptSource
 377              		.section	.text.CyDmaSetInterruptSourceMask,"ax",%progbits
 378              		.align	2
 379              		.global	CyDmaSetInterruptSourceMask
 380              		.code	16
 381              		.thumb_func
 382              		.type	CyDmaSetInterruptSourceMask, %function
 383              	CyDmaSetInterruptSourceMask:
 384              	.LFB10:
 288:Generated_Source\PSoC4/CyDMA.c ****     CYDMA_INTR_MASK_REG = interruptMask;
 385              		.loc 1 288 0
 386              		.cfi_startproc
 387              		@ args = 0, pretend = 0, frame = 0
 388              		@ frame_needed = 0, uses_anonymous_args = 0
 389              		@ link register save eliminated.
 390              	.LVL15:
 289:Generated_Source\PSoC4/CyDMA.c **** }
 391              		.loc 1 289 0
 392 0000 014B     		ldr	r3, .L35
 393 0002 1860     		str	r0, [r3]
 290:Generated_Source\PSoC4/CyDMA.c **** 
 394              		.loc 1 290 0
 395              		@ sp needed
 396 0004 7047     		bx	lr
 397              	.L36:
 398 0006 C046     		.align	2
 399              	.L35:
 400 0008 F8171040 		.word	1074796536
 401              		.cfi_endproc
 402              	.LFE10:
 403              		.size	CyDmaSetInterruptSourceMask, .-CyDmaSetInterruptSourceMask
 404              		.section	.text.CyDmaGetInterruptSourceMask,"ax",%progbits
 405              		.align	2
 406              		.global	CyDmaGetInterruptSourceMask
 407              		.code	16
 408              		.thumb_func
 409              		.type	CyDmaGetInterruptSourceMask, %function
 410              	CyDmaGetInterruptSourceMask:
 411              	.LFB11:
 308:Generated_Source\PSoC4/CyDMA.c ****     return (CYDMA_INTR_MASK_REG);
 412              		.loc 1 308 0
 413              		.cfi_startproc
 414              		@ args = 0, pretend = 0, frame = 0
 415              		@ frame_needed = 0, uses_anonymous_args = 0
 416              		@ link register save eliminated.
 309:Generated_Source\PSoC4/CyDMA.c **** }
 417              		.loc 1 309 0
 418 0000 014B     		ldr	r3, .L38
 419 0002 1868     		ldr	r0, [r3]
 310:Generated_Source\PSoC4/CyDMA.c **** 
ARM GAS  C:\Users\JamesN4\AppData\Local\Temp\ccgbGPCH.s 			page 17


 420              		.loc 1 310 0
 421              		@ sp needed
 422 0004 7047     		bx	lr
 423              	.L39:
 424 0006 C046     		.align	2
 425              	.L38:
 426 0008 F8171040 		.word	1074796536
 427              		.cfi_endproc
 428              	.LFE11:
 429              		.size	CyDmaGetInterruptSourceMask, .-CyDmaGetInterruptSourceMask
 430              		.section	.text.CyDmaGetInterruptSourceMasked,"ax",%progbits
 431              		.align	2
 432              		.global	CyDmaGetInterruptSourceMasked
 433              		.code	16
 434              		.thumb_func
 435              		.type	CyDmaGetInterruptSourceMasked, %function
 436              	CyDmaGetInterruptSourceMasked:
 437              	.LFB12:
 328:Generated_Source\PSoC4/CyDMA.c ****     return (CYDMA_INTR_MASKED_REG);
 438              		.loc 1 328 0
 439              		.cfi_startproc
 440              		@ args = 0, pretend = 0, frame = 0
 441              		@ frame_needed = 0, uses_anonymous_args = 0
 442              		@ link register save eliminated.
 329:Generated_Source\PSoC4/CyDMA.c **** }
 443              		.loc 1 329 0
 444 0000 014B     		ldr	r3, .L41
 445 0002 1868     		ldr	r0, [r3]
 330:Generated_Source\PSoC4/CyDMA.c **** 
 446              		.loc 1 330 0
 447              		@ sp needed
 448 0004 7047     		bx	lr
 449              	.L42:
 450 0006 C046     		.align	2
 451              	.L41:
 452 0008 FC171040 		.word	1074796540
 453              		.cfi_endproc
 454              	.LFE12:
 455              		.size	CyDmaGetInterruptSourceMasked, .-CyDmaGetInterruptSourceMasked
 456              		.section	.text.CyDmaSetInterruptCallback,"ax",%progbits
 457              		.align	2
 458              		.global	CyDmaSetInterruptCallback
 459              		.code	16
 460              		.thumb_func
 461              		.type	CyDmaSetInterruptCallback, %function
 462              	CyDmaSetInterruptCallback:
 463              	.LFB13:
 351:Generated_Source\PSoC4/CyDMA.c ****     cydma_callback_t prevCallback;
 464              		.loc 1 351 0
 465              		.cfi_startproc
 466              		@ args = 0, pretend = 0, frame = 0
 467              		@ frame_needed = 0, uses_anonymous_args = 0
 468              	.LVL16:
 469 0000 70B5     		push	{r4, r5, r6, lr}
 470              		.cfi_def_cfa_offset 16
 471              		.cfi_offset 4, -16
 472              		.cfi_offset 5, -12
ARM GAS  C:\Users\JamesN4\AppData\Local\Temp\ccgbGPCH.s 			page 18


 473              		.cfi_offset 6, -8
 474              		.cfi_offset 14, -4
 475 0002 0400     		movs	r4, r0
 476 0004 0D00     		movs	r5, r1
 354:Generated_Source\PSoC4/CyDMA.c **** 
 477              		.loc 1 354 0
 478 0006 0728     		cmp	r0, #7
 479 0008 02D9     		bls	.L44
 354:Generated_Source\PSoC4/CyDMA.c **** 
 480              		.loc 1 354 0 is_stmt 0 discriminator 1
 481 000a 0020     		movs	r0, #0
 482              	.LVL17:
 483 000c FFF7FEFF 		bl	CyHalt
 484              	.LVL18:
 485              	.L44:
 356:Generated_Source\PSoC4/CyDMA.c ****     CyDmaInterruptCallback[channel] = callback;
 486              		.loc 1 356 0 is_stmt 1
 487 0010 024B     		ldr	r3, .L45
 488 0012 A400     		lsls	r4, r4, #2
 489              	.LVL19:
 490 0014 E058     		ldr	r0, [r4, r3]
 491              	.LVL20:
 357:Generated_Source\PSoC4/CyDMA.c ****     return (prevCallback);
 492              		.loc 1 357 0
 493 0016 E550     		str	r5, [r4, r3]
 359:Generated_Source\PSoC4/CyDMA.c **** 
 494              		.loc 1 359 0
 495              		@ sp needed
 496              	.LVL21:
 497 0018 70BD     		pop	{r4, r5, r6, pc}
 498              	.L46:
 499 001a C046     		.align	2
 500              	.L45:
 501 001c 00000000 		.word	.LANCHOR0
 502              		.cfi_endproc
 503              	.LFE13:
 504              		.size	CyDmaSetInterruptCallback, .-CyDmaSetInterruptCallback
 505              		.section	.text.CyDmaGetInterruptCallback,"ax",%progbits
 506              		.align	2
 507              		.global	CyDmaGetInterruptCallback
 508              		.code	16
 509              		.thumb_func
 510              		.type	CyDmaGetInterruptCallback, %function
 511              	CyDmaGetInterruptCallback:
 512              	.LFB14:
 378:Generated_Source\PSoC4/CyDMA.c ****     CYASSERT((channel >= 0) && (channel < CYDMA_CH_NR));
 513              		.loc 1 378 0
 514              		.cfi_startproc
 515              		@ args = 0, pretend = 0, frame = 0
 516              		@ frame_needed = 0, uses_anonymous_args = 0
 517              	.LVL22:
 518 0000 10B5     		push	{r4, lr}
 519              		.cfi_def_cfa_offset 8
 520              		.cfi_offset 4, -8
 521              		.cfi_offset 14, -4
 522 0002 0400     		movs	r4, r0
 379:Generated_Source\PSoC4/CyDMA.c ****     
ARM GAS  C:\Users\JamesN4\AppData\Local\Temp\ccgbGPCH.s 			page 19


 523              		.loc 1 379 0
 524 0004 0728     		cmp	r0, #7
 525 0006 02D9     		bls	.L48
 379:Generated_Source\PSoC4/CyDMA.c ****     
 526              		.loc 1 379 0 is_stmt 0 discriminator 1
 527 0008 0020     		movs	r0, #0
 528              	.LVL23:
 529 000a FFF7FEFF 		bl	CyHalt
 530              	.LVL24:
 531              	.L48:
 381:Generated_Source\PSoC4/CyDMA.c **** }
 532              		.loc 1 381 0 is_stmt 1
 533 000e A400     		lsls	r4, r4, #2
 534              	.LVL25:
 535 0010 014B     		ldr	r3, .L49
 536 0012 E058     		ldr	r0, [r4, r3]
 382:Generated_Source\PSoC4/CyDMA.c **** 
 537              		.loc 1 382 0
 538              		@ sp needed
 539 0014 10BD     		pop	{r4, pc}
 540              	.L50:
 541 0016 C046     		.align	2
 542              	.L49:
 543 0018 00000000 		.word	.LANCHOR0
 544              		.cfi_endproc
 545              	.LFE14:
 546              		.size	CyDmaGetInterruptCallback, .-CyDmaGetInterruptCallback
 547              		.section	.text.CyDmaChAlloc,"ax",%progbits
 548              		.align	2
 549              		.global	CyDmaChAlloc
 550              		.code	16
 551              		.thumb_func
 552              		.type	CyDmaChAlloc, %function
 553              	CyDmaChAlloc:
 554              	.LFB17:
 455:Generated_Source\PSoC4/CyDMA.c **** 
 456:Generated_Source\PSoC4/CyDMA.c **** 
 457:Generated_Source\PSoC4/CyDMA.c **** /*******************************************************************************
 458:Generated_Source\PSoC4/CyDMA.c **** * Function Name: CyDmaChAlloc
 459:Generated_Source\PSoC4/CyDMA.c **** ********************************************************************************
 460:Generated_Source\PSoC4/CyDMA.c **** *
 461:Generated_Source\PSoC4/CyDMA.c **** * Summary:
 462:Generated_Source\PSoC4/CyDMA.c **** *  Allocates a channel number to use with later DMA functions.
 463:Generated_Source\PSoC4/CyDMA.c **** *
 464:Generated_Source\PSoC4/CyDMA.c **** * Parameters:
 465:Generated_Source\PSoC4/CyDMA.c **** *  None.
 466:Generated_Source\PSoC4/CyDMA.c **** *                   
 467:Generated_Source\PSoC4/CyDMA.c **** * Return:
 468:Generated_Source\PSoC4/CyDMA.c **** *  The allocated channel number. Zero is a valid channel number.
 469:Generated_Source\PSoC4/CyDMA.c **** *  CYDMA_INVALID_CHANNEL is returned if there are no channels available.
 470:Generated_Source\PSoC4/CyDMA.c **** *
 471:Generated_Source\PSoC4/CyDMA.c **** *******************************************************************************/
 472:Generated_Source\PSoC4/CyDMA.c **** int32 CyDmaChAlloc(void)
 473:Generated_Source\PSoC4/CyDMA.c **** {
 555              		.loc 1 473 0
 556              		.cfi_startproc
 557              		@ args = 0, pretend = 0, frame = 0
ARM GAS  C:\Users\JamesN4\AppData\Local\Temp\ccgbGPCH.s 			page 20


 558              		@ frame_needed = 0, uses_anonymous_args = 0
 559              		@ link register save eliminated.
 560              	.LVL26:
 474:Generated_Source\PSoC4/CyDMA.c ****     int32  channel = CYDMA_CH_NR-1;
 475:Generated_Source\PSoC4/CyDMA.c ****     uint32 channelMask = (uint32)(1UL << (CYDMA_CH_NR-1));
 561              		.loc 1 475 0
 562 0000 8023     		movs	r3, #128
 474:Generated_Source\PSoC4/CyDMA.c ****     int32  channel = CYDMA_CH_NR-1;
 563              		.loc 1 474 0
 564 0002 0720     		movs	r0, #7
 476:Generated_Source\PSoC4/CyDMA.c ****     
 477:Generated_Source\PSoC4/CyDMA.c ****     while (channel >= 0)
 565              		.loc 1 477 0
 566 0004 09E0     		b	.L52
 567              	.LVL27:
 568              	.L55:
 478:Generated_Source\PSoC4/CyDMA.c ****     {
 479:Generated_Source\PSoC4/CyDMA.c ****         if(0u == (CyDmaChannelUsedMask & channelMask))
 569              		.loc 1 479 0
 570 0006 064A     		ldr	r2, .L56
 571 0008 5268     		ldr	r2, [r2, #4]
 572 000a 1A42     		tst	r2, r3
 573 000c 03D1     		bne	.L53
 480:Generated_Source\PSoC4/CyDMA.c ****         {
 481:Generated_Source\PSoC4/CyDMA.c ****             /* Mark channel as used and exit loop. */ 
 482:Generated_Source\PSoC4/CyDMA.c ****             CyDmaChannelUsedMask |= channelMask;
 574              		.loc 1 482 0
 575 000e 1343     		orrs	r3, r2
 576              	.LVL28:
 577 0010 034A     		ldr	r2, .L56
 578 0012 5360     		str	r3, [r2, #4]
 483:Generated_Source\PSoC4/CyDMA.c ****             break;
 579              		.loc 1 483 0
 580 0014 03E0     		b	.L54
 581              	.LVL29:
 582              	.L53:
 484:Generated_Source\PSoC4/CyDMA.c ****         }
 485:Generated_Source\PSoC4/CyDMA.c ****         channelMask >>= 1;
 583              		.loc 1 485 0
 584 0016 5B08     		lsrs	r3, r3, #1
 585              	.LVL30:
 486:Generated_Source\PSoC4/CyDMA.c ****         --channel;
 586              		.loc 1 486 0
 587 0018 0138     		subs	r0, r0, #1
 588              	.LVL31:
 589              	.L52:
 477:Generated_Source\PSoC4/CyDMA.c ****     {
 590              		.loc 1 477 0
 591 001a 0028     		cmp	r0, #0
 592 001c F3DA     		bge	.L55
 593              	.LVL32:
 594              	.L54:
 487:Generated_Source\PSoC4/CyDMA.c ****     }
 488:Generated_Source\PSoC4/CyDMA.c ****     return (channel);
 489:Generated_Source\PSoC4/CyDMA.c **** }
 595              		.loc 1 489 0
 596              		@ sp needed
ARM GAS  C:\Users\JamesN4\AppData\Local\Temp\ccgbGPCH.s 			page 21


 597 001e 7047     		bx	lr
 598              	.L57:
 599              		.align	2
 600              	.L56:
 601 0020 00000000 		.word	.LANCHOR1
 602              		.cfi_endproc
 603              	.LFE17:
 604              		.size	CyDmaChAlloc, .-CyDmaChAlloc
 605              		.section	.text.CyDmaChFree,"ax",%progbits
 606              		.align	2
 607              		.global	CyDmaChFree
 608              		.code	16
 609              		.thumb_func
 610              		.type	CyDmaChFree, %function
 611              	CyDmaChFree:
 612              	.LFB18:
 490:Generated_Source\PSoC4/CyDMA.c **** 
 491:Generated_Source\PSoC4/CyDMA.c **** 
 492:Generated_Source\PSoC4/CyDMA.c **** /*******************************************************************************
 493:Generated_Source\PSoC4/CyDMA.c **** * Function Name: CyDmaChFree
 494:Generated_Source\PSoC4/CyDMA.c **** ********************************************************************************
 495:Generated_Source\PSoC4/CyDMA.c **** *
 496:Generated_Source\PSoC4/CyDMA.c **** * Summary:
 497:Generated_Source\PSoC4/CyDMA.c **** *  Frees a channel handle allocated by CyDmaChAlloc(). Channels allocated for
 498:Generated_Source\PSoC4/CyDMA.c **** *  DMA instances placed on a schematic cannot be freed.
 499:Generated_Source\PSoC4/CyDMA.c **** *
 500:Generated_Source\PSoC4/CyDMA.c **** * Parameters:
 501:Generated_Source\PSoC4/CyDMA.c **** *  channel: The handle previously returned by CyDmaChAlloc().
 502:Generated_Source\PSoC4/CyDMA.c **** *                   
 503:Generated_Source\PSoC4/CyDMA.c **** * Return:
 504:Generated_Source\PSoC4/CyDMA.c **** *  CYRET_SUCCESS if successful.
 505:Generated_Source\PSoC4/CyDMA.c **** *  CYRET_BAD_PARAM if channel is invalid.
 506:Generated_Source\PSoC4/CyDMA.c **** *
 507:Generated_Source\PSoC4/CyDMA.c **** *******************************************************************************/
 508:Generated_Source\PSoC4/CyDMA.c **** cystatus CyDmaChFree(int32 channel)
 509:Generated_Source\PSoC4/CyDMA.c **** {
 613              		.loc 1 509 0
 614              		.cfi_startproc
 615              		@ args = 0, pretend = 0, frame = 0
 616              		@ frame_needed = 0, uses_anonymous_args = 0
 617              	.LVL33:
 618 0000 10B5     		push	{r4, lr}
 619              		.cfi_def_cfa_offset 8
 620              		.cfi_offset 4, -8
 621              		.cfi_offset 14, -4
 622 0002 0400     		movs	r4, r0
 623              	.LVL34:
 510:Generated_Source\PSoC4/CyDMA.c ****     uint32   channelMask;
 511:Generated_Source\PSoC4/CyDMA.c ****     cystatus result = CYRET_BAD_PARAM;
 512:Generated_Source\PSoC4/CyDMA.c **** 
 513:Generated_Source\PSoC4/CyDMA.c ****     CYASSERT((channel >= 0) && (channel < CYDMA_CH_NR));
 624              		.loc 1 513 0
 625 0004 0728     		cmp	r0, #7
 626 0006 02D9     		bls	.L59
 627              		.loc 1 513 0 is_stmt 0 discriminator 1
 628 0008 0020     		movs	r0, #0
 629              	.LVL35:
ARM GAS  C:\Users\JamesN4\AppData\Local\Temp\ccgbGPCH.s 			page 22


 630 000a FFF7FEFF 		bl	CyHalt
 631              	.LVL36:
 632              	.L59:
 514:Generated_Source\PSoC4/CyDMA.c ****     
 515:Generated_Source\PSoC4/CyDMA.c ****     channelMask = (uint32)(1UL << channel);
 633              		.loc 1 515 0 is_stmt 1
 634 000e 0123     		movs	r3, #1
 635 0010 A340     		lsls	r3, r3, r4
 636              	.LVL37:
 516:Generated_Source\PSoC4/CyDMA.c **** 
 517:Generated_Source\PSoC4/CyDMA.c ****     /* Check against attempt to free channel allocated for DMA instance
 518:Generated_Source\PSoC4/CyDMA.c ****     * placed on schematic.
 519:Generated_Source\PSoC4/CyDMA.c ****     */
 520:Generated_Source\PSoC4/CyDMA.c ****     if(0u == (channelMask & DMA_CHANNELS_USED__MASK))
 521:Generated_Source\PSoC4/CyDMA.c ****     {
 522:Generated_Source\PSoC4/CyDMA.c ****         CyDmaChannelUsedMask &= (uint32)~channelMask;
 637              		.loc 1 522 0
 638 0012 034A     		ldr	r2, .L60
 639 0014 5168     		ldr	r1, [r2, #4]
 640 0016 9943     		bics	r1, r3
 641 0018 5160     		str	r1, [r2, #4]
 642              	.LVL38:
 523:Generated_Source\PSoC4/CyDMA.c ****         result = CYRET_SUCCESS;
 524:Generated_Source\PSoC4/CyDMA.c ****     }
 525:Generated_Source\PSoC4/CyDMA.c ****     
 526:Generated_Source\PSoC4/CyDMA.c ****     return (result);
 527:Generated_Source\PSoC4/CyDMA.c **** }
 643              		.loc 1 527 0
 644 001a 0020     		movs	r0, #0
 645              		@ sp needed
 646              	.LVL39:
 647 001c 10BD     		pop	{r4, pc}
 648              	.L61:
 649 001e C046     		.align	2
 650              	.L60:
 651 0020 00000000 		.word	.LANCHOR1
 652              		.cfi_endproc
 653              	.LFE18:
 654              		.size	CyDmaChFree, .-CyDmaChFree
 655              		.section	.text.CyDmaChEnable,"ax",%progbits
 656              		.align	2
 657              		.global	CyDmaChEnable
 658              		.code	16
 659              		.thumb_func
 660              		.type	CyDmaChEnable, %function
 661              	CyDmaChEnable:
 662              	.LFB19:
 528:Generated_Source\PSoC4/CyDMA.c **** 
 529:Generated_Source\PSoC4/CyDMA.c **** 
 530:Generated_Source\PSoC4/CyDMA.c **** /*******************************************************************************
 531:Generated_Source\PSoC4/CyDMA.c **** * Function Name: CyDmaChEnable
 532:Generated_Source\PSoC4/CyDMA.c **** ********************************************************************************
 533:Generated_Source\PSoC4/CyDMA.c **** *
 534:Generated_Source\PSoC4/CyDMA.c **** * Summary:
 535:Generated_Source\PSoC4/CyDMA.c **** *  Enables the DMA channel.
 536:Generated_Source\PSoC4/CyDMA.c **** *
 537:Generated_Source\PSoC4/CyDMA.c **** * Parameters:
ARM GAS  C:\Users\JamesN4\AppData\Local\Temp\ccgbGPCH.s 			page 23


 538:Generated_Source\PSoC4/CyDMA.c **** *  channel: Channel used by this function.
 539:Generated_Source\PSoC4/CyDMA.c **** *                   
 540:Generated_Source\PSoC4/CyDMA.c **** * Return:
 541:Generated_Source\PSoC4/CyDMA.c **** *  None.
 542:Generated_Source\PSoC4/CyDMA.c **** *
 543:Generated_Source\PSoC4/CyDMA.c **** * Side effect:
 544:Generated_Source\PSoC4/CyDMA.c **** *  If this function is called before CyDmaSetConfiguration(), and
 545:Generated_Source\PSoC4/CyDMA.c **** *  CyDmaSetSrcAddress() and CyDmaSetDstAddress(), the operation of
 546:Generated_Source\PSoC4/CyDMA.c **** *  the DMA is undefined and could result in system data corruption. 
 547:Generated_Source\PSoC4/CyDMA.c **** *
 548:Generated_Source\PSoC4/CyDMA.c **** *******************************************************************************/
 549:Generated_Source\PSoC4/CyDMA.c **** void CyDmaChEnable(int32 channel)
 550:Generated_Source\PSoC4/CyDMA.c **** {
 663              		.loc 1 550 0
 664              		.cfi_startproc
 665              		@ args = 0, pretend = 0, frame = 0
 666              		@ frame_needed = 0, uses_anonymous_args = 0
 667              	.LVL40:
 668 0000 10B5     		push	{r4, lr}
 669              		.cfi_def_cfa_offset 8
 670              		.cfi_offset 4, -8
 671              		.cfi_offset 14, -4
 672 0002 0400     		movs	r4, r0
 551:Generated_Source\PSoC4/CyDMA.c ****     CYASSERT((channel >= 0) && (channel < CYDMA_CH_NR));
 673              		.loc 1 551 0
 674 0004 0728     		cmp	r0, #7
 675 0006 02D9     		bls	.L63
 676              		.loc 1 551 0 is_stmt 0 discriminator 1
 677 0008 0020     		movs	r0, #0
 678              	.LVL41:
 679 000a FFF7FEFF 		bl	CyHalt
 680              	.LVL42:
 681              	.L63:
 552:Generated_Source\PSoC4/CyDMA.c **** 
 553:Generated_Source\PSoC4/CyDMA.c ****     CYDMA_CH_CTL_BASE.ctl[channel] |= CYDMA_ENABLED;
 682              		.loc 1 553 0 is_stmt 1
 683 000e 044A     		ldr	r2, .L64
 684 0010 A400     		lsls	r4, r4, #2
 685              	.LVL43:
 686 0012 A358     		ldr	r3, [r4, r2]
 687 0014 8021     		movs	r1, #128
 688 0016 0906     		lsls	r1, r1, #24
 689 0018 0B43     		orrs	r3, r1
 690 001a A350     		str	r3, [r4, r2]
 554:Generated_Source\PSoC4/CyDMA.c **** }
 691              		.loc 1 554 0
 692              		@ sp needed
 693 001c 10BD     		pop	{r4, pc}
 694              	.L65:
 695 001e C046     		.align	2
 696              	.L64:
 697 0020 80101040 		.word	1074794624
 698              		.cfi_endproc
 699              	.LFE19:
 700              		.size	CyDmaChEnable, .-CyDmaChEnable
 701              		.section	.text.CyDmaChDisable,"ax",%progbits
 702              		.align	2
ARM GAS  C:\Users\JamesN4\AppData\Local\Temp\ccgbGPCH.s 			page 24


 703              		.global	CyDmaChDisable
 704              		.code	16
 705              		.thumb_func
 706              		.type	CyDmaChDisable, %function
 707              	CyDmaChDisable:
 708              	.LFB20:
 555:Generated_Source\PSoC4/CyDMA.c **** 
 556:Generated_Source\PSoC4/CyDMA.c **** 
 557:Generated_Source\PSoC4/CyDMA.c **** /*******************************************************************************
 558:Generated_Source\PSoC4/CyDMA.c **** * Function Name: CyDmaChDisable
 559:Generated_Source\PSoC4/CyDMA.c **** ********************************************************************************
 560:Generated_Source\PSoC4/CyDMA.c **** *
 561:Generated_Source\PSoC4/CyDMA.c **** * Summary:
 562:Generated_Source\PSoC4/CyDMA.c **** *  Disables the DMA channel.
 563:Generated_Source\PSoC4/CyDMA.c **** *
 564:Generated_Source\PSoC4/CyDMA.c **** * Parameters:
 565:Generated_Source\PSoC4/CyDMA.c **** *  channel: Channel used by this function.
 566:Generated_Source\PSoC4/CyDMA.c **** *                   
 567:Generated_Source\PSoC4/CyDMA.c **** * Return:
 568:Generated_Source\PSoC4/CyDMA.c **** *  None.
 569:Generated_Source\PSoC4/CyDMA.c **** *
 570:Generated_Source\PSoC4/CyDMA.c **** * Side effect:
 571:Generated_Source\PSoC4/CyDMA.c **** *  If this function is called during a DMA transfer the transfer is aborted. 
 572:Generated_Source\PSoC4/CyDMA.c **** *
 573:Generated_Source\PSoC4/CyDMA.c **** *******************************************************************************/
 574:Generated_Source\PSoC4/CyDMA.c **** void CyDmaChDisable(int32 channel)
 575:Generated_Source\PSoC4/CyDMA.c **** {
 709              		.loc 1 575 0
 710              		.cfi_startproc
 711              		@ args = 0, pretend = 0, frame = 0
 712              		@ frame_needed = 0, uses_anonymous_args = 0
 713              	.LVL44:
 714 0000 10B5     		push	{r4, lr}
 715              		.cfi_def_cfa_offset 8
 716              		.cfi_offset 4, -8
 717              		.cfi_offset 14, -4
 718 0002 0400     		movs	r4, r0
 576:Generated_Source\PSoC4/CyDMA.c ****     CYASSERT((channel >= 0) && (channel < CYDMA_CH_NR));
 719              		.loc 1 576 0
 720 0004 0728     		cmp	r0, #7
 721 0006 02D9     		bls	.L67
 722              		.loc 1 576 0 is_stmt 0 discriminator 1
 723 0008 0020     		movs	r0, #0
 724              	.LVL45:
 725 000a FFF7FEFF 		bl	CyHalt
 726              	.LVL46:
 727              	.L67:
 577:Generated_Source\PSoC4/CyDMA.c **** 
 578:Generated_Source\PSoC4/CyDMA.c ****     CYDMA_CH_CTL_BASE.ctl[channel] &= (uint32)~CYDMA_ENABLED;
 728              		.loc 1 578 0 is_stmt 1
 729 000e 034A     		ldr	r2, .L68
 730 0010 A400     		lsls	r4, r4, #2
 731              	.LVL47:
 732 0012 A358     		ldr	r3, [r4, r2]
 733 0014 5B00     		lsls	r3, r3, #1
 734 0016 5B08     		lsrs	r3, r3, #1
 735 0018 A350     		str	r3, [r4, r2]
ARM GAS  C:\Users\JamesN4\AppData\Local\Temp\ccgbGPCH.s 			page 25


 579:Generated_Source\PSoC4/CyDMA.c **** }
 736              		.loc 1 579 0
 737              		@ sp needed
 738 001a 10BD     		pop	{r4, pc}
 739              	.L69:
 740              		.align	2
 741              	.L68:
 742 001c 80101040 		.word	1074794624
 743              		.cfi_endproc
 744              	.LFE20:
 745              		.size	CyDmaChDisable, .-CyDmaChDisable
 746              		.section	.text.CyDmaTrigger,"ax",%progbits
 747              		.align	2
 748              		.global	CyDmaTrigger
 749              		.code	16
 750              		.thumb_func
 751              		.type	CyDmaTrigger, %function
 752              	CyDmaTrigger:
 753              	.LFB21:
 580:Generated_Source\PSoC4/CyDMA.c **** 
 581:Generated_Source\PSoC4/CyDMA.c **** 
 582:Generated_Source\PSoC4/CyDMA.c **** /*******************************************************************************
 583:Generated_Source\PSoC4/CyDMA.c **** * Function Name: CyDmaTrigger
 584:Generated_Source\PSoC4/CyDMA.c **** ********************************************************************************
 585:Generated_Source\PSoC4/CyDMA.c **** *
 586:Generated_Source\PSoC4/CyDMA.c **** * Summary:
 587:Generated_Source\PSoC4/CyDMA.c **** *  Triggers the DMA channel, this is useful only for software triggers. This is
 588:Generated_Source\PSoC4/CyDMA.c **** *  not needed when hardware triggers are used.
 589:Generated_Source\PSoC4/CyDMA.c **** *
 590:Generated_Source\PSoC4/CyDMA.c **** * Parameters:
 591:Generated_Source\PSoC4/CyDMA.c **** *  channel: Channel used by this function.
 592:Generated_Source\PSoC4/CyDMA.c **** *                   
 593:Generated_Source\PSoC4/CyDMA.c **** * Return:
 594:Generated_Source\PSoC4/CyDMA.c **** *  None. 
 595:Generated_Source\PSoC4/CyDMA.c **** *
 596:Generated_Source\PSoC4/CyDMA.c **** *******************************************************************************/
 597:Generated_Source\PSoC4/CyDMA.c **** void CyDmaTrigger(int32 channel)
 598:Generated_Source\PSoC4/CyDMA.c **** {
 754              		.loc 1 598 0
 755              		.cfi_startproc
 756              		@ args = 0, pretend = 0, frame = 0
 757              		@ frame_needed = 0, uses_anonymous_args = 0
 758              	.LVL48:
 759 0000 10B5     		push	{r4, lr}
 760              		.cfi_def_cfa_offset 8
 761              		.cfi_offset 4, -8
 762              		.cfi_offset 14, -4
 763 0002 0400     		movs	r4, r0
 599:Generated_Source\PSoC4/CyDMA.c ****     /* The LUT is device-dependent, thus it is generated during the build process. */
 600:Generated_Source\PSoC4/CyDMA.c ****     static const uint32 trCtlLut[] = {0xC0020000U};
 601:Generated_Source\PSoC4/CyDMA.c **** 
 602:Generated_Source\PSoC4/CyDMA.c ****     CYASSERT((channel >= 0) && (channel < CYDMA_CH_NR));
 764              		.loc 1 602 0
 765 0004 0728     		cmp	r0, #7
 766 0006 02D9     		bls	.L71
 767              		.loc 1 602 0 is_stmt 0 discriminator 1
 768 0008 0020     		movs	r0, #0
ARM GAS  C:\Users\JamesN4\AppData\Local\Temp\ccgbGPCH.s 			page 26


 769              	.LVL49:
 770 000a FFF7FEFF 		bl	CyHalt
 771              	.LVL50:
 772              	.L71:
 603:Generated_Source\PSoC4/CyDMA.c **** 
 604:Generated_Source\PSoC4/CyDMA.c ****     CYDMA_TR_CTL_REG = trCtlLut[(uint32)channel >> CYDMA_TR_GROUP_SHR] | ((uint32)channel & CYDMA_T
 773              		.loc 1 604 0 is_stmt 1
 774 000e 0723     		movs	r3, #7
 775 0010 1C40     		ands	r4, r3
 776              	.LVL51:
 777 0012 024B     		ldr	r3, .L72
 778 0014 1C43     		orrs	r4, r3
 779 0016 024B     		ldr	r3, .L72+4
 780 0018 1C60     		str	r4, [r3]
 605:Generated_Source\PSoC4/CyDMA.c **** }
 781              		.loc 1 605 0
 782              		@ sp needed
 783 001a 10BD     		pop	{r4, pc}
 784              	.L73:
 785              		.align	2
 786              	.L72:
 787 001c 000002C0 		.word	-1073610752
 788 0020 00060140 		.word	1073808896
 789              		.cfi_endproc
 790              	.LFE21:
 791              		.size	CyDmaTrigger, .-CyDmaTrigger
 792              		.section	.text.CyDmaSetPriority,"ax",%progbits
 793              		.align	2
 794              		.global	CyDmaSetPriority
 795              		.code	16
 796              		.thumb_func
 797              		.type	CyDmaSetPriority, %function
 798              	CyDmaSetPriority:
 799              	.LFB22:
 606:Generated_Source\PSoC4/CyDMA.c **** 
 607:Generated_Source\PSoC4/CyDMA.c **** 
 608:Generated_Source\PSoC4/CyDMA.c **** /*******************************************************************************
 609:Generated_Source\PSoC4/CyDMA.c **** * Function Name: CyDmaSetPriority
 610:Generated_Source\PSoC4/CyDMA.c **** ********************************************************************************
 611:Generated_Source\PSoC4/CyDMA.c **** *
 612:Generated_Source\PSoC4/CyDMA.c **** * Summary:
 613:Generated_Source\PSoC4/CyDMA.c **** *  Sets the priority for the channel.
 614:Generated_Source\PSoC4/CyDMA.c **** *
 615:Generated_Source\PSoC4/CyDMA.c **** * Parameters:
 616:Generated_Source\PSoC4/CyDMA.c **** *  channel:  Channel used by this function
 617:Generated_Source\PSoC4/CyDMA.c **** *  priority: Priority for channel. Priority can be 0,1,2, or 3.
 618:Generated_Source\PSoC4/CyDMA.c **** *            0 is the highest priority.
 619:Generated_Source\PSoC4/CyDMA.c **** *                   
 620:Generated_Source\PSoC4/CyDMA.c **** * Return:
 621:Generated_Source\PSoC4/CyDMA.c **** *  None.
 622:Generated_Source\PSoC4/CyDMA.c **** *
 623:Generated_Source\PSoC4/CyDMA.c **** * Side effect:
 624:Generated_Source\PSoC4/CyDMA.c **** *  This function should not be called while the channel is enabled.
 625:Generated_Source\PSoC4/CyDMA.c **** *
 626:Generated_Source\PSoC4/CyDMA.c **** *******************************************************************************/
 627:Generated_Source\PSoC4/CyDMA.c **** void CyDmaSetPriority(int32 channel, int32 priority)
 628:Generated_Source\PSoC4/CyDMA.c **** {
ARM GAS  C:\Users\JamesN4\AppData\Local\Temp\ccgbGPCH.s 			page 27


 800              		.loc 1 628 0
 801              		.cfi_startproc
 802              		@ args = 0, pretend = 0, frame = 0
 803              		@ frame_needed = 0, uses_anonymous_args = 0
 804              	.LVL52:
 805 0000 70B5     		push	{r4, r5, r6, lr}
 806              		.cfi_def_cfa_offset 16
 807              		.cfi_offset 4, -16
 808              		.cfi_offset 5, -12
 809              		.cfi_offset 6, -8
 810              		.cfi_offset 14, -4
 811 0002 0500     		movs	r5, r0
 812 0004 0C00     		movs	r4, r1
 629:Generated_Source\PSoC4/CyDMA.c ****     uint32 regValue;
 630:Generated_Source\PSoC4/CyDMA.c **** 
 631:Generated_Source\PSoC4/CyDMA.c ****     CYASSERT((channel  >= 0) && (channel  <  CYDMA_CH_NR));
 813              		.loc 1 631 0
 814 0006 0728     		cmp	r0, #7
 815 0008 02D9     		bls	.L75
 816              		.loc 1 631 0 is_stmt 0 discriminator 1
 817 000a 0020     		movs	r0, #0
 818              	.LVL53:
 819 000c FFF7FEFF 		bl	CyHalt
 820              	.LVL54:
 821              	.L75:
 632:Generated_Source\PSoC4/CyDMA.c ****     CYASSERT((priority >= 0) && (priority <= CY_DMA_MAX_PRIO));
 822              		.loc 1 632 0 is_stmt 1
 823 0010 032C     		cmp	r4, #3
 824 0012 02D9     		bls	.L76
 825              		.loc 1 632 0 is_stmt 0 discriminator 1
 826 0014 0020     		movs	r0, #0
 827 0016 FFF7FEFF 		bl	CyHalt
 828              	.LVL55:
 829              	.L76:
 633:Generated_Source\PSoC4/CyDMA.c **** 
 634:Generated_Source\PSoC4/CyDMA.c ****     regValue = CYDMA_CH_CTL_BASE.ctl[channel] & (uint32)~CYDMA_PRIO;
 830              		.loc 1 634 0 is_stmt 1
 831 001a 044A     		ldr	r2, .L77
 832 001c AD00     		lsls	r5, r5, #2
 833              	.LVL56:
 834 001e A958     		ldr	r1, [r5, r2]
 835 0020 034B     		ldr	r3, .L77+4
 836 0022 0B40     		ands	r3, r1
 837              	.LVL57:
 635:Generated_Source\PSoC4/CyDMA.c ****     CYDMA_CH_CTL_BASE.ctl[channel] = regValue | (uint32)((uint32)priority << CYDMA_PRIO_POS);
 838              		.loc 1 635 0
 839 0024 2407     		lsls	r4, r4, #28
 840              	.LVL58:
 841 0026 1C43     		orrs	r4, r3
 842 0028 AC50     		str	r4, [r5, r2]
 636:Generated_Source\PSoC4/CyDMA.c **** }
 843              		.loc 1 636 0
 844              		@ sp needed
 845 002a 70BD     		pop	{r4, r5, r6, pc}
 846              	.L78:
 847              		.align	2
 848              	.L77:
ARM GAS  C:\Users\JamesN4\AppData\Local\Temp\ccgbGPCH.s 			page 28


 849 002c 80101040 		.word	1074794624
 850 0030 FFFFFFCF 		.word	-805306369
 851              		.cfi_endproc
 852              	.LFE22:
 853              		.size	CyDmaSetPriority, .-CyDmaSetPriority
 854              		.section	.text.CyDmaGetPriority,"ax",%progbits
 855              		.align	2
 856              		.global	CyDmaGetPriority
 857              		.code	16
 858              		.thumb_func
 859              		.type	CyDmaGetPriority, %function
 860              	CyDmaGetPriority:
 861              	.LFB23:
 637:Generated_Source\PSoC4/CyDMA.c **** 
 638:Generated_Source\PSoC4/CyDMA.c **** 
 639:Generated_Source\PSoC4/CyDMA.c **** /*******************************************************************************
 640:Generated_Source\PSoC4/CyDMA.c **** * Function Name: CyDmaGetPriority
 641:Generated_Source\PSoC4/CyDMA.c **** ********************************************************************************
 642:Generated_Source\PSoC4/CyDMA.c **** *
 643:Generated_Source\PSoC4/CyDMA.c **** * Summary:
 644:Generated_Source\PSoC4/CyDMA.c **** *  Gets the priority for the channel.
 645:Generated_Source\PSoC4/CyDMA.c **** *
 646:Generated_Source\PSoC4/CyDMA.c **** * Parameters:
 647:Generated_Source\PSoC4/CyDMA.c **** *  channel: Channel used by this function.
 648:Generated_Source\PSoC4/CyDMA.c **** *                   
 649:Generated_Source\PSoC4/CyDMA.c **** * Return:
 650:Generated_Source\PSoC4/CyDMA.c **** *  Priority for channel. Priority can be 0,1,2, or 3. 0 is the highest priority.
 651:Generated_Source\PSoC4/CyDMA.c **** *
 652:Generated_Source\PSoC4/CyDMA.c **** *******************************************************************************/
 653:Generated_Source\PSoC4/CyDMA.c **** int32 CyDmaGetPriority(int32 channel)
 654:Generated_Source\PSoC4/CyDMA.c **** {
 862              		.loc 1 654 0
 863              		.cfi_startproc
 864              		@ args = 0, pretend = 0, frame = 0
 865              		@ frame_needed = 0, uses_anonymous_args = 0
 866              	.LVL59:
 867 0000 10B5     		push	{r4, lr}
 868              		.cfi_def_cfa_offset 8
 869              		.cfi_offset 4, -8
 870              		.cfi_offset 14, -4
 871 0002 0400     		movs	r4, r0
 655:Generated_Source\PSoC4/CyDMA.c ****     uint32 priority;
 656:Generated_Source\PSoC4/CyDMA.c **** 
 657:Generated_Source\PSoC4/CyDMA.c ****     CYASSERT((channel >= 0) && (channel < CYDMA_CH_NR));
 872              		.loc 1 657 0
 873 0004 0728     		cmp	r0, #7
 874 0006 02D9     		bls	.L80
 875              		.loc 1 657 0 is_stmt 0 discriminator 1
 876 0008 0020     		movs	r0, #0
 877              	.LVL60:
 878 000a FFF7FEFF 		bl	CyHalt
 879              	.LVL61:
 880              	.L80:
 658:Generated_Source\PSoC4/CyDMA.c **** 
 659:Generated_Source\PSoC4/CyDMA.c ****     priority = (CYDMA_CH_CTL_BASE.ctl[channel] & CYDMA_PRIO) >> CYDMA_PRIO_POS;
 881              		.loc 1 659 0 is_stmt 1
 882 000e A400     		lsls	r4, r4, #2
ARM GAS  C:\Users\JamesN4\AppData\Local\Temp\ccgbGPCH.s 			page 29


 883              	.LVL62:
 884 0010 024B     		ldr	r3, .L81
 885 0012 E058     		ldr	r0, [r4, r3]
 886 0014 000F     		lsrs	r0, r0, #28
 887 0016 0323     		movs	r3, #3
 888 0018 1840     		ands	r0, r3
 889              	.LVL63:
 660:Generated_Source\PSoC4/CyDMA.c ****     return ((int32)priority);
 661:Generated_Source\PSoC4/CyDMA.c **** }
 890              		.loc 1 661 0
 891              		@ sp needed
 892 001a 10BD     		pop	{r4, pc}
 893              	.L82:
 894              		.align	2
 895              	.L81:
 896 001c 80101040 		.word	1074794624
 897              		.cfi_endproc
 898              	.LFE23:
 899              		.size	CyDmaGetPriority, .-CyDmaGetPriority
 900              		.section	.text.CyDmaSetNextDescriptor,"ax",%progbits
 901              		.align	2
 902              		.global	CyDmaSetNextDescriptor
 903              		.code	16
 904              		.thumb_func
 905              		.type	CyDmaSetNextDescriptor, %function
 906              	CyDmaSetNextDescriptor:
 907              	.LFB24:
 662:Generated_Source\PSoC4/CyDMA.c **** 
 663:Generated_Source\PSoC4/CyDMA.c **** 
 664:Generated_Source\PSoC4/CyDMA.c **** /*******************************************************************************
 665:Generated_Source\PSoC4/CyDMA.c **** * Function Name: CyDmaSetNextDescriptor
 666:Generated_Source\PSoC4/CyDMA.c **** ********************************************************************************
 667:Generated_Source\PSoC4/CyDMA.c **** *
 668:Generated_Source\PSoC4/CyDMA.c **** * Summary:
 669:Generated_Source\PSoC4/CyDMA.c **** *  Sets the descriptor that should be run the next time the channel is
 670:Generated_Source\PSoC4/CyDMA.c **** *  triggered.
 671:Generated_Source\PSoC4/CyDMA.c **** *
 672:Generated_Source\PSoC4/CyDMA.c **** * Parameters:
 673:Generated_Source\PSoC4/CyDMA.c **** *  channel:    Channel used by this function.
 674:Generated_Source\PSoC4/CyDMA.c **** *  descriptor: Next Descriptor to run (0 or 1).
 675:Generated_Source\PSoC4/CyDMA.c **** *
 676:Generated_Source\PSoC4/CyDMA.c **** * Return:
 677:Generated_Source\PSoC4/CyDMA.c **** *  None.
 678:Generated_Source\PSoC4/CyDMA.c **** *                   
 679:Generated_Source\PSoC4/CyDMA.c **** * Side effect:
 680:Generated_Source\PSoC4/CyDMA.c **** *  This function should not be called while the channel is enabled.
 681:Generated_Source\PSoC4/CyDMA.c **** *
 682:Generated_Source\PSoC4/CyDMA.c **** *******************************************************************************/
 683:Generated_Source\PSoC4/CyDMA.c **** void CyDmaSetNextDescriptor(int32 channel, int32 descriptor)
 684:Generated_Source\PSoC4/CyDMA.c **** {
 908              		.loc 1 684 0
 909              		.cfi_startproc
 910              		@ args = 0, pretend = 0, frame = 0
 911              		@ frame_needed = 0, uses_anonymous_args = 0
 912              	.LVL64:
 913 0000 70B5     		push	{r4, r5, r6, lr}
 914              		.cfi_def_cfa_offset 16
ARM GAS  C:\Users\JamesN4\AppData\Local\Temp\ccgbGPCH.s 			page 30


 915              		.cfi_offset 4, -16
 916              		.cfi_offset 5, -12
 917              		.cfi_offset 6, -8
 918              		.cfi_offset 14, -4
 919 0002 0500     		movs	r5, r0
 920 0004 0C00     		movs	r4, r1
 685:Generated_Source\PSoC4/CyDMA.c ****     uint32 regValue;
 686:Generated_Source\PSoC4/CyDMA.c **** 
 687:Generated_Source\PSoC4/CyDMA.c ****     CYASSERT((channel    >= 0) && (channel    < CYDMA_CH_NR));
 921              		.loc 1 687 0
 922 0006 0728     		cmp	r0, #7
 923 0008 02D9     		bls	.L84
 924              		.loc 1 687 0 is_stmt 0 discriminator 1
 925 000a 0020     		movs	r0, #0
 926              	.LVL65:
 927 000c FFF7FEFF 		bl	CyHalt
 928              	.LVL66:
 929              	.L84:
 688:Generated_Source\PSoC4/CyDMA.c ****     CYASSERT((descriptor >= 0) && (descriptor < CYDMA_DESCR_NR));
 930              		.loc 1 688 0 is_stmt 1
 931 0010 012C     		cmp	r4, #1
 932 0012 02D9     		bls	.L85
 933              		.loc 1 688 0 is_stmt 0 discriminator 1
 934 0014 0020     		movs	r0, #0
 935 0016 FFF7FEFF 		bl	CyHalt
 936              	.LVL67:
 937              	.L85:
 689:Generated_Source\PSoC4/CyDMA.c **** 
 690:Generated_Source\PSoC4/CyDMA.c ****     regValue = CYDMA_CH_CTL_BASE.ctl[channel] & (uint32)~CYDMA_DESCRIPTOR;
 938              		.loc 1 690 0 is_stmt 1
 939 001a 044A     		ldr	r2, .L86
 940 001c AD00     		lsls	r5, r5, #2
 941              	.LVL68:
 942 001e A958     		ldr	r1, [r5, r2]
 943 0020 034B     		ldr	r3, .L86+4
 944 0022 0B40     		ands	r3, r1
 945              	.LVL69:
 691:Generated_Source\PSoC4/CyDMA.c ****     CYDMA_CH_CTL_BASE.ctl[channel] = regValue | (uint32)((uint32)descriptor << CYDMA_DESCRIPTOR_POS
 946              		.loc 1 691 0
 947 0024 A407     		lsls	r4, r4, #30
 948              	.LVL70:
 949 0026 1C43     		orrs	r4, r3
 950 0028 AC50     		str	r4, [r5, r2]
 692:Generated_Source\PSoC4/CyDMA.c **** }
 951              		.loc 1 692 0
 952              		@ sp needed
 953 002a 70BD     		pop	{r4, r5, r6, pc}
 954              	.L87:
 955              		.align	2
 956              	.L86:
 957 002c 80101040 		.word	1074794624
 958 0030 FFFFFFBF 		.word	-1073741825
 959              		.cfi_endproc
 960              	.LFE24:
 961              		.size	CyDmaSetNextDescriptor, .-CyDmaSetNextDescriptor
 962              		.section	.text.CyDmaGetNextDescriptor,"ax",%progbits
 963              		.align	2
ARM GAS  C:\Users\JamesN4\AppData\Local\Temp\ccgbGPCH.s 			page 31


 964              		.global	CyDmaGetNextDescriptor
 965              		.code	16
 966              		.thumb_func
 967              		.type	CyDmaGetNextDescriptor, %function
 968              	CyDmaGetNextDescriptor:
 969              	.LFB25:
 693:Generated_Source\PSoC4/CyDMA.c **** 
 694:Generated_Source\PSoC4/CyDMA.c **** 
 695:Generated_Source\PSoC4/CyDMA.c **** /*******************************************************************************
 696:Generated_Source\PSoC4/CyDMA.c **** * Function Name: CyDmaGetNextDescriptor
 697:Generated_Source\PSoC4/CyDMA.c **** ********************************************************************************
 698:Generated_Source\PSoC4/CyDMA.c **** *
 699:Generated_Source\PSoC4/CyDMA.c **** * Summary:
 700:Generated_Source\PSoC4/CyDMA.c **** *  Returns the next descriptor that should be run, as set by 
 701:Generated_Source\PSoC4/CyDMA.c **** *  CyDmaSetNextDescriptor().
 702:Generated_Source\PSoC4/CyDMA.c **** *
 703:Generated_Source\PSoC4/CyDMA.c **** * Parameters:
 704:Generated_Source\PSoC4/CyDMA.c **** *  channel: channel used by this function.
 705:Generated_Source\PSoC4/CyDMA.c **** *                   
 706:Generated_Source\PSoC4/CyDMA.c **** * Return:
 707:Generated_Source\PSoC4/CyDMA.c **** *  Next Descriptor to run (0 or 1).
 708:Generated_Source\PSoC4/CyDMA.c **** *
 709:Generated_Source\PSoC4/CyDMA.c **** *******************************************************************************/
 710:Generated_Source\PSoC4/CyDMA.c **** int32 CyDmaGetNextDescriptor(int32 channel)
 711:Generated_Source\PSoC4/CyDMA.c **** {
 970              		.loc 1 711 0
 971              		.cfi_startproc
 972              		@ args = 0, pretend = 0, frame = 0
 973              		@ frame_needed = 0, uses_anonymous_args = 0
 974              	.LVL71:
 975 0000 10B5     		push	{r4, lr}
 976              		.cfi_def_cfa_offset 8
 977              		.cfi_offset 4, -8
 978              		.cfi_offset 14, -4
 979 0002 0400     		movs	r4, r0
 712:Generated_Source\PSoC4/CyDMA.c ****     uint32 nextDescriptor;
 713:Generated_Source\PSoC4/CyDMA.c **** 
 714:Generated_Source\PSoC4/CyDMA.c ****     CYASSERT((channel >= 0) && (channel < CYDMA_CH_NR));
 980              		.loc 1 714 0
 981 0004 0728     		cmp	r0, #7
 982 0006 02D9     		bls	.L89
 983              		.loc 1 714 0 is_stmt 0 discriminator 1
 984 0008 0020     		movs	r0, #0
 985              	.LVL72:
 986 000a FFF7FEFF 		bl	CyHalt
 987              	.LVL73:
 988              	.L89:
 715:Generated_Source\PSoC4/CyDMA.c **** 
 716:Generated_Source\PSoC4/CyDMA.c ****     nextDescriptor = (CYDMA_CH_CTL_BASE.ctl[channel] & CYDMA_DESCRIPTOR) >> CYDMA_DESCRIPTOR_POS;
 989              		.loc 1 716 0 is_stmt 1
 990 000e A400     		lsls	r4, r4, #2
 991              	.LVL74:
 992 0010 024B     		ldr	r3, .L90
 993 0012 E058     		ldr	r0, [r4, r3]
 994 0014 800F     		lsrs	r0, r0, #30
 995 0016 0123     		movs	r3, #1
 996 0018 1840     		ands	r0, r3
ARM GAS  C:\Users\JamesN4\AppData\Local\Temp\ccgbGPCH.s 			page 32


 997              	.LVL75:
 717:Generated_Source\PSoC4/CyDMA.c ****     return ((int32)nextDescriptor);
 718:Generated_Source\PSoC4/CyDMA.c **** }
 998              		.loc 1 718 0
 999              		@ sp needed
 1000 001a 10BD     		pop	{r4, pc}
 1001              	.L91:
 1002              		.align	2
 1003              	.L90:
 1004 001c 80101040 		.word	1074794624
 1005              		.cfi_endproc
 1006              	.LFE25:
 1007              		.size	CyDmaGetNextDescriptor, .-CyDmaGetNextDescriptor
 1008              		.section	.text.CyDmaSetConfiguration,"ax",%progbits
 1009              		.align	2
 1010              		.global	CyDmaSetConfiguration
 1011              		.code	16
 1012              		.thumb_func
 1013              		.type	CyDmaSetConfiguration, %function
 1014              	CyDmaSetConfiguration:
 1015              	.LFB26:
 719:Generated_Source\PSoC4/CyDMA.c **** 
 720:Generated_Source\PSoC4/CyDMA.c **** 
 721:Generated_Source\PSoC4/CyDMA.c **** /*******************************************************************************
 722:Generated_Source\PSoC4/CyDMA.c **** * Function Name: CyDmaSetConfiguration
 723:Generated_Source\PSoC4/CyDMA.c **** ********************************************************************************
 724:Generated_Source\PSoC4/CyDMA.c **** *
 725:Generated_Source\PSoC4/CyDMA.c **** * Summary:
 726:Generated_Source\PSoC4/CyDMA.c **** *  Sets configuration information for the specified descriptor.
 727:Generated_Source\PSoC4/CyDMA.c **** *
 728:Generated_Source\PSoC4/CyDMA.c **** * Parameters:
 729:Generated_Source\PSoC4/CyDMA.c **** *  channel:    DMA channel modified by this function.
 730:Generated_Source\PSoC4/CyDMA.c **** *  descriptor: Descriptor (0 or 1) modified by this function.
 731:Generated_Source\PSoC4/CyDMA.c **** *  config:     Pointer to a configuration structure. Refer to cydma_init_struct
 732:Generated_Source\PSoC4/CyDMA.c **** *              structure definition in CyDMA_P4.h and/or DMA channel datasheet
 733:Generated_Source\PSoC4/CyDMA.c **** *              for more information.
 734:Generated_Source\PSoC4/CyDMA.c **** *                   
 735:Generated_Source\PSoC4/CyDMA.c **** * Return:
 736:Generated_Source\PSoC4/CyDMA.c **** *  None.
 737:Generated_Source\PSoC4/CyDMA.c **** *
 738:Generated_Source\PSoC4/CyDMA.c **** * Side effect:
 739:Generated_Source\PSoC4/CyDMA.c **** *  The status register associated with the specified descriptor is reset to
 740:Generated_Source\PSoC4/CyDMA.c **** *  zero after this function call. This function also validates the descriptor.
 741:Generated_Source\PSoC4/CyDMA.c **** *  This function should not be called while the descriptor is active.
 742:Generated_Source\PSoC4/CyDMA.c **** *  This can be checked by calling CyDmaGetStatus().
 743:Generated_Source\PSoC4/CyDMA.c **** *
 744:Generated_Source\PSoC4/CyDMA.c **** *******************************************************************************/
 745:Generated_Source\PSoC4/CyDMA.c **** void CyDmaSetConfiguration(int32 channel, int32 descriptor, const cydma_init_struct * config)
 746:Generated_Source\PSoC4/CyDMA.c **** {  
 1016              		.loc 1 746 0
 1017              		.cfi_startproc
 1018              		@ args = 0, pretend = 0, frame = 0
 1019              		@ frame_needed = 0, uses_anonymous_args = 0
 1020              	.LVL76:
 1021 0000 70B5     		push	{r4, r5, r6, lr}
 1022              		.cfi_def_cfa_offset 16
 1023              		.cfi_offset 4, -16
ARM GAS  C:\Users\JamesN4\AppData\Local\Temp\ccgbGPCH.s 			page 33


 1024              		.cfi_offset 5, -12
 1025              		.cfi_offset 6, -8
 1026              		.cfi_offset 14, -4
 1027 0002 0600     		movs	r6, r0
 1028 0004 0D00     		movs	r5, r1
 1029 0006 1400     		movs	r4, r2
 747:Generated_Source\PSoC4/CyDMA.c ****     CYASSERT((channel        >= 0) && (channel         < CYDMA_CH_NR));
 1030              		.loc 1 747 0
 1031 0008 0728     		cmp	r0, #7
 1032 000a 02D9     		bls	.L93
 1033              		.loc 1 747 0 is_stmt 0 discriminator 1
 1034 000c 0020     		movs	r0, #0
 1035              	.LVL77:
 1036 000e FFF7FEFF 		bl	CyHalt
 1037              	.LVL78:
 1038              	.L93:
 748:Generated_Source\PSoC4/CyDMA.c ****     CYASSERT((descriptor     >= 0) && (descriptor      < CYDMA_DESCR_NR));
 1039              		.loc 1 748 0 is_stmt 1
 1040 0012 012D     		cmp	r5, #1
 1041 0014 02D9     		bls	.L94
 1042              		.loc 1 748 0 is_stmt 0 discriminator 1
 1043 0016 0020     		movs	r0, #0
 1044 0018 FFF7FEFF 		bl	CyHalt
 1045              	.LVL79:
 1046              	.L94:
 749:Generated_Source\PSoC4/CyDMA.c **** 
 750:Generated_Source\PSoC4/CyDMA.c ****     CYASSERT(0u == (config->dataElementSize     & (uint32)~CYDMA_DATA_SIZE));   
 1047              		.loc 1 750 0 is_stmt 1
 1048 001c 294B     		ldr	r3, .L103
 1049 001e 2268     		ldr	r2, [r4]
 1050 0020 1A42     		tst	r2, r3
 1051 0022 02D0     		beq	.L95
 1052              		.loc 1 750 0 is_stmt 0 discriminator 1
 1053 0024 0020     		movs	r0, #0
 1054 0026 FFF7FEFF 		bl	CyHalt
 1055              	.LVL80:
 1056              	.L95:
 751:Generated_Source\PSoC4/CyDMA.c ****     CYASSERT((config->numDataElements > 0)     && (config->numDataElements <= CYDMA_MAX_DATA_NR));
 1057              		.loc 1 751 0 is_stmt 1
 1058 002a 6368     		ldr	r3, [r4, #4]
 1059 002c 013B     		subs	r3, r3, #1
 1060 002e 264A     		ldr	r2, .L103+4
 1061 0030 9342     		cmp	r3, r2
 1062 0032 02D9     		bls	.L96
 1063              		.loc 1 751 0 is_stmt 0 discriminator 1
 1064 0034 0020     		movs	r0, #0
 1065 0036 FFF7FEFF 		bl	CyHalt
 1066              	.LVL81:
 1067              	.L96:
 752:Generated_Source\PSoC4/CyDMA.c ****     CYASSERT(0u == (config->srcDstTransferWidth & (uint32)~CYDMA_TRANSFER_WIDTH));
 1068              		.loc 1 752 0 is_stmt 1
 1069 003a 244B     		ldr	r3, .L103+8
 1070 003c A268     		ldr	r2, [r4, #8]
 1071 003e 1A42     		tst	r2, r3
 1072 0040 02D0     		beq	.L97
 1073              		.loc 1 752 0 is_stmt 0 discriminator 1
 1074 0042 0020     		movs	r0, #0
ARM GAS  C:\Users\JamesN4\AppData\Local\Temp\ccgbGPCH.s 			page 34


 1075 0044 FFF7FEFF 		bl	CyHalt
 1076              	.LVL82:
 1077              	.L97:
 753:Generated_Source\PSoC4/CyDMA.c ****     CYASSERT(0u == (config->addressIncrement    & (uint32)~CYDMA_ADDR_INCR));
 1078              		.loc 1 753 0 is_stmt 1
 1079 0048 214B     		ldr	r3, .L103+12
 1080 004a E268     		ldr	r2, [r4, #12]
 1081 004c 1A42     		tst	r2, r3
 1082 004e 02D0     		beq	.L98
 1083              		.loc 1 753 0 is_stmt 0 discriminator 1
 1084 0050 0020     		movs	r0, #0
 1085 0052 FFF7FEFF 		bl	CyHalt
 1086              	.LVL83:
 1087              	.L98:
 754:Generated_Source\PSoC4/CyDMA.c ****     CYASSERT(0u == (config->triggerType         & (uint32)~CYDMA_TRIGGER_TYPE));
 1088              		.loc 1 754 0 is_stmt 1
 1089 0056 1F4B     		ldr	r3, .L103+16
 1090 0058 2269     		ldr	r2, [r4, #16]
 1091 005a 1A42     		tst	r2, r3
 1092 005c 02D0     		beq	.L99
 1093              		.loc 1 754 0 is_stmt 0 discriminator 1
 1094 005e 0020     		movs	r0, #0
 1095 0060 FFF7FEFF 		bl	CyHalt
 1096              	.LVL84:
 1097              	.L99:
 755:Generated_Source\PSoC4/CyDMA.c ****     CYASSERT(0u == (config->transferMode        & (uint32)~CYDMA_TRANSFER_MODE));
 1098              		.loc 1 755 0 is_stmt 1
 1099 0064 6369     		ldr	r3, [r4, #20]
 1100 0066 9B00     		lsls	r3, r3, #2
 1101 0068 02D0     		beq	.L100
 1102              		.loc 1 755 0 is_stmt 0 discriminator 1
 1103 006a 0020     		movs	r0, #0
 1104 006c FFF7FEFF 		bl	CyHalt
 1105              	.LVL85:
 1106              	.L100:
 756:Generated_Source\PSoC4/CyDMA.c ****     CYASSERT(0u == (config->preemptable         & (uint32)~CYDMA_PREEMPTABLE));
 1107              		.loc 1 756 0 is_stmt 1
 1108 0070 194B     		ldr	r3, .L103+20
 1109 0072 A269     		ldr	r2, [r4, #24]
 1110 0074 1A42     		tst	r2, r3
 1111 0076 02D0     		beq	.L101
 1112              		.loc 1 756 0 is_stmt 0 discriminator 1
 1113 0078 0020     		movs	r0, #0
 1114 007a FFF7FEFF 		bl	CyHalt
 1115              	.LVL86:
 1116              	.L101:
 757:Generated_Source\PSoC4/CyDMA.c ****     CYASSERT(0u == (config->actions             & (uint32)~CYDMA_POST_COMPLETE_ACTIONS));
 1117              		.loc 1 757 0 is_stmt 1
 1118 007e 174B     		ldr	r3, .L103+24
 1119 0080 E269     		ldr	r2, [r4, #28]
 1120 0082 1A42     		tst	r2, r3
 1121 0084 02D0     		beq	.L102
 1122              		.loc 1 757 0 is_stmt 0 discriminator 1
 1123 0086 0020     		movs	r0, #0
 1124 0088 FFF7FEFF 		bl	CyHalt
 1125              	.LVL87:
 1126              	.L102:
ARM GAS  C:\Users\JamesN4\AppData\Local\Temp\ccgbGPCH.s 			page 35


 758:Generated_Source\PSoC4/CyDMA.c ****     
 759:Generated_Source\PSoC4/CyDMA.c ****     CYDMA_DESCR_BASE.descriptor[channel][descriptor].ctl = config->dataElementSize     |
 760:Generated_Source\PSoC4/CyDMA.c ****                                                   ((uint32)config->numDataElements-1u) |
 1127              		.loc 1 760 0 is_stmt 1
 1128 008c 6368     		ldr	r3, [r4, #4]
 1129 008e 013B     		subs	r3, r3, #1
 759:Generated_Source\PSoC4/CyDMA.c ****                                                   ((uint32)config->numDataElements-1u) |
 1130              		.loc 1 759 0
 1131 0090 2268     		ldr	r2, [r4]
 1132 0092 1343     		orrs	r3, r2
 1133              		.loc 1 760 0
 1134 0094 A268     		ldr	r2, [r4, #8]
 1135 0096 1343     		orrs	r3, r2
 761:Generated_Source\PSoC4/CyDMA.c ****                                                            config->srcDstTransferWidth |
 1136              		.loc 1 761 0
 1137 0098 E268     		ldr	r2, [r4, #12]
 1138 009a 1343     		orrs	r3, r2
 762:Generated_Source\PSoC4/CyDMA.c ****                                                            config->addressIncrement    |
 1139              		.loc 1 762 0
 1140 009c 2269     		ldr	r2, [r4, #16]
 1141 009e 1343     		orrs	r3, r2
 763:Generated_Source\PSoC4/CyDMA.c ****                                                            config->triggerType         |
 1142              		.loc 1 763 0
 1143 00a0 6269     		ldr	r2, [r4, #20]
 1144 00a2 1343     		orrs	r3, r2
 764:Generated_Source\PSoC4/CyDMA.c ****                                                            config->transferMode        |
 1145              		.loc 1 764 0
 1146 00a4 A269     		ldr	r2, [r4, #24]
 1147 00a6 1343     		orrs	r3, r2
 765:Generated_Source\PSoC4/CyDMA.c ****                                                            config->preemptable         |
 766:Generated_Source\PSoC4/CyDMA.c ****                                                            config->actions;
 1148              		.loc 1 766 0
 1149 00a8 E269     		ldr	r2, [r4, #28]
 765:Generated_Source\PSoC4/CyDMA.c ****                                                            config->preemptable         |
 1150              		.loc 1 765 0
 1151 00aa 1343     		orrs	r3, r2
 759:Generated_Source\PSoC4/CyDMA.c ****                                                   ((uint32)config->numDataElements-1u) |
 1152              		.loc 1 759 0
 1153 00ac 7600     		lsls	r6, r6, #1
 1154              	.LVL88:
 1155 00ae 7519     		adds	r5, r6, r5
 1156              	.LVL89:
 1157 00b0 2D01     		lsls	r5, r5, #4
 1158 00b2 0B4A     		ldr	r2, .L103+28
 1159 00b4 9446     		mov	ip, r2
 1160 00b6 6544     		add	r5, r5, ip
 1161 00b8 AB60     		str	r3, [r5, #8]
 767:Generated_Source\PSoC4/CyDMA.c **** 
 768:Generated_Source\PSoC4/CyDMA.c ****     CYDMA_DESCR_BASE.descriptor[channel][descriptor].status = CYDMA_VALID;
 1162              		.loc 1 768 0
 1163 00ba 8023     		movs	r3, #128
 1164 00bc 1B06     		lsls	r3, r3, #24
 1165 00be EB60     		str	r3, [r5, #12]
 769:Generated_Source\PSoC4/CyDMA.c **** }
 1166              		.loc 1 769 0
 1167              		@ sp needed
 1168              	.LVL90:
ARM GAS  C:\Users\JamesN4\AppData\Local\Temp\ccgbGPCH.s 			page 36


 1169 00c0 70BD     		pop	{r4, r5, r6, pc}
 1170              	.L104:
 1171 00c2 C046     		.align	2
 1172              	.L103:
 1173 00c4 FFFFFCFF 		.word	-196609
 1174 00c8 FFFF0000 		.word	65535
 1175 00cc FFFFAFFF 		.word	-5242881
 1176 00d0 FFFF5FFF 		.word	-10485761
 1177 00d4 FFFFFFFC 		.word	-50331649
 1178 00d8 FFFFFFEF 		.word	-268435457
 1179 00dc FFFFFFD3 		.word	-738197505
 1180 00e0 00181040 		.word	1074796544
 1181              		.cfi_endproc
 1182              	.LFE26:
 1183              		.size	CyDmaSetConfiguration, .-CyDmaSetConfiguration
 1184              		.section	.text.CyDmaValidateDescriptor,"ax",%progbits
 1185              		.align	2
 1186              		.global	CyDmaValidateDescriptor
 1187              		.code	16
 1188              		.thumb_func
 1189              		.type	CyDmaValidateDescriptor, %function
 1190              	CyDmaValidateDescriptor:
 1191              	.LFB27:
 770:Generated_Source\PSoC4/CyDMA.c **** 
 771:Generated_Source\PSoC4/CyDMA.c **** 
 772:Generated_Source\PSoC4/CyDMA.c **** /*******************************************************************************
 773:Generated_Source\PSoC4/CyDMA.c **** * Function Name: CyDmaValidateDescriptor
 774:Generated_Source\PSoC4/CyDMA.c **** ********************************************************************************
 775:Generated_Source\PSoC4/CyDMA.c **** *
 776:Generated_Source\PSoC4/CyDMA.c **** * Summary:
 777:Generated_Source\PSoC4/CyDMA.c **** *  Validates the specified descriptor after it has been invalidated.
 778:Generated_Source\PSoC4/CyDMA.c **** *
 779:Generated_Source\PSoC4/CyDMA.c **** * Parameters:
 780:Generated_Source\PSoC4/CyDMA.c **** *  channel:    Channel used by this function.
 781:Generated_Source\PSoC4/CyDMA.c **** *  descriptor: Descriptor (0 or 1) modified by this function.
 782:Generated_Source\PSoC4/CyDMA.c **** *                   
 783:Generated_Source\PSoC4/CyDMA.c **** * Return:
 784:Generated_Source\PSoC4/CyDMA.c **** *  None. 
 785:Generated_Source\PSoC4/CyDMA.c **** *
 786:Generated_Source\PSoC4/CyDMA.c **** * Side effect:
 787:Generated_Source\PSoC4/CyDMA.c **** *  The status register associated with the specified descriptor is reset to
 788:Generated_Source\PSoC4/CyDMA.c **** *  zero after this function call.
 789:Generated_Source\PSoC4/CyDMA.c **** *  This function should not be called when the specified descriptor is active
 790:Generated_Source\PSoC4/CyDMA.c **** *  in the DMA transfer engine. This can be checked by calling CyDmaGetStatus().
 791:Generated_Source\PSoC4/CyDMA.c **** *
 792:Generated_Source\PSoC4/CyDMA.c **** *******************************************************************************/
 793:Generated_Source\PSoC4/CyDMA.c **** void CyDmaValidateDescriptor(int32 channel, int32 descriptor)
 794:Generated_Source\PSoC4/CyDMA.c **** {
 1192              		.loc 1 794 0
 1193              		.cfi_startproc
 1194              		@ args = 0, pretend = 0, frame = 0
 1195              		@ frame_needed = 0, uses_anonymous_args = 0
 1196              	.LVL91:
 1197 0000 70B5     		push	{r4, r5, r6, lr}
 1198              		.cfi_def_cfa_offset 16
 1199              		.cfi_offset 4, -16
 1200              		.cfi_offset 5, -12
ARM GAS  C:\Users\JamesN4\AppData\Local\Temp\ccgbGPCH.s 			page 37


 1201              		.cfi_offset 6, -8
 1202              		.cfi_offset 14, -4
 1203 0002 0500     		movs	r5, r0
 1204 0004 0C00     		movs	r4, r1
 795:Generated_Source\PSoC4/CyDMA.c ****     CYASSERT((channel    >= 0) && (channel    < CYDMA_CH_NR));
 1205              		.loc 1 795 0
 1206 0006 0728     		cmp	r0, #7
 1207 0008 02D9     		bls	.L106
 1208              		.loc 1 795 0 is_stmt 0 discriminator 1
 1209 000a 0020     		movs	r0, #0
 1210              	.LVL92:
 1211 000c FFF7FEFF 		bl	CyHalt
 1212              	.LVL93:
 1213              	.L106:
 796:Generated_Source\PSoC4/CyDMA.c ****     CYASSERT((descriptor >= 0) && (descriptor < CYDMA_DESCR_NR));
 1214              		.loc 1 796 0 is_stmt 1
 1215 0010 012C     		cmp	r4, #1
 1216 0012 02D9     		bls	.L107
 1217              		.loc 1 796 0 is_stmt 0 discriminator 1
 1218 0014 0020     		movs	r0, #0
 1219 0016 FFF7FEFF 		bl	CyHalt
 1220              	.LVL94:
 1221              	.L107:
 797:Generated_Source\PSoC4/CyDMA.c **** 
 798:Generated_Source\PSoC4/CyDMA.c ****     CYDMA_DESCR_BASE.descriptor[channel][descriptor].status = CYDMA_VALID;
 1222              		.loc 1 798 0 is_stmt 1
 1223 001a 6D00     		lsls	r5, r5, #1
 1224              	.LVL95:
 1225 001c 2C19     		adds	r4, r5, r4
 1226              	.LVL96:
 1227 001e 2401     		lsls	r4, r4, #4
 1228 0020 034B     		ldr	r3, .L108
 1229 0022 9C46     		mov	ip, r3
 1230 0024 6444     		add	r4, r4, ip
 1231 0026 8023     		movs	r3, #128
 1232 0028 1B06     		lsls	r3, r3, #24
 1233 002a E360     		str	r3, [r4, #12]
 799:Generated_Source\PSoC4/CyDMA.c **** }
 1234              		.loc 1 799 0
 1235              		@ sp needed
 1236 002c 70BD     		pop	{r4, r5, r6, pc}
 1237              	.L109:
 1238 002e C046     		.align	2
 1239              	.L108:
 1240 0030 00181040 		.word	1074796544
 1241              		.cfi_endproc
 1242              	.LFE27:
 1243              		.size	CyDmaValidateDescriptor, .-CyDmaValidateDescriptor
 1244              		.section	.text.CyDmaGetDescriptorStatus,"ax",%progbits
 1245              		.align	2
 1246              		.global	CyDmaGetDescriptorStatus
 1247              		.code	16
 1248              		.thumb_func
 1249              		.type	CyDmaGetDescriptorStatus, %function
 1250              	CyDmaGetDescriptorStatus:
 1251              	.LFB28:
 800:Generated_Source\PSoC4/CyDMA.c **** 
ARM GAS  C:\Users\JamesN4\AppData\Local\Temp\ccgbGPCH.s 			page 38


 801:Generated_Source\PSoC4/CyDMA.c **** 
 802:Generated_Source\PSoC4/CyDMA.c **** /*******************************************************************************
 803:Generated_Source\PSoC4/CyDMA.c **** * Function Name: CyDmaGetDescriptorStatus
 804:Generated_Source\PSoC4/CyDMA.c **** ********************************************************************************
 805:Generated_Source\PSoC4/CyDMA.c **** *
 806:Generated_Source\PSoC4/CyDMA.c **** * Summary:
 807:Generated_Source\PSoC4/CyDMA.c **** *  Returns the status of the specified descriptor.
 808:Generated_Source\PSoC4/CyDMA.c **** *
 809:Generated_Source\PSoC4/CyDMA.c **** * Parameters:
 810:Generated_Source\PSoC4/CyDMA.c **** *  channel:    Channel used by this function.
 811:Generated_Source\PSoC4/CyDMA.c **** *  descriptor: Descriptor (0 or 1) modified by this function.
 812:Generated_Source\PSoC4/CyDMA.c **** *                   
 813:Generated_Source\PSoC4/CyDMA.c **** * Return:
 814:Generated_Source\PSoC4/CyDMA.c **** *  Returns the contents of the specified descriptors status register. Refer to 
 815:Generated_Source\PSoC4/CyDMA.c **** *  descriptor status register bit definitions in CyDMA_P4.h or the API
 816:Generated_Source\PSoC4/CyDMA.c **** *  description in the DMA channel datasheet for more information.
 817:Generated_Source\PSoC4/CyDMA.c **** *
 818:Generated_Source\PSoC4/CyDMA.c **** *******************************************************************************/
 819:Generated_Source\PSoC4/CyDMA.c **** uint32 CyDmaGetDescriptorStatus(int32 channel, int32 descriptor)
 820:Generated_Source\PSoC4/CyDMA.c **** {
 1252              		.loc 1 820 0
 1253              		.cfi_startproc
 1254              		@ args = 0, pretend = 0, frame = 0
 1255              		@ frame_needed = 0, uses_anonymous_args = 0
 1256              	.LVL97:
 1257 0000 70B5     		push	{r4, r5, r6, lr}
 1258              		.cfi_def_cfa_offset 16
 1259              		.cfi_offset 4, -16
 1260              		.cfi_offset 5, -12
 1261              		.cfi_offset 6, -8
 1262              		.cfi_offset 14, -4
 1263 0002 0500     		movs	r5, r0
 1264 0004 0C00     		movs	r4, r1
 821:Generated_Source\PSoC4/CyDMA.c ****     CYASSERT((channel    >= 0) && (channel    < CYDMA_CH_NR));
 1265              		.loc 1 821 0
 1266 0006 0728     		cmp	r0, #7
 1267 0008 02D9     		bls	.L111
 1268              		.loc 1 821 0 is_stmt 0 discriminator 1
 1269 000a 0020     		movs	r0, #0
 1270              	.LVL98:
 1271 000c FFF7FEFF 		bl	CyHalt
 1272              	.LVL99:
 1273              	.L111:
 822:Generated_Source\PSoC4/CyDMA.c ****     CYASSERT((descriptor >= 0) && (descriptor < CYDMA_DESCR_NR));
 1274              		.loc 1 822 0 is_stmt 1
 1275 0010 012C     		cmp	r4, #1
 1276 0012 02D9     		bls	.L112
 1277              		.loc 1 822 0 is_stmt 0 discriminator 1
 1278 0014 0020     		movs	r0, #0
 1279 0016 FFF7FEFF 		bl	CyHalt
 1280              	.LVL100:
 1281              	.L112:
 823:Generated_Source\PSoC4/CyDMA.c **** 
 824:Generated_Source\PSoC4/CyDMA.c ****     return (CYDMA_DESCR_BASE.descriptor[channel][descriptor].status);
 1282              		.loc 1 824 0 is_stmt 1
 1283 001a 6D00     		lsls	r5, r5, #1
 1284              	.LVL101:
ARM GAS  C:\Users\JamesN4\AppData\Local\Temp\ccgbGPCH.s 			page 39


 1285 001c 2C19     		adds	r4, r5, r4
 1286              	.LVL102:
 1287 001e 2401     		lsls	r4, r4, #4
 1288 0020 024B     		ldr	r3, .L113
 1289 0022 9C46     		mov	ip, r3
 1290 0024 6444     		add	r4, r4, ip
 1291 0026 E068     		ldr	r0, [r4, #12]
 825:Generated_Source\PSoC4/CyDMA.c **** }
 1292              		.loc 1 825 0
 1293              		@ sp needed
 1294 0028 70BD     		pop	{r4, r5, r6, pc}
 1295              	.L114:
 1296 002a C046     		.align	2
 1297              	.L113:
 1298 002c 00181040 		.word	1074796544
 1299              		.cfi_endproc
 1300              	.LFE28:
 1301              		.size	CyDmaGetDescriptorStatus, .-CyDmaGetDescriptorStatus
 1302              		.section	.text.CyDmaSetSrcAddress,"ax",%progbits
 1303              		.align	2
 1304              		.global	CyDmaSetSrcAddress
 1305              		.code	16
 1306              		.thumb_func
 1307              		.type	CyDmaSetSrcAddress, %function
 1308              	CyDmaSetSrcAddress:
 1309              	.LFB29:
 826:Generated_Source\PSoC4/CyDMA.c **** 
 827:Generated_Source\PSoC4/CyDMA.c **** 
 828:Generated_Source\PSoC4/CyDMA.c **** /*******************************************************************************
 829:Generated_Source\PSoC4/CyDMA.c **** * Function Name: CyDmaSetSrcAddress
 830:Generated_Source\PSoC4/CyDMA.c **** ********************************************************************************
 831:Generated_Source\PSoC4/CyDMA.c **** *
 832:Generated_Source\PSoC4/CyDMA.c **** * Summary:
 833:Generated_Source\PSoC4/CyDMA.c **** *  Configures the source address for the specified descriptor.
 834:Generated_Source\PSoC4/CyDMA.c **** *
 835:Generated_Source\PSoC4/CyDMA.c **** * Parameters:
 836:Generated_Source\PSoC4/CyDMA.c **** *  channel:    Channel used by this function.
 837:Generated_Source\PSoC4/CyDMA.c **** *  descriptor: Descriptor (0 or 1) modified by this function.
 838:Generated_Source\PSoC4/CyDMA.c **** *  srcAddress: Address of DMA transfer source.
 839:Generated_Source\PSoC4/CyDMA.c **** *                   
 840:Generated_Source\PSoC4/CyDMA.c **** * Return:
 841:Generated_Source\PSoC4/CyDMA.c **** *  None.
 842:Generated_Source\PSoC4/CyDMA.c **** *
 843:Generated_Source\PSoC4/CyDMA.c **** * Side effect:
 844:Generated_Source\PSoC4/CyDMA.c **** *  This function should not be called when the specified descriptor is active
 845:Generated_Source\PSoC4/CyDMA.c **** *  in the DMA transfer engine. This can be checked by calling CyDmaGetStatus(). 
 846:Generated_Source\PSoC4/CyDMA.c **** *
 847:Generated_Source\PSoC4/CyDMA.c **** *******************************************************************************/
 848:Generated_Source\PSoC4/CyDMA.c **** void CyDmaSetSrcAddress(int32 channel, int32 descriptor, void * srcAddress)
 849:Generated_Source\PSoC4/CyDMA.c **** {
 1310              		.loc 1 849 0
 1311              		.cfi_startproc
 1312              		@ args = 0, pretend = 0, frame = 0
 1313              		@ frame_needed = 0, uses_anonymous_args = 0
 1314              	.LVL103:
 1315 0000 70B5     		push	{r4, r5, r6, lr}
 1316              		.cfi_def_cfa_offset 16
ARM GAS  C:\Users\JamesN4\AppData\Local\Temp\ccgbGPCH.s 			page 40


 1317              		.cfi_offset 4, -16
 1318              		.cfi_offset 5, -12
 1319              		.cfi_offset 6, -8
 1320              		.cfi_offset 14, -4
 1321 0002 0500     		movs	r5, r0
 1322 0004 0C00     		movs	r4, r1
 1323 0006 1600     		movs	r6, r2
 850:Generated_Source\PSoC4/CyDMA.c ****     CYASSERT((channel    >= 0) && (channel    < CYDMA_CH_NR));
 1324              		.loc 1 850 0
 1325 0008 0728     		cmp	r0, #7
 1326 000a 02D9     		bls	.L116
 1327              		.loc 1 850 0 is_stmt 0 discriminator 1
 1328 000c 0020     		movs	r0, #0
 1329              	.LVL104:
 1330 000e FFF7FEFF 		bl	CyHalt
 1331              	.LVL105:
 1332              	.L116:
 851:Generated_Source\PSoC4/CyDMA.c ****     CYASSERT((descriptor >= 0) && (descriptor < CYDMA_DESCR_NR));
 1333              		.loc 1 851 0 is_stmt 1
 1334 0012 012C     		cmp	r4, #1
 1335 0014 02D9     		bls	.L117
 1336              		.loc 1 851 0 is_stmt 0 discriminator 1
 1337 0016 0020     		movs	r0, #0
 1338 0018 FFF7FEFF 		bl	CyHalt
 1339              	.LVL106:
 1340              	.L117:
 852:Generated_Source\PSoC4/CyDMA.c **** 
 853:Generated_Source\PSoC4/CyDMA.c ****     CYDMA_DESCR_BASE.descriptor[channel][descriptor].src = srcAddress;
 1341              		.loc 1 853 0 is_stmt 1
 1342 001c 6D00     		lsls	r5, r5, #1
 1343              	.LVL107:
 1344 001e 2C19     		adds	r4, r5, r4
 1345              	.LVL108:
 1346 0020 2401     		lsls	r4, r4, #4
 1347 0022 014B     		ldr	r3, .L118
 1348 0024 E650     		str	r6, [r4, r3]
 854:Generated_Source\PSoC4/CyDMA.c **** }
 1349              		.loc 1 854 0
 1350              		@ sp needed
 1351              	.LVL109:
 1352 0026 70BD     		pop	{r4, r5, r6, pc}
 1353              	.L119:
 1354              		.align	2
 1355              	.L118:
 1356 0028 00181040 		.word	1074796544
 1357              		.cfi_endproc
 1358              	.LFE29:
 1359              		.size	CyDmaSetSrcAddress, .-CyDmaSetSrcAddress
 1360              		.section	.text.CyDmaGetSrcAddress,"ax",%progbits
 1361              		.align	2
 1362              		.global	CyDmaGetSrcAddress
 1363              		.code	16
 1364              		.thumb_func
 1365              		.type	CyDmaGetSrcAddress, %function
 1366              	CyDmaGetSrcAddress:
 1367              	.LFB30:
 855:Generated_Source\PSoC4/CyDMA.c **** 
ARM GAS  C:\Users\JamesN4\AppData\Local\Temp\ccgbGPCH.s 			page 41


 856:Generated_Source\PSoC4/CyDMA.c **** 
 857:Generated_Source\PSoC4/CyDMA.c **** /*******************************************************************************
 858:Generated_Source\PSoC4/CyDMA.c **** * Function Name: CyDmaGetSrcAddress
 859:Generated_Source\PSoC4/CyDMA.c **** ********************************************************************************
 860:Generated_Source\PSoC4/CyDMA.c **** *
 861:Generated_Source\PSoC4/CyDMA.c **** * Summary:
 862:Generated_Source\PSoC4/CyDMA.c **** *  Returns the source address for the specified descriptor, set by 
 863:Generated_Source\PSoC4/CyDMA.c **** *  CyDmaSetSrcAddress().
 864:Generated_Source\PSoC4/CyDMA.c **** *
 865:Generated_Source\PSoC4/CyDMA.c **** * Parameters:
 866:Generated_Source\PSoC4/CyDMA.c **** *  channel:    Channel used by this function.
 867:Generated_Source\PSoC4/CyDMA.c **** *  descriptor: Specifies descriptor (0 or 1) used by this function.
 868:Generated_Source\PSoC4/CyDMA.c **** *                   
 869:Generated_Source\PSoC4/CyDMA.c **** * Return:
 870:Generated_Source\PSoC4/CyDMA.c **** *  Source address written to specified descriptor.
 871:Generated_Source\PSoC4/CyDMA.c **** *
 872:Generated_Source\PSoC4/CyDMA.c **** *******************************************************************************/
 873:Generated_Source\PSoC4/CyDMA.c **** void * CyDmaGetSrcAddress(int32 channel, int32 descriptor)
 874:Generated_Source\PSoC4/CyDMA.c **** {
 1368              		.loc 1 874 0
 1369              		.cfi_startproc
 1370              		@ args = 0, pretend = 0, frame = 0
 1371              		@ frame_needed = 0, uses_anonymous_args = 0
 1372              	.LVL110:
 1373 0000 70B5     		push	{r4, r5, r6, lr}
 1374              		.cfi_def_cfa_offset 16
 1375              		.cfi_offset 4, -16
 1376              		.cfi_offset 5, -12
 1377              		.cfi_offset 6, -8
 1378              		.cfi_offset 14, -4
 1379 0002 0500     		movs	r5, r0
 1380 0004 0C00     		movs	r4, r1
 875:Generated_Source\PSoC4/CyDMA.c ****     CYASSERT((channel    >= 0) && (channel    < CYDMA_CH_NR));
 1381              		.loc 1 875 0
 1382 0006 0728     		cmp	r0, #7
 1383 0008 02D9     		bls	.L121
 1384              		.loc 1 875 0 is_stmt 0 discriminator 1
 1385 000a 0020     		movs	r0, #0
 1386              	.LVL111:
 1387 000c FFF7FEFF 		bl	CyHalt
 1388              	.LVL112:
 1389              	.L121:
 876:Generated_Source\PSoC4/CyDMA.c ****     CYASSERT((descriptor >= 0) && (descriptor < CYDMA_DESCR_NR));
 1390              		.loc 1 876 0 is_stmt 1
 1391 0010 012C     		cmp	r4, #1
 1392 0012 02D9     		bls	.L122
 1393              		.loc 1 876 0 is_stmt 0 discriminator 1
 1394 0014 0020     		movs	r0, #0
 1395 0016 FFF7FEFF 		bl	CyHalt
 1396              	.LVL113:
 1397              	.L122:
 877:Generated_Source\PSoC4/CyDMA.c **** 
 878:Generated_Source\PSoC4/CyDMA.c ****     return (CYDMA_DESCR_BASE.descriptor[channel][descriptor].src);
 1398              		.loc 1 878 0 is_stmt 1
 1399 001a 6D00     		lsls	r5, r5, #1
 1400              	.LVL114:
 1401 001c 2C19     		adds	r4, r5, r4
ARM GAS  C:\Users\JamesN4\AppData\Local\Temp\ccgbGPCH.s 			page 42


 1402              	.LVL115:
 1403 001e 2401     		lsls	r4, r4, #4
 1404 0020 014B     		ldr	r3, .L123
 1405 0022 E058     		ldr	r0, [r4, r3]
 879:Generated_Source\PSoC4/CyDMA.c **** }
 1406              		.loc 1 879 0
 1407              		@ sp needed
 1408 0024 70BD     		pop	{r4, r5, r6, pc}
 1409              	.L124:
 1410 0026 C046     		.align	2
 1411              	.L123:
 1412 0028 00181040 		.word	1074796544
 1413              		.cfi_endproc
 1414              	.LFE30:
 1415              		.size	CyDmaGetSrcAddress, .-CyDmaGetSrcAddress
 1416              		.section	.text.CyDmaSetDstAddress,"ax",%progbits
 1417              		.align	2
 1418              		.global	CyDmaSetDstAddress
 1419              		.code	16
 1420              		.thumb_func
 1421              		.type	CyDmaSetDstAddress, %function
 1422              	CyDmaSetDstAddress:
 1423              	.LFB31:
 880:Generated_Source\PSoC4/CyDMA.c **** 
 881:Generated_Source\PSoC4/CyDMA.c **** 
 882:Generated_Source\PSoC4/CyDMA.c **** /*******************************************************************************
 883:Generated_Source\PSoC4/CyDMA.c **** * Function Name: CyDmaSetDstAddress
 884:Generated_Source\PSoC4/CyDMA.c **** ********************************************************************************
 885:Generated_Source\PSoC4/CyDMA.c **** *
 886:Generated_Source\PSoC4/CyDMA.c **** * Summary:
 887:Generated_Source\PSoC4/CyDMA.c **** *  Configures the destination address for the specified descriptor.
 888:Generated_Source\PSoC4/CyDMA.c **** *
 889:Generated_Source\PSoC4/CyDMA.c **** * Parameters:
 890:Generated_Source\PSoC4/CyDMA.c **** *  channel:    Channel used by this function.
 891:Generated_Source\PSoC4/CyDMA.c **** *  descriptor: Descriptor (0 or 1) modified by this function.
 892:Generated_Source\PSoC4/CyDMA.c **** *  dstAddress: Address of DMA transfer destination.
 893:Generated_Source\PSoC4/CyDMA.c **** *                   
 894:Generated_Source\PSoC4/CyDMA.c **** * Return:
 895:Generated_Source\PSoC4/CyDMA.c **** *  None.
 896:Generated_Source\PSoC4/CyDMA.c **** *
 897:Generated_Source\PSoC4/CyDMA.c **** * Side effect:
 898:Generated_Source\PSoC4/CyDMA.c **** *  This function should not be called when the specified descriptor is active
 899:Generated_Source\PSoC4/CyDMA.c **** *  in the DMA transfer engine. This can be checked by calling CyDmaGetStatus(). 
 900:Generated_Source\PSoC4/CyDMA.c **** *
 901:Generated_Source\PSoC4/CyDMA.c **** *******************************************************************************/
 902:Generated_Source\PSoC4/CyDMA.c **** void CyDmaSetDstAddress(int32 channel, int32 descriptor, void * dstAddress)
 903:Generated_Source\PSoC4/CyDMA.c **** {
 1424              		.loc 1 903 0
 1425              		.cfi_startproc
 1426              		@ args = 0, pretend = 0, frame = 0
 1427              		@ frame_needed = 0, uses_anonymous_args = 0
 1428              	.LVL116:
 1429 0000 70B5     		push	{r4, r5, r6, lr}
 1430              		.cfi_def_cfa_offset 16
 1431              		.cfi_offset 4, -16
 1432              		.cfi_offset 5, -12
 1433              		.cfi_offset 6, -8
ARM GAS  C:\Users\JamesN4\AppData\Local\Temp\ccgbGPCH.s 			page 43


 1434              		.cfi_offset 14, -4
 1435 0002 0500     		movs	r5, r0
 1436 0004 0C00     		movs	r4, r1
 1437 0006 1600     		movs	r6, r2
 904:Generated_Source\PSoC4/CyDMA.c ****     CYASSERT((channel    >= 0) && (channel    < CYDMA_CH_NR));
 1438              		.loc 1 904 0
 1439 0008 0728     		cmp	r0, #7
 1440 000a 02D9     		bls	.L126
 1441              		.loc 1 904 0 is_stmt 0 discriminator 1
 1442 000c 0020     		movs	r0, #0
 1443              	.LVL117:
 1444 000e FFF7FEFF 		bl	CyHalt
 1445              	.LVL118:
 1446              	.L126:
 905:Generated_Source\PSoC4/CyDMA.c ****     CYASSERT((descriptor >= 0) && (descriptor < CYDMA_DESCR_NR));
 1447              		.loc 1 905 0 is_stmt 1
 1448 0012 012C     		cmp	r4, #1
 1449 0014 02D9     		bls	.L127
 1450              		.loc 1 905 0 is_stmt 0 discriminator 1
 1451 0016 0020     		movs	r0, #0
 1452 0018 FFF7FEFF 		bl	CyHalt
 1453              	.LVL119:
 1454              	.L127:
 906:Generated_Source\PSoC4/CyDMA.c **** 
 907:Generated_Source\PSoC4/CyDMA.c ****     CYDMA_DESCR_BASE.descriptor[channel][descriptor].dst = dstAddress;
 1455              		.loc 1 907 0 is_stmt 1
 1456 001c 6D00     		lsls	r5, r5, #1
 1457              	.LVL120:
 1458 001e 2C19     		adds	r4, r5, r4
 1459              	.LVL121:
 1460 0020 2401     		lsls	r4, r4, #4
 1461 0022 024B     		ldr	r3, .L128
 1462 0024 9C46     		mov	ip, r3
 1463 0026 6444     		add	r4, r4, ip
 1464 0028 6660     		str	r6, [r4, #4]
 908:Generated_Source\PSoC4/CyDMA.c **** }
 1465              		.loc 1 908 0
 1466              		@ sp needed
 1467              	.LVL122:
 1468 002a 70BD     		pop	{r4, r5, r6, pc}
 1469              	.L129:
 1470              		.align	2
 1471              	.L128:
 1472 002c 00181040 		.word	1074796544
 1473              		.cfi_endproc
 1474              	.LFE31:
 1475              		.size	CyDmaSetDstAddress, .-CyDmaSetDstAddress
 1476              		.section	.text.CyDmaGetDstAddress,"ax",%progbits
 1477              		.align	2
 1478              		.global	CyDmaGetDstAddress
 1479              		.code	16
 1480              		.thumb_func
 1481              		.type	CyDmaGetDstAddress, %function
 1482              	CyDmaGetDstAddress:
 1483              	.LFB32:
 909:Generated_Source\PSoC4/CyDMA.c **** 
 910:Generated_Source\PSoC4/CyDMA.c **** 
ARM GAS  C:\Users\JamesN4\AppData\Local\Temp\ccgbGPCH.s 			page 44


 911:Generated_Source\PSoC4/CyDMA.c **** /*******************************************************************************
 912:Generated_Source\PSoC4/CyDMA.c **** * Function Name: CyDmaGetDstAddress
 913:Generated_Source\PSoC4/CyDMA.c **** ********************************************************************************
 914:Generated_Source\PSoC4/CyDMA.c **** *
 915:Generated_Source\PSoC4/CyDMA.c **** * Summary:
 916:Generated_Source\PSoC4/CyDMA.c **** *  Returns the destination address for the specified descriptor, set by 
 917:Generated_Source\PSoC4/CyDMA.c **** *  CyDmaSetDstAddress().
 918:Generated_Source\PSoC4/CyDMA.c **** *
 919:Generated_Source\PSoC4/CyDMA.c **** * Parameters:
 920:Generated_Source\PSoC4/CyDMA.c **** *  channel:    Channel used by this function.
 921:Generated_Source\PSoC4/CyDMA.c **** *  descriptor: Specifies descriptor (0 or 1) used by this function.
 922:Generated_Source\PSoC4/CyDMA.c **** *                   
 923:Generated_Source\PSoC4/CyDMA.c **** * Return:
 924:Generated_Source\PSoC4/CyDMA.c **** *  Destination address written to specified descriptor.
 925:Generated_Source\PSoC4/CyDMA.c **** *
 926:Generated_Source\PSoC4/CyDMA.c **** *******************************************************************************/
 927:Generated_Source\PSoC4/CyDMA.c **** void * CyDmaGetDstAddress(int32 channel, int32 descriptor)
 928:Generated_Source\PSoC4/CyDMA.c **** {
 1484              		.loc 1 928 0
 1485              		.cfi_startproc
 1486              		@ args = 0, pretend = 0, frame = 0
 1487              		@ frame_needed = 0, uses_anonymous_args = 0
 1488              	.LVL123:
 1489 0000 70B5     		push	{r4, r5, r6, lr}
 1490              		.cfi_def_cfa_offset 16
 1491              		.cfi_offset 4, -16
 1492              		.cfi_offset 5, -12
 1493              		.cfi_offset 6, -8
 1494              		.cfi_offset 14, -4
 1495 0002 0500     		movs	r5, r0
 1496 0004 0C00     		movs	r4, r1
 929:Generated_Source\PSoC4/CyDMA.c ****     CYASSERT((channel    >= 0) && (channel    < CYDMA_CH_NR));
 1497              		.loc 1 929 0
 1498 0006 0728     		cmp	r0, #7
 1499 0008 02D9     		bls	.L131
 1500              		.loc 1 929 0 is_stmt 0 discriminator 1
 1501 000a 0020     		movs	r0, #0
 1502              	.LVL124:
 1503 000c FFF7FEFF 		bl	CyHalt
 1504              	.LVL125:
 1505              	.L131:
 930:Generated_Source\PSoC4/CyDMA.c ****     CYASSERT((descriptor >= 0) && (descriptor < CYDMA_DESCR_NR));
 1506              		.loc 1 930 0 is_stmt 1
 1507 0010 012C     		cmp	r4, #1
 1508 0012 02D9     		bls	.L132
 1509              		.loc 1 930 0 is_stmt 0 discriminator 1
 1510 0014 0020     		movs	r0, #0
 1511 0016 FFF7FEFF 		bl	CyHalt
 1512              	.LVL126:
 1513              	.L132:
 931:Generated_Source\PSoC4/CyDMA.c **** 
 932:Generated_Source\PSoC4/CyDMA.c ****     return (CYDMA_DESCR_BASE.descriptor[channel][descriptor].dst);
 1514              		.loc 1 932 0 is_stmt 1
 1515 001a 6D00     		lsls	r5, r5, #1
 1516              	.LVL127:
 1517 001c 2C19     		adds	r4, r5, r4
 1518              	.LVL128:
ARM GAS  C:\Users\JamesN4\AppData\Local\Temp\ccgbGPCH.s 			page 45


 1519 001e 2401     		lsls	r4, r4, #4
 1520 0020 024B     		ldr	r3, .L133
 1521 0022 9C46     		mov	ip, r3
 1522 0024 6444     		add	r4, r4, ip
 1523 0026 6068     		ldr	r0, [r4, #4]
 933:Generated_Source\PSoC4/CyDMA.c **** }
 1524              		.loc 1 933 0
 1525              		@ sp needed
 1526 0028 70BD     		pop	{r4, r5, r6, pc}
 1527              	.L134:
 1528 002a C046     		.align	2
 1529              	.L133:
 1530 002c 00181040 		.word	1074796544
 1531              		.cfi_endproc
 1532              	.LFE32:
 1533              		.size	CyDmaGetDstAddress, .-CyDmaGetDstAddress
 1534              		.section	.text.CyDmaSetDataElementSize,"ax",%progbits
 1535              		.align	2
 1536              		.global	CyDmaSetDataElementSize
 1537              		.code	16
 1538              		.thumb_func
 1539              		.type	CyDmaSetDataElementSize, %function
 1540              	CyDmaSetDataElementSize:
 1541              	.LFB33:
 934:Generated_Source\PSoC4/CyDMA.c **** 
 935:Generated_Source\PSoC4/CyDMA.c **** /*******************************************************************************
 936:Generated_Source\PSoC4/CyDMA.c **** * Function Name: CyDmaSetDataElementSize
 937:Generated_Source\PSoC4/CyDMA.c **** ********************************************************************************
 938:Generated_Source\PSoC4/CyDMA.c **** *
 939:Generated_Source\PSoC4/CyDMA.c **** * Summary:
 940:Generated_Source\PSoC4/CyDMA.c **** *  Sets the data element size for the specified descriptor.
 941:Generated_Source\PSoC4/CyDMA.c **** *
 942:Generated_Source\PSoC4/CyDMA.c **** * Parameters:
 943:Generated_Source\PSoC4/CyDMA.c **** *  channel:         Channel used by this function.
 944:Generated_Source\PSoC4/CyDMA.c **** *  descriptor:      Descriptor (0 or 1) modified by this function.
 945:Generated_Source\PSoC4/CyDMA.c **** *  dataElementSize: Specifies the size of the data element. The DMA transfer
 946:Generated_Source\PSoC4/CyDMA.c **** *                   engine transfers one data element at a time. How these
 947:Generated_Source\PSoC4/CyDMA.c **** *                   transfers occur is controlled by the transfer mode.
 948:Generated_Source\PSoC4/CyDMA.c **** *                   Refer to the API bit field definitions in CyDMA_P4.h
 949:Generated_Source\PSoC4/CyDMA.c **** *                   or API description in the DMA channel datasheet for the 
 950:Generated_Source\PSoC4/CyDMA.c **** *                   parameter options.
 951:Generated_Source\PSoC4/CyDMA.c **** *
 952:Generated_Source\PSoC4/CyDMA.c **** * Return:
 953:Generated_Source\PSoC4/CyDMA.c **** *  None.
 954:Generated_Source\PSoC4/CyDMA.c **** *
 955:Generated_Source\PSoC4/CyDMA.c **** * Side effect:
 956:Generated_Source\PSoC4/CyDMA.c **** *  This function should not be called when the specified descriptor is active
 957:Generated_Source\PSoC4/CyDMA.c **** *  in the DMA transfer engine. This can be checked by calling CyDmaGetStatus(). 
 958:Generated_Source\PSoC4/CyDMA.c **** *
 959:Generated_Source\PSoC4/CyDMA.c **** *******************************************************************************/
 960:Generated_Source\PSoC4/CyDMA.c **** void CyDmaSetDataElementSize(int32 channel, int32 descriptor, uint32 dataElementSize)
 961:Generated_Source\PSoC4/CyDMA.c **** {
 1542              		.loc 1 961 0
 1543              		.cfi_startproc
 1544              		@ args = 0, pretend = 0, frame = 0
 1545              		@ frame_needed = 0, uses_anonymous_args = 0
 1546              	.LVL129:
ARM GAS  C:\Users\JamesN4\AppData\Local\Temp\ccgbGPCH.s 			page 46


 1547 0000 70B5     		push	{r4, r5, r6, lr}
 1548              		.cfi_def_cfa_offset 16
 1549              		.cfi_offset 4, -16
 1550              		.cfi_offset 5, -12
 1551              		.cfi_offset 6, -8
 1552              		.cfi_offset 14, -4
 1553 0002 0500     		movs	r5, r0
 1554 0004 0C00     		movs	r4, r1
 1555 0006 1600     		movs	r6, r2
 962:Generated_Source\PSoC4/CyDMA.c ****     uint32 regValue;
 963:Generated_Source\PSoC4/CyDMA.c ****     
 964:Generated_Source\PSoC4/CyDMA.c ****     CYASSERT((channel    >= 0) && (channel    < CYDMA_CH_NR));
 1556              		.loc 1 964 0
 1557 0008 0728     		cmp	r0, #7
 1558 000a 02D9     		bls	.L136
 1559              		.loc 1 964 0 is_stmt 0 discriminator 1
 1560 000c 0020     		movs	r0, #0
 1561              	.LVL130:
 1562 000e FFF7FEFF 		bl	CyHalt
 1563              	.LVL131:
 1564              	.L136:
 965:Generated_Source\PSoC4/CyDMA.c ****     CYASSERT((descriptor >= 0) && (descriptor < CYDMA_DESCR_NR));
 1565              		.loc 1 965 0 is_stmt 1
 1566 0012 012C     		cmp	r4, #1
 1567 0014 02D9     		bls	.L137
 1568              		.loc 1 965 0 is_stmt 0 discriminator 1
 1569 0016 0020     		movs	r0, #0
 1570 0018 FFF7FEFF 		bl	CyHalt
 1571              	.LVL132:
 1572              	.L137:
 966:Generated_Source\PSoC4/CyDMA.c ****     CYASSERT(0u == (dataElementSize & (uint32)~CYDMA_DATA_SIZE));
 1573              		.loc 1 966 0 is_stmt 1
 1574 001c 084B     		ldr	r3, .L139
 1575 001e 1E42     		tst	r6, r3
 1576 0020 02D0     		beq	.L138
 1577              		.loc 1 966 0 is_stmt 0 discriminator 1
 1578 0022 0020     		movs	r0, #0
 1579 0024 FFF7FEFF 		bl	CyHalt
 1580              	.LVL133:
 1581              	.L138:
 967:Generated_Source\PSoC4/CyDMA.c **** 
 968:Generated_Source\PSoC4/CyDMA.c ****     regValue = CYDMA_DESCR_BASE.descriptor[channel][descriptor].ctl & (uint32)~CYDMA_DATA_SIZE;
 1582              		.loc 1 968 0 is_stmt 1
 1583 0028 6D00     		lsls	r5, r5, #1
 1584              	.LVL134:
 1585 002a 2C19     		adds	r4, r5, r4
 1586              	.LVL135:
 1587 002c 2401     		lsls	r4, r4, #4
 1588 002e 054B     		ldr	r3, .L139+4
 1589 0030 9C46     		mov	ip, r3
 1590 0032 6444     		add	r4, r4, ip
 1591 0034 A268     		ldr	r2, [r4, #8]
 1592 0036 024B     		ldr	r3, .L139
 1593 0038 1A40     		ands	r2, r3
 1594              	.LVL136:
 969:Generated_Source\PSoC4/CyDMA.c ****     CYDMA_DESCR_BASE.descriptor[channel][descriptor].ctl = regValue | dataElementSize;
 1595              		.loc 1 969 0
ARM GAS  C:\Users\JamesN4\AppData\Local\Temp\ccgbGPCH.s 			page 47


 1596 003a 3243     		orrs	r2, r6
 1597              	.LVL137:
 1598 003c A260     		str	r2, [r4, #8]
 970:Generated_Source\PSoC4/CyDMA.c **** }
 1599              		.loc 1 970 0
 1600              		@ sp needed
 1601              	.LVL138:
 1602 003e 70BD     		pop	{r4, r5, r6, pc}
 1603              	.L140:
 1604              		.align	2
 1605              	.L139:
 1606 0040 FFFFFCFF 		.word	-196609
 1607 0044 00181040 		.word	1074796544
 1608              		.cfi_endproc
 1609              	.LFE33:
 1610              		.size	CyDmaSetDataElementSize, .-CyDmaSetDataElementSize
 1611              		.section	.text.CyDmaGetDataElementSize,"ax",%progbits
 1612              		.align	2
 1613              		.global	CyDmaGetDataElementSize
 1614              		.code	16
 1615              		.thumb_func
 1616              		.type	CyDmaGetDataElementSize, %function
 1617              	CyDmaGetDataElementSize:
 1618              	.LFB34:
 971:Generated_Source\PSoC4/CyDMA.c **** 
 972:Generated_Source\PSoC4/CyDMA.c **** 
 973:Generated_Source\PSoC4/CyDMA.c **** /*******************************************************************************
 974:Generated_Source\PSoC4/CyDMA.c **** * Function Name: CyDmaGetDataElementSize
 975:Generated_Source\PSoC4/CyDMA.c **** ********************************************************************************
 976:Generated_Source\PSoC4/CyDMA.c **** *
 977:Generated_Source\PSoC4/CyDMA.c **** * Summary:
 978:Generated_Source\PSoC4/CyDMA.c **** *  Returns the data element size configured for the specified descriptor, set by
 979:Generated_Source\PSoC4/CyDMA.c **** *  CyDmaSetDataElementSize() or CyDmaSetConfiguration.
 980:Generated_Source\PSoC4/CyDMA.c **** *
 981:Generated_Source\PSoC4/CyDMA.c **** * Parameters:
 982:Generated_Source\PSoC4/CyDMA.c **** *  channel:    Channel used by this function.
 983:Generated_Source\PSoC4/CyDMA.c **** *  descriptor: Descriptor (0 or 1) modified by this function.
 984:Generated_Source\PSoC4/CyDMA.c **** *                   
 985:Generated_Source\PSoC4/CyDMA.c **** * Return:
 986:Generated_Source\PSoC4/CyDMA.c **** *  The size of the data element. The DMA transfer engine transfers one data
 987:Generated_Source\PSoC4/CyDMA.c **** *  element at a time. How these transfers occur is controlled by the transfer
 988:Generated_Source\PSoC4/CyDMA.c **** *  mode. Refer to the API bit field definitions in CyDMA_P4.h or the API 
 989:Generated_Source\PSoC4/CyDMA.c **** *  description in the DMA channel datasheet for more information.
 990:Generated_Source\PSoC4/CyDMA.c **** *
 991:Generated_Source\PSoC4/CyDMA.c **** * Note:
 992:Generated_Source\PSoC4/CyDMA.c **** *  The size of the source and destination can be configured to use the
 993:Generated_Source\PSoC4/CyDMA.c **** *  data element size, or a Word, this is set in CyDmaSetSrcDstTransferWidth().
 994:Generated_Source\PSoC4/CyDMA.c **** *
 995:Generated_Source\PSoC4/CyDMA.c **** *******************************************************************************/
 996:Generated_Source\PSoC4/CyDMA.c **** uint32 CyDmaGetDataElementSize(int32 channel, int32 descriptor)
 997:Generated_Source\PSoC4/CyDMA.c **** {
 1619              		.loc 1 997 0
 1620              		.cfi_startproc
 1621              		@ args = 0, pretend = 0, frame = 0
 1622              		@ frame_needed = 0, uses_anonymous_args = 0
 1623              	.LVL139:
 1624 0000 70B5     		push	{r4, r5, r6, lr}
ARM GAS  C:\Users\JamesN4\AppData\Local\Temp\ccgbGPCH.s 			page 48


 1625              		.cfi_def_cfa_offset 16
 1626              		.cfi_offset 4, -16
 1627              		.cfi_offset 5, -12
 1628              		.cfi_offset 6, -8
 1629              		.cfi_offset 14, -4
 1630 0002 0500     		movs	r5, r0
 1631 0004 0C00     		movs	r4, r1
 998:Generated_Source\PSoC4/CyDMA.c ****     CYASSERT((channel    >= 0) && (channel    < CYDMA_CH_NR));
 1632              		.loc 1 998 0
 1633 0006 0728     		cmp	r0, #7
 1634 0008 02D9     		bls	.L142
 1635              		.loc 1 998 0 is_stmt 0 discriminator 1
 1636 000a 0020     		movs	r0, #0
 1637              	.LVL140:
 1638 000c FFF7FEFF 		bl	CyHalt
 1639              	.LVL141:
 1640              	.L142:
 999:Generated_Source\PSoC4/CyDMA.c ****     CYASSERT((descriptor >= 0) && (descriptor < CYDMA_DESCR_NR));
 1641              		.loc 1 999 0 is_stmt 1
 1642 0010 012C     		cmp	r4, #1
 1643 0012 02D9     		bls	.L143
 1644              		.loc 1 999 0 is_stmt 0 discriminator 1
 1645 0014 0020     		movs	r0, #0
 1646 0016 FFF7FEFF 		bl	CyHalt
 1647              	.LVL142:
 1648              	.L143:
1000:Generated_Source\PSoC4/CyDMA.c **** 
1001:Generated_Source\PSoC4/CyDMA.c ****     return (CYDMA_DESCR_BASE.descriptor[channel][descriptor].ctl & CYDMA_DATA_SIZE);
 1649              		.loc 1 1001 0 is_stmt 1
 1650 001a 6D00     		lsls	r5, r5, #1
 1651              	.LVL143:
 1652 001c 2C19     		adds	r4, r5, r4
 1653              	.LVL144:
 1654 001e 2401     		lsls	r4, r4, #4
 1655 0020 034B     		ldr	r3, .L144
 1656 0022 9C46     		mov	ip, r3
 1657 0024 6444     		add	r4, r4, ip
 1658 0026 A068     		ldr	r0, [r4, #8]
 1659 0028 C023     		movs	r3, #192
 1660 002a 9B02     		lsls	r3, r3, #10
 1661 002c 1840     		ands	r0, r3
1002:Generated_Source\PSoC4/CyDMA.c **** }
 1662              		.loc 1 1002 0
 1663              		@ sp needed
 1664 002e 70BD     		pop	{r4, r5, r6, pc}
 1665              	.L145:
 1666              		.align	2
 1667              	.L144:
 1668 0030 00181040 		.word	1074796544
 1669              		.cfi_endproc
 1670              	.LFE34:
 1671              		.size	CyDmaGetDataElementSize, .-CyDmaGetDataElementSize
 1672              		.section	.text.CyDmaSetNumDataElements,"ax",%progbits
 1673              		.align	2
 1674              		.global	CyDmaSetNumDataElements
 1675              		.code	16
 1676              		.thumb_func
ARM GAS  C:\Users\JamesN4\AppData\Local\Temp\ccgbGPCH.s 			page 49


 1677              		.type	CyDmaSetNumDataElements, %function
 1678              	CyDmaSetNumDataElements:
 1679              	.LFB35:
1003:Generated_Source\PSoC4/CyDMA.c **** 
1004:Generated_Source\PSoC4/CyDMA.c **** 
1005:Generated_Source\PSoC4/CyDMA.c **** /*******************************************************************************
1006:Generated_Source\PSoC4/CyDMA.c **** * Function Name: CyDmaSetNumDataElements
1007:Generated_Source\PSoC4/CyDMA.c **** ********************************************************************************
1008:Generated_Source\PSoC4/CyDMA.c **** *
1009:Generated_Source\PSoC4/CyDMA.c **** * Summary:
1010:Generated_Source\PSoC4/CyDMA.c **** *  Sets the number of data elements to transfer for specified descriptor.
1011:Generated_Source\PSoC4/CyDMA.c **** *
1012:Generated_Source\PSoC4/CyDMA.c **** * Parameters:
1013:Generated_Source\PSoC4/CyDMA.c **** *  channel:         Channel used by this function.
1014:Generated_Source\PSoC4/CyDMA.c **** *  descriptor:      Descriptor (0 or 1) modified by this function.
1015:Generated_Source\PSoC4/CyDMA.c **** *  numDataElements: Total number of data elements this descriptor transfers.
1016:Generated_Source\PSoC4/CyDMA.c **** *                   Valid ranges are 1 to 65536.
1017:Generated_Source\PSoC4/CyDMA.c **** *                   
1018:Generated_Source\PSoC4/CyDMA.c **** * Return:
1019:Generated_Source\PSoC4/CyDMA.c **** *  None.
1020:Generated_Source\PSoC4/CyDMA.c **** *
1021:Generated_Source\PSoC4/CyDMA.c **** * Side effect:
1022:Generated_Source\PSoC4/CyDMA.c **** *  This function should not be called when the specified descriptor is active
1023:Generated_Source\PSoC4/CyDMA.c **** *  in the DMA transfer engine. This can be checked by calling CyDmaGetStatus(). 
1024:Generated_Source\PSoC4/CyDMA.c **** *
1025:Generated_Source\PSoC4/CyDMA.c **** *******************************************************************************/
1026:Generated_Source\PSoC4/CyDMA.c **** void CyDmaSetNumDataElements(int32 channel, int32 descriptor, int32 numDataElements)
1027:Generated_Source\PSoC4/CyDMA.c **** {
 1680              		.loc 1 1027 0
 1681              		.cfi_startproc
 1682              		@ args = 0, pretend = 0, frame = 0
 1683              		@ frame_needed = 0, uses_anonymous_args = 0
 1684              	.LVL145:
 1685 0000 70B5     		push	{r4, r5, r6, lr}
 1686              		.cfi_def_cfa_offset 16
 1687              		.cfi_offset 4, -16
 1688              		.cfi_offset 5, -12
 1689              		.cfi_offset 6, -8
 1690              		.cfi_offset 14, -4
 1691 0002 0600     		movs	r6, r0
 1692 0004 0C00     		movs	r4, r1
 1693 0006 1500     		movs	r5, r2
1028:Generated_Source\PSoC4/CyDMA.c ****     uint32 regValue;
1029:Generated_Source\PSoC4/CyDMA.c ****     
1030:Generated_Source\PSoC4/CyDMA.c ****     CYASSERT((channel        >= 0) && (channel         <  CYDMA_CH_NR));
 1694              		.loc 1 1030 0
 1695 0008 0728     		cmp	r0, #7
 1696 000a 02D9     		bls	.L147
 1697              		.loc 1 1030 0 is_stmt 0 discriminator 1
 1698 000c 0020     		movs	r0, #0
 1699              	.LVL146:
 1700 000e FFF7FEFF 		bl	CyHalt
 1701              	.LVL147:
 1702              	.L147:
1031:Generated_Source\PSoC4/CyDMA.c ****     CYASSERT((descriptor     >= 0) && (descriptor      <  CYDMA_DESCR_NR));
 1703              		.loc 1 1031 0 is_stmt 1
 1704 0012 012C     		cmp	r4, #1
ARM GAS  C:\Users\JamesN4\AppData\Local\Temp\ccgbGPCH.s 			page 50


 1705 0014 02D9     		bls	.L148
 1706              		.loc 1 1031 0 is_stmt 0 discriminator 1
 1707 0016 0020     		movs	r0, #0
 1708 0018 FFF7FEFF 		bl	CyHalt
 1709              	.LVL148:
 1710              	.L148:
1032:Generated_Source\PSoC4/CyDMA.c ****     CYASSERT((numDataElements > 0) && (numDataElements <= CYDMA_MAX_DATA_NR));
 1711              		.loc 1 1032 0 is_stmt 1
 1712 001c 6B1E     		subs	r3, r5, #1
 1713 001e 094A     		ldr	r2, .L150
 1714 0020 9342     		cmp	r3, r2
 1715 0022 02D9     		bls	.L149
 1716              		.loc 1 1032 0 is_stmt 0 discriminator 1
 1717 0024 0020     		movs	r0, #0
 1718 0026 FFF7FEFF 		bl	CyHalt
 1719              	.LVL149:
 1720              	.L149:
1033:Generated_Source\PSoC4/CyDMA.c ****     
1034:Generated_Source\PSoC4/CyDMA.c ****     --numDataElements;
 1721              		.loc 1 1034 0 is_stmt 1
 1722 002a 013D     		subs	r5, r5, #1
 1723              	.LVL150:
1035:Generated_Source\PSoC4/CyDMA.c ****     regValue = CYDMA_DESCR_BASE.descriptor[channel][descriptor].ctl & (uint32)~CYDMA_DATA_NR;
 1724              		.loc 1 1035 0
 1725 002c 7600     		lsls	r6, r6, #1
 1726              	.LVL151:
 1727 002e 3419     		adds	r4, r6, r4
 1728              	.LVL152:
 1729 0030 2401     		lsls	r4, r4, #4
 1730 0032 054B     		ldr	r3, .L150+4
 1731 0034 9C46     		mov	ip, r3
 1732 0036 6444     		add	r4, r4, ip
 1733 0038 A368     		ldr	r3, [r4, #8]
 1734 003a 1B0C     		lsrs	r3, r3, #16
 1735 003c 1B04     		lsls	r3, r3, #16
 1736              	.LVL153:
1036:Generated_Source\PSoC4/CyDMA.c ****     CYDMA_DESCR_BASE.descriptor[channel][descriptor].ctl = regValue | (uint32)numDataElements;
 1737              		.loc 1 1036 0
 1738 003e 1D43     		orrs	r5, r3
 1739              	.LVL154:
 1740 0040 A560     		str	r5, [r4, #8]
1037:Generated_Source\PSoC4/CyDMA.c **** }
 1741              		.loc 1 1037 0
 1742              		@ sp needed
 1743 0042 70BD     		pop	{r4, r5, r6, pc}
 1744              	.L151:
 1745              		.align	2
 1746              	.L150:
 1747 0044 FFFF0000 		.word	65535
 1748 0048 00181040 		.word	1074796544
 1749              		.cfi_endproc
 1750              	.LFE35:
 1751              		.size	CyDmaSetNumDataElements, .-CyDmaSetNumDataElements
 1752              		.section	.text.CyDmaGetNumDataElements,"ax",%progbits
 1753              		.align	2
 1754              		.global	CyDmaGetNumDataElements
 1755              		.code	16
ARM GAS  C:\Users\JamesN4\AppData\Local\Temp\ccgbGPCH.s 			page 51


 1756              		.thumb_func
 1757              		.type	CyDmaGetNumDataElements, %function
 1758              	CyDmaGetNumDataElements:
 1759              	.LFB36:
1038:Generated_Source\PSoC4/CyDMA.c **** 
1039:Generated_Source\PSoC4/CyDMA.c **** 
1040:Generated_Source\PSoC4/CyDMA.c **** /*******************************************************************************
1041:Generated_Source\PSoC4/CyDMA.c **** * Function Name: CyDmaGetNumDataElements
1042:Generated_Source\PSoC4/CyDMA.c **** ********************************************************************************
1043:Generated_Source\PSoC4/CyDMA.c **** *
1044:Generated_Source\PSoC4/CyDMA.c **** * Summary:
1045:Generated_Source\PSoC4/CyDMA.c **** *  Returns the number of data elements to be transferred. Only reflects the
1046:Generated_Source\PSoC4/CyDMA.c **** *  value written by CyDmaSetNumDataElements() or CyDmaSetConfiguration(). This
1047:Generated_Source\PSoC4/CyDMA.c **** *  does not reflect how many elements have been transferred. For that
1048:Generated_Source\PSoC4/CyDMA.c **** *  information use the CyDmaGetDescriptorStatus() function.
1049:Generated_Source\PSoC4/CyDMA.c **** *
1050:Generated_Source\PSoC4/CyDMA.c **** * Parameters:
1051:Generated_Source\PSoC4/CyDMA.c **** *  channel:    Channel used by this function.
1052:Generated_Source\PSoC4/CyDMA.c **** *  descriptor: Descriptor (0 or 1) modified by this function.
1053:Generated_Source\PSoC4/CyDMA.c **** *                   
1054:Generated_Source\PSoC4/CyDMA.c **** * Return:
1055:Generated_Source\PSoC4/CyDMA.c **** *  Number of data elements to transfer.
1056:Generated_Source\PSoC4/CyDMA.c **** *
1057:Generated_Source\PSoC4/CyDMA.c **** *******************************************************************************/
1058:Generated_Source\PSoC4/CyDMA.c **** int32 CyDmaGetNumDataElements(int32 channel, int32 descriptor)
1059:Generated_Source\PSoC4/CyDMA.c **** {
 1760              		.loc 1 1059 0
 1761              		.cfi_startproc
 1762              		@ args = 0, pretend = 0, frame = 0
 1763              		@ frame_needed = 0, uses_anonymous_args = 0
 1764              	.LVL155:
 1765 0000 70B5     		push	{r4, r5, r6, lr}
 1766              		.cfi_def_cfa_offset 16
 1767              		.cfi_offset 4, -16
 1768              		.cfi_offset 5, -12
 1769              		.cfi_offset 6, -8
 1770              		.cfi_offset 14, -4
 1771 0002 0500     		movs	r5, r0
 1772 0004 0C00     		movs	r4, r1
1060:Generated_Source\PSoC4/CyDMA.c ****     uint32 numElements;
1061:Generated_Source\PSoC4/CyDMA.c **** 
1062:Generated_Source\PSoC4/CyDMA.c ****     CYASSERT((channel    >= 0) && (channel    < CYDMA_CH_NR));
 1773              		.loc 1 1062 0
 1774 0006 0728     		cmp	r0, #7
 1775 0008 02D9     		bls	.L153
 1776              		.loc 1 1062 0 is_stmt 0 discriminator 1
 1777 000a 0020     		movs	r0, #0
 1778              	.LVL156:
 1779 000c FFF7FEFF 		bl	CyHalt
 1780              	.LVL157:
 1781              	.L153:
1063:Generated_Source\PSoC4/CyDMA.c ****     CYASSERT((descriptor >= 0) && (descriptor < CYDMA_DESCR_NR));
 1782              		.loc 1 1063 0 is_stmt 1
 1783 0010 012C     		cmp	r4, #1
 1784 0012 02D9     		bls	.L154
 1785              		.loc 1 1063 0 is_stmt 0 discriminator 1
 1786 0014 0020     		movs	r0, #0
ARM GAS  C:\Users\JamesN4\AppData\Local\Temp\ccgbGPCH.s 			page 52


 1787 0016 FFF7FEFF 		bl	CyHalt
 1788              	.LVL158:
 1789              	.L154:
1064:Generated_Source\PSoC4/CyDMA.c ****     
1065:Generated_Source\PSoC4/CyDMA.c ****     numElements = (CYDMA_DESCR_BASE.descriptor[channel][descriptor].ctl & CYDMA_DATA_NR) + 1u;
 1790              		.loc 1 1065 0 is_stmt 1
 1791 001a 6D00     		lsls	r5, r5, #1
 1792              	.LVL159:
 1793 001c 2C19     		adds	r4, r5, r4
 1794              	.LVL160:
 1795 001e 2401     		lsls	r4, r4, #4
 1796 0020 034B     		ldr	r3, .L155
 1797 0022 9C46     		mov	ip, r3
 1798 0024 6444     		add	r4, r4, ip
 1799 0026 A068     		ldr	r0, [r4, #8]
 1800 0028 0004     		lsls	r0, r0, #16
 1801 002a 000C     		lsrs	r0, r0, #16
 1802 002c 0130     		adds	r0, r0, #1
 1803              	.LVL161:
1066:Generated_Source\PSoC4/CyDMA.c ****     return ((int32)numElements);
1067:Generated_Source\PSoC4/CyDMA.c **** }
 1804              		.loc 1 1067 0
 1805              		@ sp needed
 1806 002e 70BD     		pop	{r4, r5, r6, pc}
 1807              	.L156:
 1808              		.align	2
 1809              	.L155:
 1810 0030 00181040 		.word	1074796544
 1811              		.cfi_endproc
 1812              	.LFE36:
 1813              		.size	CyDmaGetNumDataElements, .-CyDmaGetNumDataElements
 1814              		.section	.text.CyDmaSetSrcDstTransferWidth,"ax",%progbits
 1815              		.align	2
 1816              		.global	CyDmaSetSrcDstTransferWidth
 1817              		.code	16
 1818              		.thumb_func
 1819              		.type	CyDmaSetSrcDstTransferWidth, %function
 1820              	CyDmaSetSrcDstTransferWidth:
 1821              	.LFB37:
1068:Generated_Source\PSoC4/CyDMA.c **** 
1069:Generated_Source\PSoC4/CyDMA.c **** 
1070:Generated_Source\PSoC4/CyDMA.c **** /*******************************************************************************
1071:Generated_Source\PSoC4/CyDMA.c **** * Function Name: CyDmaSetSrcDstTransferWidth
1072:Generated_Source\PSoC4/CyDMA.c **** ********************************************************************************
1073:Generated_Source\PSoC4/CyDMA.c **** *
1074:Generated_Source\PSoC4/CyDMA.c **** * Summary:
1075:Generated_Source\PSoC4/CyDMA.c **** *  Sets the width of the source and destination. The DMA can either read and
1076:Generated_Source\PSoC4/CyDMA.c **** *  write data from the source and destination at the size specified by
1077:Generated_Source\PSoC4/CyDMA.c **** *  CyDmaSetDataElementSize() or by a word (4bytes). This also determines how
1078:Generated_Source\PSoC4/CyDMA.c **** *  many bytes the addresses are incremented if increment source and destination
1079:Generated_Source\PSoC4/CyDMA.c **** *  address are turned on.
1080:Generated_Source\PSoC4/CyDMA.c **** *
1081:Generated_Source\PSoC4/CyDMA.c **** * Parameters:
1082:Generated_Source\PSoC4/CyDMA.c **** *  channel:       Channel used by this function.
1083:Generated_Source\PSoC4/CyDMA.c **** *  descriptor:    Descriptor (0 or 1) modified by this function.
1084:Generated_Source\PSoC4/CyDMA.c **** *  transferWidth: Specifies the source and destination widths. Refer to 
1085:Generated_Source\PSoC4/CyDMA.c **** *                 the API bit field definitions in CyDMA_P4.h or the API
ARM GAS  C:\Users\JamesN4\AppData\Local\Temp\ccgbGPCH.s 			page 53


1086:Generated_Source\PSoC4/CyDMA.c **** *                 description in the DMA channel datasheet for the parameter
1087:Generated_Source\PSoC4/CyDMA.c **** *                 options.
1088:Generated_Source\PSoC4/CyDMA.c **** *                   
1089:Generated_Source\PSoC4/CyDMA.c **** * Return:
1090:Generated_Source\PSoC4/CyDMA.c **** *  None.
1091:Generated_Source\PSoC4/CyDMA.c **** *
1092:Generated_Source\PSoC4/CyDMA.c **** * Side effect:
1093:Generated_Source\PSoC4/CyDMA.c **** *  This function should not be called when the specified descriptor is active
1094:Generated_Source\PSoC4/CyDMA.c **** *  in the DMA transfer engine. This can be checked by calling CyDmaGetStatus(). 
1095:Generated_Source\PSoC4/CyDMA.c **** *
1096:Generated_Source\PSoC4/CyDMA.c **** *******************************************************************************/
1097:Generated_Source\PSoC4/CyDMA.c **** void CyDmaSetSrcDstTransferWidth(int32 channel, int32 descriptor, uint32 transferWidth)
1098:Generated_Source\PSoC4/CyDMA.c **** {
 1822              		.loc 1 1098 0
 1823              		.cfi_startproc
 1824              		@ args = 0, pretend = 0, frame = 0
 1825              		@ frame_needed = 0, uses_anonymous_args = 0
 1826              	.LVL162:
 1827 0000 70B5     		push	{r4, r5, r6, lr}
 1828              		.cfi_def_cfa_offset 16
 1829              		.cfi_offset 4, -16
 1830              		.cfi_offset 5, -12
 1831              		.cfi_offset 6, -8
 1832              		.cfi_offset 14, -4
 1833 0002 0500     		movs	r5, r0
 1834 0004 0C00     		movs	r4, r1
 1835 0006 1600     		movs	r6, r2
1099:Generated_Source\PSoC4/CyDMA.c ****     uint32 regValue;
1100:Generated_Source\PSoC4/CyDMA.c **** 
1101:Generated_Source\PSoC4/CyDMA.c ****     CYASSERT((channel    >= 0) && (channel    < CYDMA_CH_NR));
 1836              		.loc 1 1101 0
 1837 0008 0728     		cmp	r0, #7
 1838 000a 02D9     		bls	.L158
 1839              		.loc 1 1101 0 is_stmt 0 discriminator 1
 1840 000c 0020     		movs	r0, #0
 1841              	.LVL163:
 1842 000e FFF7FEFF 		bl	CyHalt
 1843              	.LVL164:
 1844              	.L158:
1102:Generated_Source\PSoC4/CyDMA.c ****     CYASSERT((descriptor >= 0) && (descriptor < CYDMA_DESCR_NR));
 1845              		.loc 1 1102 0 is_stmt 1
 1846 0012 012C     		cmp	r4, #1
 1847 0014 02D9     		bls	.L159
 1848              		.loc 1 1102 0 is_stmt 0 discriminator 1
 1849 0016 0020     		movs	r0, #0
 1850 0018 FFF7FEFF 		bl	CyHalt
 1851              	.LVL165:
 1852              	.L159:
1103:Generated_Source\PSoC4/CyDMA.c ****     CYASSERT(0u == (transferWidth & (uint32)~CYDMA_TRANSFER_WIDTH));
 1853              		.loc 1 1103 0 is_stmt 1
 1854 001c 084B     		ldr	r3, .L161
 1855 001e 1E42     		tst	r6, r3
 1856 0020 02D0     		beq	.L160
 1857              		.loc 1 1103 0 is_stmt 0 discriminator 1
 1858 0022 0020     		movs	r0, #0
 1859 0024 FFF7FEFF 		bl	CyHalt
 1860              	.LVL166:
ARM GAS  C:\Users\JamesN4\AppData\Local\Temp\ccgbGPCH.s 			page 54


 1861              	.L160:
1104:Generated_Source\PSoC4/CyDMA.c **** 
1105:Generated_Source\PSoC4/CyDMA.c ****     regValue = CYDMA_DESCR_BASE.descriptor[channel][descriptor].ctl & (uint32)~CYDMA_TRANSFER_WIDTH
 1862              		.loc 1 1105 0 is_stmt 1
 1863 0028 6D00     		lsls	r5, r5, #1
 1864              	.LVL167:
 1865 002a 2C19     		adds	r4, r5, r4
 1866              	.LVL168:
 1867 002c 2401     		lsls	r4, r4, #4
 1868 002e 054B     		ldr	r3, .L161+4
 1869 0030 9C46     		mov	ip, r3
 1870 0032 6444     		add	r4, r4, ip
 1871 0034 A268     		ldr	r2, [r4, #8]
 1872 0036 024B     		ldr	r3, .L161
 1873 0038 1A40     		ands	r2, r3
 1874              	.LVL169:
1106:Generated_Source\PSoC4/CyDMA.c ****     CYDMA_DESCR_BASE.descriptor[channel][descriptor].ctl = regValue | transferWidth;
 1875              		.loc 1 1106 0
 1876 003a 3243     		orrs	r2, r6
 1877              	.LVL170:
 1878 003c A260     		str	r2, [r4, #8]
1107:Generated_Source\PSoC4/CyDMA.c **** }
 1879              		.loc 1 1107 0
 1880              		@ sp needed
 1881              	.LVL171:
 1882 003e 70BD     		pop	{r4, r5, r6, pc}
 1883              	.L162:
 1884              		.align	2
 1885              	.L161:
 1886 0040 FFFFAFFF 		.word	-5242881
 1887 0044 00181040 		.word	1074796544
 1888              		.cfi_endproc
 1889              	.LFE37:
 1890              		.size	CyDmaSetSrcDstTransferWidth, .-CyDmaSetSrcDstTransferWidth
 1891              		.section	.text.CyDmaGetSrcDstTransferWidth,"ax",%progbits
 1892              		.align	2
 1893              		.global	CyDmaGetSrcDstTransferWidth
 1894              		.code	16
 1895              		.thumb_func
 1896              		.type	CyDmaGetSrcDstTransferWidth, %function
 1897              	CyDmaGetSrcDstTransferWidth:
 1898              	.LFB38:
1108:Generated_Source\PSoC4/CyDMA.c **** 
1109:Generated_Source\PSoC4/CyDMA.c **** 
1110:Generated_Source\PSoC4/CyDMA.c **** /*******************************************************************************
1111:Generated_Source\PSoC4/CyDMA.c **** * Function Name: CyDmaGetSrcDstTransferWidth
1112:Generated_Source\PSoC4/CyDMA.c **** ********************************************************************************
1113:Generated_Source\PSoC4/CyDMA.c **** *
1114:Generated_Source\PSoC4/CyDMA.c **** * Summary:
1115:Generated_Source\PSoC4/CyDMA.c **** *  Returns the width of the source and destination, as set by 
1116:Generated_Source\PSoC4/CyDMA.c **** *  CyDmaSetSrcDstTransferWidth() or CyDmaSetConfiguration().
1117:Generated_Source\PSoC4/CyDMA.c **** *
1118:Generated_Source\PSoC4/CyDMA.c **** * Parameters:
1119:Generated_Source\PSoC4/CyDMA.c **** *  channel:    Channel used by this function.
1120:Generated_Source\PSoC4/CyDMA.c **** *  descriptor: Descriptor (0 or 1) modified by this function.
1121:Generated_Source\PSoC4/CyDMA.c **** *                   
1122:Generated_Source\PSoC4/CyDMA.c **** * Return:
ARM GAS  C:\Users\JamesN4\AppData\Local\Temp\ccgbGPCH.s 			page 55


1123:Generated_Source\PSoC4/CyDMA.c **** *  Width of source and destination. Refer to the API bit field definitions in
1124:Generated_Source\PSoC4/CyDMA.c **** *  CyDMA_P4.h or the API description in the DMA channel datasheet for more
1125:Generated_Source\PSoC4/CyDMA.c **** *  information.
1126:Generated_Source\PSoC4/CyDMA.c **** *
1127:Generated_Source\PSoC4/CyDMA.c **** *******************************************************************************/
1128:Generated_Source\PSoC4/CyDMA.c **** uint32 CyDmaGetSrcDstTransferWidth(int32 channel, int32 descriptor)
1129:Generated_Source\PSoC4/CyDMA.c **** {
 1899              		.loc 1 1129 0
 1900              		.cfi_startproc
 1901              		@ args = 0, pretend = 0, frame = 0
 1902              		@ frame_needed = 0, uses_anonymous_args = 0
 1903              	.LVL172:
 1904 0000 70B5     		push	{r4, r5, r6, lr}
 1905              		.cfi_def_cfa_offset 16
 1906              		.cfi_offset 4, -16
 1907              		.cfi_offset 5, -12
 1908              		.cfi_offset 6, -8
 1909              		.cfi_offset 14, -4
 1910 0002 0500     		movs	r5, r0
 1911 0004 0C00     		movs	r4, r1
1130:Generated_Source\PSoC4/CyDMA.c ****     CYASSERT((channel    >= 0) && (channel    < CYDMA_CH_NR));
 1912              		.loc 1 1130 0
 1913 0006 0728     		cmp	r0, #7
 1914 0008 02D9     		bls	.L164
 1915              		.loc 1 1130 0 is_stmt 0 discriminator 1
 1916 000a 0020     		movs	r0, #0
 1917              	.LVL173:
 1918 000c FFF7FEFF 		bl	CyHalt
 1919              	.LVL174:
 1920              	.L164:
1131:Generated_Source\PSoC4/CyDMA.c ****     CYASSERT((descriptor >= 0) && (descriptor < CYDMA_DESCR_NR));
 1921              		.loc 1 1131 0 is_stmt 1
 1922 0010 012C     		cmp	r4, #1
 1923 0012 02D9     		bls	.L165
 1924              		.loc 1 1131 0 is_stmt 0 discriminator 1
 1925 0014 0020     		movs	r0, #0
 1926 0016 FFF7FEFF 		bl	CyHalt
 1927              	.LVL175:
 1928              	.L165:
1132:Generated_Source\PSoC4/CyDMA.c ****     return (CYDMA_DESCR_BASE.descriptor[channel][descriptor].ctl & CYDMA_TRANSFER_WIDTH);
 1929              		.loc 1 1132 0 is_stmt 1
 1930 001a 6D00     		lsls	r5, r5, #1
 1931              	.LVL176:
 1932 001c 2C19     		adds	r4, r5, r4
 1933              	.LVL177:
 1934 001e 2401     		lsls	r4, r4, #4
 1935 0020 034B     		ldr	r3, .L166
 1936 0022 9C46     		mov	ip, r3
 1937 0024 6444     		add	r4, r4, ip
 1938 0026 A068     		ldr	r0, [r4, #8]
 1939 0028 A023     		movs	r3, #160
 1940 002a DB03     		lsls	r3, r3, #15
 1941 002c 1840     		ands	r0, r3
1133:Generated_Source\PSoC4/CyDMA.c **** }
 1942              		.loc 1 1133 0
 1943              		@ sp needed
 1944 002e 70BD     		pop	{r4, r5, r6, pc}
ARM GAS  C:\Users\JamesN4\AppData\Local\Temp\ccgbGPCH.s 			page 56


 1945              	.L167:
 1946              		.align	2
 1947              	.L166:
 1948 0030 00181040 		.word	1074796544
 1949              		.cfi_endproc
 1950              	.LFE38:
 1951              		.size	CyDmaGetSrcDstTransferWidth, .-CyDmaGetSrcDstTransferWidth
 1952              		.section	.text.CyDmaSetAddressIncrement,"ax",%progbits
 1953              		.align	2
 1954              		.global	CyDmaSetAddressIncrement
 1955              		.code	16
 1956              		.thumb_func
 1957              		.type	CyDmaSetAddressIncrement, %function
 1958              	CyDmaSetAddressIncrement:
 1959              	.LFB39:
1134:Generated_Source\PSoC4/CyDMA.c **** 
1135:Generated_Source\PSoC4/CyDMA.c **** 
1136:Generated_Source\PSoC4/CyDMA.c **** /*******************************************************************************
1137:Generated_Source\PSoC4/CyDMA.c **** * Function Name: CyDmaSetAddressIncrement
1138:Generated_Source\PSoC4/CyDMA.c **** ********************************************************************************
1139:Generated_Source\PSoC4/CyDMA.c **** *
1140:Generated_Source\PSoC4/CyDMA.c **** * Summary:
1141:Generated_Source\PSoC4/CyDMA.c **** *  Sets whether the source or destination addresses are incremented after the
1142:Generated_Source\PSoC4/CyDMA.c **** *  transfer of each data element. The amount that the source and destination
1143:Generated_Source\PSoC4/CyDMA.c **** *  address are incremented is determined by the CyDmaSetSrcDstTransferWidth()
1144:Generated_Source\PSoC4/CyDMA.c **** *  function. The addresses will either be incremented by the data element size
1145:Generated_Source\PSoC4/CyDMA.c **** *  or by a word (4 bytes).
1146:Generated_Source\PSoC4/CyDMA.c **** *
1147:Generated_Source\PSoC4/CyDMA.c **** * Parameters:
1148:Generated_Source\PSoC4/CyDMA.c **** *  channel:          Channel used by this function.
1149:Generated_Source\PSoC4/CyDMA.c **** *  descriptor:       Descriptor (0 or 1) modified by this function.
1150:Generated_Source\PSoC4/CyDMA.c **** *  addressIncrement: Address increment settings. Refer to the API bit fields 
1151:Generated_Source\PSoC4/CyDMA.c **** *                    definition in CyDMA_P4.h or the API description in the DMA
1152:Generated_Source\PSoC4/CyDMA.c **** *                    channel datasheet for the parameter options.
1153:Generated_Source\PSoC4/CyDMA.c **** *    
1154:Generated_Source\PSoC4/CyDMA.c **** * Return:
1155:Generated_Source\PSoC4/CyDMA.c **** *  None.
1156:Generated_Source\PSoC4/CyDMA.c **** *
1157:Generated_Source\PSoC4/CyDMA.c **** * Side effect:
1158:Generated_Source\PSoC4/CyDMA.c **** *  This function should not be called when the specified descriptor is active
1159:Generated_Source\PSoC4/CyDMA.c **** *  in the DMA transfer engine. This can be checked by calling CyDmaGetStatus(). 
1160:Generated_Source\PSoC4/CyDMA.c **** *
1161:Generated_Source\PSoC4/CyDMA.c **** *******************************************************************************/
1162:Generated_Source\PSoC4/CyDMA.c **** void CyDmaSetAddressIncrement(int32 channel, int32 descriptor, uint32 addressIncrement)
1163:Generated_Source\PSoC4/CyDMA.c **** {
 1960              		.loc 1 1163 0
 1961              		.cfi_startproc
 1962              		@ args = 0, pretend = 0, frame = 0
 1963              		@ frame_needed = 0, uses_anonymous_args = 0
 1964              	.LVL178:
 1965 0000 70B5     		push	{r4, r5, r6, lr}
 1966              		.cfi_def_cfa_offset 16
 1967              		.cfi_offset 4, -16
 1968              		.cfi_offset 5, -12
 1969              		.cfi_offset 6, -8
 1970              		.cfi_offset 14, -4
 1971 0002 0500     		movs	r5, r0
ARM GAS  C:\Users\JamesN4\AppData\Local\Temp\ccgbGPCH.s 			page 57


 1972 0004 0C00     		movs	r4, r1
 1973 0006 1600     		movs	r6, r2
1164:Generated_Source\PSoC4/CyDMA.c ****     uint32 regValue;
1165:Generated_Source\PSoC4/CyDMA.c **** 
1166:Generated_Source\PSoC4/CyDMA.c ****     CYASSERT((channel    >= 0) && (channel    < CYDMA_CH_NR));
 1974              		.loc 1 1166 0
 1975 0008 0728     		cmp	r0, #7
 1976 000a 02D9     		bls	.L169
 1977              		.loc 1 1166 0 is_stmt 0 discriminator 1
 1978 000c 0020     		movs	r0, #0
 1979              	.LVL179:
 1980 000e FFF7FEFF 		bl	CyHalt
 1981              	.LVL180:
 1982              	.L169:
1167:Generated_Source\PSoC4/CyDMA.c ****     CYASSERT((descriptor >= 0) && (descriptor < CYDMA_DESCR_NR));
 1983              		.loc 1 1167 0 is_stmt 1
 1984 0012 012C     		cmp	r4, #1
 1985 0014 02D9     		bls	.L170
 1986              		.loc 1 1167 0 is_stmt 0 discriminator 1
 1987 0016 0020     		movs	r0, #0
 1988 0018 FFF7FEFF 		bl	CyHalt
 1989              	.LVL181:
 1990              	.L170:
1168:Generated_Source\PSoC4/CyDMA.c ****     CYASSERT(0u == (addressIncrement & (uint32)~CYDMA_ADDR_INCR));
 1991              		.loc 1 1168 0 is_stmt 1
 1992 001c 084B     		ldr	r3, .L172
 1993 001e 1E42     		tst	r6, r3
 1994 0020 02D0     		beq	.L171
 1995              		.loc 1 1168 0 is_stmt 0 discriminator 1
 1996 0022 0020     		movs	r0, #0
 1997 0024 FFF7FEFF 		bl	CyHalt
 1998              	.LVL182:
 1999              	.L171:
1169:Generated_Source\PSoC4/CyDMA.c **** 
1170:Generated_Source\PSoC4/CyDMA.c ****     regValue = CYDMA_DESCR_BASE.descriptor[channel][descriptor].ctl & (uint32)~CYDMA_ADDR_INCR;
 2000              		.loc 1 1170 0 is_stmt 1
 2001 0028 6D00     		lsls	r5, r5, #1
 2002              	.LVL183:
 2003 002a 2C19     		adds	r4, r5, r4
 2004              	.LVL184:
 2005 002c 2401     		lsls	r4, r4, #4
 2006 002e 054B     		ldr	r3, .L172+4
 2007 0030 9C46     		mov	ip, r3
 2008 0032 6444     		add	r4, r4, ip
 2009 0034 A268     		ldr	r2, [r4, #8]
 2010 0036 024B     		ldr	r3, .L172
 2011 0038 1A40     		ands	r2, r3
 2012              	.LVL185:
1171:Generated_Source\PSoC4/CyDMA.c ****     CYDMA_DESCR_BASE.descriptor[channel][descriptor].ctl = regValue | addressIncrement;
 2013              		.loc 1 1171 0
 2014 003a 3243     		orrs	r2, r6
 2015              	.LVL186:
 2016 003c A260     		str	r2, [r4, #8]
1172:Generated_Source\PSoC4/CyDMA.c **** }
 2017              		.loc 1 1172 0
 2018              		@ sp needed
 2019              	.LVL187:
ARM GAS  C:\Users\JamesN4\AppData\Local\Temp\ccgbGPCH.s 			page 58


 2020 003e 70BD     		pop	{r4, r5, r6, pc}
 2021              	.L173:
 2022              		.align	2
 2023              	.L172:
 2024 0040 FFFF5FFF 		.word	-10485761
 2025 0044 00181040 		.word	1074796544
 2026              		.cfi_endproc
 2027              	.LFE39:
 2028              		.size	CyDmaSetAddressIncrement, .-CyDmaSetAddressIncrement
 2029              		.section	.text.CyDmaGetAddressIncrement,"ax",%progbits
 2030              		.align	2
 2031              		.global	CyDmaGetAddressIncrement
 2032              		.code	16
 2033              		.thumb_func
 2034              		.type	CyDmaGetAddressIncrement, %function
 2035              	CyDmaGetAddressIncrement:
 2036              	.LFB40:
1173:Generated_Source\PSoC4/CyDMA.c **** 
1174:Generated_Source\PSoC4/CyDMA.c **** 
1175:Generated_Source\PSoC4/CyDMA.c **** /*******************************************************************************
1176:Generated_Source\PSoC4/CyDMA.c **** * Function Name: CyDmaGetAddressIncrement
1177:Generated_Source\PSoC4/CyDMA.c **** ********************************************************************************
1178:Generated_Source\PSoC4/CyDMA.c **** *
1179:Generated_Source\PSoC4/CyDMA.c **** * Summary:
1180:Generated_Source\PSoC4/CyDMA.c **** *  Returns address increment settings as set by CyDmaSetAddressIncrement() or
1181:Generated_Source\PSoC4/CyDMA.c **** *  CyDmaSetConfiguration().
1182:Generated_Source\PSoC4/CyDMA.c **** *
1183:Generated_Source\PSoC4/CyDMA.c **** * Parameters:
1184:Generated_Source\PSoC4/CyDMA.c **** *  channel:    Channel used by this function.
1185:Generated_Source\PSoC4/CyDMA.c **** *  descriptor: Descriptor (0 or 1) modified by this function.
1186:Generated_Source\PSoC4/CyDMA.c **** *                   
1187:Generated_Source\PSoC4/CyDMA.c **** * Return:
1188:Generated_Source\PSoC4/CyDMA.c **** *  Address increment settings. Refer to the API bit field definitions in
1189:Generated_Source\PSoC4/CyDMA.c **** *  CyDMA_P4.h or the API description in the DMA channel datasheet for more
1190:Generated_Source\PSoC4/CyDMA.c **** *  information.
1191:Generated_Source\PSoC4/CyDMA.c **** *
1192:Generated_Source\PSoC4/CyDMA.c **** *******************************************************************************/
1193:Generated_Source\PSoC4/CyDMA.c **** uint32 CyDmaGetAddressIncrement(int32 channel, int32 descriptor)
1194:Generated_Source\PSoC4/CyDMA.c **** {
 2037              		.loc 1 1194 0
 2038              		.cfi_startproc
 2039              		@ args = 0, pretend = 0, frame = 0
 2040              		@ frame_needed = 0, uses_anonymous_args = 0
 2041              	.LVL188:
 2042 0000 70B5     		push	{r4, r5, r6, lr}
 2043              		.cfi_def_cfa_offset 16
 2044              		.cfi_offset 4, -16
 2045              		.cfi_offset 5, -12
 2046              		.cfi_offset 6, -8
 2047              		.cfi_offset 14, -4
 2048 0002 0500     		movs	r5, r0
 2049 0004 0C00     		movs	r4, r1
1195:Generated_Source\PSoC4/CyDMA.c ****     CYASSERT((channel    >= 0) && (channel    < CYDMA_CH_NR));
 2050              		.loc 1 1195 0
 2051 0006 0728     		cmp	r0, #7
 2052 0008 02D9     		bls	.L175
 2053              		.loc 1 1195 0 is_stmt 0 discriminator 1
ARM GAS  C:\Users\JamesN4\AppData\Local\Temp\ccgbGPCH.s 			page 59


 2054 000a 0020     		movs	r0, #0
 2055              	.LVL189:
 2056 000c FFF7FEFF 		bl	CyHalt
 2057              	.LVL190:
 2058              	.L175:
1196:Generated_Source\PSoC4/CyDMA.c ****     CYASSERT((descriptor >= 0) && (descriptor < CYDMA_DESCR_NR));
 2059              		.loc 1 1196 0 is_stmt 1
 2060 0010 012C     		cmp	r4, #1
 2061 0012 02D9     		bls	.L176
 2062              		.loc 1 1196 0 is_stmt 0 discriminator 1
 2063 0014 0020     		movs	r0, #0
 2064 0016 FFF7FEFF 		bl	CyHalt
 2065              	.LVL191:
 2066              	.L176:
1197:Generated_Source\PSoC4/CyDMA.c **** 
1198:Generated_Source\PSoC4/CyDMA.c ****     return (CYDMA_DESCR_BASE.descriptor[channel][descriptor].ctl & CYDMA_ADDR_INCR);
 2067              		.loc 1 1198 0 is_stmt 1
 2068 001a 6D00     		lsls	r5, r5, #1
 2069              	.LVL192:
 2070 001c 2C19     		adds	r4, r5, r4
 2071              	.LVL193:
 2072 001e 2401     		lsls	r4, r4, #4
 2073 0020 034B     		ldr	r3, .L177
 2074 0022 9C46     		mov	ip, r3
 2075 0024 6444     		add	r4, r4, ip
 2076 0026 A068     		ldr	r0, [r4, #8]
 2077 0028 A023     		movs	r3, #160
 2078 002a 1B04     		lsls	r3, r3, #16
 2079 002c 1840     		ands	r0, r3
1199:Generated_Source\PSoC4/CyDMA.c **** }
 2080              		.loc 1 1199 0
 2081              		@ sp needed
 2082 002e 70BD     		pop	{r4, r5, r6, pc}
 2083              	.L178:
 2084              		.align	2
 2085              	.L177:
 2086 0030 00181040 		.word	1074796544
 2087              		.cfi_endproc
 2088              	.LFE40:
 2089              		.size	CyDmaGetAddressIncrement, .-CyDmaGetAddressIncrement
 2090              		.section	.text.CyDmaSetTriggerType,"ax",%progbits
 2091              		.align	2
 2092              		.global	CyDmaSetTriggerType
 2093              		.code	16
 2094              		.thumb_func
 2095              		.type	CyDmaSetTriggerType, %function
 2096              	CyDmaSetTriggerType:
 2097              	.LFB41:
1200:Generated_Source\PSoC4/CyDMA.c **** 
1201:Generated_Source\PSoC4/CyDMA.c **** 
1202:Generated_Source\PSoC4/CyDMA.c **** /*******************************************************************************
1203:Generated_Source\PSoC4/CyDMA.c **** * Function Name: CyDmaSetTriggerType
1204:Generated_Source\PSoC4/CyDMA.c **** ********************************************************************************
1205:Generated_Source\PSoC4/CyDMA.c **** *
1206:Generated_Source\PSoC4/CyDMA.c **** * Summary:
1207:Generated_Source\PSoC4/CyDMA.c **** *  Sets the type of input trigger for the DMA For level sensitive triggers sets
1208:Generated_Source\PSoC4/CyDMA.c **** *  how long the DMA waits for the trigger to go low (deactivate) before
ARM GAS  C:\Users\JamesN4\AppData\Local\Temp\ccgbGPCH.s 			page 60


1209:Generated_Source\PSoC4/CyDMA.c **** *  triggering the channel again.
1210:Generated_Source\PSoC4/CyDMA.c **** *
1211:Generated_Source\PSoC4/CyDMA.c **** * Parameters:
1212:Generated_Source\PSoC4/CyDMA.c **** *  channel:     Channel used by this function.
1213:Generated_Source\PSoC4/CyDMA.c **** *  descriptor:  Descriptor (0 or 1) modified by this function.
1214:Generated_Source\PSoC4/CyDMA.c **** *  triggerType: Type of DMA trigger. Refer to the API bit field definitions
1215:Generated_Source\PSoC4/CyDMA.c **** *               in CyDMA_P4.h or the API description in the DMA channel
1216:Generated_Source\PSoC4/CyDMA.c **** *               datasheet for the parameter options.
1217:Generated_Source\PSoC4/CyDMA.c **** *                   
1218:Generated_Source\PSoC4/CyDMA.c **** * Return:
1219:Generated_Source\PSoC4/CyDMA.c **** *  None.
1220:Generated_Source\PSoC4/CyDMA.c **** *
1221:Generated_Source\PSoC4/CyDMA.c **** * Side effect:
1222:Generated_Source\PSoC4/CyDMA.c **** *  This function should not be called when the specified descriptor is active
1223:Generated_Source\PSoC4/CyDMA.c **** *  in the DMA transfer engine. This can be checked by calling CyDmaGetStatus(). 
1224:Generated_Source\PSoC4/CyDMA.c **** *
1225:Generated_Source\PSoC4/CyDMA.c **** *******************************************************************************/
1226:Generated_Source\PSoC4/CyDMA.c **** void CyDmaSetTriggerType(int32 channel, int32 descriptor, uint32 triggerType)
1227:Generated_Source\PSoC4/CyDMA.c **** {
 2098              		.loc 1 1227 0
 2099              		.cfi_startproc
 2100              		@ args = 0, pretend = 0, frame = 0
 2101              		@ frame_needed = 0, uses_anonymous_args = 0
 2102              	.LVL194:
 2103 0000 70B5     		push	{r4, r5, r6, lr}
 2104              		.cfi_def_cfa_offset 16
 2105              		.cfi_offset 4, -16
 2106              		.cfi_offset 5, -12
 2107              		.cfi_offset 6, -8
 2108              		.cfi_offset 14, -4
 2109 0002 0500     		movs	r5, r0
 2110 0004 0C00     		movs	r4, r1
 2111 0006 1600     		movs	r6, r2
1228:Generated_Source\PSoC4/CyDMA.c ****     uint32 regValue;
1229:Generated_Source\PSoC4/CyDMA.c **** 
1230:Generated_Source\PSoC4/CyDMA.c ****     CYASSERT((channel    >= 0) && (channel    < CYDMA_CH_NR));
 2112              		.loc 1 1230 0
 2113 0008 0728     		cmp	r0, #7
 2114 000a 02D9     		bls	.L180
 2115              		.loc 1 1230 0 is_stmt 0 discriminator 1
 2116 000c 0020     		movs	r0, #0
 2117              	.LVL195:
 2118 000e FFF7FEFF 		bl	CyHalt
 2119              	.LVL196:
 2120              	.L180:
1231:Generated_Source\PSoC4/CyDMA.c ****     CYASSERT((descriptor >= 0) && (descriptor < CYDMA_DESCR_NR));
 2121              		.loc 1 1231 0 is_stmt 1
 2122 0012 012C     		cmp	r4, #1
 2123 0014 02D9     		bls	.L181
 2124              		.loc 1 1231 0 is_stmt 0 discriminator 1
 2125 0016 0020     		movs	r0, #0
 2126 0018 FFF7FEFF 		bl	CyHalt
 2127              	.LVL197:
 2128              	.L181:
1232:Generated_Source\PSoC4/CyDMA.c ****     CYASSERT(0u == (triggerType & (uint32)~CYDMA_TRIGGER_TYPE));
 2129              		.loc 1 1232 0 is_stmt 1
 2130 001c 084B     		ldr	r3, .L183
ARM GAS  C:\Users\JamesN4\AppData\Local\Temp\ccgbGPCH.s 			page 61


 2131 001e 1E42     		tst	r6, r3
 2132 0020 02D0     		beq	.L182
 2133              		.loc 1 1232 0 is_stmt 0 discriminator 1
 2134 0022 0020     		movs	r0, #0
 2135 0024 FFF7FEFF 		bl	CyHalt
 2136              	.LVL198:
 2137              	.L182:
1233:Generated_Source\PSoC4/CyDMA.c **** 
1234:Generated_Source\PSoC4/CyDMA.c ****     regValue = CYDMA_DESCR_BASE.descriptor[channel][descriptor].ctl & (uint32)~CYDMA_TRIGGER_TYPE;
 2138              		.loc 1 1234 0 is_stmt 1
 2139 0028 6D00     		lsls	r5, r5, #1
 2140              	.LVL199:
 2141 002a 2C19     		adds	r4, r5, r4
 2142              	.LVL200:
 2143 002c 2401     		lsls	r4, r4, #4
 2144 002e 054B     		ldr	r3, .L183+4
 2145 0030 9C46     		mov	ip, r3
 2146 0032 6444     		add	r4, r4, ip
 2147 0034 A268     		ldr	r2, [r4, #8]
 2148 0036 024B     		ldr	r3, .L183
 2149 0038 1A40     		ands	r2, r3
 2150              	.LVL201:
1235:Generated_Source\PSoC4/CyDMA.c ****     CYDMA_DESCR_BASE.descriptor[channel][descriptor].ctl = regValue | triggerType;
 2151              		.loc 1 1235 0
 2152 003a 3243     		orrs	r2, r6
 2153              	.LVL202:
 2154 003c A260     		str	r2, [r4, #8]
1236:Generated_Source\PSoC4/CyDMA.c **** }
 2155              		.loc 1 1236 0
 2156              		@ sp needed
 2157              	.LVL203:
 2158 003e 70BD     		pop	{r4, r5, r6, pc}
 2159              	.L184:
 2160              		.align	2
 2161              	.L183:
 2162 0040 FFFFFFFC 		.word	-50331649
 2163 0044 00181040 		.word	1074796544
 2164              		.cfi_endproc
 2165              	.LFE41:
 2166              		.size	CyDmaSetTriggerType, .-CyDmaSetTriggerType
 2167              		.section	.text.CyDmaGetTriggerType,"ax",%progbits
 2168              		.align	2
 2169              		.global	CyDmaGetTriggerType
 2170              		.code	16
 2171              		.thumb_func
 2172              		.type	CyDmaGetTriggerType, %function
 2173              	CyDmaGetTriggerType:
 2174              	.LFB42:
1237:Generated_Source\PSoC4/CyDMA.c **** 
1238:Generated_Source\PSoC4/CyDMA.c **** 
1239:Generated_Source\PSoC4/CyDMA.c **** /*******************************************************************************
1240:Generated_Source\PSoC4/CyDMA.c **** * Function Name: CyDmaGetTriggerType
1241:Generated_Source\PSoC4/CyDMA.c **** ********************************************************************************
1242:Generated_Source\PSoC4/CyDMA.c **** *
1243:Generated_Source\PSoC4/CyDMA.c **** * Summary:
1244:Generated_Source\PSoC4/CyDMA.c **** *  Returns the trigger deactivation settings as set by CyDmaSetTriggerType() or
1245:Generated_Source\PSoC4/CyDMA.c **** *  CyDmaSetConfiguration().
ARM GAS  C:\Users\JamesN4\AppData\Local\Temp\ccgbGPCH.s 			page 62


1246:Generated_Source\PSoC4/CyDMA.c **** *
1247:Generated_Source\PSoC4/CyDMA.c **** * Parameters:
1248:Generated_Source\PSoC4/CyDMA.c **** *  channel:    Channel used by this function.
1249:Generated_Source\PSoC4/CyDMA.c **** *  descriptor: Descriptor (0 or 1) modified by this function.
1250:Generated_Source\PSoC4/CyDMA.c **** *                   
1251:Generated_Source\PSoC4/CyDMA.c **** * Return:
1252:Generated_Source\PSoC4/CyDMA.c **** *  Trigger deactivation settings. Refer to the API bit field definitions in
1253:Generated_Source\PSoC4/CyDMA.c **** *  CyDMA_P4.h or the API description in the DMA channel datasheet for more
1254:Generated_Source\PSoC4/CyDMA.c **** *  information.
1255:Generated_Source\PSoC4/CyDMA.c **** *
1256:Generated_Source\PSoC4/CyDMA.c **** *******************************************************************************/
1257:Generated_Source\PSoC4/CyDMA.c **** uint32 CyDmaGetTriggerType(int32 channel, int32 descriptor)
1258:Generated_Source\PSoC4/CyDMA.c **** {
 2175              		.loc 1 1258 0
 2176              		.cfi_startproc
 2177              		@ args = 0, pretend = 0, frame = 0
 2178              		@ frame_needed = 0, uses_anonymous_args = 0
 2179              	.LVL204:
 2180 0000 70B5     		push	{r4, r5, r6, lr}
 2181              		.cfi_def_cfa_offset 16
 2182              		.cfi_offset 4, -16
 2183              		.cfi_offset 5, -12
 2184              		.cfi_offset 6, -8
 2185              		.cfi_offset 14, -4
 2186 0002 0500     		movs	r5, r0
 2187 0004 0C00     		movs	r4, r1
1259:Generated_Source\PSoC4/CyDMA.c ****     CYASSERT((channel    >= 0) && (channel    < CYDMA_CH_NR));
 2188              		.loc 1 1259 0
 2189 0006 0728     		cmp	r0, #7
 2190 0008 02D9     		bls	.L186
 2191              		.loc 1 1259 0 is_stmt 0 discriminator 1
 2192 000a 0020     		movs	r0, #0
 2193              	.LVL205:
 2194 000c FFF7FEFF 		bl	CyHalt
 2195              	.LVL206:
 2196              	.L186:
1260:Generated_Source\PSoC4/CyDMA.c ****     CYASSERT((descriptor >= 0) && (descriptor < CYDMA_DESCR_NR));
 2197              		.loc 1 1260 0 is_stmt 1
 2198 0010 012C     		cmp	r4, #1
 2199 0012 02D9     		bls	.L187
 2200              		.loc 1 1260 0 is_stmt 0 discriminator 1
 2201 0014 0020     		movs	r0, #0
 2202 0016 FFF7FEFF 		bl	CyHalt
 2203              	.LVL207:
 2204              	.L187:
1261:Generated_Source\PSoC4/CyDMA.c **** 
1262:Generated_Source\PSoC4/CyDMA.c ****     return (CYDMA_DESCR_BASE.descriptor[channel][descriptor].ctl & CYDMA_TRIGGER_TYPE);
 2205              		.loc 1 1262 0 is_stmt 1
 2206 001a 6D00     		lsls	r5, r5, #1
 2207              	.LVL208:
 2208 001c 2C19     		adds	r4, r5, r4
 2209              	.LVL209:
 2210 001e 2401     		lsls	r4, r4, #4
 2211 0020 034B     		ldr	r3, .L188
 2212 0022 9C46     		mov	ip, r3
 2213 0024 6444     		add	r4, r4, ip
 2214 0026 A068     		ldr	r0, [r4, #8]
ARM GAS  C:\Users\JamesN4\AppData\Local\Temp\ccgbGPCH.s 			page 63


 2215 0028 C023     		movs	r3, #192
 2216 002a 9B04     		lsls	r3, r3, #18
 2217 002c 1840     		ands	r0, r3
1263:Generated_Source\PSoC4/CyDMA.c **** }
 2218              		.loc 1 1263 0
 2219              		@ sp needed
 2220 002e 70BD     		pop	{r4, r5, r6, pc}
 2221              	.L189:
 2222              		.align	2
 2223              	.L188:
 2224 0030 00181040 		.word	1074796544
 2225              		.cfi_endproc
 2226              	.LFE42:
 2227              		.size	CyDmaGetTriggerType, .-CyDmaGetTriggerType
 2228              		.section	.text.CyDmaSetTransferMode,"ax",%progbits
 2229              		.align	2
 2230              		.global	CyDmaSetTransferMode
 2231              		.code	16
 2232              		.thumb_func
 2233              		.type	CyDmaSetTransferMode, %function
 2234              	CyDmaSetTransferMode:
 2235              	.LFB43:
1264:Generated_Source\PSoC4/CyDMA.c **** 
1265:Generated_Source\PSoC4/CyDMA.c **** 
1266:Generated_Source\PSoC4/CyDMA.c **** /*******************************************************************************
1267:Generated_Source\PSoC4/CyDMA.c **** * Function Name: CyDmaSetTransferMode
1268:Generated_Source\PSoC4/CyDMA.c **** ********************************************************************************
1269:Generated_Source\PSoC4/CyDMA.c **** *
1270:Generated_Source\PSoC4/CyDMA.c **** * Summary:
1271:Generated_Source\PSoC4/CyDMA.c **** *  Sets the DMA transfer mode. This determines how the DMA reacts to each trigger
1272:Generated_Source\PSoC4/CyDMA.c **** *  event.
1273:Generated_Source\PSoC4/CyDMA.c **** *
1274:Generated_Source\PSoC4/CyDMA.c **** * Parameters:
1275:Generated_Source\PSoC4/CyDMA.c **** *  channel:      Channel used by this function.
1276:Generated_Source\PSoC4/CyDMA.c **** *  descriptor:   Descriptor (0 or 1) modified by this function.
1277:Generated_Source\PSoC4/CyDMA.c **** *  transferMode: Specifies the DMA transfer mode settings. Refer to the API bit
1278:Generated_Source\PSoC4/CyDMA.c **** *                field definitions in CyDMA_P4.h or the API description in the
1279:Generated_Source\PSoC4/CyDMA.c **** *                DMA channel datasheet for the parameter options.
1280:Generated_Source\PSoC4/CyDMA.c **** *                   
1281:Generated_Source\PSoC4/CyDMA.c **** * Return:
1282:Generated_Source\PSoC4/CyDMA.c **** *  None.
1283:Generated_Source\PSoC4/CyDMA.c **** *
1284:Generated_Source\PSoC4/CyDMA.c **** * Side effect:
1285:Generated_Source\PSoC4/CyDMA.c **** *  This function should not be called when the specified descriptor is active
1286:Generated_Source\PSoC4/CyDMA.c **** *  in the DMA transfer engine. This can be checked by calling CyDmaGetStatus(). 
1287:Generated_Source\PSoC4/CyDMA.c **** *
1288:Generated_Source\PSoC4/CyDMA.c **** *******************************************************************************/
1289:Generated_Source\PSoC4/CyDMA.c **** void CyDmaSetTransferMode(int32 channel, int32 descriptor, uint32 transferMode)
1290:Generated_Source\PSoC4/CyDMA.c **** {
 2236              		.loc 1 1290 0
 2237              		.cfi_startproc
 2238              		@ args = 0, pretend = 0, frame = 0
 2239              		@ frame_needed = 0, uses_anonymous_args = 0
 2240              	.LVL210:
 2241 0000 70B5     		push	{r4, r5, r6, lr}
 2242              		.cfi_def_cfa_offset 16
 2243              		.cfi_offset 4, -16
ARM GAS  C:\Users\JamesN4\AppData\Local\Temp\ccgbGPCH.s 			page 64


 2244              		.cfi_offset 5, -12
 2245              		.cfi_offset 6, -8
 2246              		.cfi_offset 14, -4
 2247 0002 0600     		movs	r6, r0
 2248 0004 0C00     		movs	r4, r1
 2249 0006 1500     		movs	r5, r2
1291:Generated_Source\PSoC4/CyDMA.c ****     uint32 regValue;
1292:Generated_Source\PSoC4/CyDMA.c **** 
1293:Generated_Source\PSoC4/CyDMA.c ****     CYASSERT((channel    >= 0) && (channel    < CYDMA_CH_NR));
 2250              		.loc 1 1293 0
 2251 0008 0728     		cmp	r0, #7
 2252 000a 02D9     		bls	.L191
 2253              		.loc 1 1293 0 is_stmt 0 discriminator 1
 2254 000c 0020     		movs	r0, #0
 2255              	.LVL211:
 2256 000e FFF7FEFF 		bl	CyHalt
 2257              	.LVL212:
 2258              	.L191:
1294:Generated_Source\PSoC4/CyDMA.c ****     CYASSERT((descriptor >= 0) && (descriptor < CYDMA_DESCR_NR));
 2259              		.loc 1 1294 0 is_stmt 1
 2260 0012 012C     		cmp	r4, #1
 2261 0014 02D9     		bls	.L192
 2262              		.loc 1 1294 0 is_stmt 0 discriminator 1
 2263 0016 0020     		movs	r0, #0
 2264 0018 FFF7FEFF 		bl	CyHalt
 2265              	.LVL213:
 2266              	.L192:
1295:Generated_Source\PSoC4/CyDMA.c ****     CYASSERT(0u == (transferMode & (uint32)~CYDMA_TRANSFER_MODE));
 2267              		.loc 1 1295 0 is_stmt 1
 2268 001c AB00     		lsls	r3, r5, #2
 2269 001e 02D0     		beq	.L193
 2270              		.loc 1 1295 0 is_stmt 0 discriminator 1
 2271 0020 0020     		movs	r0, #0
 2272 0022 FFF7FEFF 		bl	CyHalt
 2273              	.LVL214:
 2274              	.L193:
1296:Generated_Source\PSoC4/CyDMA.c **** 
1297:Generated_Source\PSoC4/CyDMA.c ****     regValue = CYDMA_DESCR_BASE.descriptor[channel][descriptor].ctl & (uint32)~CYDMA_TRANSFER_MODE;
 2275              		.loc 1 1297 0 is_stmt 1
 2276 0026 7600     		lsls	r6, r6, #1
 2277              	.LVL215:
 2278 0028 3419     		adds	r4, r6, r4
 2279              	.LVL216:
 2280 002a 2401     		lsls	r4, r4, #4
 2281 002c 044B     		ldr	r3, .L194
 2282 002e 9C46     		mov	ip, r3
 2283 0030 6444     		add	r4, r4, ip
 2284 0032 A268     		ldr	r2, [r4, #8]
 2285 0034 9200     		lsls	r2, r2, #2
 2286 0036 9208     		lsrs	r2, r2, #2
 2287              	.LVL217:
1298:Generated_Source\PSoC4/CyDMA.c ****     CYDMA_DESCR_BASE.descriptor[channel][descriptor].ctl = regValue | transferMode;
 2288              		.loc 1 1298 0
 2289 0038 2A43     		orrs	r2, r5
 2290              	.LVL218:
 2291 003a A260     		str	r2, [r4, #8]
1299:Generated_Source\PSoC4/CyDMA.c **** }
ARM GAS  C:\Users\JamesN4\AppData\Local\Temp\ccgbGPCH.s 			page 65


 2292              		.loc 1 1299 0
 2293              		@ sp needed
 2294              	.LVL219:
 2295 003c 70BD     		pop	{r4, r5, r6, pc}
 2296              	.L195:
 2297 003e C046     		.align	2
 2298              	.L194:
 2299 0040 00181040 		.word	1074796544
 2300              		.cfi_endproc
 2301              	.LFE43:
 2302              		.size	CyDmaSetTransferMode, .-CyDmaSetTransferMode
 2303              		.section	.text.CyDmaGetTransferMode,"ax",%progbits
 2304              		.align	2
 2305              		.global	CyDmaGetTransferMode
 2306              		.code	16
 2307              		.thumb_func
 2308              		.type	CyDmaGetTransferMode, %function
 2309              	CyDmaGetTransferMode:
 2310              	.LFB44:
1300:Generated_Source\PSoC4/CyDMA.c **** 
1301:Generated_Source\PSoC4/CyDMA.c **** 
1302:Generated_Source\PSoC4/CyDMA.c **** /*******************************************************************************
1303:Generated_Source\PSoC4/CyDMA.c **** * Function Name: CyDmaGetTransferMode
1304:Generated_Source\PSoC4/CyDMA.c **** ********************************************************************************
1305:Generated_Source\PSoC4/CyDMA.c **** *
1306:Generated_Source\PSoC4/CyDMA.c **** * Summary:
1307:Generated_Source\PSoC4/CyDMA.c **** *  Returns the transfer mode for the specified descriptor as set by 
1308:Generated_Source\PSoC4/CyDMA.c **** *  CyDmaSetTransferMode() or CyDmaSetConfiguration.
1309:Generated_Source\PSoC4/CyDMA.c **** *
1310:Generated_Source\PSoC4/CyDMA.c **** * Parameters:
1311:Generated_Source\PSoC4/CyDMA.c **** *  channel:    Channel used by this function.
1312:Generated_Source\PSoC4/CyDMA.c **** *  descriptor: Descriptor (0 or 1) modified by this function.
1313:Generated_Source\PSoC4/CyDMA.c **** *                   
1314:Generated_Source\PSoC4/CyDMA.c **** * Return:
1315:Generated_Source\PSoC4/CyDMA.c **** *  DMA transfer mode settings. Refer to the API bit field definitions in
1316:Generated_Source\PSoC4/CyDMA.c **** *  CyDMA_P4.h or the API description in the DMA channel datasheet for more
1317:Generated_Source\PSoC4/CyDMA.c **** *  information.
1318:Generated_Source\PSoC4/CyDMA.c **** *
1319:Generated_Source\PSoC4/CyDMA.c **** *******************************************************************************/
1320:Generated_Source\PSoC4/CyDMA.c **** uint32 CyDmaGetTransferMode(int32 channel, int32 descriptor)
1321:Generated_Source\PSoC4/CyDMA.c **** {
 2311              		.loc 1 1321 0
 2312              		.cfi_startproc
 2313              		@ args = 0, pretend = 0, frame = 0
 2314              		@ frame_needed = 0, uses_anonymous_args = 0
 2315              	.LVL220:
 2316 0000 70B5     		push	{r4, r5, r6, lr}
 2317              		.cfi_def_cfa_offset 16
 2318              		.cfi_offset 4, -16
 2319              		.cfi_offset 5, -12
 2320              		.cfi_offset 6, -8
 2321              		.cfi_offset 14, -4
 2322 0002 0500     		movs	r5, r0
 2323 0004 0C00     		movs	r4, r1
1322:Generated_Source\PSoC4/CyDMA.c ****     CYASSERT((channel    >= 0) && (channel    < CYDMA_CH_NR));
 2324              		.loc 1 1322 0
 2325 0006 0728     		cmp	r0, #7
ARM GAS  C:\Users\JamesN4\AppData\Local\Temp\ccgbGPCH.s 			page 66


 2326 0008 02D9     		bls	.L197
 2327              		.loc 1 1322 0 is_stmt 0 discriminator 1
 2328 000a 0020     		movs	r0, #0
 2329              	.LVL221:
 2330 000c FFF7FEFF 		bl	CyHalt
 2331              	.LVL222:
 2332              	.L197:
1323:Generated_Source\PSoC4/CyDMA.c ****     CYASSERT((descriptor >= 0) && (descriptor < CYDMA_DESCR_NR));
 2333              		.loc 1 1323 0 is_stmt 1
 2334 0010 012C     		cmp	r4, #1
 2335 0012 02D9     		bls	.L198
 2336              		.loc 1 1323 0 is_stmt 0 discriminator 1
 2337 0014 0020     		movs	r0, #0
 2338 0016 FFF7FEFF 		bl	CyHalt
 2339              	.LVL223:
 2340              	.L198:
1324:Generated_Source\PSoC4/CyDMA.c **** 
1325:Generated_Source\PSoC4/CyDMA.c ****     return (CYDMA_DESCR_BASE.descriptor[channel][descriptor].ctl & CYDMA_TRANSFER_MODE);
 2341              		.loc 1 1325 0 is_stmt 1
 2342 001a 6D00     		lsls	r5, r5, #1
 2343              	.LVL224:
 2344 001c 2C19     		adds	r4, r5, r4
 2345              	.LVL225:
 2346 001e 2401     		lsls	r4, r4, #4
 2347 0020 034B     		ldr	r3, .L199
 2348 0022 9C46     		mov	ip, r3
 2349 0024 6444     		add	r4, r4, ip
 2350 0026 A068     		ldr	r0, [r4, #8]
 2351 0028 800F     		lsrs	r0, r0, #30
 2352 002a 8007     		lsls	r0, r0, #30
1326:Generated_Source\PSoC4/CyDMA.c **** }
 2353              		.loc 1 1326 0
 2354              		@ sp needed
 2355 002c 70BD     		pop	{r4, r5, r6, pc}
 2356              	.L200:
 2357 002e C046     		.align	2
 2358              	.L199:
 2359 0030 00181040 		.word	1074796544
 2360              		.cfi_endproc
 2361              	.LFE44:
 2362              		.size	CyDmaGetTransferMode, .-CyDmaGetTransferMode
 2363              		.section	.text.CyDmaSetPreemptable,"ax",%progbits
 2364              		.align	2
 2365              		.global	CyDmaSetPreemptable
 2366              		.code	16
 2367              		.thumb_func
 2368              		.type	CyDmaSetPreemptable, %function
 2369              	CyDmaSetPreemptable:
 2370              	.LFB45:
1327:Generated_Source\PSoC4/CyDMA.c **** 
1328:Generated_Source\PSoC4/CyDMA.c **** 
1329:Generated_Source\PSoC4/CyDMA.c **** /*******************************************************************************
1330:Generated_Source\PSoC4/CyDMA.c **** * Function Name: CyDmaSetPreemptable
1331:Generated_Source\PSoC4/CyDMA.c **** ********************************************************************************
1332:Generated_Source\PSoC4/CyDMA.c **** *
1333:Generated_Source\PSoC4/CyDMA.c **** * Summary:
1334:Generated_Source\PSoC4/CyDMA.c **** *  Determines if the descriptor is preemptable.
ARM GAS  C:\Users\JamesN4\AppData\Local\Temp\ccgbGPCH.s 			page 67


1335:Generated_Source\PSoC4/CyDMA.c **** *
1336:Generated_Source\PSoC4/CyDMA.c **** * Parameters:
1337:Generated_Source\PSoC4/CyDMA.c **** *  channel:     Channel used by this function.
1338:Generated_Source\PSoC4/CyDMA.c **** *  descriptor:  Descriptor (0 or 1) modified by this function.
1339:Generated_Source\PSoC4/CyDMA.c **** *  preemptable: Descriptor preemption settings. Refer to the API bit fields
1340:Generated_Source\PSoC4/CyDMA.c **** *               definition in CyDMA_P4.h or the API description in the DMA 
1341:Generated_Source\PSoC4/CyDMA.c **** *               channel datasheet for the parameter options.
1342:Generated_Source\PSoC4/CyDMA.c **** *                   
1343:Generated_Source\PSoC4/CyDMA.c **** * Return:
1344:Generated_Source\PSoC4/CyDMA.c **** *  None.
1345:Generated_Source\PSoC4/CyDMA.c **** *
1346:Generated_Source\PSoC4/CyDMA.c **** * Side effect:
1347:Generated_Source\PSoC4/CyDMA.c **** *  This function should not be called when the specified descriptor is active
1348:Generated_Source\PSoC4/CyDMA.c **** *  in the DMA transfer engine. This can be checked by calling CyDmaGetStatus(). 
1349:Generated_Source\PSoC4/CyDMA.c **** *
1350:Generated_Source\PSoC4/CyDMA.c **** *******************************************************************************/
1351:Generated_Source\PSoC4/CyDMA.c **** void CyDmaSetPreemptable(int32 channel, int32 descriptor, uint32 preemptable)
1352:Generated_Source\PSoC4/CyDMA.c **** {
 2371              		.loc 1 1352 0
 2372              		.cfi_startproc
 2373              		@ args = 0, pretend = 0, frame = 0
 2374              		@ frame_needed = 0, uses_anonymous_args = 0
 2375              	.LVL226:
 2376 0000 70B5     		push	{r4, r5, r6, lr}
 2377              		.cfi_def_cfa_offset 16
 2378              		.cfi_offset 4, -16
 2379              		.cfi_offset 5, -12
 2380              		.cfi_offset 6, -8
 2381              		.cfi_offset 14, -4
 2382 0002 0500     		movs	r5, r0
 2383 0004 0C00     		movs	r4, r1
 2384 0006 1600     		movs	r6, r2
1353:Generated_Source\PSoC4/CyDMA.c ****     uint32 regValue;
1354:Generated_Source\PSoC4/CyDMA.c **** 
1355:Generated_Source\PSoC4/CyDMA.c ****     CYASSERT((channel    >= 0) && (channel    < CYDMA_CH_NR));
 2385              		.loc 1 1355 0
 2386 0008 0728     		cmp	r0, #7
 2387 000a 02D9     		bls	.L202
 2388              		.loc 1 1355 0 is_stmt 0 discriminator 1
 2389 000c 0020     		movs	r0, #0
 2390              	.LVL227:
 2391 000e FFF7FEFF 		bl	CyHalt
 2392              	.LVL228:
 2393              	.L202:
1356:Generated_Source\PSoC4/CyDMA.c ****     CYASSERT((descriptor >= 0) && (descriptor < CYDMA_DESCR_NR));
 2394              		.loc 1 1356 0 is_stmt 1
 2395 0012 012C     		cmp	r4, #1
 2396 0014 02D9     		bls	.L203
 2397              		.loc 1 1356 0 is_stmt 0 discriminator 1
 2398 0016 0020     		movs	r0, #0
 2399 0018 FFF7FEFF 		bl	CyHalt
 2400              	.LVL229:
 2401              	.L203:
1357:Generated_Source\PSoC4/CyDMA.c ****     CYASSERT(0u == (preemptable & (uint32)~CYDMA_PREEMPTABLE));
 2402              		.loc 1 1357 0 is_stmt 1
 2403 001c 084B     		ldr	r3, .L205
 2404 001e 1E42     		tst	r6, r3
ARM GAS  C:\Users\JamesN4\AppData\Local\Temp\ccgbGPCH.s 			page 68


 2405 0020 02D0     		beq	.L204
 2406              		.loc 1 1357 0 is_stmt 0 discriminator 1
 2407 0022 0020     		movs	r0, #0
 2408 0024 FFF7FEFF 		bl	CyHalt
 2409              	.LVL230:
 2410              	.L204:
1358:Generated_Source\PSoC4/CyDMA.c **** 
1359:Generated_Source\PSoC4/CyDMA.c ****     regValue = CYDMA_DESCR_BASE.descriptor[channel][descriptor].ctl & (uint32)~CYDMA_PREEMPTABLE;
 2411              		.loc 1 1359 0 is_stmt 1
 2412 0028 6D00     		lsls	r5, r5, #1
 2413              	.LVL231:
 2414 002a 2C19     		adds	r4, r5, r4
 2415              	.LVL232:
 2416 002c 2401     		lsls	r4, r4, #4
 2417 002e 054B     		ldr	r3, .L205+4
 2418 0030 9C46     		mov	ip, r3
 2419 0032 6444     		add	r4, r4, ip
 2420 0034 A268     		ldr	r2, [r4, #8]
 2421 0036 024B     		ldr	r3, .L205
 2422 0038 1A40     		ands	r2, r3
 2423              	.LVL233:
1360:Generated_Source\PSoC4/CyDMA.c ****     CYDMA_DESCR_BASE.descriptor[channel][descriptor].ctl = regValue | preemptable;
 2424              		.loc 1 1360 0
 2425 003a 3243     		orrs	r2, r6
 2426              	.LVL234:
 2427 003c A260     		str	r2, [r4, #8]
1361:Generated_Source\PSoC4/CyDMA.c **** }
 2428              		.loc 1 1361 0
 2429              		@ sp needed
 2430              	.LVL235:
 2431 003e 70BD     		pop	{r4, r5, r6, pc}
 2432              	.L206:
 2433              		.align	2
 2434              	.L205:
 2435 0040 FFFFFFEF 		.word	-268435457
 2436 0044 00181040 		.word	1074796544
 2437              		.cfi_endproc
 2438              	.LFE45:
 2439              		.size	CyDmaSetPreemptable, .-CyDmaSetPreemptable
 2440              		.section	.text.CyDmaGetPreemptable,"ax",%progbits
 2441              		.align	2
 2442              		.global	CyDmaGetPreemptable
 2443              		.code	16
 2444              		.thumb_func
 2445              		.type	CyDmaGetPreemptable, %function
 2446              	CyDmaGetPreemptable:
 2447              	.LFB46:
1362:Generated_Source\PSoC4/CyDMA.c **** 
1363:Generated_Source\PSoC4/CyDMA.c **** 
1364:Generated_Source\PSoC4/CyDMA.c **** /*******************************************************************************
1365:Generated_Source\PSoC4/CyDMA.c **** * Function Name: CyDmaGetPreemptable
1366:Generated_Source\PSoC4/CyDMA.c **** ********************************************************************************
1367:Generated_Source\PSoC4/CyDMA.c **** *
1368:Generated_Source\PSoC4/CyDMA.c **** * Summary:
1369:Generated_Source\PSoC4/CyDMA.c **** *  Returns whether or not the descriptor is preemptable.
1370:Generated_Source\PSoC4/CyDMA.c **** *
1371:Generated_Source\PSoC4/CyDMA.c **** * Parameters:
ARM GAS  C:\Users\JamesN4\AppData\Local\Temp\ccgbGPCH.s 			page 69


1372:Generated_Source\PSoC4/CyDMA.c **** *  channel:    Channel used by this function.
1373:Generated_Source\PSoC4/CyDMA.c **** *  descriptor: Descriptor (0 or 1) modified by this function.
1374:Generated_Source\PSoC4/CyDMA.c **** *                   
1375:Generated_Source\PSoC4/CyDMA.c **** * Return:
1376:Generated_Source\PSoC4/CyDMA.c **** *  Descriptor preemption setting. Refer to the API bit field definitions in
1377:Generated_Source\PSoC4/CyDMA.c **** *  CyDMA_P4.h or the API description in the DMA channel datasheet for more
1378:Generated_Source\PSoC4/CyDMA.c **** *  information.
1379:Generated_Source\PSoC4/CyDMA.c **** *
1380:Generated_Source\PSoC4/CyDMA.c **** *******************************************************************************/
1381:Generated_Source\PSoC4/CyDMA.c **** uint32 CyDmaGetPreemptable(int32 channel, int32 descriptor)
1382:Generated_Source\PSoC4/CyDMA.c **** {
 2448              		.loc 1 1382 0
 2449              		.cfi_startproc
 2450              		@ args = 0, pretend = 0, frame = 0
 2451              		@ frame_needed = 0, uses_anonymous_args = 0
 2452              	.LVL236:
 2453 0000 70B5     		push	{r4, r5, r6, lr}
 2454              		.cfi_def_cfa_offset 16
 2455              		.cfi_offset 4, -16
 2456              		.cfi_offset 5, -12
 2457              		.cfi_offset 6, -8
 2458              		.cfi_offset 14, -4
 2459 0002 0500     		movs	r5, r0
 2460 0004 0C00     		movs	r4, r1
1383:Generated_Source\PSoC4/CyDMA.c ****     CYASSERT((channel    >= 0) && (channel    < CYDMA_CH_NR));
 2461              		.loc 1 1383 0
 2462 0006 0728     		cmp	r0, #7
 2463 0008 02D9     		bls	.L208
 2464              		.loc 1 1383 0 is_stmt 0 discriminator 1
 2465 000a 0020     		movs	r0, #0
 2466              	.LVL237:
 2467 000c FFF7FEFF 		bl	CyHalt
 2468              	.LVL238:
 2469              	.L208:
1384:Generated_Source\PSoC4/CyDMA.c ****     CYASSERT((descriptor >= 0) && (descriptor < CYDMA_DESCR_NR));
 2470              		.loc 1 1384 0 is_stmt 1
 2471 0010 012C     		cmp	r4, #1
 2472 0012 02D9     		bls	.L209
 2473              		.loc 1 1384 0 is_stmt 0 discriminator 1
 2474 0014 0020     		movs	r0, #0
 2475 0016 FFF7FEFF 		bl	CyHalt
 2476              	.LVL239:
 2477              	.L209:
1385:Generated_Source\PSoC4/CyDMA.c **** 
1386:Generated_Source\PSoC4/CyDMA.c ****     return (CYDMA_DESCR_BASE.descriptor[channel][descriptor].ctl & CYDMA_PREEMPTABLE);
 2478              		.loc 1 1386 0 is_stmt 1
 2479 001a 6D00     		lsls	r5, r5, #1
 2480              	.LVL240:
 2481 001c 2C19     		adds	r4, r5, r4
 2482              	.LVL241:
 2483 001e 2401     		lsls	r4, r4, #4
 2484 0020 034B     		ldr	r3, .L210
 2485 0022 9C46     		mov	ip, r3
 2486 0024 6444     		add	r4, r4, ip
 2487 0026 A068     		ldr	r0, [r4, #8]
 2488 0028 8023     		movs	r3, #128
 2489 002a 5B05     		lsls	r3, r3, #21
ARM GAS  C:\Users\JamesN4\AppData\Local\Temp\ccgbGPCH.s 			page 70


 2490 002c 1840     		ands	r0, r3
1387:Generated_Source\PSoC4/CyDMA.c **** }
 2491              		.loc 1 1387 0
 2492              		@ sp needed
 2493 002e 70BD     		pop	{r4, r5, r6, pc}
 2494              	.L211:
 2495              		.align	2
 2496              	.L210:
 2497 0030 00181040 		.word	1074796544
 2498              		.cfi_endproc
 2499              	.LFE46:
 2500              		.size	CyDmaGetPreemptable, .-CyDmaGetPreemptable
 2501              		.section	.text.CyDmaSetPostCompletionActions,"ax",%progbits
 2502              		.align	2
 2503              		.global	CyDmaSetPostCompletionActions
 2504              		.code	16
 2505              		.thumb_func
 2506              		.type	CyDmaSetPostCompletionActions, %function
 2507              	CyDmaSetPostCompletionActions:
 2508              	.LFB47:
1388:Generated_Source\PSoC4/CyDMA.c **** 
1389:Generated_Source\PSoC4/CyDMA.c **** 
1390:Generated_Source\PSoC4/CyDMA.c **** /*******************************************************************************
1391:Generated_Source\PSoC4/CyDMA.c **** * Function Name: CyDmaSetPostCompletionActions
1392:Generated_Source\PSoC4/CyDMA.c **** ********************************************************************************
1393:Generated_Source\PSoC4/CyDMA.c **** *
1394:Generated_Source\PSoC4/CyDMA.c **** * Summary:
1395:Generated_Source\PSoC4/CyDMA.c **** *  Determines what occurs after a descriptor completes.
1396:Generated_Source\PSoC4/CyDMA.c **** *
1397:Generated_Source\PSoC4/CyDMA.c **** * Parameters:
1398:Generated_Source\PSoC4/CyDMA.c **** *  channel:    Channel used by this function.
1399:Generated_Source\PSoC4/CyDMA.c **** *  descriptor: Descriptor (0 or 1) modified by this function.
1400:Generated_Source\PSoC4/CyDMA.c **** *  actions:    Specifies descriptor post completion actions. Refer to the API
1401:Generated_Source\PSoC4/CyDMA.c **** *              bit field definitions in CyDMA_P4.h or the API description
1402:Generated_Source\PSoC4/CyDMA.c **** *              in the DMA channel datasheet for the parameter options.
1403:Generated_Source\PSoC4/CyDMA.c **** *                   
1404:Generated_Source\PSoC4/CyDMA.c **** * Return:
1405:Generated_Source\PSoC4/CyDMA.c **** *  None.  
1406:Generated_Source\PSoC4/CyDMA.c **** *
1407:Generated_Source\PSoC4/CyDMA.c **** * Side effect:
1408:Generated_Source\PSoC4/CyDMA.c **** *  This function should not be called when the specified descriptor is active
1409:Generated_Source\PSoC4/CyDMA.c **** *  in the DMA transfer engine. This can be checked by calling CyDmaGetStatus(). 
1410:Generated_Source\PSoC4/CyDMA.c **** *
1411:Generated_Source\PSoC4/CyDMA.c **** *******************************************************************************/
1412:Generated_Source\PSoC4/CyDMA.c **** void CyDmaSetPostCompletionActions(int32 channel, int32 descriptor, uint32 actions)
1413:Generated_Source\PSoC4/CyDMA.c **** {
 2509              		.loc 1 1413 0
 2510              		.cfi_startproc
 2511              		@ args = 0, pretend = 0, frame = 0
 2512              		@ frame_needed = 0, uses_anonymous_args = 0
 2513              	.LVL242:
 2514 0000 70B5     		push	{r4, r5, r6, lr}
 2515              		.cfi_def_cfa_offset 16
 2516              		.cfi_offset 4, -16
 2517              		.cfi_offset 5, -12
 2518              		.cfi_offset 6, -8
 2519              		.cfi_offset 14, -4
ARM GAS  C:\Users\JamesN4\AppData\Local\Temp\ccgbGPCH.s 			page 71


 2520 0002 0500     		movs	r5, r0
 2521 0004 0C00     		movs	r4, r1
 2522 0006 1600     		movs	r6, r2
1414:Generated_Source\PSoC4/CyDMA.c ****     uint32 regValue;
1415:Generated_Source\PSoC4/CyDMA.c **** 
1416:Generated_Source\PSoC4/CyDMA.c ****     CYASSERT((channel    >= 0) && (channel    < CYDMA_CH_NR));
 2523              		.loc 1 1416 0
 2524 0008 0728     		cmp	r0, #7
 2525 000a 02D9     		bls	.L213
 2526              		.loc 1 1416 0 is_stmt 0 discriminator 1
 2527 000c 0020     		movs	r0, #0
 2528              	.LVL243:
 2529 000e FFF7FEFF 		bl	CyHalt
 2530              	.LVL244:
 2531              	.L213:
1417:Generated_Source\PSoC4/CyDMA.c ****     CYASSERT((descriptor >= 0) && (descriptor < CYDMA_DESCR_NR));
 2532              		.loc 1 1417 0 is_stmt 1
 2533 0012 012C     		cmp	r4, #1
 2534 0014 02D9     		bls	.L214
 2535              		.loc 1 1417 0 is_stmt 0 discriminator 1
 2536 0016 0020     		movs	r0, #0
 2537 0018 FFF7FEFF 		bl	CyHalt
 2538              	.LVL245:
 2539              	.L214:
1418:Generated_Source\PSoC4/CyDMA.c ****     CYASSERT(0u == (actions & (uint32)~CYDMA_POST_COMPLETE_ACTIONS));
 2540              		.loc 1 1418 0 is_stmt 1
 2541 001c 084B     		ldr	r3, .L216
 2542 001e 1E42     		tst	r6, r3
 2543 0020 02D0     		beq	.L215
 2544              		.loc 1 1418 0 is_stmt 0 discriminator 1
 2545 0022 0020     		movs	r0, #0
 2546 0024 FFF7FEFF 		bl	CyHalt
 2547              	.LVL246:
 2548              	.L215:
1419:Generated_Source\PSoC4/CyDMA.c **** 
1420:Generated_Source\PSoC4/CyDMA.c ****     regValue = CYDMA_DESCR_BASE.descriptor[channel][descriptor].ctl & (uint32)~CYDMA_POST_COMPLETE_
 2549              		.loc 1 1420 0 is_stmt 1
 2550 0028 6D00     		lsls	r5, r5, #1
 2551              	.LVL247:
 2552 002a 2C19     		adds	r4, r5, r4
 2553              	.LVL248:
 2554 002c 2401     		lsls	r4, r4, #4
 2555 002e 054B     		ldr	r3, .L216+4
 2556 0030 9C46     		mov	ip, r3
 2557 0032 6444     		add	r4, r4, ip
 2558 0034 A268     		ldr	r2, [r4, #8]
 2559 0036 024B     		ldr	r3, .L216
 2560 0038 1A40     		ands	r2, r3
 2561              	.LVL249:
1421:Generated_Source\PSoC4/CyDMA.c ****     CYDMA_DESCR_BASE.descriptor[channel][descriptor].ctl = regValue | actions;
 2562              		.loc 1 1421 0
 2563 003a 3243     		orrs	r2, r6
 2564              	.LVL250:
 2565 003c A260     		str	r2, [r4, #8]
1422:Generated_Source\PSoC4/CyDMA.c **** }
 2566              		.loc 1 1422 0
 2567              		@ sp needed
ARM GAS  C:\Users\JamesN4\AppData\Local\Temp\ccgbGPCH.s 			page 72


 2568              	.LVL251:
 2569 003e 70BD     		pop	{r4, r5, r6, pc}
 2570              	.L217:
 2571              		.align	2
 2572              	.L216:
 2573 0040 FFFFFFD3 		.word	-738197505
 2574 0044 00181040 		.word	1074796544
 2575              		.cfi_endproc
 2576              	.LFE47:
 2577              		.size	CyDmaSetPostCompletionActions, .-CyDmaSetPostCompletionActions
 2578              		.section	.text.CyDmaGetPostCompletionActions,"ax",%progbits
 2579              		.align	2
 2580              		.global	CyDmaGetPostCompletionActions
 2581              		.code	16
 2582              		.thumb_func
 2583              		.type	CyDmaGetPostCompletionActions, %function
 2584              	CyDmaGetPostCompletionActions:
 2585              	.LFB48:
1423:Generated_Source\PSoC4/CyDMA.c **** 
1424:Generated_Source\PSoC4/CyDMA.c **** 
1425:Generated_Source\PSoC4/CyDMA.c **** /*******************************************************************************
1426:Generated_Source\PSoC4/CyDMA.c **** * Function Name: CyDmaGetPostCompletionActions
1427:Generated_Source\PSoC4/CyDMA.c **** ********************************************************************************
1428:Generated_Source\PSoC4/CyDMA.c **** *
1429:Generated_Source\PSoC4/CyDMA.c **** * Summary:
1430:Generated_Source\PSoC4/CyDMA.c **** *  Returns the post descriptor action settings as set by 
1431:Generated_Source\PSoC4/CyDMA.c **** *  CyDmaSetPostCompletionActions() or CyDmaSetConfiguration().
1432:Generated_Source\PSoC4/CyDMA.c **** *
1433:Generated_Source\PSoC4/CyDMA.c **** * Parameters:
1434:Generated_Source\PSoC4/CyDMA.c **** *  channel:    Channel used by this function.
1435:Generated_Source\PSoC4/CyDMA.c **** *  descriptor: Descriptor (0 or 1) modified by this function.
1436:Generated_Source\PSoC4/CyDMA.c **** *                   
1437:Generated_Source\PSoC4/CyDMA.c **** * Return:
1438:Generated_Source\PSoC4/CyDMA.c **** *  Post descriptor actions. Refer to the API bit field definitions in
1439:Generated_Source\PSoC4/CyDMA.c **** *  CyDMA_P4.h or the API description in the DMA channel datasheet for more
1440:Generated_Source\PSoC4/CyDMA.c **** *  information.
1441:Generated_Source\PSoC4/CyDMA.c **** *
1442:Generated_Source\PSoC4/CyDMA.c **** *******************************************************************************/
1443:Generated_Source\PSoC4/CyDMA.c **** uint32 CyDmaGetPostCompletionActions(int32 channel, int32 descriptor)
1444:Generated_Source\PSoC4/CyDMA.c **** {
 2586              		.loc 1 1444 0
 2587              		.cfi_startproc
 2588              		@ args = 0, pretend = 0, frame = 0
 2589              		@ frame_needed = 0, uses_anonymous_args = 0
 2590              	.LVL252:
 2591 0000 70B5     		push	{r4, r5, r6, lr}
 2592              		.cfi_def_cfa_offset 16
 2593              		.cfi_offset 4, -16
 2594              		.cfi_offset 5, -12
 2595              		.cfi_offset 6, -8
 2596              		.cfi_offset 14, -4
 2597 0002 0500     		movs	r5, r0
 2598 0004 0C00     		movs	r4, r1
1445:Generated_Source\PSoC4/CyDMA.c ****     CYASSERT((channel    >= 0) && (channel    < CYDMA_CH_NR));
 2599              		.loc 1 1445 0
 2600 0006 0728     		cmp	r0, #7
 2601 0008 02D9     		bls	.L219
ARM GAS  C:\Users\JamesN4\AppData\Local\Temp\ccgbGPCH.s 			page 73


 2602              		.loc 1 1445 0 is_stmt 0 discriminator 1
 2603 000a 0020     		movs	r0, #0
 2604              	.LVL253:
 2605 000c FFF7FEFF 		bl	CyHalt
 2606              	.LVL254:
 2607              	.L219:
1446:Generated_Source\PSoC4/CyDMA.c ****     CYASSERT((descriptor >= 0) && (descriptor < CYDMA_DESCR_NR));
 2608              		.loc 1 1446 0 is_stmt 1
 2609 0010 012C     		cmp	r4, #1
 2610 0012 02D9     		bls	.L220
 2611              		.loc 1 1446 0 is_stmt 0 discriminator 1
 2612 0014 0020     		movs	r0, #0
 2613 0016 FFF7FEFF 		bl	CyHalt
 2614              	.LVL255:
 2615              	.L220:
1447:Generated_Source\PSoC4/CyDMA.c **** 
1448:Generated_Source\PSoC4/CyDMA.c ****     return (CYDMA_DESCR_BASE.descriptor[channel][descriptor].ctl & CYDMA_POST_COMPLETE_ACTIONS);
 2616              		.loc 1 1448 0 is_stmt 1
 2617 001a 6D00     		lsls	r5, r5, #1
 2618              	.LVL256:
 2619 001c 2C19     		adds	r4, r5, r4
 2620              	.LVL257:
 2621 001e 2401     		lsls	r4, r4, #4
 2622 0020 034B     		ldr	r3, .L221
 2623 0022 9C46     		mov	ip, r3
 2624 0024 6444     		add	r4, r4, ip
 2625 0026 A068     		ldr	r0, [r4, #8]
 2626 0028 B023     		movs	r3, #176
 2627 002a 9B05     		lsls	r3, r3, #22
 2628 002c 1840     		ands	r0, r3
1449:Generated_Source\PSoC4/CyDMA.c **** }
 2629              		.loc 1 1449 0
 2630              		@ sp needed
 2631 002e 70BD     		pop	{r4, r5, r6, pc}
 2632              	.L222:
 2633              		.align	2
 2634              	.L221:
 2635 0030 00181040 		.word	1074796544
 2636              		.cfi_endproc
 2637              	.LFE48:
 2638              		.size	CyDmaGetPostCompletionActions, .-CyDmaGetPostCompletionActions
 2639              		.data
 2640              		.align	2
 2641              		.set	.LANCHOR0,. + 0
 2642              		.type	CyDmaInterruptCallback, %object
 2643              		.size	CyDmaInterruptCallback, 32
 2644              	CyDmaInterruptCallback:
 2645 0000 00000000 		.word	CyDmaDefaultInterruptCallback
 2646 0004 00000000 		.word	CyDmaDefaultInterruptCallback
 2647 0008 00000000 		.word	CyDmaDefaultInterruptCallback
 2648 000c 00000000 		.word	CyDmaDefaultInterruptCallback
 2649 0010 00000000 		.word	CyDmaDefaultInterruptCallback
 2650 0014 00000000 		.word	CyDmaDefaultInterruptCallback
 2651 0018 00000000 		.word	CyDmaDefaultInterruptCallback
 2652 001c 00000000 		.word	CyDmaDefaultInterruptCallback
 2653              		.bss
 2654              		.align	2
ARM GAS  C:\Users\JamesN4\AppData\Local\Temp\ccgbGPCH.s 			page 74


 2655              		.set	.LANCHOR1,. + 0
 2656              		.type	initIntrVector.5006, %object
 2657              		.size	initIntrVector.5006, 1
 2658              	initIntrVector.5006:
 2659 0000 00       		.space	1
 2660 0001 000000   		.space	3
 2661              		.type	CyDmaChannelUsedMask, %object
 2662              		.size	CyDmaChannelUsedMask, 4
 2663              	CyDmaChannelUsedMask:
 2664 0004 00000000 		.space	4
 2665              		.text
 2666              	.Letext0:
 2667              		.file 2 "Generated_Source\\PSoC4\\cytypes.h"
 2668              		.file 3 "Generated_Source\\PSoC4\\CyDMA.h"
 2669              		.file 4 "Generated_Source\\PSoC4\\CyLib.h"
 2670              		.section	.debug_info,"",%progbits
 2671              	.Ldebug_info0:
 2672 0000 2A120000 		.4byte	0x122a
 2673 0004 0400     		.2byte	0x4
 2674 0006 00000000 		.4byte	.Ldebug_abbrev0
 2675 000a 04       		.byte	0x4
 2676 000b 01       		.uleb128 0x1
 2677 000c 74000000 		.4byte	.LASF105
 2678 0010 0C       		.byte	0xc
 2679 0011 B9070000 		.4byte	.LASF106
 2680 0015 BE030000 		.4byte	.LASF107
 2681 0019 00000000 		.4byte	.Ldebug_ranges0+0
 2682 001d 00000000 		.4byte	0
 2683 0021 00000000 		.4byte	.Ldebug_line0
 2684 0025 02       		.uleb128 0x2
 2685 0026 01       		.byte	0x1
 2686 0027 06       		.byte	0x6
 2687 0028 6D010000 		.4byte	.LASF0
 2688 002c 02       		.uleb128 0x2
 2689 002d 01       		.byte	0x1
 2690 002e 08       		.byte	0x8
 2691 002f 8D050000 		.4byte	.LASF1
 2692 0033 02       		.uleb128 0x2
 2693 0034 02       		.byte	0x2
 2694 0035 05       		.byte	0x5
 2695 0036 B9050000 		.4byte	.LASF2
 2696 003a 02       		.uleb128 0x2
 2697 003b 02       		.byte	0x2
 2698 003c 07       		.byte	0x7
 2699 003d 15030000 		.4byte	.LASF3
 2700 0041 02       		.uleb128 0x2
 2701 0042 04       		.byte	0x4
 2702 0043 05       		.byte	0x5
 2703 0044 AE010000 		.4byte	.LASF4
 2704 0048 02       		.uleb128 0x2
 2705 0049 04       		.byte	0x4
 2706 004a 07       		.byte	0x7
 2707 004b F8020000 		.4byte	.LASF5
 2708 004f 02       		.uleb128 0x2
 2709 0050 08       		.byte	0x8
 2710 0051 05       		.byte	0x5
 2711 0052 5F010000 		.4byte	.LASF6
ARM GAS  C:\Users\JamesN4\AppData\Local\Temp\ccgbGPCH.s 			page 75


 2712 0056 02       		.uleb128 0x2
 2713 0057 08       		.byte	0x8
 2714 0058 07       		.byte	0x7
 2715 0059 19010000 		.4byte	.LASF7
 2716 005d 03       		.uleb128 0x3
 2717 005e 04       		.byte	0x4
 2718 005f 05       		.byte	0x5
 2719 0060 696E7400 		.ascii	"int\000"
 2720 0064 02       		.uleb128 0x2
 2721 0065 04       		.byte	0x4
 2722 0066 07       		.byte	0x7
 2723 0067 D4020000 		.4byte	.LASF8
 2724 006b 04       		.uleb128 0x4
 2725 006c 1C020000 		.4byte	.LASF9
 2726 0070 02       		.byte	0x2
 2727 0071 D201     		.2byte	0x1d2
 2728 0073 2C000000 		.4byte	0x2c
 2729 0077 04       		.uleb128 0x4
 2730 0078 59020000 		.4byte	.LASF10
 2731 007c 02       		.byte	0x2
 2732 007d D401     		.2byte	0x1d4
 2733 007f 48000000 		.4byte	0x48
 2734 0083 04       		.uleb128 0x4
 2735 0084 91010000 		.4byte	.LASF11
 2736 0088 02       		.byte	0x2
 2737 0089 D701     		.2byte	0x1d7
 2738 008b 41000000 		.4byte	0x41
 2739 008f 02       		.uleb128 0x2
 2740 0090 04       		.byte	0x4
 2741 0091 04       		.byte	0x4
 2742 0092 49050000 		.4byte	.LASF12
 2743 0096 02       		.uleb128 0x2
 2744 0097 08       		.byte	0x8
 2745 0098 04       		.byte	0x4
 2746 0099 36020000 		.4byte	.LASF13
 2747 009d 02       		.uleb128 0x2
 2748 009e 01       		.byte	0x1
 2749 009f 08       		.byte	0x8
 2750 00a0 3C060000 		.4byte	.LASF14
 2751 00a4 04       		.uleb128 0x4
 2752 00a5 50070000 		.4byte	.LASF15
 2753 00a9 02       		.byte	0x2
 2754 00aa 7402     		.2byte	0x274
 2755 00ac 48000000 		.4byte	0x48
 2756 00b0 04       		.uleb128 0x4
 2757 00b1 1A040000 		.4byte	.LASF16
 2758 00b5 02       		.byte	0x2
 2759 00b6 7E02     		.2byte	0x27e
 2760 00b8 BC000000 		.4byte	0xbc
 2761 00bc 05       		.uleb128 0x5
 2762 00bd 77000000 		.4byte	0x77
 2763 00c1 04       		.uleb128 0x4
 2764 00c2 5B060000 		.4byte	.LASF17
 2765 00c6 02       		.byte	0x2
 2766 00c7 8E02     		.2byte	0x28e
 2767 00c9 CD000000 		.4byte	0xcd
 2768 00cd 06       		.uleb128 0x6
ARM GAS  C:\Users\JamesN4\AppData\Local\Temp\ccgbGPCH.s 			page 76


 2769 00ce 04       		.byte	0x4
 2770 00cf D3000000 		.4byte	0xd3
 2771 00d3 07       		.uleb128 0x7
 2772 00d4 08       		.uleb128 0x8
 2773 00d5 20       		.byte	0x20
 2774 00d6 03       		.byte	0x3
 2775 00d7 26       		.byte	0x26
 2776 00d8 E9000000 		.4byte	0xe9
 2777 00dc 09       		.uleb128 0x9
 2778 00dd 63746C00 		.ascii	"ctl\000"
 2779 00e1 03       		.byte	0x3
 2780 00e2 28       		.byte	0x28
 2781 00e3 E9000000 		.4byte	0xe9
 2782 00e7 00       		.byte	0
 2783 00e8 00       		.byte	0
 2784 00e9 0A       		.uleb128 0xa
 2785 00ea 77000000 		.4byte	0x77
 2786 00ee F9000000 		.4byte	0xf9
 2787 00f2 0B       		.uleb128 0xb
 2788 00f3 F9000000 		.4byte	0xf9
 2789 00f7 07       		.byte	0x7
 2790 00f8 00       		.byte	0
 2791 00f9 02       		.uleb128 0x2
 2792 00fa 04       		.byte	0x4
 2793 00fb 07       		.byte	0x7
 2794 00fc 53040000 		.4byte	.LASF18
 2795 0100 0C       		.uleb128 0xc
 2796 0101 B7010000 		.4byte	.LASF19
 2797 0105 03       		.byte	0x3
 2798 0106 29       		.byte	0x29
 2799 0107 D4000000 		.4byte	0xd4
 2800 010b 08       		.uleb128 0x8
 2801 010c 10       		.byte	0x10
 2802 010d 03       		.byte	0x3
 2803 010e 2C       		.byte	0x2c
 2804 010f 44010000 		.4byte	0x144
 2805 0113 09       		.uleb128 0x9
 2806 0114 73726300 		.ascii	"src\000"
 2807 0118 03       		.byte	0x3
 2808 0119 2E       		.byte	0x2e
 2809 011a 44010000 		.4byte	0x144
 2810 011e 00       		.byte	0
 2811 011f 09       		.uleb128 0x9
 2812 0120 64737400 		.ascii	"dst\000"
 2813 0124 03       		.byte	0x3
 2814 0125 2F       		.byte	0x2f
 2815 0126 44010000 		.4byte	0x144
 2816 012a 04       		.byte	0x4
 2817 012b 09       		.uleb128 0x9
 2818 012c 63746C00 		.ascii	"ctl\000"
 2819 0130 03       		.byte	0x3
 2820 0131 30       		.byte	0x30
 2821 0132 77000000 		.4byte	0x77
 2822 0136 08       		.byte	0x8
 2823 0137 0D       		.uleb128 0xd
 2824 0138 31070000 		.4byte	.LASF20
 2825 013c 03       		.byte	0x3
ARM GAS  C:\Users\JamesN4\AppData\Local\Temp\ccgbGPCH.s 			page 77


 2826 013d 31       		.byte	0x31
 2827 013e 77000000 		.4byte	0x77
 2828 0142 0C       		.byte	0xc
 2829 0143 00       		.byte	0
 2830 0144 0E       		.uleb128 0xe
 2831 0145 04       		.byte	0x4
 2832 0146 0C       		.uleb128 0xc
 2833 0147 38070000 		.4byte	.LASF21
 2834 014b 03       		.byte	0x3
 2835 014c 32       		.byte	0x32
 2836 014d 0B010000 		.4byte	0x10b
 2837 0151 0F       		.uleb128 0xf
 2838 0152 0001     		.2byte	0x100
 2839 0154 03       		.byte	0x3
 2840 0155 38       		.byte	0x38
 2841 0156 67010000 		.4byte	0x167
 2842 015a 0D       		.uleb128 0xd
 2843 015b 25060000 		.4byte	.LASF22
 2844 015f 03       		.byte	0x3
 2845 0160 3A       		.byte	0x3a
 2846 0161 67010000 		.4byte	0x167
 2847 0165 00       		.byte	0
 2848 0166 00       		.byte	0
 2849 0167 0A       		.uleb128 0xa
 2850 0168 46010000 		.4byte	0x146
 2851 016c 7D010000 		.4byte	0x17d
 2852 0170 0B       		.uleb128 0xb
 2853 0171 F9000000 		.4byte	0xf9
 2854 0175 07       		.byte	0x7
 2855 0176 0B       		.uleb128 0xb
 2856 0177 F9000000 		.4byte	0xf9
 2857 017b 01       		.byte	0x1
 2858 017c 00       		.byte	0
 2859 017d 0C       		.uleb128 0xc
 2860 017e 89070000 		.4byte	.LASF23
 2861 0182 03       		.byte	0x3
 2862 0183 3B       		.byte	0x3b
 2863 0184 51010000 		.4byte	0x151
 2864 0188 08       		.uleb128 0x8
 2865 0189 20       		.byte	0x20
 2866 018a 03       		.byte	0x3
 2867 018b 3E       		.byte	0x3e
 2868 018c F1010000 		.4byte	0x1f1
 2869 0190 0D       		.uleb128 0xd
 2870 0191 39050000 		.4byte	.LASF24
 2871 0195 03       		.byte	0x3
 2872 0196 44       		.byte	0x44
 2873 0197 77000000 		.4byte	0x77
 2874 019b 00       		.byte	0
 2875 019c 0D       		.uleb128 0xd
 2876 019d 0C020000 		.4byte	.LASF25
 2877 01a1 03       		.byte	0x3
 2878 01a2 49       		.byte	0x49
 2879 01a3 83000000 		.4byte	0x83
 2880 01a7 04       		.byte	0x4
 2881 01a8 0D       		.uleb128 0xd
 2882 01a9 ED040000 		.4byte	.LASF26
ARM GAS  C:\Users\JamesN4\AppData\Local\Temp\ccgbGPCH.s 			page 78


 2883 01ad 03       		.byte	0x3
 2884 01ae 4C       		.byte	0x4c
 2885 01af 77000000 		.4byte	0x77
 2886 01b3 08       		.byte	0x8
 2887 01b4 0D       		.uleb128 0xd
 2888 01b5 DC060000 		.4byte	.LASF27
 2889 01b9 03       		.byte	0x3
 2890 01ba 51       		.byte	0x51
 2891 01bb 77000000 		.4byte	0x77
 2892 01bf 0C       		.byte	0xc
 2893 01c0 0D       		.uleb128 0xd
 2894 01c1 60020000 		.4byte	.LASF28
 2895 01c5 03       		.byte	0x3
 2896 01c6 54       		.byte	0x54
 2897 01c7 77000000 		.4byte	0x77
 2898 01cb 10       		.byte	0x10
 2899 01cc 0D       		.uleb128 0xd
 2900 01cd C7020000 		.4byte	.LASF29
 2901 01d1 03       		.byte	0x3
 2902 01d2 57       		.byte	0x57
 2903 01d3 77000000 		.4byte	0x77
 2904 01d7 14       		.byte	0x14
 2905 01d8 0D       		.uleb128 0xd
 2906 01d9 E0070000 		.4byte	.LASF30
 2907 01dd 03       		.byte	0x3
 2908 01de 5A       		.byte	0x5a
 2909 01df 77000000 		.4byte	0x77
 2910 01e3 18       		.byte	0x18
 2911 01e4 0D       		.uleb128 0xd
 2912 01e5 D8070000 		.4byte	.LASF31
 2913 01e9 03       		.byte	0x3
 2914 01ea 5D       		.byte	0x5d
 2915 01eb 77000000 		.4byte	0x77
 2916 01ef 1C       		.byte	0x1c
 2917 01f0 00       		.byte	0
 2918 01f1 0C       		.uleb128 0xc
 2919 01f2 9E020000 		.4byte	.LASF32
 2920 01f6 03       		.byte	0x3
 2921 01f7 5F       		.byte	0x5f
 2922 01f8 88010000 		.4byte	0x188
 2923 01fc 0C       		.uleb128 0xc
 2924 01fd 4F050000 		.4byte	.LASF33
 2925 0201 03       		.byte	0x3
 2926 0202 67       		.byte	0x67
 2927 0203 CD000000 		.4byte	0xcd
 2928 0207 02       		.uleb128 0x2
 2929 0208 08       		.byte	0x8
 2930 0209 04       		.byte	0x4
 2931 020a 5C040000 		.4byte	.LASF34
 2932 020e 10       		.uleb128 0x10
 2933 020f 19050000 		.4byte	.LASF41
 2934 0213 01       		.byte	0x1
 2935 0214 9401     		.2byte	0x194
 2936 0216 00000000 		.4byte	.LFB15
 2937 021a 30000000 		.4byte	.LFE15-.LFB15
 2938 021e 01       		.uleb128 0x1
 2939 021f 9C       		.byte	0x9c
ARM GAS  C:\Users\JamesN4\AppData\Local\Temp\ccgbGPCH.s 			page 79


 2940 0220 45020000 		.4byte	0x245
 2941 0224 11       		.uleb128 0x11
 2942 0225 68040000 		.4byte	.LASF35
 2943 0229 01       		.byte	0x1
 2944 022a 9601     		.2byte	0x196
 2945 022c 77000000 		.4byte	0x77
 2946 0230 00000000 		.4byte	.LLST0
 2947 0234 11       		.uleb128 0x11
 2948 0235 02010000 		.4byte	.LASF36
 2949 0239 01       		.byte	0x1
 2950 023a 9701     		.2byte	0x197
 2951 023c 77000000 		.4byte	0x77
 2952 0240 13000000 		.4byte	.LLST1
 2953 0244 00       		.byte	0
 2954 0245 12       		.uleb128 0x12
 2955 0246 6D040000 		.4byte	.LASF108
 2956 024a 01       		.byte	0x1
 2957 024b BB01     		.2byte	0x1bb
 2958 024d 00000000 		.4byte	.LFB16
 2959 0251 0A000000 		.4byte	.LFE16-.LFB16
 2960 0255 01       		.uleb128 0x1
 2961 0256 9C       		.byte	0x9c
 2962 0257 6B020000 		.4byte	0x26b
 2963 025b 13       		.uleb128 0x13
 2964 025c 08000000 		.4byte	.LVL8
 2965 0260 0C120000 		.4byte	0x120c
 2966 0264 14       		.uleb128 0x14
 2967 0265 01       		.uleb128 0x1
 2968 0266 50       		.byte	0x50
 2969 0267 01       		.uleb128 0x1
 2970 0268 30       		.byte	0x30
 2971 0269 00       		.byte	0
 2972 026a 00       		.byte	0
 2973 026b 15       		.uleb128 0x15
 2974 026c 22020000 		.4byte	.LASF109
 2975 0270 01       		.byte	0x1
 2976 0271 5D       		.byte	0x5d
 2977 0272 00000000 		.4byte	.LFB2
 2978 0276 10000000 		.4byte	.LFE2-.LFB2
 2979 027a 01       		.uleb128 0x1
 2980 027b 9C       		.byte	0x9c
 2981 027c 16       		.uleb128 0x16
 2982 027d 7E050000 		.4byte	.LASF37
 2983 0281 01       		.byte	0x1
 2984 0282 79       		.byte	0x79
 2985 0283 77000000 		.4byte	0x77
 2986 0287 00000000 		.4byte	.LFB3
 2987 028b 0C000000 		.4byte	.LFE3-.LFB3
 2988 028f 01       		.uleb128 0x1
 2989 0290 9C       		.byte	0x9c
 2990 0291 16       		.uleb128 0x16
 2991 0292 E1020000 		.4byte	.LASF38
 2992 0296 01       		.byte	0x1
 2993 0297 8E       		.byte	0x8e
 2994 0298 77000000 		.4byte	0x77
 2995 029c 00000000 		.4byte	.LFB4
 2996 02a0 0C000000 		.4byte	.LFE4-.LFB4
ARM GAS  C:\Users\JamesN4\AppData\Local\Temp\ccgbGPCH.s 			page 80


 2997 02a4 01       		.uleb128 0x1
 2998 02a5 9C       		.byte	0x9c
 2999 02a6 16       		.uleb128 0x16
 3000 02a7 2B000000 		.4byte	.LASF39
 3001 02ab 01       		.byte	0x1
 3002 02ac AA       		.byte	0xaa
 3003 02ad 44010000 		.4byte	0x144
 3004 02b1 00000000 		.4byte	.LFB5
 3005 02b5 0C000000 		.4byte	.LFE5-.LFB5
 3006 02b9 01       		.uleb128 0x1
 3007 02ba 9C       		.byte	0x9c
 3008 02bb 16       		.uleb128 0x16
 3009 02bc 00070000 		.4byte	.LASF40
 3010 02c0 01       		.byte	0x1
 3011 02c1 C6       		.byte	0xc6
 3012 02c2 44010000 		.4byte	0x144
 3013 02c6 00000000 		.4byte	.LFB6
 3014 02ca 0C000000 		.4byte	.LFE6-.LFB6
 3015 02ce 01       		.uleb128 0x1
 3016 02cf 9C       		.byte	0x9c
 3017 02d0 17       		.uleb128 0x17
 3018 02d1 00000000 		.4byte	.LASF42
 3019 02d5 01       		.byte	0x1
 3020 02d6 E3       		.byte	0xe3
 3021 02d7 00000000 		.4byte	.LFB7
 3022 02db 0C000000 		.4byte	.LFE7-.LFB7
 3023 02df 01       		.uleb128 0x1
 3024 02e0 9C       		.byte	0x9c
 3025 02e1 0B030000 		.4byte	0x30b
 3026 02e5 18       		.uleb128 0x18
 3027 02e6 30010000 		.4byte	.LASF47
 3028 02ea 01       		.byte	0x1
 3029 02eb E3       		.byte	0xe3
 3030 02ec C1000000 		.4byte	0xc1
 3031 02f0 32000000 		.4byte	.LLST2
 3032 02f4 13       		.uleb128 0x13
 3033 02f5 0A000000 		.4byte	.LVL11
 3034 02f9 17120000 		.4byte	0x1217
 3035 02fd 14       		.uleb128 0x14
 3036 02fe 01       		.uleb128 0x1
 3037 02ff 50       		.byte	0x50
 3038 0300 01       		.uleb128 0x1
 3039 0301 3D       		.byte	0x3d
 3040 0302 14       		.uleb128 0x14
 3041 0303 01       		.uleb128 0x1
 3042 0304 51       		.byte	0x51
 3043 0305 03       		.uleb128 0x3
 3044 0306 F3       		.byte	0xf3
 3045 0307 01       		.uleb128 0x1
 3046 0308 50       		.byte	0x50
 3047 0309 00       		.byte	0
 3048 030a 00       		.byte	0
 3049 030b 17       		.uleb128 0x17
 3050 030c D0060000 		.4byte	.LASF43
 3051 0310 01       		.byte	0x1
 3052 0311 3E       		.byte	0x3e
 3053 0312 00000000 		.4byte	.LFB1
ARM GAS  C:\Users\JamesN4\AppData\Local\Temp\ccgbGPCH.s 			page 81


 3054 0316 34000000 		.4byte	.LFE1-.LFB1
 3055 031a 01       		.uleb128 0x1
 3056 031b 9C       		.byte	0x9c
 3057 031c 5D030000 		.4byte	0x35d
 3058 0320 19       		.uleb128 0x19
 3059 0321 E3010000 		.4byte	.LASF44
 3060 0325 01       		.byte	0x1
 3061 0326 40       		.byte	0x40
 3062 0327 6B000000 		.4byte	0x6b
 3063 032b 05       		.uleb128 0x5
 3064 032c 03       		.byte	0x3
 3065 032d 00000000 		.4byte	initIntrVector.5006
 3066 0331 1A       		.uleb128 0x1a
 3067 0332 10000000 		.4byte	.LVL12
 3068 0336 D0020000 		.4byte	0x2d0
 3069 033a 48030000 		.4byte	0x348
 3070 033e 14       		.uleb128 0x14
 3071 033f 01       		.uleb128 0x1
 3072 0340 50       		.byte	0x50
 3073 0341 05       		.uleb128 0x5
 3074 0342 03       		.byte	0x3
 3075 0343 00000000 		.4byte	CyDmaInterrupt
 3076 0347 00       		.byte	0
 3077 0348 13       		.uleb128 0x13
 3078 0349 18000000 		.4byte	.LVL13
 3079 034d 22120000 		.4byte	0x1222
 3080 0351 14       		.uleb128 0x14
 3081 0352 01       		.uleb128 0x1
 3082 0353 50       		.byte	0x50
 3083 0354 01       		.uleb128 0x1
 3084 0355 3D       		.byte	0x3d
 3085 0356 14       		.uleb128 0x14
 3086 0357 01       		.uleb128 0x1
 3087 0358 51       		.byte	0x51
 3088 0359 01       		.uleb128 0x1
 3089 035a 33       		.byte	0x33
 3090 035b 00       		.byte	0
 3091 035c 00       		.byte	0
 3092 035d 16       		.uleb128 0x16
 3093 035e D5040000 		.4byte	.LASF45
 3094 0362 01       		.byte	0x1
 3095 0363 F7       		.byte	0xf7
 3096 0364 77000000 		.4byte	0x77
 3097 0368 00000000 		.4byte	.LFB8
 3098 036c 0C000000 		.4byte	.LFE8-.LFB8
 3099 0370 01       		.uleb128 0x1
 3100 0371 9C       		.byte	0x9c
 3101 0372 1B       		.uleb128 0x1b
 3102 0373 41060000 		.4byte	.LASF46
 3103 0377 01       		.byte	0x1
 3104 0378 0B01     		.2byte	0x10b
 3105 037a 00000000 		.4byte	.LFB9
 3106 037e 0C000000 		.4byte	.LFE9-.LFB9
 3107 0382 01       		.uleb128 0x1
 3108 0383 9C       		.byte	0x9c
 3109 0384 97030000 		.4byte	0x397
 3110 0388 1C       		.uleb128 0x1c
ARM GAS  C:\Users\JamesN4\AppData\Local\Temp\ccgbGPCH.s 			page 82


 3111 0389 C3050000 		.4byte	.LASF48
 3112 038d 01       		.byte	0x1
 3113 038e 0B01     		.2byte	0x10b
 3114 0390 77000000 		.4byte	0x77
 3115 0394 01       		.uleb128 0x1
 3116 0395 50       		.byte	0x50
 3117 0396 00       		.byte	0
 3118 0397 1B       		.uleb128 0x1b
 3119 0398 82020000 		.4byte	.LASF49
 3120 039c 01       		.byte	0x1
 3121 039d 1F01     		.2byte	0x11f
 3122 039f 00000000 		.4byte	.LFB10
 3123 03a3 0C000000 		.4byte	.LFE10-.LFB10
 3124 03a7 01       		.uleb128 0x1
 3125 03a8 9C       		.byte	0x9c
 3126 03a9 BC030000 		.4byte	0x3bc
 3127 03ad 1C       		.uleb128 0x1c
 3128 03ae C3050000 		.4byte	.LASF48
 3129 03b2 01       		.byte	0x1
 3130 03b3 1F01     		.2byte	0x11f
 3131 03b5 77000000 		.4byte	0x77
 3132 03b9 01       		.uleb128 0x1
 3133 03ba 50       		.byte	0x50
 3134 03bb 00       		.byte	0
 3135 03bc 1D       		.uleb128 0x1d
 3136 03bd D1050000 		.4byte	.LASF50
 3137 03c1 01       		.byte	0x1
 3138 03c2 3301     		.2byte	0x133
 3139 03c4 77000000 		.4byte	0x77
 3140 03c8 00000000 		.4byte	.LFB11
 3141 03cc 0C000000 		.4byte	.LFE11-.LFB11
 3142 03d0 01       		.uleb128 0x1
 3143 03d1 9C       		.byte	0x9c
 3144 03d2 1D       		.uleb128 0x1d
 3145 03d3 9B050000 		.4byte	.LASF51
 3146 03d7 01       		.byte	0x1
 3147 03d8 4701     		.2byte	0x147
 3148 03da 77000000 		.4byte	0x77
 3149 03de 00000000 		.4byte	.LFB12
 3150 03e2 0C000000 		.4byte	.LFE12-.LFB12
 3151 03e6 01       		.uleb128 0x1
 3152 03e7 9C       		.byte	0x9c
 3153 03e8 1E       		.uleb128 0x1e
 3154 03e9 BB040000 		.4byte	.LASF55
 3155 03ed 01       		.byte	0x1
 3156 03ee 5E01     		.2byte	0x15e
 3157 03f0 FC010000 		.4byte	0x1fc
 3158 03f4 00000000 		.4byte	.LFB13
 3159 03f8 20000000 		.4byte	.LFE13-.LFB13
 3160 03fc 01       		.uleb128 0x1
 3161 03fd 9C       		.byte	0x9c
 3162 03fe 40040000 		.4byte	0x440
 3163 0402 1F       		.uleb128 0x1f
 3164 0403 FC050000 		.4byte	.LASF52
 3165 0407 01       		.byte	0x1
 3166 0408 5E01     		.2byte	0x15e
 3167 040a 83000000 		.4byte	0x83
ARM GAS  C:\Users\JamesN4\AppData\Local\Temp\ccgbGPCH.s 			page 83


 3168 040e 5E000000 		.4byte	.LLST3
 3169 0412 1F       		.uleb128 0x1f
 3170 0413 6E030000 		.4byte	.LASF53
 3171 0417 01       		.byte	0x1
 3172 0418 5E01     		.2byte	0x15e
 3173 041a FC010000 		.4byte	0x1fc
 3174 041e 8A000000 		.4byte	.LLST4
 3175 0422 20       		.uleb128 0x20
 3176 0423 6C020000 		.4byte	.LASF54
 3177 0427 01       		.byte	0x1
 3178 0428 6001     		.2byte	0x160
 3179 042a FC010000 		.4byte	0x1fc
 3180 042e 01       		.uleb128 0x1
 3181 042f 50       		.byte	0x50
 3182 0430 13       		.uleb128 0x13
 3183 0431 10000000 		.4byte	.LVL18
 3184 0435 0C120000 		.4byte	0x120c
 3185 0439 14       		.uleb128 0x14
 3186 043a 01       		.uleb128 0x1
 3187 043b 50       		.byte	0x50
 3188 043c 01       		.uleb128 0x1
 3189 043d 30       		.byte	0x30
 3190 043e 00       		.byte	0
 3191 043f 00       		.byte	0
 3192 0440 1E       		.uleb128 0x1e
 3193 0441 F2010000 		.4byte	.LASF56
 3194 0445 01       		.byte	0x1
 3195 0446 7901     		.2byte	0x179
 3196 0448 FC010000 		.4byte	0x1fc
 3197 044c 00000000 		.4byte	.LFB14
 3198 0450 1C000000 		.4byte	.LFE14-.LFB14
 3199 0454 01       		.uleb128 0x1
 3200 0455 9C       		.byte	0x9c
 3201 0456 7A040000 		.4byte	0x47a
 3202 045a 1F       		.uleb128 0x1f
 3203 045b FC050000 		.4byte	.LASF52
 3204 045f 01       		.byte	0x1
 3205 0460 7901     		.2byte	0x179
 3206 0462 83000000 		.4byte	0x83
 3207 0466 BA000000 		.4byte	.LLST5
 3208 046a 13       		.uleb128 0x13
 3209 046b 0E000000 		.4byte	.LVL24
 3210 046f 0C120000 		.4byte	0x120c
 3211 0473 14       		.uleb128 0x14
 3212 0474 01       		.uleb128 0x1
 3213 0475 50       		.byte	0x50
 3214 0476 01       		.uleb128 0x1
 3215 0477 30       		.byte	0x30
 3216 0478 00       		.byte	0
 3217 0479 00       		.byte	0
 3218 047a 1E       		.uleb128 0x1e
 3219 047b 18060000 		.4byte	.LASF57
 3220 047f 01       		.byte	0x1
 3221 0480 D801     		.2byte	0x1d8
 3222 0482 83000000 		.4byte	0x83
 3223 0486 00000000 		.4byte	.LFB17
 3224 048a 24000000 		.4byte	.LFE17-.LFB17
ARM GAS  C:\Users\JamesN4\AppData\Local\Temp\ccgbGPCH.s 			page 84


 3225 048e 01       		.uleb128 0x1
 3226 048f 9C       		.byte	0x9c
 3227 0490 B5040000 		.4byte	0x4b5
 3228 0494 11       		.uleb128 0x11
 3229 0495 FC050000 		.4byte	.LASF52
 3230 0499 01       		.byte	0x1
 3231 049a DA01     		.2byte	0x1da
 3232 049c 83000000 		.4byte	0x83
 3233 04a0 E6000000 		.4byte	.LLST6
 3234 04a4 11       		.uleb128 0x11
 3235 04a5 30060000 		.4byte	.LASF58
 3236 04a9 01       		.byte	0x1
 3237 04aa DB01     		.2byte	0x1db
 3238 04ac 77000000 		.4byte	0x77
 3239 04b0 05010000 		.4byte	.LLST7
 3240 04b4 00       		.byte	0
 3241 04b5 1E       		.uleb128 0x1e
 3242 04b6 00080000 		.4byte	.LASF59
 3243 04ba 01       		.byte	0x1
 3244 04bb FC01     		.2byte	0x1fc
 3245 04bd A4000000 		.4byte	0xa4
 3246 04c1 00000000 		.4byte	.LFB18
 3247 04c5 24000000 		.4byte	.LFE18-.LFB18
 3248 04c9 01       		.uleb128 0x1
 3249 04ca 9C       		.byte	0x9c
 3250 04cb 0D050000 		.4byte	0x50d
 3251 04cf 1F       		.uleb128 0x1f
 3252 04d0 FC050000 		.4byte	.LASF52
 3253 04d4 01       		.byte	0x1
 3254 04d5 FC01     		.2byte	0x1fc
 3255 04d7 83000000 		.4byte	0x83
 3256 04db 30010000 		.4byte	.LLST8
 3257 04df 20       		.uleb128 0x20
 3258 04e0 30060000 		.4byte	.LASF58
 3259 04e4 01       		.byte	0x1
 3260 04e5 FE01     		.2byte	0x1fe
 3261 04e7 77000000 		.4byte	0x77
 3262 04eb 01       		.uleb128 0x1
 3263 04ec 53       		.byte	0x53
 3264 04ed 11       		.uleb128 0x11
 3265 04ee 2F020000 		.4byte	.LASF60
 3266 04f2 01       		.byte	0x1
 3267 04f3 FF01     		.2byte	0x1ff
 3268 04f5 A4000000 		.4byte	0xa4
 3269 04f9 5C010000 		.4byte	.LLST9
 3270 04fd 13       		.uleb128 0x13
 3271 04fe 0E000000 		.4byte	.LVL36
 3272 0502 0C120000 		.4byte	0x120c
 3273 0506 14       		.uleb128 0x14
 3274 0507 01       		.uleb128 0x1
 3275 0508 50       		.byte	0x50
 3276 0509 01       		.uleb128 0x1
 3277 050a 30       		.byte	0x30
 3278 050b 00       		.byte	0
 3279 050c 00       		.byte	0
 3280 050d 1B       		.uleb128 0x1b
 3281 050e 66000000 		.4byte	.LASF61
ARM GAS  C:\Users\JamesN4\AppData\Local\Temp\ccgbGPCH.s 			page 85


 3282 0512 01       		.byte	0x1
 3283 0513 2502     		.2byte	0x225
 3284 0515 00000000 		.4byte	.LFB19
 3285 0519 24000000 		.4byte	.LFE19-.LFB19
 3286 051d 01       		.uleb128 0x1
 3287 051e 9C       		.byte	0x9c
 3288 051f 43050000 		.4byte	0x543
 3289 0523 1F       		.uleb128 0x1f
 3290 0524 FC050000 		.4byte	.LASF52
 3291 0528 01       		.byte	0x1
 3292 0529 2502     		.2byte	0x225
 3293 052b 83000000 		.4byte	0x83
 3294 052f 7C010000 		.4byte	.LLST10
 3295 0533 13       		.uleb128 0x13
 3296 0534 0E000000 		.4byte	.LVL42
 3297 0538 0C120000 		.4byte	0x120c
 3298 053c 14       		.uleb128 0x14
 3299 053d 01       		.uleb128 0x1
 3300 053e 50       		.byte	0x50
 3301 053f 01       		.uleb128 0x1
 3302 0540 30       		.byte	0x30
 3303 0541 00       		.byte	0
 3304 0542 00       		.byte	0
 3305 0543 1B       		.uleb128 0x1b
 3306 0544 44000000 		.4byte	.LASF62
 3307 0548 01       		.byte	0x1
 3308 0549 3E02     		.2byte	0x23e
 3309 054b 00000000 		.4byte	.LFB20
 3310 054f 20000000 		.4byte	.LFE20-.LFB20
 3311 0553 01       		.uleb128 0x1
 3312 0554 9C       		.byte	0x9c
 3313 0555 79050000 		.4byte	0x579
 3314 0559 1F       		.uleb128 0x1f
 3315 055a FC050000 		.4byte	.LASF52
 3316 055e 01       		.byte	0x1
 3317 055f 3E02     		.2byte	0x23e
 3318 0561 83000000 		.4byte	0x83
 3319 0565 A8010000 		.4byte	.LLST11
 3320 0569 13       		.uleb128 0x13
 3321 056a 0E000000 		.4byte	.LVL46
 3322 056e 0C120000 		.4byte	0x120c
 3323 0572 14       		.uleb128 0x14
 3324 0573 01       		.uleb128 0x1
 3325 0574 50       		.byte	0x50
 3326 0575 01       		.uleb128 0x1
 3327 0576 30       		.byte	0x30
 3328 0577 00       		.byte	0
 3329 0578 00       		.byte	0
 3330 0579 1B       		.uleb128 0x1b
 3331 057a 67070000 		.4byte	.LASF63
 3332 057e 01       		.byte	0x1
 3333 057f 5502     		.2byte	0x255
 3334 0581 00000000 		.4byte	.LFB21
 3335 0585 24000000 		.4byte	.LFE21-.LFB21
 3336 0589 01       		.uleb128 0x1
 3337 058a 9C       		.byte	0x9c
 3338 058b C0050000 		.4byte	0x5c0
ARM GAS  C:\Users\JamesN4\AppData\Local\Temp\ccgbGPCH.s 			page 86


 3339 058f 1F       		.uleb128 0x1f
 3340 0590 FC050000 		.4byte	.LASF52
 3341 0594 01       		.byte	0x1
 3342 0595 5502     		.2byte	0x255
 3343 0597 83000000 		.4byte	0x83
 3344 059b D4010000 		.4byte	.LLST12
 3345 059f 21       		.uleb128 0x21
 3346 05a0 56010000 		.4byte	.LASF64
 3347 05a4 01       		.byte	0x1
 3348 05a5 5802     		.2byte	0x258
 3349 05a7 D5050000 		.4byte	0x5d5
 3350 05ab 04       		.byte	0x4
 3351 05ac 00       		.byte	0
 3352 05ad 00       		.byte	0
 3353 05ae 02       		.byte	0x2
 3354 05af C0       		.byte	0xc0
 3355 05b0 13       		.uleb128 0x13
 3356 05b1 0E000000 		.4byte	.LVL50
 3357 05b5 0C120000 		.4byte	0x120c
 3358 05b9 14       		.uleb128 0x14
 3359 05ba 01       		.uleb128 0x1
 3360 05bb 50       		.byte	0x50
 3361 05bc 01       		.uleb128 0x1
 3362 05bd 30       		.byte	0x30
 3363 05be 00       		.byte	0
 3364 05bf 00       		.byte	0
 3365 05c0 0A       		.uleb128 0xa
 3366 05c1 D0050000 		.4byte	0x5d0
 3367 05c5 D0050000 		.4byte	0x5d0
 3368 05c9 0B       		.uleb128 0xb
 3369 05ca F9000000 		.4byte	0xf9
 3370 05ce 00       		.byte	0
 3371 05cf 00       		.byte	0
 3372 05d0 22       		.uleb128 0x22
 3373 05d1 77000000 		.4byte	0x77
 3374 05d5 22       		.uleb128 0x22
 3375 05d6 C0050000 		.4byte	0x5c0
 3376 05da 1B       		.uleb128 0x1b
 3377 05db 28050000 		.4byte	.LASF65
 3378 05df 01       		.byte	0x1
 3379 05e0 7302     		.2byte	0x273
 3380 05e2 00000000 		.4byte	.LFB22
 3381 05e6 34000000 		.4byte	.LFE22-.LFB22
 3382 05ea 01       		.uleb128 0x1
 3383 05eb 9C       		.byte	0x9c
 3384 05ec 41060000 		.4byte	0x641
 3385 05f0 1F       		.uleb128 0x1f
 3386 05f1 FC050000 		.4byte	.LASF52
 3387 05f5 01       		.byte	0x1
 3388 05f6 7302     		.2byte	0x273
 3389 05f8 83000000 		.4byte	0x83
 3390 05fc 00020000 		.4byte	.LLST13
 3391 0600 1F       		.uleb128 0x1f
 3392 0601 77030000 		.4byte	.LASF66
 3393 0605 01       		.byte	0x1
 3394 0606 7302     		.2byte	0x273
 3395 0608 83000000 		.4byte	0x83
ARM GAS  C:\Users\JamesN4\AppData\Local\Temp\ccgbGPCH.s 			page 87


 3396 060c 2C020000 		.4byte	.LLST14
 3397 0610 20       		.uleb128 0x20
 3398 0611 79020000 		.4byte	.LASF67
 3399 0615 01       		.byte	0x1
 3400 0616 7502     		.2byte	0x275
 3401 0618 77000000 		.4byte	0x77
 3402 061c 01       		.uleb128 0x1
 3403 061d 53       		.byte	0x53
 3404 061e 1A       		.uleb128 0x1a
 3405 061f 10000000 		.4byte	.LVL54
 3406 0623 0C120000 		.4byte	0x120c
 3407 0627 31060000 		.4byte	0x631
 3408 062b 14       		.uleb128 0x14
 3409 062c 01       		.uleb128 0x1
 3410 062d 50       		.byte	0x50
 3411 062e 01       		.uleb128 0x1
 3412 062f 30       		.byte	0x30
 3413 0630 00       		.byte	0
 3414 0631 13       		.uleb128 0x13
 3415 0632 1A000000 		.4byte	.LVL55
 3416 0636 0C120000 		.4byte	0x120c
 3417 063a 14       		.uleb128 0x14
 3418 063b 01       		.uleb128 0x1
 3419 063c 50       		.byte	0x50
 3420 063d 01       		.uleb128 0x1
 3421 063e 30       		.byte	0x30
 3422 063f 00       		.byte	0
 3423 0640 00       		.byte	0
 3424 0641 1E       		.uleb128 0x1e
 3425 0642 08010000 		.4byte	.LASF68
 3426 0646 01       		.byte	0x1
 3427 0647 8D02     		.2byte	0x28d
 3428 0649 83000000 		.4byte	0x83
 3429 064d 00000000 		.4byte	.LFB23
 3430 0651 20000000 		.4byte	.LFE23-.LFB23
 3431 0655 01       		.uleb128 0x1
 3432 0656 9C       		.byte	0x9c
 3433 0657 89060000 		.4byte	0x689
 3434 065b 1F       		.uleb128 0x1f
 3435 065c FC050000 		.4byte	.LASF52
 3436 0660 01       		.byte	0x1
 3437 0661 8D02     		.2byte	0x28d
 3438 0663 83000000 		.4byte	0x83
 3439 0667 58020000 		.4byte	.LLST15
 3440 066b 20       		.uleb128 0x20
 3441 066c 77030000 		.4byte	.LASF66
 3442 0670 01       		.byte	0x1
 3443 0671 8F02     		.2byte	0x28f
 3444 0673 77000000 		.4byte	0x77
 3445 0677 01       		.uleb128 0x1
 3446 0678 50       		.byte	0x50
 3447 0679 13       		.uleb128 0x13
 3448 067a 0E000000 		.4byte	.LVL61
 3449 067e 0C120000 		.4byte	0x120c
 3450 0682 14       		.uleb128 0x14
 3451 0683 01       		.uleb128 0x1
 3452 0684 50       		.byte	0x50
ARM GAS  C:\Users\JamesN4\AppData\Local\Temp\ccgbGPCH.s 			page 88


 3453 0685 01       		.uleb128 0x1
 3454 0686 30       		.byte	0x30
 3455 0687 00       		.byte	0
 3456 0688 00       		.byte	0
 3457 0689 1B       		.uleb128 0x1b
 3458 068a B0020000 		.4byte	.LASF69
 3459 068e 01       		.byte	0x1
 3460 068f AB02     		.2byte	0x2ab
 3461 0691 00000000 		.4byte	.LFB24
 3462 0695 34000000 		.4byte	.LFE24-.LFB24
 3463 0699 01       		.uleb128 0x1
 3464 069a 9C       		.byte	0x9c
 3465 069b F0060000 		.4byte	0x6f0
 3466 069f 1F       		.uleb128 0x1f
 3467 06a0 FC050000 		.4byte	.LASF52
 3468 06a4 01       		.byte	0x1
 3469 06a5 AB02     		.2byte	0x2ab
 3470 06a7 83000000 		.4byte	0x83
 3471 06ab 84020000 		.4byte	.LLST16
 3472 06af 1F       		.uleb128 0x1f
 3473 06b0 25060000 		.4byte	.LASF22
 3474 06b4 01       		.byte	0x1
 3475 06b5 AB02     		.2byte	0x2ab
 3476 06b7 83000000 		.4byte	0x83
 3477 06bb B0020000 		.4byte	.LLST17
 3478 06bf 20       		.uleb128 0x20
 3479 06c0 79020000 		.4byte	.LASF67
 3480 06c4 01       		.byte	0x1
 3481 06c5 AD02     		.2byte	0x2ad
 3482 06c7 77000000 		.4byte	0x77
 3483 06cb 01       		.uleb128 0x1
 3484 06cc 53       		.byte	0x53
 3485 06cd 1A       		.uleb128 0x1a
 3486 06ce 10000000 		.4byte	.LVL66
 3487 06d2 0C120000 		.4byte	0x120c
 3488 06d6 E0060000 		.4byte	0x6e0
 3489 06da 14       		.uleb128 0x14
 3490 06db 01       		.uleb128 0x1
 3491 06dc 50       		.byte	0x50
 3492 06dd 01       		.uleb128 0x1
 3493 06de 30       		.byte	0x30
 3494 06df 00       		.byte	0
 3495 06e0 13       		.uleb128 0x13
 3496 06e1 1A000000 		.4byte	.LVL67
 3497 06e5 0C120000 		.4byte	0x120c
 3498 06e9 14       		.uleb128 0x14
 3499 06ea 01       		.uleb128 0x1
 3500 06eb 50       		.byte	0x50
 3501 06ec 01       		.uleb128 0x1
 3502 06ed 30       		.byte	0x30
 3503 06ee 00       		.byte	0
 3504 06ef 00       		.byte	0
 3505 06f0 1E       		.uleb128 0x1e
 3506 06f1 97010000 		.4byte	.LASF70
 3507 06f5 01       		.byte	0x1
 3508 06f6 C602     		.2byte	0x2c6
 3509 06f8 83000000 		.4byte	0x83
ARM GAS  C:\Users\JamesN4\AppData\Local\Temp\ccgbGPCH.s 			page 89


 3510 06fc 00000000 		.4byte	.LFB25
 3511 0700 20000000 		.4byte	.LFE25-.LFB25
 3512 0704 01       		.uleb128 0x1
 3513 0705 9C       		.byte	0x9c
 3514 0706 38070000 		.4byte	0x738
 3515 070a 1F       		.uleb128 0x1f
 3516 070b FC050000 		.4byte	.LASF52
 3517 070f 01       		.byte	0x1
 3518 0710 C602     		.2byte	0x2c6
 3519 0712 83000000 		.4byte	0x83
 3520 0716 DC020000 		.4byte	.LLST18
 3521 071a 20       		.uleb128 0x20
 3522 071b ED050000 		.4byte	.LASF71
 3523 071f 01       		.byte	0x1
 3524 0720 C802     		.2byte	0x2c8
 3525 0722 77000000 		.4byte	0x77
 3526 0726 01       		.uleb128 0x1
 3527 0727 50       		.byte	0x50
 3528 0728 13       		.uleb128 0x13
 3529 0729 0E000000 		.4byte	.LVL73
 3530 072d 0C120000 		.4byte	0x120c
 3531 0731 14       		.uleb128 0x14
 3532 0732 01       		.uleb128 0x1
 3533 0733 50       		.byte	0x50
 3534 0734 01       		.uleb128 0x1
 3535 0735 30       		.byte	0x30
 3536 0736 00       		.byte	0
 3537 0737 00       		.byte	0
 3538 0738 1B       		.uleb128 0x1b
 3539 0739 40010000 		.4byte	.LASF72
 3540 073d 01       		.byte	0x1
 3541 073e E902     		.2byte	0x2e9
 3542 0740 00000000 		.4byte	.LFB26
 3543 0744 E4000000 		.4byte	.LFE26-.LFB26
 3544 0748 01       		.uleb128 0x1
 3545 0749 9C       		.byte	0x9c
 3546 074a 39080000 		.4byte	0x839
 3547 074e 1F       		.uleb128 0x1f
 3548 074f FC050000 		.4byte	.LASF52
 3549 0753 01       		.byte	0x1
 3550 0754 E902     		.2byte	0x2e9
 3551 0756 83000000 		.4byte	0x83
 3552 075a 08030000 		.4byte	.LLST19
 3553 075e 1F       		.uleb128 0x1f
 3554 075f 25060000 		.4byte	.LASF22
 3555 0763 01       		.byte	0x1
 3556 0764 E902     		.2byte	0x2e9
 3557 0766 83000000 		.4byte	0x83
 3558 076a 34030000 		.4byte	.LLST20
 3559 076e 1F       		.uleb128 0x1f
 3560 076f 68060000 		.4byte	.LASF73
 3561 0773 01       		.byte	0x1
 3562 0774 E902     		.2byte	0x2e9
 3563 0776 39080000 		.4byte	0x839
 3564 077a 60030000 		.4byte	.LLST21
 3565 077e 1A       		.uleb128 0x1a
 3566 077f 12000000 		.4byte	.LVL78
ARM GAS  C:\Users\JamesN4\AppData\Local\Temp\ccgbGPCH.s 			page 90


 3567 0783 0C120000 		.4byte	0x120c
 3568 0787 91070000 		.4byte	0x791
 3569 078b 14       		.uleb128 0x14
 3570 078c 01       		.uleb128 0x1
 3571 078d 50       		.byte	0x50
 3572 078e 01       		.uleb128 0x1
 3573 078f 30       		.byte	0x30
 3574 0790 00       		.byte	0
 3575 0791 1A       		.uleb128 0x1a
 3576 0792 1C000000 		.4byte	.LVL79
 3577 0796 0C120000 		.4byte	0x120c
 3578 079a A4070000 		.4byte	0x7a4
 3579 079e 14       		.uleb128 0x14
 3580 079f 01       		.uleb128 0x1
 3581 07a0 50       		.byte	0x50
 3582 07a1 01       		.uleb128 0x1
 3583 07a2 30       		.byte	0x30
 3584 07a3 00       		.byte	0
 3585 07a4 1A       		.uleb128 0x1a
 3586 07a5 2A000000 		.4byte	.LVL80
 3587 07a9 0C120000 		.4byte	0x120c
 3588 07ad B7070000 		.4byte	0x7b7
 3589 07b1 14       		.uleb128 0x14
 3590 07b2 01       		.uleb128 0x1
 3591 07b3 50       		.byte	0x50
 3592 07b4 01       		.uleb128 0x1
 3593 07b5 30       		.byte	0x30
 3594 07b6 00       		.byte	0
 3595 07b7 1A       		.uleb128 0x1a
 3596 07b8 3A000000 		.4byte	.LVL81
 3597 07bc 0C120000 		.4byte	0x120c
 3598 07c0 CA070000 		.4byte	0x7ca
 3599 07c4 14       		.uleb128 0x14
 3600 07c5 01       		.uleb128 0x1
 3601 07c6 50       		.byte	0x50
 3602 07c7 01       		.uleb128 0x1
 3603 07c8 30       		.byte	0x30
 3604 07c9 00       		.byte	0
 3605 07ca 1A       		.uleb128 0x1a
 3606 07cb 48000000 		.4byte	.LVL82
 3607 07cf 0C120000 		.4byte	0x120c
 3608 07d3 DD070000 		.4byte	0x7dd
 3609 07d7 14       		.uleb128 0x14
 3610 07d8 01       		.uleb128 0x1
 3611 07d9 50       		.byte	0x50
 3612 07da 01       		.uleb128 0x1
 3613 07db 30       		.byte	0x30
 3614 07dc 00       		.byte	0
 3615 07dd 1A       		.uleb128 0x1a
 3616 07de 56000000 		.4byte	.LVL83
 3617 07e2 0C120000 		.4byte	0x120c
 3618 07e6 F0070000 		.4byte	0x7f0
 3619 07ea 14       		.uleb128 0x14
 3620 07eb 01       		.uleb128 0x1
 3621 07ec 50       		.byte	0x50
 3622 07ed 01       		.uleb128 0x1
 3623 07ee 30       		.byte	0x30
ARM GAS  C:\Users\JamesN4\AppData\Local\Temp\ccgbGPCH.s 			page 91


 3624 07ef 00       		.byte	0
 3625 07f0 1A       		.uleb128 0x1a
 3626 07f1 64000000 		.4byte	.LVL84
 3627 07f5 0C120000 		.4byte	0x120c
 3628 07f9 03080000 		.4byte	0x803
 3629 07fd 14       		.uleb128 0x14
 3630 07fe 01       		.uleb128 0x1
 3631 07ff 50       		.byte	0x50
 3632 0800 01       		.uleb128 0x1
 3633 0801 30       		.byte	0x30
 3634 0802 00       		.byte	0
 3635 0803 1A       		.uleb128 0x1a
 3636 0804 70000000 		.4byte	.LVL85
 3637 0808 0C120000 		.4byte	0x120c
 3638 080c 16080000 		.4byte	0x816
 3639 0810 14       		.uleb128 0x14
 3640 0811 01       		.uleb128 0x1
 3641 0812 50       		.byte	0x50
 3642 0813 01       		.uleb128 0x1
 3643 0814 30       		.byte	0x30
 3644 0815 00       		.byte	0
 3645 0816 1A       		.uleb128 0x1a
 3646 0817 7E000000 		.4byte	.LVL86
 3647 081b 0C120000 		.4byte	0x120c
 3648 081f 29080000 		.4byte	0x829
 3649 0823 14       		.uleb128 0x14
 3650 0824 01       		.uleb128 0x1
 3651 0825 50       		.byte	0x50
 3652 0826 01       		.uleb128 0x1
 3653 0827 30       		.byte	0x30
 3654 0828 00       		.byte	0
 3655 0829 13       		.uleb128 0x13
 3656 082a 8C000000 		.4byte	.LVL87
 3657 082e 0C120000 		.4byte	0x120c
 3658 0832 14       		.uleb128 0x14
 3659 0833 01       		.uleb128 0x1
 3660 0834 50       		.byte	0x50
 3661 0835 01       		.uleb128 0x1
 3662 0836 30       		.byte	0x30
 3663 0837 00       		.byte	0
 3664 0838 00       		.byte	0
 3665 0839 06       		.uleb128 0x6
 3666 083a 04       		.byte	0x4
 3667 083b 3F080000 		.4byte	0x83f
 3668 083f 22       		.uleb128 0x22
 3669 0840 F1010000 		.4byte	0x1f1
 3670 0844 1B       		.uleb128 0x1b
 3671 0845 B8060000 		.4byte	.LASF74
 3672 0849 01       		.byte	0x1
 3673 084a 1903     		.2byte	0x319
 3674 084c 00000000 		.4byte	.LFB27
 3675 0850 34000000 		.4byte	.LFE27-.LFB27
 3676 0854 01       		.uleb128 0x1
 3677 0855 9C       		.byte	0x9c
 3678 0856 9D080000 		.4byte	0x89d
 3679 085a 1F       		.uleb128 0x1f
 3680 085b FC050000 		.4byte	.LASF52
ARM GAS  C:\Users\JamesN4\AppData\Local\Temp\ccgbGPCH.s 			page 92


 3681 085f 01       		.byte	0x1
 3682 0860 1903     		.2byte	0x319
 3683 0862 83000000 		.4byte	0x83
 3684 0866 8C030000 		.4byte	.LLST22
 3685 086a 1F       		.uleb128 0x1f
 3686 086b 25060000 		.4byte	.LASF22
 3687 086f 01       		.byte	0x1
 3688 0870 1903     		.2byte	0x319
 3689 0872 83000000 		.4byte	0x83
 3690 0876 B8030000 		.4byte	.LLST23
 3691 087a 1A       		.uleb128 0x1a
 3692 087b 10000000 		.4byte	.LVL93
 3693 087f 0C120000 		.4byte	0x120c
 3694 0883 8D080000 		.4byte	0x88d
 3695 0887 14       		.uleb128 0x14
 3696 0888 01       		.uleb128 0x1
 3697 0889 50       		.byte	0x50
 3698 088a 01       		.uleb128 0x1
 3699 088b 30       		.byte	0x30
 3700 088c 00       		.byte	0
 3701 088d 13       		.uleb128 0x13
 3702 088e 1A000000 		.4byte	.LVL94
 3703 0892 0C120000 		.4byte	0x120c
 3704 0896 14       		.uleb128 0x14
 3705 0897 01       		.uleb128 0x1
 3706 0898 50       		.byte	0x50
 3707 0899 01       		.uleb128 0x1
 3708 089a 30       		.byte	0x30
 3709 089b 00       		.byte	0
 3710 089c 00       		.byte	0
 3711 089d 1E       		.uleb128 0x1e
 3712 089e A2040000 		.4byte	.LASF75
 3713 08a2 01       		.byte	0x1
 3714 08a3 3303     		.2byte	0x333
 3715 08a5 77000000 		.4byte	0x77
 3716 08a9 00000000 		.4byte	.LFB28
 3717 08ad 30000000 		.4byte	.LFE28-.LFB28
 3718 08b1 01       		.uleb128 0x1
 3719 08b2 9C       		.byte	0x9c
 3720 08b3 FA080000 		.4byte	0x8fa
 3721 08b7 1F       		.uleb128 0x1f
 3722 08b8 FC050000 		.4byte	.LASF52
 3723 08bc 01       		.byte	0x1
 3724 08bd 3303     		.2byte	0x333
 3725 08bf 83000000 		.4byte	0x83
 3726 08c3 E4030000 		.4byte	.LLST24
 3727 08c7 1F       		.uleb128 0x1f
 3728 08c8 25060000 		.4byte	.LASF22
 3729 08cc 01       		.byte	0x1
 3730 08cd 3303     		.2byte	0x333
 3731 08cf 83000000 		.4byte	0x83
 3732 08d3 10040000 		.4byte	.LLST25
 3733 08d7 1A       		.uleb128 0x1a
 3734 08d8 10000000 		.4byte	.LVL99
 3735 08dc 0C120000 		.4byte	0x120c
 3736 08e0 EA080000 		.4byte	0x8ea
 3737 08e4 14       		.uleb128 0x14
ARM GAS  C:\Users\JamesN4\AppData\Local\Temp\ccgbGPCH.s 			page 93


 3738 08e5 01       		.uleb128 0x1
 3739 08e6 50       		.byte	0x50
 3740 08e7 01       		.uleb128 0x1
 3741 08e8 30       		.byte	0x30
 3742 08e9 00       		.byte	0
 3743 08ea 13       		.uleb128 0x13
 3744 08eb 1A000000 		.4byte	.LVL100
 3745 08ef 0C120000 		.4byte	0x120c
 3746 08f3 14       		.uleb128 0x14
 3747 08f4 01       		.uleb128 0x1
 3748 08f5 50       		.byte	0x50
 3749 08f6 01       		.uleb128 0x1
 3750 08f7 30       		.byte	0x30
 3751 08f8 00       		.byte	0
 3752 08f9 00       		.byte	0
 3753 08fa 1B       		.uleb128 0x1b
 3754 08fb D0010000 		.4byte	.LASF76
 3755 08ff 01       		.byte	0x1
 3756 0900 5003     		.2byte	0x350
 3757 0902 00000000 		.4byte	.LFB29
 3758 0906 2C000000 		.4byte	.LFE29-.LFB29
 3759 090a 01       		.uleb128 0x1
 3760 090b 9C       		.byte	0x9c
 3761 090c 63090000 		.4byte	0x963
 3762 0910 1F       		.uleb128 0x1f
 3763 0911 FC050000 		.4byte	.LASF52
 3764 0915 01       		.byte	0x1
 3765 0916 5003     		.2byte	0x350
 3766 0918 83000000 		.4byte	0x83
 3767 091c 3C040000 		.4byte	.LLST26
 3768 0920 1F       		.uleb128 0x1f
 3769 0921 25060000 		.4byte	.LASF22
 3770 0925 01       		.byte	0x1
 3771 0926 5003     		.2byte	0x350
 3772 0928 83000000 		.4byte	0x83
 3773 092c 68040000 		.4byte	.LLST27
 3774 0930 1F       		.uleb128 0x1f
 3775 0931 97040000 		.4byte	.LASF77
 3776 0935 01       		.byte	0x1
 3777 0936 5003     		.2byte	0x350
 3778 0938 44010000 		.4byte	0x144
 3779 093c 94040000 		.4byte	.LLST28
 3780 0940 1A       		.uleb128 0x1a
 3781 0941 12000000 		.4byte	.LVL105
 3782 0945 0C120000 		.4byte	0x120c
 3783 0949 53090000 		.4byte	0x953
 3784 094d 14       		.uleb128 0x14
 3785 094e 01       		.uleb128 0x1
 3786 094f 50       		.byte	0x50
 3787 0950 01       		.uleb128 0x1
 3788 0951 30       		.byte	0x30
 3789 0952 00       		.byte	0
 3790 0953 13       		.uleb128 0x13
 3791 0954 1C000000 		.4byte	.LVL106
 3792 0958 0C120000 		.4byte	0x120c
 3793 095c 14       		.uleb128 0x14
 3794 095d 01       		.uleb128 0x1
ARM GAS  C:\Users\JamesN4\AppData\Local\Temp\ccgbGPCH.s 			page 94


 3795 095e 50       		.byte	0x50
 3796 095f 01       		.uleb128 0x1
 3797 0960 30       		.byte	0x30
 3798 0961 00       		.byte	0
 3799 0962 00       		.byte	0
 3800 0963 1E       		.uleb128 0x1e
 3801 0964 18000000 		.4byte	.LASF78
 3802 0968 01       		.byte	0x1
 3803 0969 6903     		.2byte	0x369
 3804 096b 44010000 		.4byte	0x144
 3805 096f 00000000 		.4byte	.LFB30
 3806 0973 2C000000 		.4byte	.LFE30-.LFB30
 3807 0977 01       		.uleb128 0x1
 3808 0978 9C       		.byte	0x9c
 3809 0979 C0090000 		.4byte	0x9c0
 3810 097d 1F       		.uleb128 0x1f
 3811 097e FC050000 		.4byte	.LASF52
 3812 0982 01       		.byte	0x1
 3813 0983 6903     		.2byte	0x369
 3814 0985 83000000 		.4byte	0x83
 3815 0989 C0040000 		.4byte	.LLST29
 3816 098d 1F       		.uleb128 0x1f
 3817 098e 25060000 		.4byte	.LASF22
 3818 0992 01       		.byte	0x1
 3819 0993 6903     		.2byte	0x369
 3820 0995 83000000 		.4byte	0x83
 3821 0999 EC040000 		.4byte	.LLST30
 3822 099d 1A       		.uleb128 0x1a
 3823 099e 10000000 		.4byte	.LVL112
 3824 09a2 0C120000 		.4byte	0x120c
 3825 09a6 B0090000 		.4byte	0x9b0
 3826 09aa 14       		.uleb128 0x14
 3827 09ab 01       		.uleb128 0x1
 3828 09ac 50       		.byte	0x50
 3829 09ad 01       		.uleb128 0x1
 3830 09ae 30       		.byte	0x30
 3831 09af 00       		.byte	0
 3832 09b0 13       		.uleb128 0x13
 3833 09b1 1A000000 		.4byte	.LVL113
 3834 09b5 0C120000 		.4byte	0x120c
 3835 09b9 14       		.uleb128 0x14
 3836 09ba 01       		.uleb128 0x1
 3837 09bb 50       		.byte	0x50
 3838 09bc 01       		.uleb128 0x1
 3839 09bd 30       		.byte	0x30
 3840 09be 00       		.byte	0
 3841 09bf 00       		.byte	0
 3842 09c0 1B       		.uleb128 0x1b
 3843 09c1 53000000 		.4byte	.LASF79
 3844 09c5 01       		.byte	0x1
 3845 09c6 8603     		.2byte	0x386
 3846 09c8 00000000 		.4byte	.LFB31
 3847 09cc 30000000 		.4byte	.LFE31-.LFB31
 3848 09d0 01       		.uleb128 0x1
 3849 09d1 9C       		.byte	0x9c
 3850 09d2 290A0000 		.4byte	0xa29
 3851 09d6 1F       		.uleb128 0x1f
ARM GAS  C:\Users\JamesN4\AppData\Local\Temp\ccgbGPCH.s 			page 95


 3852 09d7 FC050000 		.4byte	.LASF52
 3853 09db 01       		.byte	0x1
 3854 09dc 8603     		.2byte	0x386
 3855 09de 83000000 		.4byte	0x83
 3856 09e2 18050000 		.4byte	.LLST31
 3857 09e6 1F       		.uleb128 0x1f
 3858 09e7 25060000 		.4byte	.LASF22
 3859 09eb 01       		.byte	0x1
 3860 09ec 8603     		.2byte	0x386
 3861 09ee 83000000 		.4byte	0x83
 3862 09f2 44050000 		.4byte	.LLST32
 3863 09f6 1F       		.uleb128 0x1f
 3864 09f7 0A030000 		.4byte	.LASF80
 3865 09fb 01       		.byte	0x1
 3866 09fc 8603     		.2byte	0x386
 3867 09fe 44010000 		.4byte	0x144
 3868 0a02 70050000 		.4byte	.LLST33
 3869 0a06 1A       		.uleb128 0x1a
 3870 0a07 12000000 		.4byte	.LVL118
 3871 0a0b 0C120000 		.4byte	0x120c
 3872 0a0f 190A0000 		.4byte	0xa19
 3873 0a13 14       		.uleb128 0x14
 3874 0a14 01       		.uleb128 0x1
 3875 0a15 50       		.byte	0x50
 3876 0a16 01       		.uleb128 0x1
 3877 0a17 30       		.byte	0x30
 3878 0a18 00       		.byte	0
 3879 0a19 13       		.uleb128 0x13
 3880 0a1a 1C000000 		.4byte	.LVL119
 3881 0a1e 0C120000 		.4byte	0x120c
 3882 0a22 14       		.uleb128 0x14
 3883 0a23 01       		.uleb128 0x1
 3884 0a24 50       		.byte	0x50
 3885 0a25 01       		.uleb128 0x1
 3886 0a26 30       		.byte	0x30
 3887 0a27 00       		.byte	0
 3888 0a28 00       		.byte	0
 3889 0a29 1E       		.uleb128 0x1e
 3890 0a2a ED060000 		.4byte	.LASF81
 3891 0a2e 01       		.byte	0x1
 3892 0a2f 9F03     		.2byte	0x39f
 3893 0a31 44010000 		.4byte	0x144
 3894 0a35 00000000 		.4byte	.LFB32
 3895 0a39 30000000 		.4byte	.LFE32-.LFB32
 3896 0a3d 01       		.uleb128 0x1
 3897 0a3e 9C       		.byte	0x9c
 3898 0a3f 860A0000 		.4byte	0xa86
 3899 0a43 1F       		.uleb128 0x1f
 3900 0a44 FC050000 		.4byte	.LASF52
 3901 0a48 01       		.byte	0x1
 3902 0a49 9F03     		.2byte	0x39f
 3903 0a4b 83000000 		.4byte	0x83
 3904 0a4f 9C050000 		.4byte	.LLST34
 3905 0a53 1F       		.uleb128 0x1f
 3906 0a54 25060000 		.4byte	.LASF22
 3907 0a58 01       		.byte	0x1
 3908 0a59 9F03     		.2byte	0x39f
ARM GAS  C:\Users\JamesN4\AppData\Local\Temp\ccgbGPCH.s 			page 96


 3909 0a5b 83000000 		.4byte	0x83
 3910 0a5f C8050000 		.4byte	.LLST35
 3911 0a63 1A       		.uleb128 0x1a
 3912 0a64 10000000 		.4byte	.LVL125
 3913 0a68 0C120000 		.4byte	0x120c
 3914 0a6c 760A0000 		.4byte	0xa76
 3915 0a70 14       		.uleb128 0x14
 3916 0a71 01       		.uleb128 0x1
 3917 0a72 50       		.byte	0x50
 3918 0a73 01       		.uleb128 0x1
 3919 0a74 30       		.byte	0x30
 3920 0a75 00       		.byte	0
 3921 0a76 13       		.uleb128 0x13
 3922 0a77 1A000000 		.4byte	.LVL126
 3923 0a7b 0C120000 		.4byte	0x120c
 3924 0a7f 14       		.uleb128 0x14
 3925 0a80 01       		.uleb128 0x1
 3926 0a81 50       		.byte	0x50
 3927 0a82 01       		.uleb128 0x1
 3928 0a83 30       		.byte	0x30
 3929 0a84 00       		.byte	0
 3930 0a85 00       		.byte	0
 3931 0a86 1B       		.uleb128 0x1b
 3932 0a87 01050000 		.4byte	.LASF82
 3933 0a8b 01       		.byte	0x1
 3934 0a8c C003     		.2byte	0x3c0
 3935 0a8e 00000000 		.4byte	.LFB33
 3936 0a92 48000000 		.4byte	.LFE33-.LFB33
 3937 0a96 01       		.uleb128 0x1
 3938 0a97 9C       		.byte	0x9c
 3939 0a98 120B0000 		.4byte	0xb12
 3940 0a9c 1F       		.uleb128 0x1f
 3941 0a9d FC050000 		.4byte	.LASF52
 3942 0aa1 01       		.byte	0x1
 3943 0aa2 C003     		.2byte	0x3c0
 3944 0aa4 83000000 		.4byte	0x83
 3945 0aa8 F4050000 		.4byte	.LLST36
 3946 0aac 1F       		.uleb128 0x1f
 3947 0aad 25060000 		.4byte	.LASF22
 3948 0ab1 01       		.byte	0x1
 3949 0ab2 C003     		.2byte	0x3c0
 3950 0ab4 83000000 		.4byte	0x83
 3951 0ab8 20060000 		.4byte	.LLST37
 3952 0abc 1F       		.uleb128 0x1f
 3953 0abd 39050000 		.4byte	.LASF24
 3954 0ac1 01       		.byte	0x1
 3955 0ac2 C003     		.2byte	0x3c0
 3956 0ac4 77000000 		.4byte	0x77
 3957 0ac8 4C060000 		.4byte	.LLST38
 3958 0acc 11       		.uleb128 0x11
 3959 0acd 79020000 		.4byte	.LASF67
 3960 0ad1 01       		.byte	0x1
 3961 0ad2 C203     		.2byte	0x3c2
 3962 0ad4 77000000 		.4byte	0x77
 3963 0ad8 78060000 		.4byte	.LLST39
 3964 0adc 1A       		.uleb128 0x1a
 3965 0add 12000000 		.4byte	.LVL131
ARM GAS  C:\Users\JamesN4\AppData\Local\Temp\ccgbGPCH.s 			page 97


 3966 0ae1 0C120000 		.4byte	0x120c
 3967 0ae5 EF0A0000 		.4byte	0xaef
 3968 0ae9 14       		.uleb128 0x14
 3969 0aea 01       		.uleb128 0x1
 3970 0aeb 50       		.byte	0x50
 3971 0aec 01       		.uleb128 0x1
 3972 0aed 30       		.byte	0x30
 3973 0aee 00       		.byte	0
 3974 0aef 1A       		.uleb128 0x1a
 3975 0af0 1C000000 		.4byte	.LVL132
 3976 0af4 0C120000 		.4byte	0x120c
 3977 0af8 020B0000 		.4byte	0xb02
 3978 0afc 14       		.uleb128 0x14
 3979 0afd 01       		.uleb128 0x1
 3980 0afe 50       		.byte	0x50
 3981 0aff 01       		.uleb128 0x1
 3982 0b00 30       		.byte	0x30
 3983 0b01 00       		.byte	0
 3984 0b02 13       		.uleb128 0x13
 3985 0b03 28000000 		.4byte	.LVL133
 3986 0b07 0C120000 		.4byte	0x120c
 3987 0b0b 14       		.uleb128 0x14
 3988 0b0c 01       		.uleb128 0x1
 3989 0b0d 50       		.byte	0x50
 3990 0b0e 01       		.uleb128 0x1
 3991 0b0f 30       		.byte	0x30
 3992 0b10 00       		.byte	0
 3993 0b11 00       		.byte	0
 3994 0b12 1E       		.uleb128 0x1e
 3995 0b13 84060000 		.4byte	.LASF83
 3996 0b17 01       		.byte	0x1
 3997 0b18 E403     		.2byte	0x3e4
 3998 0b1a 77000000 		.4byte	0x77
 3999 0b1e 00000000 		.4byte	.LFB34
 4000 0b22 34000000 		.4byte	.LFE34-.LFB34
 4001 0b26 01       		.uleb128 0x1
 4002 0b27 9C       		.byte	0x9c
 4003 0b28 6F0B0000 		.4byte	0xb6f
 4004 0b2c 1F       		.uleb128 0x1f
 4005 0b2d FC050000 		.4byte	.LASF52
 4006 0b31 01       		.byte	0x1
 4007 0b32 E403     		.2byte	0x3e4
 4008 0b34 83000000 		.4byte	0x83
 4009 0b38 8B060000 		.4byte	.LLST40
 4010 0b3c 1F       		.uleb128 0x1f
 4011 0b3d 25060000 		.4byte	.LASF22
 4012 0b41 01       		.byte	0x1
 4013 0b42 E403     		.2byte	0x3e4
 4014 0b44 83000000 		.4byte	0x83
 4015 0b48 B7060000 		.4byte	.LLST41
 4016 0b4c 1A       		.uleb128 0x1a
 4017 0b4d 10000000 		.4byte	.LVL141
 4018 0b51 0C120000 		.4byte	0x120c
 4019 0b55 5F0B0000 		.4byte	0xb5f
 4020 0b59 14       		.uleb128 0x14
 4021 0b5a 01       		.uleb128 0x1
 4022 0b5b 50       		.byte	0x50
ARM GAS  C:\Users\JamesN4\AppData\Local\Temp\ccgbGPCH.s 			page 98


 4023 0b5c 01       		.uleb128 0x1
 4024 0b5d 30       		.byte	0x30
 4025 0b5e 00       		.byte	0
 4026 0b5f 13       		.uleb128 0x13
 4027 0b60 1A000000 		.4byte	.LVL142
 4028 0b64 0C120000 		.4byte	0x120c
 4029 0b68 14       		.uleb128 0x14
 4030 0b69 01       		.uleb128 0x1
 4031 0b6a 50       		.byte	0x50
 4032 0b6b 01       		.uleb128 0x1
 4033 0b6c 30       		.byte	0x30
 4034 0b6d 00       		.byte	0
 4035 0b6e 00       		.byte	0
 4036 0b6f 1B       		.uleb128 0x1b
 4037 0b70 19070000 		.4byte	.LASF84
 4038 0b74 01       		.byte	0x1
 4039 0b75 0204     		.2byte	0x402
 4040 0b77 00000000 		.4byte	.LFB35
 4041 0b7b 4C000000 		.4byte	.LFE35-.LFB35
 4042 0b7f 01       		.uleb128 0x1
 4043 0b80 9C       		.byte	0x9c
 4044 0b81 F90B0000 		.4byte	0xbf9
 4045 0b85 1F       		.uleb128 0x1f
 4046 0b86 FC050000 		.4byte	.LASF52
 4047 0b8a 01       		.byte	0x1
 4048 0b8b 0204     		.2byte	0x402
 4049 0b8d 83000000 		.4byte	0x83
 4050 0b91 E3060000 		.4byte	.LLST42
 4051 0b95 1F       		.uleb128 0x1f
 4052 0b96 25060000 		.4byte	.LASF22
 4053 0b9a 01       		.byte	0x1
 4054 0b9b 0204     		.2byte	0x402
 4055 0b9d 83000000 		.4byte	0x83
 4056 0ba1 0F070000 		.4byte	.LLST43
 4057 0ba5 1F       		.uleb128 0x1f
 4058 0ba6 0C020000 		.4byte	.LASF25
 4059 0baa 01       		.byte	0x1
 4060 0bab 0204     		.2byte	0x402
 4061 0bad 83000000 		.4byte	0x83
 4062 0bb1 3B070000 		.4byte	.LLST44
 4063 0bb5 20       		.uleb128 0x20
 4064 0bb6 79020000 		.4byte	.LASF67
 4065 0bba 01       		.byte	0x1
 4066 0bbb 0404     		.2byte	0x404
 4067 0bbd 77000000 		.4byte	0x77
 4068 0bc1 01       		.uleb128 0x1
 4069 0bc2 53       		.byte	0x53
 4070 0bc3 1A       		.uleb128 0x1a
 4071 0bc4 12000000 		.4byte	.LVL147
 4072 0bc8 0C120000 		.4byte	0x120c
 4073 0bcc D60B0000 		.4byte	0xbd6
 4074 0bd0 14       		.uleb128 0x14
 4075 0bd1 01       		.uleb128 0x1
 4076 0bd2 50       		.byte	0x50
 4077 0bd3 01       		.uleb128 0x1
 4078 0bd4 30       		.byte	0x30
 4079 0bd5 00       		.byte	0
ARM GAS  C:\Users\JamesN4\AppData\Local\Temp\ccgbGPCH.s 			page 99


 4080 0bd6 1A       		.uleb128 0x1a
 4081 0bd7 1C000000 		.4byte	.LVL148
 4082 0bdb 0C120000 		.4byte	0x120c
 4083 0bdf E90B0000 		.4byte	0xbe9
 4084 0be3 14       		.uleb128 0x14
 4085 0be4 01       		.uleb128 0x1
 4086 0be5 50       		.byte	0x50
 4087 0be6 01       		.uleb128 0x1
 4088 0be7 30       		.byte	0x30
 4089 0be8 00       		.byte	0
 4090 0be9 13       		.uleb128 0x13
 4091 0bea 2A000000 		.4byte	.LVL149
 4092 0bee 0C120000 		.4byte	0x120c
 4093 0bf2 14       		.uleb128 0x14
 4094 0bf3 01       		.uleb128 0x1
 4095 0bf4 50       		.byte	0x50
 4096 0bf5 01       		.uleb128 0x1
 4097 0bf6 30       		.byte	0x30
 4098 0bf7 00       		.byte	0
 4099 0bf8 00       		.byte	0
 4100 0bf9 1E       		.uleb128 0x1e
 4101 0bfa 79010000 		.4byte	.LASF85
 4102 0bfe 01       		.byte	0x1
 4103 0bff 2204     		.2byte	0x422
 4104 0c01 83000000 		.4byte	0x83
 4105 0c05 00000000 		.4byte	.LFB36
 4106 0c09 34000000 		.4byte	.LFE36-.LFB36
 4107 0c0d 01       		.uleb128 0x1
 4108 0c0e 9C       		.byte	0x9c
 4109 0c0f 640C0000 		.4byte	0xc64
 4110 0c13 1F       		.uleb128 0x1f
 4111 0c14 FC050000 		.4byte	.LASF52
 4112 0c18 01       		.byte	0x1
 4113 0c19 2204     		.2byte	0x422
 4114 0c1b 83000000 		.4byte	0x83
 4115 0c1f 69070000 		.4byte	.LLST45
 4116 0c23 1F       		.uleb128 0x1f
 4117 0c24 25060000 		.4byte	.LASF22
 4118 0c28 01       		.byte	0x1
 4119 0c29 2204     		.2byte	0x422
 4120 0c2b 83000000 		.4byte	0x83
 4121 0c2f 95070000 		.4byte	.LLST46
 4122 0c33 20       		.uleb128 0x20
 4123 0c34 8B040000 		.4byte	.LASF86
 4124 0c38 01       		.byte	0x1
 4125 0c39 2404     		.2byte	0x424
 4126 0c3b 77000000 		.4byte	0x77
 4127 0c3f 01       		.uleb128 0x1
 4128 0c40 50       		.byte	0x50
 4129 0c41 1A       		.uleb128 0x1a
 4130 0c42 10000000 		.4byte	.LVL157
 4131 0c46 0C120000 		.4byte	0x120c
 4132 0c4a 540C0000 		.4byte	0xc54
 4133 0c4e 14       		.uleb128 0x14
 4134 0c4f 01       		.uleb128 0x1
 4135 0c50 50       		.byte	0x50
 4136 0c51 01       		.uleb128 0x1
ARM GAS  C:\Users\JamesN4\AppData\Local\Temp\ccgbGPCH.s 			page 100


 4137 0c52 30       		.byte	0x30
 4138 0c53 00       		.byte	0
 4139 0c54 13       		.uleb128 0x13
 4140 0c55 1A000000 		.4byte	.LVL158
 4141 0c59 0C120000 		.4byte	0x120c
 4142 0c5d 14       		.uleb128 0x14
 4143 0c5e 01       		.uleb128 0x1
 4144 0c5f 50       		.byte	0x50
 4145 0c60 01       		.uleb128 0x1
 4146 0c61 30       		.byte	0x30
 4147 0c62 00       		.byte	0
 4148 0c63 00       		.byte	0
 4149 0c64 1B       		.uleb128 0x1b
 4150 0c65 9C060000 		.4byte	.LASF87
 4151 0c69 01       		.byte	0x1
 4152 0c6a 4904     		.2byte	0x449
 4153 0c6c 00000000 		.4byte	.LFB37
 4154 0c70 48000000 		.4byte	.LFE37-.LFB37
 4155 0c74 01       		.uleb128 0x1
 4156 0c75 9C       		.byte	0x9c
 4157 0c76 F00C0000 		.4byte	0xcf0
 4158 0c7a 1F       		.uleb128 0x1f
 4159 0c7b FC050000 		.4byte	.LASF52
 4160 0c7f 01       		.byte	0x1
 4161 0c80 4904     		.2byte	0x449
 4162 0c82 83000000 		.4byte	0x83
 4163 0c86 C1070000 		.4byte	.LLST47
 4164 0c8a 1F       		.uleb128 0x1f
 4165 0c8b 25060000 		.4byte	.LASF22
 4166 0c8f 01       		.byte	0x1
 4167 0c90 4904     		.2byte	0x449
 4168 0c92 83000000 		.4byte	0x83
 4169 0c96 ED070000 		.4byte	.LLST48
 4170 0c9a 1F       		.uleb128 0x1f
 4171 0c9b 59070000 		.4byte	.LASF88
 4172 0c9f 01       		.byte	0x1
 4173 0ca0 4904     		.2byte	0x449
 4174 0ca2 77000000 		.4byte	0x77
 4175 0ca6 19080000 		.4byte	.LLST49
 4176 0caa 11       		.uleb128 0x11
 4177 0cab 79020000 		.4byte	.LASF67
 4178 0caf 01       		.byte	0x1
 4179 0cb0 4B04     		.2byte	0x44b
 4180 0cb2 77000000 		.4byte	0x77
 4181 0cb6 45080000 		.4byte	.LLST50
 4182 0cba 1A       		.uleb128 0x1a
 4183 0cbb 12000000 		.4byte	.LVL164
 4184 0cbf 0C120000 		.4byte	0x120c
 4185 0cc3 CD0C0000 		.4byte	0xccd
 4186 0cc7 14       		.uleb128 0x14
 4187 0cc8 01       		.uleb128 0x1
 4188 0cc9 50       		.byte	0x50
 4189 0cca 01       		.uleb128 0x1
 4190 0ccb 30       		.byte	0x30
 4191 0ccc 00       		.byte	0
 4192 0ccd 1A       		.uleb128 0x1a
 4193 0cce 1C000000 		.4byte	.LVL165
ARM GAS  C:\Users\JamesN4\AppData\Local\Temp\ccgbGPCH.s 			page 101


 4194 0cd2 0C120000 		.4byte	0x120c
 4195 0cd6 E00C0000 		.4byte	0xce0
 4196 0cda 14       		.uleb128 0x14
 4197 0cdb 01       		.uleb128 0x1
 4198 0cdc 50       		.byte	0x50
 4199 0cdd 01       		.uleb128 0x1
 4200 0cde 30       		.byte	0x30
 4201 0cdf 00       		.byte	0
 4202 0ce0 13       		.uleb128 0x13
 4203 0ce1 28000000 		.4byte	.LVL166
 4204 0ce5 0C120000 		.4byte	0x120c
 4205 0ce9 14       		.uleb128 0x14
 4206 0cea 01       		.uleb128 0x1
 4207 0ceb 50       		.byte	0x50
 4208 0cec 01       		.uleb128 0x1
 4209 0ced 30       		.byte	0x30
 4210 0cee 00       		.byte	0
 4211 0cef 00       		.byte	0
 4212 0cf0 1E       		.uleb128 0x1e
 4213 0cf1 3D020000 		.4byte	.LASF89
 4214 0cf5 01       		.byte	0x1
 4215 0cf6 6804     		.2byte	0x468
 4216 0cf8 77000000 		.4byte	0x77
 4217 0cfc 00000000 		.4byte	.LFB38
 4218 0d00 34000000 		.4byte	.LFE38-.LFB38
 4219 0d04 01       		.uleb128 0x1
 4220 0d05 9C       		.byte	0x9c
 4221 0d06 4D0D0000 		.4byte	0xd4d
 4222 0d0a 1F       		.uleb128 0x1f
 4223 0d0b FC050000 		.4byte	.LASF52
 4224 0d0f 01       		.byte	0x1
 4225 0d10 6804     		.2byte	0x468
 4226 0d12 83000000 		.4byte	0x83
 4227 0d16 58080000 		.4byte	.LLST51
 4228 0d1a 1F       		.uleb128 0x1f
 4229 0d1b 25060000 		.4byte	.LASF22
 4230 0d1f 01       		.byte	0x1
 4231 0d20 6804     		.2byte	0x468
 4232 0d22 83000000 		.4byte	0x83
 4233 0d26 84080000 		.4byte	.LLST52
 4234 0d2a 1A       		.uleb128 0x1a
 4235 0d2b 10000000 		.4byte	.LVL174
 4236 0d2f 0C120000 		.4byte	0x120c
 4237 0d33 3D0D0000 		.4byte	0xd3d
 4238 0d37 14       		.uleb128 0x14
 4239 0d38 01       		.uleb128 0x1
 4240 0d39 50       		.byte	0x50
 4241 0d3a 01       		.uleb128 0x1
 4242 0d3b 30       		.byte	0x30
 4243 0d3c 00       		.byte	0
 4244 0d3d 13       		.uleb128 0x13
 4245 0d3e 1A000000 		.4byte	.LVL175
 4246 0d42 0C120000 		.4byte	0x120c
 4247 0d46 14       		.uleb128 0x14
 4248 0d47 01       		.uleb128 0x1
 4249 0d48 50       		.byte	0x50
 4250 0d49 01       		.uleb128 0x1
ARM GAS  C:\Users\JamesN4\AppData\Local\Temp\ccgbGPCH.s 			page 102


 4251 0d4a 30       		.byte	0x30
 4252 0d4b 00       		.byte	0
 4253 0d4c 00       		.byte	0
 4254 0d4d 1B       		.uleb128 0x1b
 4255 0d4e 80030000 		.4byte	.LASF90
 4256 0d52 01       		.byte	0x1
 4257 0d53 8A04     		.2byte	0x48a
 4258 0d55 00000000 		.4byte	.LFB39
 4259 0d59 48000000 		.4byte	.LFE39-.LFB39
 4260 0d5d 01       		.uleb128 0x1
 4261 0d5e 9C       		.byte	0x9c
 4262 0d5f D90D0000 		.4byte	0xdd9
 4263 0d63 1F       		.uleb128 0x1f
 4264 0d64 FC050000 		.4byte	.LASF52
 4265 0d68 01       		.byte	0x1
 4266 0d69 8A04     		.2byte	0x48a
 4267 0d6b 83000000 		.4byte	0x83
 4268 0d6f B0080000 		.4byte	.LLST53
 4269 0d73 1F       		.uleb128 0x1f
 4270 0d74 25060000 		.4byte	.LASF22
 4271 0d78 01       		.byte	0x1
 4272 0d79 8A04     		.2byte	0x48a
 4273 0d7b 83000000 		.4byte	0x83
 4274 0d7f DC080000 		.4byte	.LLST54
 4275 0d83 1F       		.uleb128 0x1f
 4276 0d84 DC060000 		.4byte	.LASF27
 4277 0d88 01       		.byte	0x1
 4278 0d89 8A04     		.2byte	0x48a
 4279 0d8b 77000000 		.4byte	0x77
 4280 0d8f 08090000 		.4byte	.LLST55
 4281 0d93 11       		.uleb128 0x11
 4282 0d94 79020000 		.4byte	.LASF67
 4283 0d98 01       		.byte	0x1
 4284 0d99 8C04     		.2byte	0x48c
 4285 0d9b 77000000 		.4byte	0x77
 4286 0d9f 34090000 		.4byte	.LLST56
 4287 0da3 1A       		.uleb128 0x1a
 4288 0da4 12000000 		.4byte	.LVL180
 4289 0da8 0C120000 		.4byte	0x120c
 4290 0dac B60D0000 		.4byte	0xdb6
 4291 0db0 14       		.uleb128 0x14
 4292 0db1 01       		.uleb128 0x1
 4293 0db2 50       		.byte	0x50
 4294 0db3 01       		.uleb128 0x1
 4295 0db4 30       		.byte	0x30
 4296 0db5 00       		.byte	0
 4297 0db6 1A       		.uleb128 0x1a
 4298 0db7 1C000000 		.4byte	.LVL181
 4299 0dbb 0C120000 		.4byte	0x120c
 4300 0dbf C90D0000 		.4byte	0xdc9
 4301 0dc3 14       		.uleb128 0x14
 4302 0dc4 01       		.uleb128 0x1
 4303 0dc5 50       		.byte	0x50
 4304 0dc6 01       		.uleb128 0x1
 4305 0dc7 30       		.byte	0x30
 4306 0dc8 00       		.byte	0
 4307 0dc9 13       		.uleb128 0x13
ARM GAS  C:\Users\JamesN4\AppData\Local\Temp\ccgbGPCH.s 			page 103


 4308 0dca 28000000 		.4byte	.LVL182
 4309 0dce 0C120000 		.4byte	0x120c
 4310 0dd2 14       		.uleb128 0x14
 4311 0dd3 01       		.uleb128 0x1
 4312 0dd4 50       		.byte	0x50
 4313 0dd5 01       		.uleb128 0x1
 4314 0dd6 30       		.byte	0x30
 4315 0dd7 00       		.byte	0
 4316 0dd8 00       		.byte	0
 4317 0dd9 1E       		.uleb128 0x1e
 4318 0dda 55030000 		.4byte	.LASF91
 4319 0dde 01       		.byte	0x1
 4320 0ddf A904     		.2byte	0x4a9
 4321 0de1 77000000 		.4byte	0x77
 4322 0de5 00000000 		.4byte	.LFB40
 4323 0de9 34000000 		.4byte	.LFE40-.LFB40
 4324 0ded 01       		.uleb128 0x1
 4325 0dee 9C       		.byte	0x9c
 4326 0def 360E0000 		.4byte	0xe36
 4327 0df3 1F       		.uleb128 0x1f
 4328 0df4 FC050000 		.4byte	.LASF52
 4329 0df8 01       		.byte	0x1
 4330 0df9 A904     		.2byte	0x4a9
 4331 0dfb 83000000 		.4byte	0x83
 4332 0dff 47090000 		.4byte	.LLST57
 4333 0e03 1F       		.uleb128 0x1f
 4334 0e04 25060000 		.4byte	.LASF22
 4335 0e08 01       		.byte	0x1
 4336 0e09 A904     		.2byte	0x4a9
 4337 0e0b 83000000 		.4byte	0x83
 4338 0e0f 73090000 		.4byte	.LLST58
 4339 0e13 1A       		.uleb128 0x1a
 4340 0e14 10000000 		.4byte	.LVL190
 4341 0e18 0C120000 		.4byte	0x120c
 4342 0e1c 260E0000 		.4byte	0xe26
 4343 0e20 14       		.uleb128 0x14
 4344 0e21 01       		.uleb128 0x1
 4345 0e22 50       		.byte	0x50
 4346 0e23 01       		.uleb128 0x1
 4347 0e24 30       		.byte	0x30
 4348 0e25 00       		.byte	0
 4349 0e26 13       		.uleb128 0x13
 4350 0e27 1A000000 		.4byte	.LVL191
 4351 0e2b 0C120000 		.4byte	0x120c
 4352 0e2f 14       		.uleb128 0x14
 4353 0e30 01       		.uleb128 0x1
 4354 0e31 50       		.byte	0x50
 4355 0e32 01       		.uleb128 0x1
 4356 0e33 30       		.byte	0x30
 4357 0e34 00       		.byte	0
 4358 0e35 00       		.byte	0
 4359 0e36 1B       		.uleb128 0x1b
 4360 0e37 A5070000 		.4byte	.LASF92
 4361 0e3b 01       		.byte	0x1
 4362 0e3c CA04     		.2byte	0x4ca
 4363 0e3e 00000000 		.4byte	.LFB41
 4364 0e42 48000000 		.4byte	.LFE41-.LFB41
ARM GAS  C:\Users\JamesN4\AppData\Local\Temp\ccgbGPCH.s 			page 104


 4365 0e46 01       		.uleb128 0x1
 4366 0e47 9C       		.byte	0x9c
 4367 0e48 C20E0000 		.4byte	0xec2
 4368 0e4c 1F       		.uleb128 0x1f
 4369 0e4d FC050000 		.4byte	.LASF52
 4370 0e51 01       		.byte	0x1
 4371 0e52 CA04     		.2byte	0x4ca
 4372 0e54 83000000 		.4byte	0x83
 4373 0e58 9F090000 		.4byte	.LLST59
 4374 0e5c 1F       		.uleb128 0x1f
 4375 0e5d 25060000 		.4byte	.LASF22
 4376 0e61 01       		.byte	0x1
 4377 0e62 CA04     		.2byte	0x4ca
 4378 0e64 83000000 		.4byte	0x83
 4379 0e68 CB090000 		.4byte	.LLST60
 4380 0e6c 1F       		.uleb128 0x1f
 4381 0e6d 60020000 		.4byte	.LASF28
 4382 0e71 01       		.byte	0x1
 4383 0e72 CA04     		.2byte	0x4ca
 4384 0e74 77000000 		.4byte	0x77
 4385 0e78 F7090000 		.4byte	.LLST61
 4386 0e7c 11       		.uleb128 0x11
 4387 0e7d 79020000 		.4byte	.LASF67
 4388 0e81 01       		.byte	0x1
 4389 0e82 CC04     		.2byte	0x4cc
 4390 0e84 77000000 		.4byte	0x77
 4391 0e88 230A0000 		.4byte	.LLST62
 4392 0e8c 1A       		.uleb128 0x1a
 4393 0e8d 12000000 		.4byte	.LVL196
 4394 0e91 0C120000 		.4byte	0x120c
 4395 0e95 9F0E0000 		.4byte	0xe9f
 4396 0e99 14       		.uleb128 0x14
 4397 0e9a 01       		.uleb128 0x1
 4398 0e9b 50       		.byte	0x50
 4399 0e9c 01       		.uleb128 0x1
 4400 0e9d 30       		.byte	0x30
 4401 0e9e 00       		.byte	0
 4402 0e9f 1A       		.uleb128 0x1a
 4403 0ea0 1C000000 		.4byte	.LVL197
 4404 0ea4 0C120000 		.4byte	0x120c
 4405 0ea8 B20E0000 		.4byte	0xeb2
 4406 0eac 14       		.uleb128 0x14
 4407 0ead 01       		.uleb128 0x1
 4408 0eae 50       		.byte	0x50
 4409 0eaf 01       		.uleb128 0x1
 4410 0eb0 30       		.byte	0x30
 4411 0eb1 00       		.byte	0
 4412 0eb2 13       		.uleb128 0x13
 4413 0eb3 28000000 		.4byte	.LVL198
 4414 0eb7 0C120000 		.4byte	0x120c
 4415 0ebb 14       		.uleb128 0x14
 4416 0ebc 01       		.uleb128 0x1
 4417 0ebd 50       		.byte	0x50
 4418 0ebe 01       		.uleb128 0x1
 4419 0ebf 30       		.byte	0x30
 4420 0ec0 00       		.byte	0
 4421 0ec1 00       		.byte	0
ARM GAS  C:\Users\JamesN4\AppData\Local\Temp\ccgbGPCH.s 			page 105


 4422 0ec2 1E       		.uleb128 0x1e
 4423 0ec3 04060000 		.4byte	.LASF93
 4424 0ec7 01       		.byte	0x1
 4425 0ec8 E904     		.2byte	0x4e9
 4426 0eca 77000000 		.4byte	0x77
 4427 0ece 00000000 		.4byte	.LFB42
 4428 0ed2 34000000 		.4byte	.LFE42-.LFB42
 4429 0ed6 01       		.uleb128 0x1
 4430 0ed7 9C       		.byte	0x9c
 4431 0ed8 1F0F0000 		.4byte	0xf1f
 4432 0edc 1F       		.uleb128 0x1f
 4433 0edd FC050000 		.4byte	.LASF52
 4434 0ee1 01       		.byte	0x1
 4435 0ee2 E904     		.2byte	0x4e9
 4436 0ee4 83000000 		.4byte	0x83
 4437 0ee8 360A0000 		.4byte	.LLST63
 4438 0eec 1F       		.uleb128 0x1f
 4439 0eed 25060000 		.4byte	.LASF22
 4440 0ef1 01       		.byte	0x1
 4441 0ef2 E904     		.2byte	0x4e9
 4442 0ef4 83000000 		.4byte	0x83
 4443 0ef8 620A0000 		.4byte	.LLST64
 4444 0efc 1A       		.uleb128 0x1a
 4445 0efd 10000000 		.4byte	.LVL206
 4446 0f01 0C120000 		.4byte	0x120c
 4447 0f05 0F0F0000 		.4byte	0xf0f
 4448 0f09 14       		.uleb128 0x14
 4449 0f0a 01       		.uleb128 0x1
 4450 0f0b 50       		.byte	0x50
 4451 0f0c 01       		.uleb128 0x1
 4452 0f0d 30       		.byte	0x30
 4453 0f0e 00       		.byte	0
 4454 0f0f 13       		.uleb128 0x13
 4455 0f10 1A000000 		.4byte	.LVL207
 4456 0f14 0C120000 		.4byte	0x120c
 4457 0f18 14       		.uleb128 0x14
 4458 0f19 01       		.uleb128 0x1
 4459 0f1a 50       		.byte	0x50
 4460 0f1b 01       		.uleb128 0x1
 4461 0f1c 30       		.byte	0x30
 4462 0f1d 00       		.byte	0
 4463 0f1e 00       		.byte	0
 4464 0f1f 1B       		.uleb128 0x1b
 4465 0f20 74070000 		.4byte	.LASF94
 4466 0f24 01       		.byte	0x1
 4467 0f25 0905     		.2byte	0x509
 4468 0f27 00000000 		.4byte	.LFB43
 4469 0f2b 44000000 		.4byte	.LFE43-.LFB43
 4470 0f2f 01       		.uleb128 0x1
 4471 0f30 9C       		.byte	0x9c
 4472 0f31 AB0F0000 		.4byte	0xfab
 4473 0f35 1F       		.uleb128 0x1f
 4474 0f36 FC050000 		.4byte	.LASF52
 4475 0f3a 01       		.byte	0x1
 4476 0f3b 0905     		.2byte	0x509
 4477 0f3d 83000000 		.4byte	0x83
 4478 0f41 8E0A0000 		.4byte	.LLST65
ARM GAS  C:\Users\JamesN4\AppData\Local\Temp\ccgbGPCH.s 			page 106


 4479 0f45 1F       		.uleb128 0x1f
 4480 0f46 25060000 		.4byte	.LASF22
 4481 0f4a 01       		.byte	0x1
 4482 0f4b 0905     		.2byte	0x509
 4483 0f4d 83000000 		.4byte	0x83
 4484 0f51 BA0A0000 		.4byte	.LLST66
 4485 0f55 1F       		.uleb128 0x1f
 4486 0f56 C7020000 		.4byte	.LASF29
 4487 0f5a 01       		.byte	0x1
 4488 0f5b 0905     		.2byte	0x509
 4489 0f5d 77000000 		.4byte	0x77
 4490 0f61 E60A0000 		.4byte	.LLST67
 4491 0f65 11       		.uleb128 0x11
 4492 0f66 79020000 		.4byte	.LASF67
 4493 0f6a 01       		.byte	0x1
 4494 0f6b 0B05     		.2byte	0x50b
 4495 0f6d 77000000 		.4byte	0x77
 4496 0f71 120B0000 		.4byte	.LLST68
 4497 0f75 1A       		.uleb128 0x1a
 4498 0f76 12000000 		.4byte	.LVL212
 4499 0f7a 0C120000 		.4byte	0x120c
 4500 0f7e 880F0000 		.4byte	0xf88
 4501 0f82 14       		.uleb128 0x14
 4502 0f83 01       		.uleb128 0x1
 4503 0f84 50       		.byte	0x50
 4504 0f85 01       		.uleb128 0x1
 4505 0f86 30       		.byte	0x30
 4506 0f87 00       		.byte	0
 4507 0f88 1A       		.uleb128 0x1a
 4508 0f89 1C000000 		.4byte	.LVL213
 4509 0f8d 0C120000 		.4byte	0x120c
 4510 0f91 9B0F0000 		.4byte	0xf9b
 4511 0f95 14       		.uleb128 0x14
 4512 0f96 01       		.uleb128 0x1
 4513 0f97 50       		.byte	0x50
 4514 0f98 01       		.uleb128 0x1
 4515 0f99 30       		.byte	0x30
 4516 0f9a 00       		.byte	0
 4517 0f9b 13       		.uleb128 0x13
 4518 0f9c 26000000 		.4byte	.LVL214
 4519 0fa0 0C120000 		.4byte	0x120c
 4520 0fa4 14       		.uleb128 0x14
 4521 0fa5 01       		.uleb128 0x1
 4522 0fa6 50       		.byte	0x50
 4523 0fa7 01       		.uleb128 0x1
 4524 0fa8 30       		.byte	0x30
 4525 0fa9 00       		.byte	0
 4526 0faa 00       		.byte	0
 4527 0fab 1E       		.uleb128 0x1e
 4528 0fac 20040000 		.4byte	.LASF95
 4529 0fb0 01       		.byte	0x1
 4530 0fb1 2805     		.2byte	0x528
 4531 0fb3 77000000 		.4byte	0x77
 4532 0fb7 00000000 		.4byte	.LFB44
 4533 0fbb 34000000 		.4byte	.LFE44-.LFB44
 4534 0fbf 01       		.uleb128 0x1
 4535 0fc0 9C       		.byte	0x9c
ARM GAS  C:\Users\JamesN4\AppData\Local\Temp\ccgbGPCH.s 			page 107


 4536 0fc1 08100000 		.4byte	0x1008
 4537 0fc5 1F       		.uleb128 0x1f
 4538 0fc6 FC050000 		.4byte	.LASF52
 4539 0fca 01       		.byte	0x1
 4540 0fcb 2805     		.2byte	0x528
 4541 0fcd 83000000 		.4byte	0x83
 4542 0fd1 250B0000 		.4byte	.LLST69
 4543 0fd5 1F       		.uleb128 0x1f
 4544 0fd6 25060000 		.4byte	.LASF22
 4545 0fda 01       		.byte	0x1
 4546 0fdb 2805     		.2byte	0x528
 4547 0fdd 83000000 		.4byte	0x83
 4548 0fe1 510B0000 		.4byte	.LLST70
 4549 0fe5 1A       		.uleb128 0x1a
 4550 0fe6 10000000 		.4byte	.LVL222
 4551 0fea 0C120000 		.4byte	0x120c
 4552 0fee F80F0000 		.4byte	0xff8
 4553 0ff2 14       		.uleb128 0x14
 4554 0ff3 01       		.uleb128 0x1
 4555 0ff4 50       		.byte	0x50
 4556 0ff5 01       		.uleb128 0x1
 4557 0ff6 30       		.byte	0x30
 4558 0ff7 00       		.byte	0
 4559 0ff8 13       		.uleb128 0x13
 4560 0ff9 1A000000 		.4byte	.LVL223
 4561 0ffd 0C120000 		.4byte	0x120c
 4562 1001 14       		.uleb128 0x14
 4563 1002 01       		.uleb128 0x1
 4564 1003 50       		.byte	0x50
 4565 1004 01       		.uleb128 0x1
 4566 1005 30       		.byte	0x30
 4567 1006 00       		.byte	0
 4568 1007 00       		.byte	0
 4569 1008 1B       		.uleb128 0x1b
 4570 1009 EC070000 		.4byte	.LASF96
 4571 100d 01       		.byte	0x1
 4572 100e 4705     		.2byte	0x547
 4573 1010 00000000 		.4byte	.LFB45
 4574 1014 48000000 		.4byte	.LFE45-.LFB45
 4575 1018 01       		.uleb128 0x1
 4576 1019 9C       		.byte	0x9c
 4577 101a 94100000 		.4byte	0x1094
 4578 101e 1F       		.uleb128 0x1f
 4579 101f FC050000 		.4byte	.LASF52
 4580 1023 01       		.byte	0x1
 4581 1024 4705     		.2byte	0x547
 4582 1026 83000000 		.4byte	0x83
 4583 102a 7D0B0000 		.4byte	.LLST71
 4584 102e 1F       		.uleb128 0x1f
 4585 102f 25060000 		.4byte	.LASF22
 4586 1033 01       		.byte	0x1
 4587 1034 4705     		.2byte	0x547
 4588 1036 83000000 		.4byte	0x83
 4589 103a A90B0000 		.4byte	.LLST72
 4590 103e 1F       		.uleb128 0x1f
 4591 103f E0070000 		.4byte	.LASF30
 4592 1043 01       		.byte	0x1
ARM GAS  C:\Users\JamesN4\AppData\Local\Temp\ccgbGPCH.s 			page 108


 4593 1044 4705     		.2byte	0x547
 4594 1046 77000000 		.4byte	0x77
 4595 104a D50B0000 		.4byte	.LLST73
 4596 104e 11       		.uleb128 0x11
 4597 104f 79020000 		.4byte	.LASF67
 4598 1053 01       		.byte	0x1
 4599 1054 4905     		.2byte	0x549
 4600 1056 77000000 		.4byte	0x77
 4601 105a 010C0000 		.4byte	.LLST74
 4602 105e 1A       		.uleb128 0x1a
 4603 105f 12000000 		.4byte	.LVL228
 4604 1063 0C120000 		.4byte	0x120c
 4605 1067 71100000 		.4byte	0x1071
 4606 106b 14       		.uleb128 0x14
 4607 106c 01       		.uleb128 0x1
 4608 106d 50       		.byte	0x50
 4609 106e 01       		.uleb128 0x1
 4610 106f 30       		.byte	0x30
 4611 1070 00       		.byte	0
 4612 1071 1A       		.uleb128 0x1a
 4613 1072 1C000000 		.4byte	.LVL229
 4614 1076 0C120000 		.4byte	0x120c
 4615 107a 84100000 		.4byte	0x1084
 4616 107e 14       		.uleb128 0x14
 4617 107f 01       		.uleb128 0x1
 4618 1080 50       		.byte	0x50
 4619 1081 01       		.uleb128 0x1
 4620 1082 30       		.byte	0x30
 4621 1083 00       		.byte	0
 4622 1084 13       		.uleb128 0x13
 4623 1085 28000000 		.4byte	.LVL230
 4624 1089 0C120000 		.4byte	0x120c
 4625 108d 14       		.uleb128 0x14
 4626 108e 01       		.uleb128 0x1
 4627 108f 50       		.byte	0x50
 4628 1090 01       		.uleb128 0x1
 4629 1091 30       		.byte	0x30
 4630 1092 00       		.byte	0
 4631 1093 00       		.byte	0
 4632 1094 1E       		.uleb128 0x1e
 4633 1095 99030000 		.4byte	.LASF97
 4634 1099 01       		.byte	0x1
 4635 109a 6505     		.2byte	0x565
 4636 109c 77000000 		.4byte	0x77
 4637 10a0 00000000 		.4byte	.LFB46
 4638 10a4 34000000 		.4byte	.LFE46-.LFB46
 4639 10a8 01       		.uleb128 0x1
 4640 10a9 9C       		.byte	0x9c
 4641 10aa F1100000 		.4byte	0x10f1
 4642 10ae 1F       		.uleb128 0x1f
 4643 10af FC050000 		.4byte	.LASF52
 4644 10b3 01       		.byte	0x1
 4645 10b4 6505     		.2byte	0x565
 4646 10b6 83000000 		.4byte	0x83
 4647 10ba 140C0000 		.4byte	.LLST75
 4648 10be 1F       		.uleb128 0x1f
 4649 10bf 25060000 		.4byte	.LASF22
ARM GAS  C:\Users\JamesN4\AppData\Local\Temp\ccgbGPCH.s 			page 109


 4650 10c3 01       		.byte	0x1
 4651 10c4 6505     		.2byte	0x565
 4652 10c6 83000000 		.4byte	0x83
 4653 10ca 400C0000 		.4byte	.LLST76
 4654 10ce 1A       		.uleb128 0x1a
 4655 10cf 10000000 		.4byte	.LVL238
 4656 10d3 0C120000 		.4byte	0x120c
 4657 10d7 E1100000 		.4byte	0x10e1
 4658 10db 14       		.uleb128 0x14
 4659 10dc 01       		.uleb128 0x1
 4660 10dd 50       		.byte	0x50
 4661 10de 01       		.uleb128 0x1
 4662 10df 30       		.byte	0x30
 4663 10e0 00       		.byte	0
 4664 10e1 13       		.uleb128 0x13
 4665 10e2 1A000000 		.4byte	.LVL239
 4666 10e6 0C120000 		.4byte	0x120c
 4667 10ea 14       		.uleb128 0x14
 4668 10eb 01       		.uleb128 0x1
 4669 10ec 50       		.byte	0x50
 4670 10ed 01       		.uleb128 0x1
 4671 10ee 30       		.byte	0x30
 4672 10ef 00       		.byte	0
 4673 10f0 00       		.byte	0
 4674 10f1 1B       		.uleb128 0x1b
 4675 10f2 35040000 		.4byte	.LASF98
 4676 10f6 01       		.byte	0x1
 4677 10f7 8405     		.2byte	0x584
 4678 10f9 00000000 		.4byte	.LFB47
 4679 10fd 48000000 		.4byte	.LFE47-.LFB47
 4680 1101 01       		.uleb128 0x1
 4681 1102 9C       		.byte	0x9c
 4682 1103 7D110000 		.4byte	0x117d
 4683 1107 1F       		.uleb128 0x1f
 4684 1108 FC050000 		.4byte	.LASF52
 4685 110c 01       		.byte	0x1
 4686 110d 8405     		.2byte	0x584
 4687 110f 83000000 		.4byte	0x83
 4688 1113 6C0C0000 		.4byte	.LLST77
 4689 1117 1F       		.uleb128 0x1f
 4690 1118 25060000 		.4byte	.LASF22
 4691 111c 01       		.byte	0x1
 4692 111d 8405     		.2byte	0x584
 4693 111f 83000000 		.4byte	0x83
 4694 1123 980C0000 		.4byte	.LLST78
 4695 1127 1F       		.uleb128 0x1f
 4696 1128 D8070000 		.4byte	.LASF31
 4697 112c 01       		.byte	0x1
 4698 112d 8405     		.2byte	0x584
 4699 112f 77000000 		.4byte	0x77
 4700 1133 C40C0000 		.4byte	.LLST79
 4701 1137 11       		.uleb128 0x11
 4702 1138 79020000 		.4byte	.LASF67
 4703 113c 01       		.byte	0x1
 4704 113d 8605     		.2byte	0x586
 4705 113f 77000000 		.4byte	0x77
 4706 1143 F00C0000 		.4byte	.LLST80
ARM GAS  C:\Users\JamesN4\AppData\Local\Temp\ccgbGPCH.s 			page 110


 4707 1147 1A       		.uleb128 0x1a
 4708 1148 12000000 		.4byte	.LVL244
 4709 114c 0C120000 		.4byte	0x120c
 4710 1150 5A110000 		.4byte	0x115a
 4711 1154 14       		.uleb128 0x14
 4712 1155 01       		.uleb128 0x1
 4713 1156 50       		.byte	0x50
 4714 1157 01       		.uleb128 0x1
 4715 1158 30       		.byte	0x30
 4716 1159 00       		.byte	0
 4717 115a 1A       		.uleb128 0x1a
 4718 115b 1C000000 		.4byte	.LVL245
 4719 115f 0C120000 		.4byte	0x120c
 4720 1163 6D110000 		.4byte	0x116d
 4721 1167 14       		.uleb128 0x14
 4722 1168 01       		.uleb128 0x1
 4723 1169 50       		.byte	0x50
 4724 116a 01       		.uleb128 0x1
 4725 116b 30       		.byte	0x30
 4726 116c 00       		.byte	0
 4727 116d 13       		.uleb128 0x13
 4728 116e 28000000 		.4byte	.LVL246
 4729 1172 0C120000 		.4byte	0x120c
 4730 1176 14       		.uleb128 0x14
 4731 1177 01       		.uleb128 0x1
 4732 1178 50       		.byte	0x50
 4733 1179 01       		.uleb128 0x1
 4734 117a 30       		.byte	0x30
 4735 117b 00       		.byte	0
 4736 117c 00       		.byte	0
 4737 117d 1E       		.uleb128 0x1e
 4738 117e 28030000 		.4byte	.LASF99
 4739 1182 01       		.byte	0x1
 4740 1183 A305     		.2byte	0x5a3
 4741 1185 77000000 		.4byte	0x77
 4742 1189 00000000 		.4byte	.LFB48
 4743 118d 34000000 		.4byte	.LFE48-.LFB48
 4744 1191 01       		.uleb128 0x1
 4745 1192 9C       		.byte	0x9c
 4746 1193 DA110000 		.4byte	0x11da
 4747 1197 1F       		.uleb128 0x1f
 4748 1198 FC050000 		.4byte	.LASF52
 4749 119c 01       		.byte	0x1
 4750 119d A305     		.2byte	0x5a3
 4751 119f 83000000 		.4byte	0x83
 4752 11a3 030D0000 		.4byte	.LLST81
 4753 11a7 1F       		.uleb128 0x1f
 4754 11a8 25060000 		.4byte	.LASF22
 4755 11ac 01       		.byte	0x1
 4756 11ad A305     		.2byte	0x5a3
 4757 11af 83000000 		.4byte	0x83
 4758 11b3 2F0D0000 		.4byte	.LLST82
 4759 11b7 1A       		.uleb128 0x1a
 4760 11b8 10000000 		.4byte	.LVL254
 4761 11bc 0C120000 		.4byte	0x120c
 4762 11c0 CA110000 		.4byte	0x11ca
 4763 11c4 14       		.uleb128 0x14
ARM GAS  C:\Users\JamesN4\AppData\Local\Temp\ccgbGPCH.s 			page 111


 4764 11c5 01       		.uleb128 0x1
 4765 11c6 50       		.byte	0x50
 4766 11c7 01       		.uleb128 0x1
 4767 11c8 30       		.byte	0x30
 4768 11c9 00       		.byte	0
 4769 11ca 13       		.uleb128 0x13
 4770 11cb 1A000000 		.4byte	.LVL255
 4771 11cf 0C120000 		.4byte	0x120c
 4772 11d3 14       		.uleb128 0x14
 4773 11d4 01       		.uleb128 0x1
 4774 11d5 50       		.byte	0x50
 4775 11d6 01       		.uleb128 0x1
 4776 11d7 30       		.byte	0x30
 4777 11d8 00       		.byte	0
 4778 11d9 00       		.byte	0
 4779 11da 0A       		.uleb128 0xa
 4780 11db FC010000 		.4byte	0x1fc
 4781 11df EA110000 		.4byte	0x11ea
 4782 11e3 0B       		.uleb128 0xb
 4783 11e4 F9000000 		.4byte	0xf9
 4784 11e8 07       		.byte	0x7
 4785 11e9 00       		.byte	0
 4786 11ea 19       		.uleb128 0x19
 4787 11eb 60050000 		.4byte	.LASF100
 4788 11ef 01       		.byte	0x1
 4789 11f0 1A       		.byte	0x1a
 4790 11f1 DA110000 		.4byte	0x11da
 4791 11f5 05       		.uleb128 0x5
 4792 11f6 03       		.byte	0x3
 4793 11f7 00000000 		.4byte	CyDmaInterruptCallback
 4794 11fb 19       		.uleb128 0x19
 4795 11fc 6F060000 		.4byte	.LASF101
 4796 1200 01       		.byte	0x1
 4797 1201 28       		.byte	0x28
 4798 1202 77000000 		.4byte	0x77
 4799 1206 05       		.uleb128 0x5
 4800 1207 03       		.byte	0x3
 4801 1208 04000000 		.4byte	CyDmaChannelUsedMask
 4802 120c 23       		.uleb128 0x23
 4803 120d 77050000 		.4byte	.LASF102
 4804 1211 77050000 		.4byte	.LASF102
 4805 1215 04       		.byte	0x4
 4806 1216 E7       		.byte	0xe7
 4807 1217 23       		.uleb128 0x23
 4808 1218 46030000 		.4byte	.LASF103
 4809 121c 46030000 		.4byte	.LASF103
 4810 1220 04       		.byte	0x4
 4811 1221 BD       		.byte	0xbd
 4812 1222 23       		.uleb128 0x23
 4813 1223 AD030000 		.4byte	.LASF104
 4814 1227 AD030000 		.4byte	.LASF104
 4815 122b 04       		.byte	0x4
 4816 122c C0       		.byte	0xc0
 4817 122d 00       		.byte	0
 4818              		.section	.debug_abbrev,"",%progbits
 4819              	.Ldebug_abbrev0:
 4820 0000 01       		.uleb128 0x1
ARM GAS  C:\Users\JamesN4\AppData\Local\Temp\ccgbGPCH.s 			page 112


 4821 0001 11       		.uleb128 0x11
 4822 0002 01       		.byte	0x1
 4823 0003 25       		.uleb128 0x25
 4824 0004 0E       		.uleb128 0xe
 4825 0005 13       		.uleb128 0x13
 4826 0006 0B       		.uleb128 0xb
 4827 0007 03       		.uleb128 0x3
 4828 0008 0E       		.uleb128 0xe
 4829 0009 1B       		.uleb128 0x1b
 4830 000a 0E       		.uleb128 0xe
 4831 000b 55       		.uleb128 0x55
 4832 000c 17       		.uleb128 0x17
 4833 000d 11       		.uleb128 0x11
 4834 000e 01       		.uleb128 0x1
 4835 000f 10       		.uleb128 0x10
 4836 0010 17       		.uleb128 0x17
 4837 0011 00       		.byte	0
 4838 0012 00       		.byte	0
 4839 0013 02       		.uleb128 0x2
 4840 0014 24       		.uleb128 0x24
 4841 0015 00       		.byte	0
 4842 0016 0B       		.uleb128 0xb
 4843 0017 0B       		.uleb128 0xb
 4844 0018 3E       		.uleb128 0x3e
 4845 0019 0B       		.uleb128 0xb
 4846 001a 03       		.uleb128 0x3
 4847 001b 0E       		.uleb128 0xe
 4848 001c 00       		.byte	0
 4849 001d 00       		.byte	0
 4850 001e 03       		.uleb128 0x3
 4851 001f 24       		.uleb128 0x24
 4852 0020 00       		.byte	0
 4853 0021 0B       		.uleb128 0xb
 4854 0022 0B       		.uleb128 0xb
 4855 0023 3E       		.uleb128 0x3e
 4856 0024 0B       		.uleb128 0xb
 4857 0025 03       		.uleb128 0x3
 4858 0026 08       		.uleb128 0x8
 4859 0027 00       		.byte	0
 4860 0028 00       		.byte	0
 4861 0029 04       		.uleb128 0x4
 4862 002a 16       		.uleb128 0x16
 4863 002b 00       		.byte	0
 4864 002c 03       		.uleb128 0x3
 4865 002d 0E       		.uleb128 0xe
 4866 002e 3A       		.uleb128 0x3a
 4867 002f 0B       		.uleb128 0xb
 4868 0030 3B       		.uleb128 0x3b
 4869 0031 05       		.uleb128 0x5
 4870 0032 49       		.uleb128 0x49
 4871 0033 13       		.uleb128 0x13
 4872 0034 00       		.byte	0
 4873 0035 00       		.byte	0
 4874 0036 05       		.uleb128 0x5
 4875 0037 35       		.uleb128 0x35
 4876 0038 00       		.byte	0
 4877 0039 49       		.uleb128 0x49
ARM GAS  C:\Users\JamesN4\AppData\Local\Temp\ccgbGPCH.s 			page 113


 4878 003a 13       		.uleb128 0x13
 4879 003b 00       		.byte	0
 4880 003c 00       		.byte	0
 4881 003d 06       		.uleb128 0x6
 4882 003e 0F       		.uleb128 0xf
 4883 003f 00       		.byte	0
 4884 0040 0B       		.uleb128 0xb
 4885 0041 0B       		.uleb128 0xb
 4886 0042 49       		.uleb128 0x49
 4887 0043 13       		.uleb128 0x13
 4888 0044 00       		.byte	0
 4889 0045 00       		.byte	0
 4890 0046 07       		.uleb128 0x7
 4891 0047 15       		.uleb128 0x15
 4892 0048 00       		.byte	0
 4893 0049 27       		.uleb128 0x27
 4894 004a 19       		.uleb128 0x19
 4895 004b 00       		.byte	0
 4896 004c 00       		.byte	0
 4897 004d 08       		.uleb128 0x8
 4898 004e 13       		.uleb128 0x13
 4899 004f 01       		.byte	0x1
 4900 0050 0B       		.uleb128 0xb
 4901 0051 0B       		.uleb128 0xb
 4902 0052 3A       		.uleb128 0x3a
 4903 0053 0B       		.uleb128 0xb
 4904 0054 3B       		.uleb128 0x3b
 4905 0055 0B       		.uleb128 0xb
 4906 0056 01       		.uleb128 0x1
 4907 0057 13       		.uleb128 0x13
 4908 0058 00       		.byte	0
 4909 0059 00       		.byte	0
 4910 005a 09       		.uleb128 0x9
 4911 005b 0D       		.uleb128 0xd
 4912 005c 00       		.byte	0
 4913 005d 03       		.uleb128 0x3
 4914 005e 08       		.uleb128 0x8
 4915 005f 3A       		.uleb128 0x3a
 4916 0060 0B       		.uleb128 0xb
 4917 0061 3B       		.uleb128 0x3b
 4918 0062 0B       		.uleb128 0xb
 4919 0063 49       		.uleb128 0x49
 4920 0064 13       		.uleb128 0x13
 4921 0065 38       		.uleb128 0x38
 4922 0066 0B       		.uleb128 0xb
 4923 0067 00       		.byte	0
 4924 0068 00       		.byte	0
 4925 0069 0A       		.uleb128 0xa
 4926 006a 01       		.uleb128 0x1
 4927 006b 01       		.byte	0x1
 4928 006c 49       		.uleb128 0x49
 4929 006d 13       		.uleb128 0x13
 4930 006e 01       		.uleb128 0x1
 4931 006f 13       		.uleb128 0x13
 4932 0070 00       		.byte	0
 4933 0071 00       		.byte	0
 4934 0072 0B       		.uleb128 0xb
ARM GAS  C:\Users\JamesN4\AppData\Local\Temp\ccgbGPCH.s 			page 114


 4935 0073 21       		.uleb128 0x21
 4936 0074 00       		.byte	0
 4937 0075 49       		.uleb128 0x49
 4938 0076 13       		.uleb128 0x13
 4939 0077 2F       		.uleb128 0x2f
 4940 0078 0B       		.uleb128 0xb
 4941 0079 00       		.byte	0
 4942 007a 00       		.byte	0
 4943 007b 0C       		.uleb128 0xc
 4944 007c 16       		.uleb128 0x16
 4945 007d 00       		.byte	0
 4946 007e 03       		.uleb128 0x3
 4947 007f 0E       		.uleb128 0xe
 4948 0080 3A       		.uleb128 0x3a
 4949 0081 0B       		.uleb128 0xb
 4950 0082 3B       		.uleb128 0x3b
 4951 0083 0B       		.uleb128 0xb
 4952 0084 49       		.uleb128 0x49
 4953 0085 13       		.uleb128 0x13
 4954 0086 00       		.byte	0
 4955 0087 00       		.byte	0
 4956 0088 0D       		.uleb128 0xd
 4957 0089 0D       		.uleb128 0xd
 4958 008a 00       		.byte	0
 4959 008b 03       		.uleb128 0x3
 4960 008c 0E       		.uleb128 0xe
 4961 008d 3A       		.uleb128 0x3a
 4962 008e 0B       		.uleb128 0xb
 4963 008f 3B       		.uleb128 0x3b
 4964 0090 0B       		.uleb128 0xb
 4965 0091 49       		.uleb128 0x49
 4966 0092 13       		.uleb128 0x13
 4967 0093 38       		.uleb128 0x38
 4968 0094 0B       		.uleb128 0xb
 4969 0095 00       		.byte	0
 4970 0096 00       		.byte	0
 4971 0097 0E       		.uleb128 0xe
 4972 0098 0F       		.uleb128 0xf
 4973 0099 00       		.byte	0
 4974 009a 0B       		.uleb128 0xb
 4975 009b 0B       		.uleb128 0xb
 4976 009c 00       		.byte	0
 4977 009d 00       		.byte	0
 4978 009e 0F       		.uleb128 0xf
 4979 009f 13       		.uleb128 0x13
 4980 00a0 01       		.byte	0x1
 4981 00a1 0B       		.uleb128 0xb
 4982 00a2 05       		.uleb128 0x5
 4983 00a3 3A       		.uleb128 0x3a
 4984 00a4 0B       		.uleb128 0xb
 4985 00a5 3B       		.uleb128 0x3b
 4986 00a6 0B       		.uleb128 0xb
 4987 00a7 01       		.uleb128 0x1
 4988 00a8 13       		.uleb128 0x13
 4989 00a9 00       		.byte	0
 4990 00aa 00       		.byte	0
 4991 00ab 10       		.uleb128 0x10
ARM GAS  C:\Users\JamesN4\AppData\Local\Temp\ccgbGPCH.s 			page 115


 4992 00ac 2E       		.uleb128 0x2e
 4993 00ad 01       		.byte	0x1
 4994 00ae 3F       		.uleb128 0x3f
 4995 00af 19       		.uleb128 0x19
 4996 00b0 03       		.uleb128 0x3
 4997 00b1 0E       		.uleb128 0xe
 4998 00b2 3A       		.uleb128 0x3a
 4999 00b3 0B       		.uleb128 0xb
 5000 00b4 3B       		.uleb128 0x3b
 5001 00b5 05       		.uleb128 0x5
 5002 00b6 27       		.uleb128 0x27
 5003 00b7 19       		.uleb128 0x19
 5004 00b8 11       		.uleb128 0x11
 5005 00b9 01       		.uleb128 0x1
 5006 00ba 12       		.uleb128 0x12
 5007 00bb 06       		.uleb128 0x6
 5008 00bc 40       		.uleb128 0x40
 5009 00bd 18       		.uleb128 0x18
 5010 00be 9642     		.uleb128 0x2116
 5011 00c0 19       		.uleb128 0x19
 5012 00c1 01       		.uleb128 0x1
 5013 00c2 13       		.uleb128 0x13
 5014 00c3 00       		.byte	0
 5015 00c4 00       		.byte	0
 5016 00c5 11       		.uleb128 0x11
 5017 00c6 34       		.uleb128 0x34
 5018 00c7 00       		.byte	0
 5019 00c8 03       		.uleb128 0x3
 5020 00c9 0E       		.uleb128 0xe
 5021 00ca 3A       		.uleb128 0x3a
 5022 00cb 0B       		.uleb128 0xb
 5023 00cc 3B       		.uleb128 0x3b
 5024 00cd 05       		.uleb128 0x5
 5025 00ce 49       		.uleb128 0x49
 5026 00cf 13       		.uleb128 0x13
 5027 00d0 02       		.uleb128 0x2
 5028 00d1 17       		.uleb128 0x17
 5029 00d2 00       		.byte	0
 5030 00d3 00       		.byte	0
 5031 00d4 12       		.uleb128 0x12
 5032 00d5 2E       		.uleb128 0x2e
 5033 00d6 01       		.byte	0x1
 5034 00d7 03       		.uleb128 0x3
 5035 00d8 0E       		.uleb128 0xe
 5036 00d9 3A       		.uleb128 0x3a
 5037 00da 0B       		.uleb128 0xb
 5038 00db 3B       		.uleb128 0x3b
 5039 00dc 05       		.uleb128 0x5
 5040 00dd 27       		.uleb128 0x27
 5041 00de 19       		.uleb128 0x19
 5042 00df 11       		.uleb128 0x11
 5043 00e0 01       		.uleb128 0x1
 5044 00e1 12       		.uleb128 0x12
 5045 00e2 06       		.uleb128 0x6
 5046 00e3 40       		.uleb128 0x40
 5047 00e4 18       		.uleb128 0x18
 5048 00e5 9742     		.uleb128 0x2117
ARM GAS  C:\Users\JamesN4\AppData\Local\Temp\ccgbGPCH.s 			page 116


 5049 00e7 19       		.uleb128 0x19
 5050 00e8 01       		.uleb128 0x1
 5051 00e9 13       		.uleb128 0x13
 5052 00ea 00       		.byte	0
 5053 00eb 00       		.byte	0
 5054 00ec 13       		.uleb128 0x13
 5055 00ed 898201   		.uleb128 0x4109
 5056 00f0 01       		.byte	0x1
 5057 00f1 11       		.uleb128 0x11
 5058 00f2 01       		.uleb128 0x1
 5059 00f3 31       		.uleb128 0x31
 5060 00f4 13       		.uleb128 0x13
 5061 00f5 00       		.byte	0
 5062 00f6 00       		.byte	0
 5063 00f7 14       		.uleb128 0x14
 5064 00f8 8A8201   		.uleb128 0x410a
 5065 00fb 00       		.byte	0
 5066 00fc 02       		.uleb128 0x2
 5067 00fd 18       		.uleb128 0x18
 5068 00fe 9142     		.uleb128 0x2111
 5069 0100 18       		.uleb128 0x18
 5070 0101 00       		.byte	0
 5071 0102 00       		.byte	0
 5072 0103 15       		.uleb128 0x15
 5073 0104 2E       		.uleb128 0x2e
 5074 0105 00       		.byte	0
 5075 0106 3F       		.uleb128 0x3f
 5076 0107 19       		.uleb128 0x19
 5077 0108 03       		.uleb128 0x3
 5078 0109 0E       		.uleb128 0xe
 5079 010a 3A       		.uleb128 0x3a
 5080 010b 0B       		.uleb128 0xb
 5081 010c 3B       		.uleb128 0x3b
 5082 010d 0B       		.uleb128 0xb
 5083 010e 27       		.uleb128 0x27
 5084 010f 19       		.uleb128 0x19
 5085 0110 11       		.uleb128 0x11
 5086 0111 01       		.uleb128 0x1
 5087 0112 12       		.uleb128 0x12
 5088 0113 06       		.uleb128 0x6
 5089 0114 40       		.uleb128 0x40
 5090 0115 18       		.uleb128 0x18
 5091 0116 9742     		.uleb128 0x2117
 5092 0118 19       		.uleb128 0x19
 5093 0119 00       		.byte	0
 5094 011a 00       		.byte	0
 5095 011b 16       		.uleb128 0x16
 5096 011c 2E       		.uleb128 0x2e
 5097 011d 00       		.byte	0
 5098 011e 3F       		.uleb128 0x3f
 5099 011f 19       		.uleb128 0x19
 5100 0120 03       		.uleb128 0x3
 5101 0121 0E       		.uleb128 0xe
 5102 0122 3A       		.uleb128 0x3a
 5103 0123 0B       		.uleb128 0xb
 5104 0124 3B       		.uleb128 0x3b
 5105 0125 0B       		.uleb128 0xb
ARM GAS  C:\Users\JamesN4\AppData\Local\Temp\ccgbGPCH.s 			page 117


 5106 0126 27       		.uleb128 0x27
 5107 0127 19       		.uleb128 0x19
 5108 0128 49       		.uleb128 0x49
 5109 0129 13       		.uleb128 0x13
 5110 012a 11       		.uleb128 0x11
 5111 012b 01       		.uleb128 0x1
 5112 012c 12       		.uleb128 0x12
 5113 012d 06       		.uleb128 0x6
 5114 012e 40       		.uleb128 0x40
 5115 012f 18       		.uleb128 0x18
 5116 0130 9742     		.uleb128 0x2117
 5117 0132 19       		.uleb128 0x19
 5118 0133 00       		.byte	0
 5119 0134 00       		.byte	0
 5120 0135 17       		.uleb128 0x17
 5121 0136 2E       		.uleb128 0x2e
 5122 0137 01       		.byte	0x1
 5123 0138 3F       		.uleb128 0x3f
 5124 0139 19       		.uleb128 0x19
 5125 013a 03       		.uleb128 0x3
 5126 013b 0E       		.uleb128 0xe
 5127 013c 3A       		.uleb128 0x3a
 5128 013d 0B       		.uleb128 0xb
 5129 013e 3B       		.uleb128 0x3b
 5130 013f 0B       		.uleb128 0xb
 5131 0140 27       		.uleb128 0x27
 5132 0141 19       		.uleb128 0x19
 5133 0142 11       		.uleb128 0x11
 5134 0143 01       		.uleb128 0x1
 5135 0144 12       		.uleb128 0x12
 5136 0145 06       		.uleb128 0x6
 5137 0146 40       		.uleb128 0x40
 5138 0147 18       		.uleb128 0x18
 5139 0148 9742     		.uleb128 0x2117
 5140 014a 19       		.uleb128 0x19
 5141 014b 01       		.uleb128 0x1
 5142 014c 13       		.uleb128 0x13
 5143 014d 00       		.byte	0
 5144 014e 00       		.byte	0
 5145 014f 18       		.uleb128 0x18
 5146 0150 05       		.uleb128 0x5
 5147 0151 00       		.byte	0
 5148 0152 03       		.uleb128 0x3
 5149 0153 0E       		.uleb128 0xe
 5150 0154 3A       		.uleb128 0x3a
 5151 0155 0B       		.uleb128 0xb
 5152 0156 3B       		.uleb128 0x3b
 5153 0157 0B       		.uleb128 0xb
 5154 0158 49       		.uleb128 0x49
 5155 0159 13       		.uleb128 0x13
 5156 015a 02       		.uleb128 0x2
 5157 015b 17       		.uleb128 0x17
 5158 015c 00       		.byte	0
 5159 015d 00       		.byte	0
 5160 015e 19       		.uleb128 0x19
 5161 015f 34       		.uleb128 0x34
 5162 0160 00       		.byte	0
ARM GAS  C:\Users\JamesN4\AppData\Local\Temp\ccgbGPCH.s 			page 118


 5163 0161 03       		.uleb128 0x3
 5164 0162 0E       		.uleb128 0xe
 5165 0163 3A       		.uleb128 0x3a
 5166 0164 0B       		.uleb128 0xb
 5167 0165 3B       		.uleb128 0x3b
 5168 0166 0B       		.uleb128 0xb
 5169 0167 49       		.uleb128 0x49
 5170 0168 13       		.uleb128 0x13
 5171 0169 02       		.uleb128 0x2
 5172 016a 18       		.uleb128 0x18
 5173 016b 00       		.byte	0
 5174 016c 00       		.byte	0
 5175 016d 1A       		.uleb128 0x1a
 5176 016e 898201   		.uleb128 0x4109
 5177 0171 01       		.byte	0x1
 5178 0172 11       		.uleb128 0x11
 5179 0173 01       		.uleb128 0x1
 5180 0174 31       		.uleb128 0x31
 5181 0175 13       		.uleb128 0x13
 5182 0176 01       		.uleb128 0x1
 5183 0177 13       		.uleb128 0x13
 5184 0178 00       		.byte	0
 5185 0179 00       		.byte	0
 5186 017a 1B       		.uleb128 0x1b
 5187 017b 2E       		.uleb128 0x2e
 5188 017c 01       		.byte	0x1
 5189 017d 3F       		.uleb128 0x3f
 5190 017e 19       		.uleb128 0x19
 5191 017f 03       		.uleb128 0x3
 5192 0180 0E       		.uleb128 0xe
 5193 0181 3A       		.uleb128 0x3a
 5194 0182 0B       		.uleb128 0xb
 5195 0183 3B       		.uleb128 0x3b
 5196 0184 05       		.uleb128 0x5
 5197 0185 27       		.uleb128 0x27
 5198 0186 19       		.uleb128 0x19
 5199 0187 11       		.uleb128 0x11
 5200 0188 01       		.uleb128 0x1
 5201 0189 12       		.uleb128 0x12
 5202 018a 06       		.uleb128 0x6
 5203 018b 40       		.uleb128 0x40
 5204 018c 18       		.uleb128 0x18
 5205 018d 9742     		.uleb128 0x2117
 5206 018f 19       		.uleb128 0x19
 5207 0190 01       		.uleb128 0x1
 5208 0191 13       		.uleb128 0x13
 5209 0192 00       		.byte	0
 5210 0193 00       		.byte	0
 5211 0194 1C       		.uleb128 0x1c
 5212 0195 05       		.uleb128 0x5
 5213 0196 00       		.byte	0
 5214 0197 03       		.uleb128 0x3
 5215 0198 0E       		.uleb128 0xe
 5216 0199 3A       		.uleb128 0x3a
 5217 019a 0B       		.uleb128 0xb
 5218 019b 3B       		.uleb128 0x3b
 5219 019c 05       		.uleb128 0x5
ARM GAS  C:\Users\JamesN4\AppData\Local\Temp\ccgbGPCH.s 			page 119


 5220 019d 49       		.uleb128 0x49
 5221 019e 13       		.uleb128 0x13
 5222 019f 02       		.uleb128 0x2
 5223 01a0 18       		.uleb128 0x18
 5224 01a1 00       		.byte	0
 5225 01a2 00       		.byte	0
 5226 01a3 1D       		.uleb128 0x1d
 5227 01a4 2E       		.uleb128 0x2e
 5228 01a5 00       		.byte	0
 5229 01a6 3F       		.uleb128 0x3f
 5230 01a7 19       		.uleb128 0x19
 5231 01a8 03       		.uleb128 0x3
 5232 01a9 0E       		.uleb128 0xe
 5233 01aa 3A       		.uleb128 0x3a
 5234 01ab 0B       		.uleb128 0xb
 5235 01ac 3B       		.uleb128 0x3b
 5236 01ad 05       		.uleb128 0x5
 5237 01ae 27       		.uleb128 0x27
 5238 01af 19       		.uleb128 0x19
 5239 01b0 49       		.uleb128 0x49
 5240 01b1 13       		.uleb128 0x13
 5241 01b2 11       		.uleb128 0x11
 5242 01b3 01       		.uleb128 0x1
 5243 01b4 12       		.uleb128 0x12
 5244 01b5 06       		.uleb128 0x6
 5245 01b6 40       		.uleb128 0x40
 5246 01b7 18       		.uleb128 0x18
 5247 01b8 9742     		.uleb128 0x2117
 5248 01ba 19       		.uleb128 0x19
 5249 01bb 00       		.byte	0
 5250 01bc 00       		.byte	0
 5251 01bd 1E       		.uleb128 0x1e
 5252 01be 2E       		.uleb128 0x2e
 5253 01bf 01       		.byte	0x1
 5254 01c0 3F       		.uleb128 0x3f
 5255 01c1 19       		.uleb128 0x19
 5256 01c2 03       		.uleb128 0x3
 5257 01c3 0E       		.uleb128 0xe
 5258 01c4 3A       		.uleb128 0x3a
 5259 01c5 0B       		.uleb128 0xb
 5260 01c6 3B       		.uleb128 0x3b
 5261 01c7 05       		.uleb128 0x5
 5262 01c8 27       		.uleb128 0x27
 5263 01c9 19       		.uleb128 0x19
 5264 01ca 49       		.uleb128 0x49
 5265 01cb 13       		.uleb128 0x13
 5266 01cc 11       		.uleb128 0x11
 5267 01cd 01       		.uleb128 0x1
 5268 01ce 12       		.uleb128 0x12
 5269 01cf 06       		.uleb128 0x6
 5270 01d0 40       		.uleb128 0x40
 5271 01d1 18       		.uleb128 0x18
 5272 01d2 9742     		.uleb128 0x2117
 5273 01d4 19       		.uleb128 0x19
 5274 01d5 01       		.uleb128 0x1
 5275 01d6 13       		.uleb128 0x13
 5276 01d7 00       		.byte	0
ARM GAS  C:\Users\JamesN4\AppData\Local\Temp\ccgbGPCH.s 			page 120


 5277 01d8 00       		.byte	0
 5278 01d9 1F       		.uleb128 0x1f
 5279 01da 05       		.uleb128 0x5
 5280 01db 00       		.byte	0
 5281 01dc 03       		.uleb128 0x3
 5282 01dd 0E       		.uleb128 0xe
 5283 01de 3A       		.uleb128 0x3a
 5284 01df 0B       		.uleb128 0xb
 5285 01e0 3B       		.uleb128 0x3b
 5286 01e1 05       		.uleb128 0x5
 5287 01e2 49       		.uleb128 0x49
 5288 01e3 13       		.uleb128 0x13
 5289 01e4 02       		.uleb128 0x2
 5290 01e5 17       		.uleb128 0x17
 5291 01e6 00       		.byte	0
 5292 01e7 00       		.byte	0
 5293 01e8 20       		.uleb128 0x20
 5294 01e9 34       		.uleb128 0x34
 5295 01ea 00       		.byte	0
 5296 01eb 03       		.uleb128 0x3
 5297 01ec 0E       		.uleb128 0xe
 5298 01ed 3A       		.uleb128 0x3a
 5299 01ee 0B       		.uleb128 0xb
 5300 01ef 3B       		.uleb128 0x3b
 5301 01f0 05       		.uleb128 0x5
 5302 01f1 49       		.uleb128 0x49
 5303 01f2 13       		.uleb128 0x13
 5304 01f3 02       		.uleb128 0x2
 5305 01f4 18       		.uleb128 0x18
 5306 01f5 00       		.byte	0
 5307 01f6 00       		.byte	0
 5308 01f7 21       		.uleb128 0x21
 5309 01f8 34       		.uleb128 0x34
 5310 01f9 00       		.byte	0
 5311 01fa 03       		.uleb128 0x3
 5312 01fb 0E       		.uleb128 0xe
 5313 01fc 3A       		.uleb128 0x3a
 5314 01fd 0B       		.uleb128 0xb
 5315 01fe 3B       		.uleb128 0x3b
 5316 01ff 05       		.uleb128 0x5
 5317 0200 49       		.uleb128 0x49
 5318 0201 13       		.uleb128 0x13
 5319 0202 1C       		.uleb128 0x1c
 5320 0203 0A       		.uleb128 0xa
 5321 0204 00       		.byte	0
 5322 0205 00       		.byte	0
 5323 0206 22       		.uleb128 0x22
 5324 0207 26       		.uleb128 0x26
 5325 0208 00       		.byte	0
 5326 0209 49       		.uleb128 0x49
 5327 020a 13       		.uleb128 0x13
 5328 020b 00       		.byte	0
 5329 020c 00       		.byte	0
 5330 020d 23       		.uleb128 0x23
 5331 020e 2E       		.uleb128 0x2e
 5332 020f 00       		.byte	0
 5333 0210 3F       		.uleb128 0x3f
ARM GAS  C:\Users\JamesN4\AppData\Local\Temp\ccgbGPCH.s 			page 121


 5334 0211 19       		.uleb128 0x19
 5335 0212 3C       		.uleb128 0x3c
 5336 0213 19       		.uleb128 0x19
 5337 0214 6E       		.uleb128 0x6e
 5338 0215 0E       		.uleb128 0xe
 5339 0216 03       		.uleb128 0x3
 5340 0217 0E       		.uleb128 0xe
 5341 0218 3A       		.uleb128 0x3a
 5342 0219 0B       		.uleb128 0xb
 5343 021a 3B       		.uleb128 0x3b
 5344 021b 0B       		.uleb128 0xb
 5345 021c 00       		.byte	0
 5346 021d 00       		.byte	0
 5347 021e 00       		.byte	0
 5348              		.section	.debug_loc,"",%progbits
 5349              	.Ldebug_loc0:
 5350              	.LLST0:
 5351 0000 06000000 		.4byte	.LVL1
 5352 0004 22000000 		.4byte	.LVL6
 5353 0008 0100     		.2byte	0x1
 5354 000a 54       		.byte	0x54
 5355 000b 00000000 		.4byte	0
 5356 000f 00000000 		.4byte	0
 5357              	.LLST1:
 5358 0013 02000000 		.4byte	.LVL0
 5359 0017 0E000000 		.4byte	.LVL2
 5360 001b 0200     		.2byte	0x2
 5361 001d 30       		.byte	0x30
 5362 001e 9F       		.byte	0x9f
 5363 001f 0E000000 		.4byte	.LVL2
 5364 0023 22000000 		.4byte	.LVL7
 5365 0027 0100     		.2byte	0x1
 5366 0029 55       		.byte	0x55
 5367 002a 00000000 		.4byte	0
 5368 002e 00000000 		.4byte	0
 5369              	.LLST2:
 5370 0032 00000000 		.4byte	.LVL9
 5371 0036 06000000 		.4byte	.LVL10
 5372 003a 0100     		.2byte	0x1
 5373 003c 50       		.byte	0x50
 5374 003d 06000000 		.4byte	.LVL10
 5375 0041 09000000 		.4byte	.LVL11-1
 5376 0045 0100     		.2byte	0x1
 5377 0047 51       		.byte	0x51
 5378 0048 09000000 		.4byte	.LVL11-1
 5379 004c 0C000000 		.4byte	.LFE7
 5380 0050 0400     		.2byte	0x4
 5381 0052 F3       		.byte	0xf3
 5382 0053 01       		.uleb128 0x1
 5383 0054 50       		.byte	0x50
 5384 0055 9F       		.byte	0x9f
 5385 0056 00000000 		.4byte	0
 5386 005a 00000000 		.4byte	0
 5387              	.LLST3:
 5388 005e 00000000 		.4byte	.LVL16
 5389 0062 0C000000 		.4byte	.LVL17
 5390 0066 0100     		.2byte	0x1
ARM GAS  C:\Users\JamesN4\AppData\Local\Temp\ccgbGPCH.s 			page 122


 5391 0068 50       		.byte	0x50
 5392 0069 0C000000 		.4byte	.LVL17
 5393 006d 14000000 		.4byte	.LVL19
 5394 0071 0100     		.2byte	0x1
 5395 0073 54       		.byte	0x54
 5396 0074 14000000 		.4byte	.LVL19
 5397 0078 20000000 		.4byte	.LFE13
 5398 007c 0400     		.2byte	0x4
 5399 007e F3       		.byte	0xf3
 5400 007f 01       		.uleb128 0x1
 5401 0080 50       		.byte	0x50
 5402 0081 9F       		.byte	0x9f
 5403 0082 00000000 		.4byte	0
 5404 0086 00000000 		.4byte	0
 5405              	.LLST4:
 5406 008a 00000000 		.4byte	.LVL16
 5407 008e 0F000000 		.4byte	.LVL18-1
 5408 0092 0100     		.2byte	0x1
 5409 0094 51       		.byte	0x51
 5410 0095 0F000000 		.4byte	.LVL18-1
 5411 0099 18000000 		.4byte	.LVL21
 5412 009d 0100     		.2byte	0x1
 5413 009f 55       		.byte	0x55
 5414 00a0 18000000 		.4byte	.LVL21
 5415 00a4 20000000 		.4byte	.LFE13
 5416 00a8 0800     		.2byte	0x8
 5417 00aa F3       		.byte	0xf3
 5418 00ab 01       		.uleb128 0x1
 5419 00ac 50       		.byte	0x50
 5420 00ad 32       		.byte	0x32
 5421 00ae 24       		.byte	0x24
 5422 00af 73       		.byte	0x73
 5423 00b0 00       		.sleb128 0
 5424 00b1 22       		.byte	0x22
 5425 00b2 00000000 		.4byte	0
 5426 00b6 00000000 		.4byte	0
 5427              	.LLST5:
 5428 00ba 00000000 		.4byte	.LVL22
 5429 00be 0A000000 		.4byte	.LVL23
 5430 00c2 0100     		.2byte	0x1
 5431 00c4 50       		.byte	0x50
 5432 00c5 0A000000 		.4byte	.LVL23
 5433 00c9 10000000 		.4byte	.LVL25
 5434 00cd 0100     		.2byte	0x1
 5435 00cf 54       		.byte	0x54
 5436 00d0 10000000 		.4byte	.LVL25
 5437 00d4 1C000000 		.4byte	.LFE14
 5438 00d8 0400     		.2byte	0x4
 5439 00da F3       		.byte	0xf3
 5440 00db 01       		.uleb128 0x1
 5441 00dc 50       		.byte	0x50
 5442 00dd 9F       		.byte	0x9f
 5443 00de 00000000 		.4byte	0
 5444 00e2 00000000 		.4byte	0
 5445              	.LLST6:
 5446 00e6 00000000 		.4byte	.LVL26
 5447 00ea 06000000 		.4byte	.LVL27
ARM GAS  C:\Users\JamesN4\AppData\Local\Temp\ccgbGPCH.s 			page 123


 5448 00ee 0200     		.2byte	0x2
 5449 00f0 37       		.byte	0x37
 5450 00f1 9F       		.byte	0x9f
 5451 00f2 06000000 		.4byte	.LVL27
 5452 00f6 24000000 		.4byte	.LFE17
 5453 00fa 0100     		.2byte	0x1
 5454 00fc 50       		.byte	0x50
 5455 00fd 00000000 		.4byte	0
 5456 0101 00000000 		.4byte	0
 5457              	.LLST7:
 5458 0105 00000000 		.4byte	.LVL26
 5459 0109 06000000 		.4byte	.LVL27
 5460 010d 0300     		.2byte	0x3
 5461 010f 08       		.byte	0x8
 5462 0110 80       		.byte	0x80
 5463 0111 9F       		.byte	0x9f
 5464 0112 06000000 		.4byte	.LVL27
 5465 0116 10000000 		.4byte	.LVL28
 5466 011a 0100     		.2byte	0x1
 5467 011c 53       		.byte	0x53
 5468 011d 16000000 		.4byte	.LVL29
 5469 0121 1E000000 		.4byte	.LVL32
 5470 0125 0100     		.2byte	0x1
 5471 0127 53       		.byte	0x53
 5472 0128 00000000 		.4byte	0
 5473 012c 00000000 		.4byte	0
 5474              	.LLST8:
 5475 0130 00000000 		.4byte	.LVL33
 5476 0134 0A000000 		.4byte	.LVL35
 5477 0138 0100     		.2byte	0x1
 5478 013a 50       		.byte	0x50
 5479 013b 0A000000 		.4byte	.LVL35
 5480 013f 1C000000 		.4byte	.LVL39
 5481 0143 0100     		.2byte	0x1
 5482 0145 54       		.byte	0x54
 5483 0146 1C000000 		.4byte	.LVL39
 5484 014a 24000000 		.4byte	.LFE18
 5485 014e 0400     		.2byte	0x4
 5486 0150 F3       		.byte	0xf3
 5487 0151 01       		.uleb128 0x1
 5488 0152 50       		.byte	0x50
 5489 0153 9F       		.byte	0x9f
 5490 0154 00000000 		.4byte	0
 5491 0158 00000000 		.4byte	0
 5492              	.LLST9:
 5493 015c 04000000 		.4byte	.LVL34
 5494 0160 1A000000 		.4byte	.LVL38
 5495 0164 0200     		.2byte	0x2
 5496 0166 31       		.byte	0x31
 5497 0167 9F       		.byte	0x9f
 5498 0168 1A000000 		.4byte	.LVL38
 5499 016c 24000000 		.4byte	.LFE18
 5500 0170 0200     		.2byte	0x2
 5501 0172 30       		.byte	0x30
 5502 0173 9F       		.byte	0x9f
 5503 0174 00000000 		.4byte	0
 5504 0178 00000000 		.4byte	0
ARM GAS  C:\Users\JamesN4\AppData\Local\Temp\ccgbGPCH.s 			page 124


 5505              	.LLST10:
 5506 017c 00000000 		.4byte	.LVL40
 5507 0180 0A000000 		.4byte	.LVL41
 5508 0184 0100     		.2byte	0x1
 5509 0186 50       		.byte	0x50
 5510 0187 0A000000 		.4byte	.LVL41
 5511 018b 12000000 		.4byte	.LVL43
 5512 018f 0100     		.2byte	0x1
 5513 0191 54       		.byte	0x54
 5514 0192 12000000 		.4byte	.LVL43
 5515 0196 24000000 		.4byte	.LFE19
 5516 019a 0400     		.2byte	0x4
 5517 019c F3       		.byte	0xf3
 5518 019d 01       		.uleb128 0x1
 5519 019e 50       		.byte	0x50
 5520 019f 9F       		.byte	0x9f
 5521 01a0 00000000 		.4byte	0
 5522 01a4 00000000 		.4byte	0
 5523              	.LLST11:
 5524 01a8 00000000 		.4byte	.LVL44
 5525 01ac 0A000000 		.4byte	.LVL45
 5526 01b0 0100     		.2byte	0x1
 5527 01b2 50       		.byte	0x50
 5528 01b3 0A000000 		.4byte	.LVL45
 5529 01b7 12000000 		.4byte	.LVL47
 5530 01bb 0100     		.2byte	0x1
 5531 01bd 54       		.byte	0x54
 5532 01be 12000000 		.4byte	.LVL47
 5533 01c2 20000000 		.4byte	.LFE20
 5534 01c6 0400     		.2byte	0x4
 5535 01c8 F3       		.byte	0xf3
 5536 01c9 01       		.uleb128 0x1
 5537 01ca 50       		.byte	0x50
 5538 01cb 9F       		.byte	0x9f
 5539 01cc 00000000 		.4byte	0
 5540 01d0 00000000 		.4byte	0
 5541              	.LLST12:
 5542 01d4 00000000 		.4byte	.LVL48
 5543 01d8 0A000000 		.4byte	.LVL49
 5544 01dc 0100     		.2byte	0x1
 5545 01de 50       		.byte	0x50
 5546 01df 0A000000 		.4byte	.LVL49
 5547 01e3 12000000 		.4byte	.LVL51
 5548 01e7 0100     		.2byte	0x1
 5549 01e9 54       		.byte	0x54
 5550 01ea 12000000 		.4byte	.LVL51
 5551 01ee 24000000 		.4byte	.LFE21
 5552 01f2 0400     		.2byte	0x4
 5553 01f4 F3       		.byte	0xf3
 5554 01f5 01       		.uleb128 0x1
 5555 01f6 50       		.byte	0x50
 5556 01f7 9F       		.byte	0x9f
 5557 01f8 00000000 		.4byte	0
 5558 01fc 00000000 		.4byte	0
 5559              	.LLST13:
 5560 0200 00000000 		.4byte	.LVL52
 5561 0204 0C000000 		.4byte	.LVL53
ARM GAS  C:\Users\JamesN4\AppData\Local\Temp\ccgbGPCH.s 			page 125


 5562 0208 0100     		.2byte	0x1
 5563 020a 50       		.byte	0x50
 5564 020b 0C000000 		.4byte	.LVL53
 5565 020f 1E000000 		.4byte	.LVL56
 5566 0213 0100     		.2byte	0x1
 5567 0215 55       		.byte	0x55
 5568 0216 1E000000 		.4byte	.LVL56
 5569 021a 34000000 		.4byte	.LFE22
 5570 021e 0400     		.2byte	0x4
 5571 0220 F3       		.byte	0xf3
 5572 0221 01       		.uleb128 0x1
 5573 0222 50       		.byte	0x50
 5574 0223 9F       		.byte	0x9f
 5575 0224 00000000 		.4byte	0
 5576 0228 00000000 		.4byte	0
 5577              	.LLST14:
 5578 022c 00000000 		.4byte	.LVL52
 5579 0230 0F000000 		.4byte	.LVL54-1
 5580 0234 0100     		.2byte	0x1
 5581 0236 51       		.byte	0x51
 5582 0237 0F000000 		.4byte	.LVL54-1
 5583 023b 26000000 		.4byte	.LVL58
 5584 023f 0100     		.2byte	0x1
 5585 0241 54       		.byte	0x54
 5586 0242 26000000 		.4byte	.LVL58
 5587 0246 34000000 		.4byte	.LFE22
 5588 024a 0400     		.2byte	0x4
 5589 024c F3       		.byte	0xf3
 5590 024d 01       		.uleb128 0x1
 5591 024e 51       		.byte	0x51
 5592 024f 9F       		.byte	0x9f
 5593 0250 00000000 		.4byte	0
 5594 0254 00000000 		.4byte	0
 5595              	.LLST15:
 5596 0258 00000000 		.4byte	.LVL59
 5597 025c 0A000000 		.4byte	.LVL60
 5598 0260 0100     		.2byte	0x1
 5599 0262 50       		.byte	0x50
 5600 0263 0A000000 		.4byte	.LVL60
 5601 0267 10000000 		.4byte	.LVL62
 5602 026b 0100     		.2byte	0x1
 5603 026d 54       		.byte	0x54
 5604 026e 10000000 		.4byte	.LVL62
 5605 0272 20000000 		.4byte	.LFE23
 5606 0276 0400     		.2byte	0x4
 5607 0278 F3       		.byte	0xf3
 5608 0279 01       		.uleb128 0x1
 5609 027a 50       		.byte	0x50
 5610 027b 9F       		.byte	0x9f
 5611 027c 00000000 		.4byte	0
 5612 0280 00000000 		.4byte	0
 5613              	.LLST16:
 5614 0284 00000000 		.4byte	.LVL64
 5615 0288 0C000000 		.4byte	.LVL65
 5616 028c 0100     		.2byte	0x1
 5617 028e 50       		.byte	0x50
 5618 028f 0C000000 		.4byte	.LVL65
ARM GAS  C:\Users\JamesN4\AppData\Local\Temp\ccgbGPCH.s 			page 126


 5619 0293 1E000000 		.4byte	.LVL68
 5620 0297 0100     		.2byte	0x1
 5621 0299 55       		.byte	0x55
 5622 029a 1E000000 		.4byte	.LVL68
 5623 029e 34000000 		.4byte	.LFE24
 5624 02a2 0400     		.2byte	0x4
 5625 02a4 F3       		.byte	0xf3
 5626 02a5 01       		.uleb128 0x1
 5627 02a6 50       		.byte	0x50
 5628 02a7 9F       		.byte	0x9f
 5629 02a8 00000000 		.4byte	0
 5630 02ac 00000000 		.4byte	0
 5631              	.LLST17:
 5632 02b0 00000000 		.4byte	.LVL64
 5633 02b4 0F000000 		.4byte	.LVL66-1
 5634 02b8 0100     		.2byte	0x1
 5635 02ba 51       		.byte	0x51
 5636 02bb 0F000000 		.4byte	.LVL66-1
 5637 02bf 26000000 		.4byte	.LVL70
 5638 02c3 0100     		.2byte	0x1
 5639 02c5 54       		.byte	0x54
 5640 02c6 26000000 		.4byte	.LVL70
 5641 02ca 34000000 		.4byte	.LFE24
 5642 02ce 0400     		.2byte	0x4
 5643 02d0 F3       		.byte	0xf3
 5644 02d1 01       		.uleb128 0x1
 5645 02d2 51       		.byte	0x51
 5646 02d3 9F       		.byte	0x9f
 5647 02d4 00000000 		.4byte	0
 5648 02d8 00000000 		.4byte	0
 5649              	.LLST18:
 5650 02dc 00000000 		.4byte	.LVL71
 5651 02e0 0A000000 		.4byte	.LVL72
 5652 02e4 0100     		.2byte	0x1
 5653 02e6 50       		.byte	0x50
 5654 02e7 0A000000 		.4byte	.LVL72
 5655 02eb 10000000 		.4byte	.LVL74
 5656 02ef 0100     		.2byte	0x1
 5657 02f1 54       		.byte	0x54
 5658 02f2 10000000 		.4byte	.LVL74
 5659 02f6 20000000 		.4byte	.LFE25
 5660 02fa 0400     		.2byte	0x4
 5661 02fc F3       		.byte	0xf3
 5662 02fd 01       		.uleb128 0x1
 5663 02fe 50       		.byte	0x50
 5664 02ff 9F       		.byte	0x9f
 5665 0300 00000000 		.4byte	0
 5666 0304 00000000 		.4byte	0
 5667              	.LLST19:
 5668 0308 00000000 		.4byte	.LVL76
 5669 030c 0E000000 		.4byte	.LVL77
 5670 0310 0100     		.2byte	0x1
 5671 0312 50       		.byte	0x50
 5672 0313 0E000000 		.4byte	.LVL77
 5673 0317 AE000000 		.4byte	.LVL88
 5674 031b 0100     		.2byte	0x1
 5675 031d 56       		.byte	0x56
ARM GAS  C:\Users\JamesN4\AppData\Local\Temp\ccgbGPCH.s 			page 127


 5676 031e AE000000 		.4byte	.LVL88
 5677 0322 E4000000 		.4byte	.LFE26
 5678 0326 0400     		.2byte	0x4
 5679 0328 F3       		.byte	0xf3
 5680 0329 01       		.uleb128 0x1
 5681 032a 50       		.byte	0x50
 5682 032b 9F       		.byte	0x9f
 5683 032c 00000000 		.4byte	0
 5684 0330 00000000 		.4byte	0
 5685              	.LLST20:
 5686 0334 00000000 		.4byte	.LVL76
 5687 0338 11000000 		.4byte	.LVL78-1
 5688 033c 0100     		.2byte	0x1
 5689 033e 51       		.byte	0x51
 5690 033f 11000000 		.4byte	.LVL78-1
 5691 0343 B0000000 		.4byte	.LVL89
 5692 0347 0100     		.2byte	0x1
 5693 0349 55       		.byte	0x55
 5694 034a B0000000 		.4byte	.LVL89
 5695 034e E4000000 		.4byte	.LFE26
 5696 0352 0400     		.2byte	0x4
 5697 0354 F3       		.byte	0xf3
 5698 0355 01       		.uleb128 0x1
 5699 0356 51       		.byte	0x51
 5700 0357 9F       		.byte	0x9f
 5701 0358 00000000 		.4byte	0
 5702 035c 00000000 		.4byte	0
 5703              	.LLST21:
 5704 0360 00000000 		.4byte	.LVL76
 5705 0364 11000000 		.4byte	.LVL78-1
 5706 0368 0100     		.2byte	0x1
 5707 036a 52       		.byte	0x52
 5708 036b 11000000 		.4byte	.LVL78-1
 5709 036f C0000000 		.4byte	.LVL90
 5710 0373 0100     		.2byte	0x1
 5711 0375 54       		.byte	0x54
 5712 0376 C0000000 		.4byte	.LVL90
 5713 037a E4000000 		.4byte	.LFE26
 5714 037e 0400     		.2byte	0x4
 5715 0380 F3       		.byte	0xf3
 5716 0381 01       		.uleb128 0x1
 5717 0382 52       		.byte	0x52
 5718 0383 9F       		.byte	0x9f
 5719 0384 00000000 		.4byte	0
 5720 0388 00000000 		.4byte	0
 5721              	.LLST22:
 5722 038c 00000000 		.4byte	.LVL91
 5723 0390 0C000000 		.4byte	.LVL92
 5724 0394 0100     		.2byte	0x1
 5725 0396 50       		.byte	0x50
 5726 0397 0C000000 		.4byte	.LVL92
 5727 039b 1C000000 		.4byte	.LVL95
 5728 039f 0100     		.2byte	0x1
 5729 03a1 55       		.byte	0x55
 5730 03a2 1C000000 		.4byte	.LVL95
 5731 03a6 34000000 		.4byte	.LFE27
 5732 03aa 0400     		.2byte	0x4
ARM GAS  C:\Users\JamesN4\AppData\Local\Temp\ccgbGPCH.s 			page 128


 5733 03ac F3       		.byte	0xf3
 5734 03ad 01       		.uleb128 0x1
 5735 03ae 50       		.byte	0x50
 5736 03af 9F       		.byte	0x9f
 5737 03b0 00000000 		.4byte	0
 5738 03b4 00000000 		.4byte	0
 5739              	.LLST23:
 5740 03b8 00000000 		.4byte	.LVL91
 5741 03bc 0F000000 		.4byte	.LVL93-1
 5742 03c0 0100     		.2byte	0x1
 5743 03c2 51       		.byte	0x51
 5744 03c3 0F000000 		.4byte	.LVL93-1
 5745 03c7 1E000000 		.4byte	.LVL96
 5746 03cb 0100     		.2byte	0x1
 5747 03cd 54       		.byte	0x54
 5748 03ce 1E000000 		.4byte	.LVL96
 5749 03d2 34000000 		.4byte	.LFE27
 5750 03d6 0400     		.2byte	0x4
 5751 03d8 F3       		.byte	0xf3
 5752 03d9 01       		.uleb128 0x1
 5753 03da 51       		.byte	0x51
 5754 03db 9F       		.byte	0x9f
 5755 03dc 00000000 		.4byte	0
 5756 03e0 00000000 		.4byte	0
 5757              	.LLST24:
 5758 03e4 00000000 		.4byte	.LVL97
 5759 03e8 0C000000 		.4byte	.LVL98
 5760 03ec 0100     		.2byte	0x1
 5761 03ee 50       		.byte	0x50
 5762 03ef 0C000000 		.4byte	.LVL98
 5763 03f3 1C000000 		.4byte	.LVL101
 5764 03f7 0100     		.2byte	0x1
 5765 03f9 55       		.byte	0x55
 5766 03fa 1C000000 		.4byte	.LVL101
 5767 03fe 30000000 		.4byte	.LFE28
 5768 0402 0400     		.2byte	0x4
 5769 0404 F3       		.byte	0xf3
 5770 0405 01       		.uleb128 0x1
 5771 0406 50       		.byte	0x50
 5772 0407 9F       		.byte	0x9f
 5773 0408 00000000 		.4byte	0
 5774 040c 00000000 		.4byte	0
 5775              	.LLST25:
 5776 0410 00000000 		.4byte	.LVL97
 5777 0414 0F000000 		.4byte	.LVL99-1
 5778 0418 0100     		.2byte	0x1
 5779 041a 51       		.byte	0x51
 5780 041b 0F000000 		.4byte	.LVL99-1
 5781 041f 1E000000 		.4byte	.LVL102
 5782 0423 0100     		.2byte	0x1
 5783 0425 54       		.byte	0x54
 5784 0426 1E000000 		.4byte	.LVL102
 5785 042a 30000000 		.4byte	.LFE28
 5786 042e 0400     		.2byte	0x4
 5787 0430 F3       		.byte	0xf3
 5788 0431 01       		.uleb128 0x1
 5789 0432 51       		.byte	0x51
ARM GAS  C:\Users\JamesN4\AppData\Local\Temp\ccgbGPCH.s 			page 129


 5790 0433 9F       		.byte	0x9f
 5791 0434 00000000 		.4byte	0
 5792 0438 00000000 		.4byte	0
 5793              	.LLST26:
 5794 043c 00000000 		.4byte	.LVL103
 5795 0440 0E000000 		.4byte	.LVL104
 5796 0444 0100     		.2byte	0x1
 5797 0446 50       		.byte	0x50
 5798 0447 0E000000 		.4byte	.LVL104
 5799 044b 1E000000 		.4byte	.LVL107
 5800 044f 0100     		.2byte	0x1
 5801 0451 55       		.byte	0x55
 5802 0452 1E000000 		.4byte	.LVL107
 5803 0456 2C000000 		.4byte	.LFE29
 5804 045a 0400     		.2byte	0x4
 5805 045c F3       		.byte	0xf3
 5806 045d 01       		.uleb128 0x1
 5807 045e 50       		.byte	0x50
 5808 045f 9F       		.byte	0x9f
 5809 0460 00000000 		.4byte	0
 5810 0464 00000000 		.4byte	0
 5811              	.LLST27:
 5812 0468 00000000 		.4byte	.LVL103
 5813 046c 11000000 		.4byte	.LVL105-1
 5814 0470 0100     		.2byte	0x1
 5815 0472 51       		.byte	0x51
 5816 0473 11000000 		.4byte	.LVL105-1
 5817 0477 20000000 		.4byte	.LVL108
 5818 047b 0100     		.2byte	0x1
 5819 047d 54       		.byte	0x54
 5820 047e 20000000 		.4byte	.LVL108
 5821 0482 2C000000 		.4byte	.LFE29
 5822 0486 0400     		.2byte	0x4
 5823 0488 F3       		.byte	0xf3
 5824 0489 01       		.uleb128 0x1
 5825 048a 51       		.byte	0x51
 5826 048b 9F       		.byte	0x9f
 5827 048c 00000000 		.4byte	0
 5828 0490 00000000 		.4byte	0
 5829              	.LLST28:
 5830 0494 00000000 		.4byte	.LVL103
 5831 0498 11000000 		.4byte	.LVL105-1
 5832 049c 0100     		.2byte	0x1
 5833 049e 52       		.byte	0x52
 5834 049f 11000000 		.4byte	.LVL105-1
 5835 04a3 26000000 		.4byte	.LVL109
 5836 04a7 0100     		.2byte	0x1
 5837 04a9 56       		.byte	0x56
 5838 04aa 26000000 		.4byte	.LVL109
 5839 04ae 2C000000 		.4byte	.LFE29
 5840 04b2 0400     		.2byte	0x4
 5841 04b4 F3       		.byte	0xf3
 5842 04b5 01       		.uleb128 0x1
 5843 04b6 52       		.byte	0x52
 5844 04b7 9F       		.byte	0x9f
 5845 04b8 00000000 		.4byte	0
 5846 04bc 00000000 		.4byte	0
ARM GAS  C:\Users\JamesN4\AppData\Local\Temp\ccgbGPCH.s 			page 130


 5847              	.LLST29:
 5848 04c0 00000000 		.4byte	.LVL110
 5849 04c4 0C000000 		.4byte	.LVL111
 5850 04c8 0100     		.2byte	0x1
 5851 04ca 50       		.byte	0x50
 5852 04cb 0C000000 		.4byte	.LVL111
 5853 04cf 1C000000 		.4byte	.LVL114
 5854 04d3 0100     		.2byte	0x1
 5855 04d5 55       		.byte	0x55
 5856 04d6 1C000000 		.4byte	.LVL114
 5857 04da 2C000000 		.4byte	.LFE30
 5858 04de 0400     		.2byte	0x4
 5859 04e0 F3       		.byte	0xf3
 5860 04e1 01       		.uleb128 0x1
 5861 04e2 50       		.byte	0x50
 5862 04e3 9F       		.byte	0x9f
 5863 04e4 00000000 		.4byte	0
 5864 04e8 00000000 		.4byte	0
 5865              	.LLST30:
 5866 04ec 00000000 		.4byte	.LVL110
 5867 04f0 0F000000 		.4byte	.LVL112-1
 5868 04f4 0100     		.2byte	0x1
 5869 04f6 51       		.byte	0x51
 5870 04f7 0F000000 		.4byte	.LVL112-1
 5871 04fb 1E000000 		.4byte	.LVL115
 5872 04ff 0100     		.2byte	0x1
 5873 0501 54       		.byte	0x54
 5874 0502 1E000000 		.4byte	.LVL115
 5875 0506 2C000000 		.4byte	.LFE30
 5876 050a 0400     		.2byte	0x4
 5877 050c F3       		.byte	0xf3
 5878 050d 01       		.uleb128 0x1
 5879 050e 51       		.byte	0x51
 5880 050f 9F       		.byte	0x9f
 5881 0510 00000000 		.4byte	0
 5882 0514 00000000 		.4byte	0
 5883              	.LLST31:
 5884 0518 00000000 		.4byte	.LVL116
 5885 051c 0E000000 		.4byte	.LVL117
 5886 0520 0100     		.2byte	0x1
 5887 0522 50       		.byte	0x50
 5888 0523 0E000000 		.4byte	.LVL117
 5889 0527 1E000000 		.4byte	.LVL120
 5890 052b 0100     		.2byte	0x1
 5891 052d 55       		.byte	0x55
 5892 052e 1E000000 		.4byte	.LVL120
 5893 0532 30000000 		.4byte	.LFE31
 5894 0536 0400     		.2byte	0x4
 5895 0538 F3       		.byte	0xf3
 5896 0539 01       		.uleb128 0x1
 5897 053a 50       		.byte	0x50
 5898 053b 9F       		.byte	0x9f
 5899 053c 00000000 		.4byte	0
 5900 0540 00000000 		.4byte	0
 5901              	.LLST32:
 5902 0544 00000000 		.4byte	.LVL116
 5903 0548 11000000 		.4byte	.LVL118-1
ARM GAS  C:\Users\JamesN4\AppData\Local\Temp\ccgbGPCH.s 			page 131


 5904 054c 0100     		.2byte	0x1
 5905 054e 51       		.byte	0x51
 5906 054f 11000000 		.4byte	.LVL118-1
 5907 0553 20000000 		.4byte	.LVL121
 5908 0557 0100     		.2byte	0x1
 5909 0559 54       		.byte	0x54
 5910 055a 20000000 		.4byte	.LVL121
 5911 055e 30000000 		.4byte	.LFE31
 5912 0562 0400     		.2byte	0x4
 5913 0564 F3       		.byte	0xf3
 5914 0565 01       		.uleb128 0x1
 5915 0566 51       		.byte	0x51
 5916 0567 9F       		.byte	0x9f
 5917 0568 00000000 		.4byte	0
 5918 056c 00000000 		.4byte	0
 5919              	.LLST33:
 5920 0570 00000000 		.4byte	.LVL116
 5921 0574 11000000 		.4byte	.LVL118-1
 5922 0578 0100     		.2byte	0x1
 5923 057a 52       		.byte	0x52
 5924 057b 11000000 		.4byte	.LVL118-1
 5925 057f 2A000000 		.4byte	.LVL122
 5926 0583 0100     		.2byte	0x1
 5927 0585 56       		.byte	0x56
 5928 0586 2A000000 		.4byte	.LVL122
 5929 058a 30000000 		.4byte	.LFE31
 5930 058e 0400     		.2byte	0x4
 5931 0590 F3       		.byte	0xf3
 5932 0591 01       		.uleb128 0x1
 5933 0592 52       		.byte	0x52
 5934 0593 9F       		.byte	0x9f
 5935 0594 00000000 		.4byte	0
 5936 0598 00000000 		.4byte	0
 5937              	.LLST34:
 5938 059c 00000000 		.4byte	.LVL123
 5939 05a0 0C000000 		.4byte	.LVL124
 5940 05a4 0100     		.2byte	0x1
 5941 05a6 50       		.byte	0x50
 5942 05a7 0C000000 		.4byte	.LVL124
 5943 05ab 1C000000 		.4byte	.LVL127
 5944 05af 0100     		.2byte	0x1
 5945 05b1 55       		.byte	0x55
 5946 05b2 1C000000 		.4byte	.LVL127
 5947 05b6 30000000 		.4byte	.LFE32
 5948 05ba 0400     		.2byte	0x4
 5949 05bc F3       		.byte	0xf3
 5950 05bd 01       		.uleb128 0x1
 5951 05be 50       		.byte	0x50
 5952 05bf 9F       		.byte	0x9f
 5953 05c0 00000000 		.4byte	0
 5954 05c4 00000000 		.4byte	0
 5955              	.LLST35:
 5956 05c8 00000000 		.4byte	.LVL123
 5957 05cc 0F000000 		.4byte	.LVL125-1
 5958 05d0 0100     		.2byte	0x1
 5959 05d2 51       		.byte	0x51
 5960 05d3 0F000000 		.4byte	.LVL125-1
ARM GAS  C:\Users\JamesN4\AppData\Local\Temp\ccgbGPCH.s 			page 132


 5961 05d7 1E000000 		.4byte	.LVL128
 5962 05db 0100     		.2byte	0x1
 5963 05dd 54       		.byte	0x54
 5964 05de 1E000000 		.4byte	.LVL128
 5965 05e2 30000000 		.4byte	.LFE32
 5966 05e6 0400     		.2byte	0x4
 5967 05e8 F3       		.byte	0xf3
 5968 05e9 01       		.uleb128 0x1
 5969 05ea 51       		.byte	0x51
 5970 05eb 9F       		.byte	0x9f
 5971 05ec 00000000 		.4byte	0
 5972 05f0 00000000 		.4byte	0
 5973              	.LLST36:
 5974 05f4 00000000 		.4byte	.LVL129
 5975 05f8 0E000000 		.4byte	.LVL130
 5976 05fc 0100     		.2byte	0x1
 5977 05fe 50       		.byte	0x50
 5978 05ff 0E000000 		.4byte	.LVL130
 5979 0603 2A000000 		.4byte	.LVL134
 5980 0607 0100     		.2byte	0x1
 5981 0609 55       		.byte	0x55
 5982 060a 2A000000 		.4byte	.LVL134
 5983 060e 48000000 		.4byte	.LFE33
 5984 0612 0400     		.2byte	0x4
 5985 0614 F3       		.byte	0xf3
 5986 0615 01       		.uleb128 0x1
 5987 0616 50       		.byte	0x50
 5988 0617 9F       		.byte	0x9f
 5989 0618 00000000 		.4byte	0
 5990 061c 00000000 		.4byte	0
 5991              	.LLST37:
 5992 0620 00000000 		.4byte	.LVL129
 5993 0624 11000000 		.4byte	.LVL131-1
 5994 0628 0100     		.2byte	0x1
 5995 062a 51       		.byte	0x51
 5996 062b 11000000 		.4byte	.LVL131-1
 5997 062f 2C000000 		.4byte	.LVL135
 5998 0633 0100     		.2byte	0x1
 5999 0635 54       		.byte	0x54
 6000 0636 2C000000 		.4byte	.LVL135
 6001 063a 48000000 		.4byte	.LFE33
 6002 063e 0400     		.2byte	0x4
 6003 0640 F3       		.byte	0xf3
 6004 0641 01       		.uleb128 0x1
 6005 0642 51       		.byte	0x51
 6006 0643 9F       		.byte	0x9f
 6007 0644 00000000 		.4byte	0
 6008 0648 00000000 		.4byte	0
 6009              	.LLST38:
 6010 064c 00000000 		.4byte	.LVL129
 6011 0650 11000000 		.4byte	.LVL131-1
 6012 0654 0100     		.2byte	0x1
 6013 0656 52       		.byte	0x52
 6014 0657 11000000 		.4byte	.LVL131-1
 6015 065b 3E000000 		.4byte	.LVL138
 6016 065f 0100     		.2byte	0x1
 6017 0661 56       		.byte	0x56
ARM GAS  C:\Users\JamesN4\AppData\Local\Temp\ccgbGPCH.s 			page 133


 6018 0662 3E000000 		.4byte	.LVL138
 6019 0666 48000000 		.4byte	.LFE33
 6020 066a 0400     		.2byte	0x4
 6021 066c F3       		.byte	0xf3
 6022 066d 01       		.uleb128 0x1
 6023 066e 52       		.byte	0x52
 6024 066f 9F       		.byte	0x9f
 6025 0670 00000000 		.4byte	0
 6026 0674 00000000 		.4byte	0
 6027              	.LLST39:
 6028 0678 3A000000 		.4byte	.LVL136
 6029 067c 3C000000 		.4byte	.LVL137
 6030 0680 0100     		.2byte	0x1
 6031 0682 52       		.byte	0x52
 6032 0683 00000000 		.4byte	0
 6033 0687 00000000 		.4byte	0
 6034              	.LLST40:
 6035 068b 00000000 		.4byte	.LVL139
 6036 068f 0C000000 		.4byte	.LVL140
 6037 0693 0100     		.2byte	0x1
 6038 0695 50       		.byte	0x50
 6039 0696 0C000000 		.4byte	.LVL140
 6040 069a 1C000000 		.4byte	.LVL143
 6041 069e 0100     		.2byte	0x1
 6042 06a0 55       		.byte	0x55
 6043 06a1 1C000000 		.4byte	.LVL143
 6044 06a5 34000000 		.4byte	.LFE34
 6045 06a9 0400     		.2byte	0x4
 6046 06ab F3       		.byte	0xf3
 6047 06ac 01       		.uleb128 0x1
 6048 06ad 50       		.byte	0x50
 6049 06ae 9F       		.byte	0x9f
 6050 06af 00000000 		.4byte	0
 6051 06b3 00000000 		.4byte	0
 6052              	.LLST41:
 6053 06b7 00000000 		.4byte	.LVL139
 6054 06bb 0F000000 		.4byte	.LVL141-1
 6055 06bf 0100     		.2byte	0x1
 6056 06c1 51       		.byte	0x51
 6057 06c2 0F000000 		.4byte	.LVL141-1
 6058 06c6 1E000000 		.4byte	.LVL144
 6059 06ca 0100     		.2byte	0x1
 6060 06cc 54       		.byte	0x54
 6061 06cd 1E000000 		.4byte	.LVL144
 6062 06d1 34000000 		.4byte	.LFE34
 6063 06d5 0400     		.2byte	0x4
 6064 06d7 F3       		.byte	0xf3
 6065 06d8 01       		.uleb128 0x1
 6066 06d9 51       		.byte	0x51
 6067 06da 9F       		.byte	0x9f
 6068 06db 00000000 		.4byte	0
 6069 06df 00000000 		.4byte	0
 6070              	.LLST42:
 6071 06e3 00000000 		.4byte	.LVL145
 6072 06e7 0E000000 		.4byte	.LVL146
 6073 06eb 0100     		.2byte	0x1
 6074 06ed 50       		.byte	0x50
ARM GAS  C:\Users\JamesN4\AppData\Local\Temp\ccgbGPCH.s 			page 134


 6075 06ee 0E000000 		.4byte	.LVL146
 6076 06f2 2E000000 		.4byte	.LVL151
 6077 06f6 0100     		.2byte	0x1
 6078 06f8 56       		.byte	0x56
 6079 06f9 2E000000 		.4byte	.LVL151
 6080 06fd 4C000000 		.4byte	.LFE35
 6081 0701 0400     		.2byte	0x4
 6082 0703 F3       		.byte	0xf3
 6083 0704 01       		.uleb128 0x1
 6084 0705 50       		.byte	0x50
 6085 0706 9F       		.byte	0x9f
 6086 0707 00000000 		.4byte	0
 6087 070b 00000000 		.4byte	0
 6088              	.LLST43:
 6089 070f 00000000 		.4byte	.LVL145
 6090 0713 11000000 		.4byte	.LVL147-1
 6091 0717 0100     		.2byte	0x1
 6092 0719 51       		.byte	0x51
 6093 071a 11000000 		.4byte	.LVL147-1
 6094 071e 30000000 		.4byte	.LVL152
 6095 0722 0100     		.2byte	0x1
 6096 0724 54       		.byte	0x54
 6097 0725 30000000 		.4byte	.LVL152
 6098 0729 4C000000 		.4byte	.LFE35
 6099 072d 0400     		.2byte	0x4
 6100 072f F3       		.byte	0xf3
 6101 0730 01       		.uleb128 0x1
 6102 0731 51       		.byte	0x51
 6103 0732 9F       		.byte	0x9f
 6104 0733 00000000 		.4byte	0
 6105 0737 00000000 		.4byte	0
 6106              	.LLST44:
 6107 073b 00000000 		.4byte	.LVL145
 6108 073f 11000000 		.4byte	.LVL147-1
 6109 0743 0100     		.2byte	0x1
 6110 0745 52       		.byte	0x52
 6111 0746 11000000 		.4byte	.LVL147-1
 6112 074a 40000000 		.4byte	.LVL154
 6113 074e 0100     		.2byte	0x1
 6114 0750 55       		.byte	0x55
 6115 0751 40000000 		.4byte	.LVL154
 6116 0755 4C000000 		.4byte	.LFE35
 6117 0759 0600     		.2byte	0x6
 6118 075b F3       		.byte	0xf3
 6119 075c 01       		.uleb128 0x1
 6120 075d 52       		.byte	0x52
 6121 075e 31       		.byte	0x31
 6122 075f 1C       		.byte	0x1c
 6123 0760 9F       		.byte	0x9f
 6124 0761 00000000 		.4byte	0
 6125 0765 00000000 		.4byte	0
 6126              	.LLST45:
 6127 0769 00000000 		.4byte	.LVL155
 6128 076d 0C000000 		.4byte	.LVL156
 6129 0771 0100     		.2byte	0x1
 6130 0773 50       		.byte	0x50
 6131 0774 0C000000 		.4byte	.LVL156
ARM GAS  C:\Users\JamesN4\AppData\Local\Temp\ccgbGPCH.s 			page 135


 6132 0778 1C000000 		.4byte	.LVL159
 6133 077c 0100     		.2byte	0x1
 6134 077e 55       		.byte	0x55
 6135 077f 1C000000 		.4byte	.LVL159
 6136 0783 34000000 		.4byte	.LFE36
 6137 0787 0400     		.2byte	0x4
 6138 0789 F3       		.byte	0xf3
 6139 078a 01       		.uleb128 0x1
 6140 078b 50       		.byte	0x50
 6141 078c 9F       		.byte	0x9f
 6142 078d 00000000 		.4byte	0
 6143 0791 00000000 		.4byte	0
 6144              	.LLST46:
 6145 0795 00000000 		.4byte	.LVL155
 6146 0799 0F000000 		.4byte	.LVL157-1
 6147 079d 0100     		.2byte	0x1
 6148 079f 51       		.byte	0x51
 6149 07a0 0F000000 		.4byte	.LVL157-1
 6150 07a4 1E000000 		.4byte	.LVL160
 6151 07a8 0100     		.2byte	0x1
 6152 07aa 54       		.byte	0x54
 6153 07ab 1E000000 		.4byte	.LVL160
 6154 07af 34000000 		.4byte	.LFE36
 6155 07b3 0400     		.2byte	0x4
 6156 07b5 F3       		.byte	0xf3
 6157 07b6 01       		.uleb128 0x1
 6158 07b7 51       		.byte	0x51
 6159 07b8 9F       		.byte	0x9f
 6160 07b9 00000000 		.4byte	0
 6161 07bd 00000000 		.4byte	0
 6162              	.LLST47:
 6163 07c1 00000000 		.4byte	.LVL162
 6164 07c5 0E000000 		.4byte	.LVL163
 6165 07c9 0100     		.2byte	0x1
 6166 07cb 50       		.byte	0x50
 6167 07cc 0E000000 		.4byte	.LVL163
 6168 07d0 2A000000 		.4byte	.LVL167
 6169 07d4 0100     		.2byte	0x1
 6170 07d6 55       		.byte	0x55
 6171 07d7 2A000000 		.4byte	.LVL167
 6172 07db 48000000 		.4byte	.LFE37
 6173 07df 0400     		.2byte	0x4
 6174 07e1 F3       		.byte	0xf3
 6175 07e2 01       		.uleb128 0x1
 6176 07e3 50       		.byte	0x50
 6177 07e4 9F       		.byte	0x9f
 6178 07e5 00000000 		.4byte	0
 6179 07e9 00000000 		.4byte	0
 6180              	.LLST48:
 6181 07ed 00000000 		.4byte	.LVL162
 6182 07f1 11000000 		.4byte	.LVL164-1
 6183 07f5 0100     		.2byte	0x1
 6184 07f7 51       		.byte	0x51
 6185 07f8 11000000 		.4byte	.LVL164-1
 6186 07fc 2C000000 		.4byte	.LVL168
 6187 0800 0100     		.2byte	0x1
 6188 0802 54       		.byte	0x54
ARM GAS  C:\Users\JamesN4\AppData\Local\Temp\ccgbGPCH.s 			page 136


 6189 0803 2C000000 		.4byte	.LVL168
 6190 0807 48000000 		.4byte	.LFE37
 6191 080b 0400     		.2byte	0x4
 6192 080d F3       		.byte	0xf3
 6193 080e 01       		.uleb128 0x1
 6194 080f 51       		.byte	0x51
 6195 0810 9F       		.byte	0x9f
 6196 0811 00000000 		.4byte	0
 6197 0815 00000000 		.4byte	0
 6198              	.LLST49:
 6199 0819 00000000 		.4byte	.LVL162
 6200 081d 11000000 		.4byte	.LVL164-1
 6201 0821 0100     		.2byte	0x1
 6202 0823 52       		.byte	0x52
 6203 0824 11000000 		.4byte	.LVL164-1
 6204 0828 3E000000 		.4byte	.LVL171
 6205 082c 0100     		.2byte	0x1
 6206 082e 56       		.byte	0x56
 6207 082f 3E000000 		.4byte	.LVL171
 6208 0833 48000000 		.4byte	.LFE37
 6209 0837 0400     		.2byte	0x4
 6210 0839 F3       		.byte	0xf3
 6211 083a 01       		.uleb128 0x1
 6212 083b 52       		.byte	0x52
 6213 083c 9F       		.byte	0x9f
 6214 083d 00000000 		.4byte	0
 6215 0841 00000000 		.4byte	0
 6216              	.LLST50:
 6217 0845 3A000000 		.4byte	.LVL169
 6218 0849 3C000000 		.4byte	.LVL170
 6219 084d 0100     		.2byte	0x1
 6220 084f 52       		.byte	0x52
 6221 0850 00000000 		.4byte	0
 6222 0854 00000000 		.4byte	0
 6223              	.LLST51:
 6224 0858 00000000 		.4byte	.LVL172
 6225 085c 0C000000 		.4byte	.LVL173
 6226 0860 0100     		.2byte	0x1
 6227 0862 50       		.byte	0x50
 6228 0863 0C000000 		.4byte	.LVL173
 6229 0867 1C000000 		.4byte	.LVL176
 6230 086b 0100     		.2byte	0x1
 6231 086d 55       		.byte	0x55
 6232 086e 1C000000 		.4byte	.LVL176
 6233 0872 34000000 		.4byte	.LFE38
 6234 0876 0400     		.2byte	0x4
 6235 0878 F3       		.byte	0xf3
 6236 0879 01       		.uleb128 0x1
 6237 087a 50       		.byte	0x50
 6238 087b 9F       		.byte	0x9f
 6239 087c 00000000 		.4byte	0
 6240 0880 00000000 		.4byte	0
 6241              	.LLST52:
 6242 0884 00000000 		.4byte	.LVL172
 6243 0888 0F000000 		.4byte	.LVL174-1
 6244 088c 0100     		.2byte	0x1
 6245 088e 51       		.byte	0x51
ARM GAS  C:\Users\JamesN4\AppData\Local\Temp\ccgbGPCH.s 			page 137


 6246 088f 0F000000 		.4byte	.LVL174-1
 6247 0893 1E000000 		.4byte	.LVL177
 6248 0897 0100     		.2byte	0x1
 6249 0899 54       		.byte	0x54
 6250 089a 1E000000 		.4byte	.LVL177
 6251 089e 34000000 		.4byte	.LFE38
 6252 08a2 0400     		.2byte	0x4
 6253 08a4 F3       		.byte	0xf3
 6254 08a5 01       		.uleb128 0x1
 6255 08a6 51       		.byte	0x51
 6256 08a7 9F       		.byte	0x9f
 6257 08a8 00000000 		.4byte	0
 6258 08ac 00000000 		.4byte	0
 6259              	.LLST53:
 6260 08b0 00000000 		.4byte	.LVL178
 6261 08b4 0E000000 		.4byte	.LVL179
 6262 08b8 0100     		.2byte	0x1
 6263 08ba 50       		.byte	0x50
 6264 08bb 0E000000 		.4byte	.LVL179
 6265 08bf 2A000000 		.4byte	.LVL183
 6266 08c3 0100     		.2byte	0x1
 6267 08c5 55       		.byte	0x55
 6268 08c6 2A000000 		.4byte	.LVL183
 6269 08ca 48000000 		.4byte	.LFE39
 6270 08ce 0400     		.2byte	0x4
 6271 08d0 F3       		.byte	0xf3
 6272 08d1 01       		.uleb128 0x1
 6273 08d2 50       		.byte	0x50
 6274 08d3 9F       		.byte	0x9f
 6275 08d4 00000000 		.4byte	0
 6276 08d8 00000000 		.4byte	0
 6277              	.LLST54:
 6278 08dc 00000000 		.4byte	.LVL178
 6279 08e0 11000000 		.4byte	.LVL180-1
 6280 08e4 0100     		.2byte	0x1
 6281 08e6 51       		.byte	0x51
 6282 08e7 11000000 		.4byte	.LVL180-1
 6283 08eb 2C000000 		.4byte	.LVL184
 6284 08ef 0100     		.2byte	0x1
 6285 08f1 54       		.byte	0x54
 6286 08f2 2C000000 		.4byte	.LVL184
 6287 08f6 48000000 		.4byte	.LFE39
 6288 08fa 0400     		.2byte	0x4
 6289 08fc F3       		.byte	0xf3
 6290 08fd 01       		.uleb128 0x1
 6291 08fe 51       		.byte	0x51
 6292 08ff 9F       		.byte	0x9f
 6293 0900 00000000 		.4byte	0
 6294 0904 00000000 		.4byte	0
 6295              	.LLST55:
 6296 0908 00000000 		.4byte	.LVL178
 6297 090c 11000000 		.4byte	.LVL180-1
 6298 0910 0100     		.2byte	0x1
 6299 0912 52       		.byte	0x52
 6300 0913 11000000 		.4byte	.LVL180-1
 6301 0917 3E000000 		.4byte	.LVL187
 6302 091b 0100     		.2byte	0x1
ARM GAS  C:\Users\JamesN4\AppData\Local\Temp\ccgbGPCH.s 			page 138


 6303 091d 56       		.byte	0x56
 6304 091e 3E000000 		.4byte	.LVL187
 6305 0922 48000000 		.4byte	.LFE39
 6306 0926 0400     		.2byte	0x4
 6307 0928 F3       		.byte	0xf3
 6308 0929 01       		.uleb128 0x1
 6309 092a 52       		.byte	0x52
 6310 092b 9F       		.byte	0x9f
 6311 092c 00000000 		.4byte	0
 6312 0930 00000000 		.4byte	0
 6313              	.LLST56:
 6314 0934 3A000000 		.4byte	.LVL185
 6315 0938 3C000000 		.4byte	.LVL186
 6316 093c 0100     		.2byte	0x1
 6317 093e 52       		.byte	0x52
 6318 093f 00000000 		.4byte	0
 6319 0943 00000000 		.4byte	0
 6320              	.LLST57:
 6321 0947 00000000 		.4byte	.LVL188
 6322 094b 0C000000 		.4byte	.LVL189
 6323 094f 0100     		.2byte	0x1
 6324 0951 50       		.byte	0x50
 6325 0952 0C000000 		.4byte	.LVL189
 6326 0956 1C000000 		.4byte	.LVL192
 6327 095a 0100     		.2byte	0x1
 6328 095c 55       		.byte	0x55
 6329 095d 1C000000 		.4byte	.LVL192
 6330 0961 34000000 		.4byte	.LFE40
 6331 0965 0400     		.2byte	0x4
 6332 0967 F3       		.byte	0xf3
 6333 0968 01       		.uleb128 0x1
 6334 0969 50       		.byte	0x50
 6335 096a 9F       		.byte	0x9f
 6336 096b 00000000 		.4byte	0
 6337 096f 00000000 		.4byte	0
 6338              	.LLST58:
 6339 0973 00000000 		.4byte	.LVL188
 6340 0977 0F000000 		.4byte	.LVL190-1
 6341 097b 0100     		.2byte	0x1
 6342 097d 51       		.byte	0x51
 6343 097e 0F000000 		.4byte	.LVL190-1
 6344 0982 1E000000 		.4byte	.LVL193
 6345 0986 0100     		.2byte	0x1
 6346 0988 54       		.byte	0x54
 6347 0989 1E000000 		.4byte	.LVL193
 6348 098d 34000000 		.4byte	.LFE40
 6349 0991 0400     		.2byte	0x4
 6350 0993 F3       		.byte	0xf3
 6351 0994 01       		.uleb128 0x1
 6352 0995 51       		.byte	0x51
 6353 0996 9F       		.byte	0x9f
 6354 0997 00000000 		.4byte	0
 6355 099b 00000000 		.4byte	0
 6356              	.LLST59:
 6357 099f 00000000 		.4byte	.LVL194
 6358 09a3 0E000000 		.4byte	.LVL195
 6359 09a7 0100     		.2byte	0x1
ARM GAS  C:\Users\JamesN4\AppData\Local\Temp\ccgbGPCH.s 			page 139


 6360 09a9 50       		.byte	0x50
 6361 09aa 0E000000 		.4byte	.LVL195
 6362 09ae 2A000000 		.4byte	.LVL199
 6363 09b2 0100     		.2byte	0x1
 6364 09b4 55       		.byte	0x55
 6365 09b5 2A000000 		.4byte	.LVL199
 6366 09b9 48000000 		.4byte	.LFE41
 6367 09bd 0400     		.2byte	0x4
 6368 09bf F3       		.byte	0xf3
 6369 09c0 01       		.uleb128 0x1
 6370 09c1 50       		.byte	0x50
 6371 09c2 9F       		.byte	0x9f
 6372 09c3 00000000 		.4byte	0
 6373 09c7 00000000 		.4byte	0
 6374              	.LLST60:
 6375 09cb 00000000 		.4byte	.LVL194
 6376 09cf 11000000 		.4byte	.LVL196-1
 6377 09d3 0100     		.2byte	0x1
 6378 09d5 51       		.byte	0x51
 6379 09d6 11000000 		.4byte	.LVL196-1
 6380 09da 2C000000 		.4byte	.LVL200
 6381 09de 0100     		.2byte	0x1
 6382 09e0 54       		.byte	0x54
 6383 09e1 2C000000 		.4byte	.LVL200
 6384 09e5 48000000 		.4byte	.LFE41
 6385 09e9 0400     		.2byte	0x4
 6386 09eb F3       		.byte	0xf3
 6387 09ec 01       		.uleb128 0x1
 6388 09ed 51       		.byte	0x51
 6389 09ee 9F       		.byte	0x9f
 6390 09ef 00000000 		.4byte	0
 6391 09f3 00000000 		.4byte	0
 6392              	.LLST61:
 6393 09f7 00000000 		.4byte	.LVL194
 6394 09fb 11000000 		.4byte	.LVL196-1
 6395 09ff 0100     		.2byte	0x1
 6396 0a01 52       		.byte	0x52
 6397 0a02 11000000 		.4byte	.LVL196-1
 6398 0a06 3E000000 		.4byte	.LVL203
 6399 0a0a 0100     		.2byte	0x1
 6400 0a0c 56       		.byte	0x56
 6401 0a0d 3E000000 		.4byte	.LVL203
 6402 0a11 48000000 		.4byte	.LFE41
 6403 0a15 0400     		.2byte	0x4
 6404 0a17 F3       		.byte	0xf3
 6405 0a18 01       		.uleb128 0x1
 6406 0a19 52       		.byte	0x52
 6407 0a1a 9F       		.byte	0x9f
 6408 0a1b 00000000 		.4byte	0
 6409 0a1f 00000000 		.4byte	0
 6410              	.LLST62:
 6411 0a23 3A000000 		.4byte	.LVL201
 6412 0a27 3C000000 		.4byte	.LVL202
 6413 0a2b 0100     		.2byte	0x1
 6414 0a2d 52       		.byte	0x52
 6415 0a2e 00000000 		.4byte	0
 6416 0a32 00000000 		.4byte	0
ARM GAS  C:\Users\JamesN4\AppData\Local\Temp\ccgbGPCH.s 			page 140


 6417              	.LLST63:
 6418 0a36 00000000 		.4byte	.LVL204
 6419 0a3a 0C000000 		.4byte	.LVL205
 6420 0a3e 0100     		.2byte	0x1
 6421 0a40 50       		.byte	0x50
 6422 0a41 0C000000 		.4byte	.LVL205
 6423 0a45 1C000000 		.4byte	.LVL208
 6424 0a49 0100     		.2byte	0x1
 6425 0a4b 55       		.byte	0x55
 6426 0a4c 1C000000 		.4byte	.LVL208
 6427 0a50 34000000 		.4byte	.LFE42
 6428 0a54 0400     		.2byte	0x4
 6429 0a56 F3       		.byte	0xf3
 6430 0a57 01       		.uleb128 0x1
 6431 0a58 50       		.byte	0x50
 6432 0a59 9F       		.byte	0x9f
 6433 0a5a 00000000 		.4byte	0
 6434 0a5e 00000000 		.4byte	0
 6435              	.LLST64:
 6436 0a62 00000000 		.4byte	.LVL204
 6437 0a66 0F000000 		.4byte	.LVL206-1
 6438 0a6a 0100     		.2byte	0x1
 6439 0a6c 51       		.byte	0x51
 6440 0a6d 0F000000 		.4byte	.LVL206-1
 6441 0a71 1E000000 		.4byte	.LVL209
 6442 0a75 0100     		.2byte	0x1
 6443 0a77 54       		.byte	0x54
 6444 0a78 1E000000 		.4byte	.LVL209
 6445 0a7c 34000000 		.4byte	.LFE42
 6446 0a80 0400     		.2byte	0x4
 6447 0a82 F3       		.byte	0xf3
 6448 0a83 01       		.uleb128 0x1
 6449 0a84 51       		.byte	0x51
 6450 0a85 9F       		.byte	0x9f
 6451 0a86 00000000 		.4byte	0
 6452 0a8a 00000000 		.4byte	0
 6453              	.LLST65:
 6454 0a8e 00000000 		.4byte	.LVL210
 6455 0a92 0E000000 		.4byte	.LVL211
 6456 0a96 0100     		.2byte	0x1
 6457 0a98 50       		.byte	0x50
 6458 0a99 0E000000 		.4byte	.LVL211
 6459 0a9d 28000000 		.4byte	.LVL215
 6460 0aa1 0100     		.2byte	0x1
 6461 0aa3 56       		.byte	0x56
 6462 0aa4 28000000 		.4byte	.LVL215
 6463 0aa8 44000000 		.4byte	.LFE43
 6464 0aac 0400     		.2byte	0x4
 6465 0aae F3       		.byte	0xf3
 6466 0aaf 01       		.uleb128 0x1
 6467 0ab0 50       		.byte	0x50
 6468 0ab1 9F       		.byte	0x9f
 6469 0ab2 00000000 		.4byte	0
 6470 0ab6 00000000 		.4byte	0
 6471              	.LLST66:
 6472 0aba 00000000 		.4byte	.LVL210
 6473 0abe 11000000 		.4byte	.LVL212-1
ARM GAS  C:\Users\JamesN4\AppData\Local\Temp\ccgbGPCH.s 			page 141


 6474 0ac2 0100     		.2byte	0x1
 6475 0ac4 51       		.byte	0x51
 6476 0ac5 11000000 		.4byte	.LVL212-1
 6477 0ac9 2A000000 		.4byte	.LVL216
 6478 0acd 0100     		.2byte	0x1
 6479 0acf 54       		.byte	0x54
 6480 0ad0 2A000000 		.4byte	.LVL216
 6481 0ad4 44000000 		.4byte	.LFE43
 6482 0ad8 0400     		.2byte	0x4
 6483 0ada F3       		.byte	0xf3
 6484 0adb 01       		.uleb128 0x1
 6485 0adc 51       		.byte	0x51
 6486 0add 9F       		.byte	0x9f
 6487 0ade 00000000 		.4byte	0
 6488 0ae2 00000000 		.4byte	0
 6489              	.LLST67:
 6490 0ae6 00000000 		.4byte	.LVL210
 6491 0aea 11000000 		.4byte	.LVL212-1
 6492 0aee 0100     		.2byte	0x1
 6493 0af0 52       		.byte	0x52
 6494 0af1 11000000 		.4byte	.LVL212-1
 6495 0af5 3C000000 		.4byte	.LVL219
 6496 0af9 0100     		.2byte	0x1
 6497 0afb 55       		.byte	0x55
 6498 0afc 3C000000 		.4byte	.LVL219
 6499 0b00 44000000 		.4byte	.LFE43
 6500 0b04 0400     		.2byte	0x4
 6501 0b06 F3       		.byte	0xf3
 6502 0b07 01       		.uleb128 0x1
 6503 0b08 52       		.byte	0x52
 6504 0b09 9F       		.byte	0x9f
 6505 0b0a 00000000 		.4byte	0
 6506 0b0e 00000000 		.4byte	0
 6507              	.LLST68:
 6508 0b12 38000000 		.4byte	.LVL217
 6509 0b16 3A000000 		.4byte	.LVL218
 6510 0b1a 0100     		.2byte	0x1
 6511 0b1c 52       		.byte	0x52
 6512 0b1d 00000000 		.4byte	0
 6513 0b21 00000000 		.4byte	0
 6514              	.LLST69:
 6515 0b25 00000000 		.4byte	.LVL220
 6516 0b29 0C000000 		.4byte	.LVL221
 6517 0b2d 0100     		.2byte	0x1
 6518 0b2f 50       		.byte	0x50
 6519 0b30 0C000000 		.4byte	.LVL221
 6520 0b34 1C000000 		.4byte	.LVL224
 6521 0b38 0100     		.2byte	0x1
 6522 0b3a 55       		.byte	0x55
 6523 0b3b 1C000000 		.4byte	.LVL224
 6524 0b3f 34000000 		.4byte	.LFE44
 6525 0b43 0400     		.2byte	0x4
 6526 0b45 F3       		.byte	0xf3
 6527 0b46 01       		.uleb128 0x1
 6528 0b47 50       		.byte	0x50
 6529 0b48 9F       		.byte	0x9f
 6530 0b49 00000000 		.4byte	0
ARM GAS  C:\Users\JamesN4\AppData\Local\Temp\ccgbGPCH.s 			page 142


 6531 0b4d 00000000 		.4byte	0
 6532              	.LLST70:
 6533 0b51 00000000 		.4byte	.LVL220
 6534 0b55 0F000000 		.4byte	.LVL222-1
 6535 0b59 0100     		.2byte	0x1
 6536 0b5b 51       		.byte	0x51
 6537 0b5c 0F000000 		.4byte	.LVL222-1
 6538 0b60 1E000000 		.4byte	.LVL225
 6539 0b64 0100     		.2byte	0x1
 6540 0b66 54       		.byte	0x54
 6541 0b67 1E000000 		.4byte	.LVL225
 6542 0b6b 34000000 		.4byte	.LFE44
 6543 0b6f 0400     		.2byte	0x4
 6544 0b71 F3       		.byte	0xf3
 6545 0b72 01       		.uleb128 0x1
 6546 0b73 51       		.byte	0x51
 6547 0b74 9F       		.byte	0x9f
 6548 0b75 00000000 		.4byte	0
 6549 0b79 00000000 		.4byte	0
 6550              	.LLST71:
 6551 0b7d 00000000 		.4byte	.LVL226
 6552 0b81 0E000000 		.4byte	.LVL227
 6553 0b85 0100     		.2byte	0x1
 6554 0b87 50       		.byte	0x50
 6555 0b88 0E000000 		.4byte	.LVL227
 6556 0b8c 2A000000 		.4byte	.LVL231
 6557 0b90 0100     		.2byte	0x1
 6558 0b92 55       		.byte	0x55
 6559 0b93 2A000000 		.4byte	.LVL231
 6560 0b97 48000000 		.4byte	.LFE45
 6561 0b9b 0400     		.2byte	0x4
 6562 0b9d F3       		.byte	0xf3
 6563 0b9e 01       		.uleb128 0x1
 6564 0b9f 50       		.byte	0x50
 6565 0ba0 9F       		.byte	0x9f
 6566 0ba1 00000000 		.4byte	0
 6567 0ba5 00000000 		.4byte	0
 6568              	.LLST72:
 6569 0ba9 00000000 		.4byte	.LVL226
 6570 0bad 11000000 		.4byte	.LVL228-1
 6571 0bb1 0100     		.2byte	0x1
 6572 0bb3 51       		.byte	0x51
 6573 0bb4 11000000 		.4byte	.LVL228-1
 6574 0bb8 2C000000 		.4byte	.LVL232
 6575 0bbc 0100     		.2byte	0x1
 6576 0bbe 54       		.byte	0x54
 6577 0bbf 2C000000 		.4byte	.LVL232
 6578 0bc3 48000000 		.4byte	.LFE45
 6579 0bc7 0400     		.2byte	0x4
 6580 0bc9 F3       		.byte	0xf3
 6581 0bca 01       		.uleb128 0x1
 6582 0bcb 51       		.byte	0x51
 6583 0bcc 9F       		.byte	0x9f
 6584 0bcd 00000000 		.4byte	0
 6585 0bd1 00000000 		.4byte	0
 6586              	.LLST73:
 6587 0bd5 00000000 		.4byte	.LVL226
ARM GAS  C:\Users\JamesN4\AppData\Local\Temp\ccgbGPCH.s 			page 143


 6588 0bd9 11000000 		.4byte	.LVL228-1
 6589 0bdd 0100     		.2byte	0x1
 6590 0bdf 52       		.byte	0x52
 6591 0be0 11000000 		.4byte	.LVL228-1
 6592 0be4 3E000000 		.4byte	.LVL235
 6593 0be8 0100     		.2byte	0x1
 6594 0bea 56       		.byte	0x56
 6595 0beb 3E000000 		.4byte	.LVL235
 6596 0bef 48000000 		.4byte	.LFE45
 6597 0bf3 0400     		.2byte	0x4
 6598 0bf5 F3       		.byte	0xf3
 6599 0bf6 01       		.uleb128 0x1
 6600 0bf7 52       		.byte	0x52
 6601 0bf8 9F       		.byte	0x9f
 6602 0bf9 00000000 		.4byte	0
 6603 0bfd 00000000 		.4byte	0
 6604              	.LLST74:
 6605 0c01 3A000000 		.4byte	.LVL233
 6606 0c05 3C000000 		.4byte	.LVL234
 6607 0c09 0100     		.2byte	0x1
 6608 0c0b 52       		.byte	0x52
 6609 0c0c 00000000 		.4byte	0
 6610 0c10 00000000 		.4byte	0
 6611              	.LLST75:
 6612 0c14 00000000 		.4byte	.LVL236
 6613 0c18 0C000000 		.4byte	.LVL237
 6614 0c1c 0100     		.2byte	0x1
 6615 0c1e 50       		.byte	0x50
 6616 0c1f 0C000000 		.4byte	.LVL237
 6617 0c23 1C000000 		.4byte	.LVL240
 6618 0c27 0100     		.2byte	0x1
 6619 0c29 55       		.byte	0x55
 6620 0c2a 1C000000 		.4byte	.LVL240
 6621 0c2e 34000000 		.4byte	.LFE46
 6622 0c32 0400     		.2byte	0x4
 6623 0c34 F3       		.byte	0xf3
 6624 0c35 01       		.uleb128 0x1
 6625 0c36 50       		.byte	0x50
 6626 0c37 9F       		.byte	0x9f
 6627 0c38 00000000 		.4byte	0
 6628 0c3c 00000000 		.4byte	0
 6629              	.LLST76:
 6630 0c40 00000000 		.4byte	.LVL236
 6631 0c44 0F000000 		.4byte	.LVL238-1
 6632 0c48 0100     		.2byte	0x1
 6633 0c4a 51       		.byte	0x51
 6634 0c4b 0F000000 		.4byte	.LVL238-1
 6635 0c4f 1E000000 		.4byte	.LVL241
 6636 0c53 0100     		.2byte	0x1
 6637 0c55 54       		.byte	0x54
 6638 0c56 1E000000 		.4byte	.LVL241
 6639 0c5a 34000000 		.4byte	.LFE46
 6640 0c5e 0400     		.2byte	0x4
 6641 0c60 F3       		.byte	0xf3
 6642 0c61 01       		.uleb128 0x1
 6643 0c62 51       		.byte	0x51
 6644 0c63 9F       		.byte	0x9f
ARM GAS  C:\Users\JamesN4\AppData\Local\Temp\ccgbGPCH.s 			page 144


 6645 0c64 00000000 		.4byte	0
 6646 0c68 00000000 		.4byte	0
 6647              	.LLST77:
 6648 0c6c 00000000 		.4byte	.LVL242
 6649 0c70 0E000000 		.4byte	.LVL243
 6650 0c74 0100     		.2byte	0x1
 6651 0c76 50       		.byte	0x50
 6652 0c77 0E000000 		.4byte	.LVL243
 6653 0c7b 2A000000 		.4byte	.LVL247
 6654 0c7f 0100     		.2byte	0x1
 6655 0c81 55       		.byte	0x55
 6656 0c82 2A000000 		.4byte	.LVL247
 6657 0c86 48000000 		.4byte	.LFE47
 6658 0c8a 0400     		.2byte	0x4
 6659 0c8c F3       		.byte	0xf3
 6660 0c8d 01       		.uleb128 0x1
 6661 0c8e 50       		.byte	0x50
 6662 0c8f 9F       		.byte	0x9f
 6663 0c90 00000000 		.4byte	0
 6664 0c94 00000000 		.4byte	0
 6665              	.LLST78:
 6666 0c98 00000000 		.4byte	.LVL242
 6667 0c9c 11000000 		.4byte	.LVL244-1
 6668 0ca0 0100     		.2byte	0x1
 6669 0ca2 51       		.byte	0x51
 6670 0ca3 11000000 		.4byte	.LVL244-1
 6671 0ca7 2C000000 		.4byte	.LVL248
 6672 0cab 0100     		.2byte	0x1
 6673 0cad 54       		.byte	0x54
 6674 0cae 2C000000 		.4byte	.LVL248
 6675 0cb2 48000000 		.4byte	.LFE47
 6676 0cb6 0400     		.2byte	0x4
 6677 0cb8 F3       		.byte	0xf3
 6678 0cb9 01       		.uleb128 0x1
 6679 0cba 51       		.byte	0x51
 6680 0cbb 9F       		.byte	0x9f
 6681 0cbc 00000000 		.4byte	0
 6682 0cc0 00000000 		.4byte	0
 6683              	.LLST79:
 6684 0cc4 00000000 		.4byte	.LVL242
 6685 0cc8 11000000 		.4byte	.LVL244-1
 6686 0ccc 0100     		.2byte	0x1
 6687 0cce 52       		.byte	0x52
 6688 0ccf 11000000 		.4byte	.LVL244-1
 6689 0cd3 3E000000 		.4byte	.LVL251
 6690 0cd7 0100     		.2byte	0x1
 6691 0cd9 56       		.byte	0x56
 6692 0cda 3E000000 		.4byte	.LVL251
 6693 0cde 48000000 		.4byte	.LFE47
 6694 0ce2 0400     		.2byte	0x4
 6695 0ce4 F3       		.byte	0xf3
 6696 0ce5 01       		.uleb128 0x1
 6697 0ce6 52       		.byte	0x52
 6698 0ce7 9F       		.byte	0x9f
 6699 0ce8 00000000 		.4byte	0
 6700 0cec 00000000 		.4byte	0
 6701              	.LLST80:
ARM GAS  C:\Users\JamesN4\AppData\Local\Temp\ccgbGPCH.s 			page 145


 6702 0cf0 3A000000 		.4byte	.LVL249
 6703 0cf4 3C000000 		.4byte	.LVL250
 6704 0cf8 0100     		.2byte	0x1
 6705 0cfa 52       		.byte	0x52
 6706 0cfb 00000000 		.4byte	0
 6707 0cff 00000000 		.4byte	0
 6708              	.LLST81:
 6709 0d03 00000000 		.4byte	.LVL252
 6710 0d07 0C000000 		.4byte	.LVL253
 6711 0d0b 0100     		.2byte	0x1
 6712 0d0d 50       		.byte	0x50
 6713 0d0e 0C000000 		.4byte	.LVL253
 6714 0d12 1C000000 		.4byte	.LVL256
 6715 0d16 0100     		.2byte	0x1
 6716 0d18 55       		.byte	0x55
 6717 0d19 1C000000 		.4byte	.LVL256
 6718 0d1d 34000000 		.4byte	.LFE48
 6719 0d21 0400     		.2byte	0x4
 6720 0d23 F3       		.byte	0xf3
 6721 0d24 01       		.uleb128 0x1
 6722 0d25 50       		.byte	0x50
 6723 0d26 9F       		.byte	0x9f
 6724 0d27 00000000 		.4byte	0
 6725 0d2b 00000000 		.4byte	0
 6726              	.LLST82:
 6727 0d2f 00000000 		.4byte	.LVL252
 6728 0d33 0F000000 		.4byte	.LVL254-1
 6729 0d37 0100     		.2byte	0x1
 6730 0d39 51       		.byte	0x51
 6731 0d3a 0F000000 		.4byte	.LVL254-1
 6732 0d3e 1E000000 		.4byte	.LVL257
 6733 0d42 0100     		.2byte	0x1
 6734 0d44 54       		.byte	0x54
 6735 0d45 1E000000 		.4byte	.LVL257
 6736 0d49 34000000 		.4byte	.LFE48
 6737 0d4d 0400     		.2byte	0x4
 6738 0d4f F3       		.byte	0xf3
 6739 0d50 01       		.uleb128 0x1
 6740 0d51 51       		.byte	0x51
 6741 0d52 9F       		.byte	0x9f
 6742 0d53 00000000 		.4byte	0
 6743 0d57 00000000 		.4byte	0
 6744              		.section	.debug_aranges,"",%progbits
 6745 0000 94010000 		.4byte	0x194
 6746 0004 0200     		.2byte	0x2
 6747 0006 00000000 		.4byte	.Ldebug_info0
 6748 000a 04       		.byte	0x4
 6749 000b 00       		.byte	0
 6750 000c 0000     		.2byte	0
 6751 000e 0000     		.2byte	0
 6752 0010 00000000 		.4byte	.LFB15
 6753 0014 30000000 		.4byte	.LFE15-.LFB15
 6754 0018 00000000 		.4byte	.LFB16
 6755 001c 0A000000 		.4byte	.LFE16-.LFB16
 6756 0020 00000000 		.4byte	.LFB2
 6757 0024 10000000 		.4byte	.LFE2-.LFB2
 6758 0028 00000000 		.4byte	.LFB3
ARM GAS  C:\Users\JamesN4\AppData\Local\Temp\ccgbGPCH.s 			page 146


 6759 002c 0C000000 		.4byte	.LFE3-.LFB3
 6760 0030 00000000 		.4byte	.LFB4
 6761 0034 0C000000 		.4byte	.LFE4-.LFB4
 6762 0038 00000000 		.4byte	.LFB5
 6763 003c 0C000000 		.4byte	.LFE5-.LFB5
 6764 0040 00000000 		.4byte	.LFB6
 6765 0044 0C000000 		.4byte	.LFE6-.LFB6
 6766 0048 00000000 		.4byte	.LFB7
 6767 004c 0C000000 		.4byte	.LFE7-.LFB7
 6768 0050 00000000 		.4byte	.LFB1
 6769 0054 34000000 		.4byte	.LFE1-.LFB1
 6770 0058 00000000 		.4byte	.LFB8
 6771 005c 0C000000 		.4byte	.LFE8-.LFB8
 6772 0060 00000000 		.4byte	.LFB9
 6773 0064 0C000000 		.4byte	.LFE9-.LFB9
 6774 0068 00000000 		.4byte	.LFB10
 6775 006c 0C000000 		.4byte	.LFE10-.LFB10
 6776 0070 00000000 		.4byte	.LFB11
 6777 0074 0C000000 		.4byte	.LFE11-.LFB11
 6778 0078 00000000 		.4byte	.LFB12
 6779 007c 0C000000 		.4byte	.LFE12-.LFB12
 6780 0080 00000000 		.4byte	.LFB13
 6781 0084 20000000 		.4byte	.LFE13-.LFB13
 6782 0088 00000000 		.4byte	.LFB14
 6783 008c 1C000000 		.4byte	.LFE14-.LFB14
 6784 0090 00000000 		.4byte	.LFB17
 6785 0094 24000000 		.4byte	.LFE17-.LFB17
 6786 0098 00000000 		.4byte	.LFB18
 6787 009c 24000000 		.4byte	.LFE18-.LFB18
 6788 00a0 00000000 		.4byte	.LFB19
 6789 00a4 24000000 		.4byte	.LFE19-.LFB19
 6790 00a8 00000000 		.4byte	.LFB20
 6791 00ac 20000000 		.4byte	.LFE20-.LFB20
 6792 00b0 00000000 		.4byte	.LFB21
 6793 00b4 24000000 		.4byte	.LFE21-.LFB21
 6794 00b8 00000000 		.4byte	.LFB22
 6795 00bc 34000000 		.4byte	.LFE22-.LFB22
 6796 00c0 00000000 		.4byte	.LFB23
 6797 00c4 20000000 		.4byte	.LFE23-.LFB23
 6798 00c8 00000000 		.4byte	.LFB24
 6799 00cc 34000000 		.4byte	.LFE24-.LFB24
 6800 00d0 00000000 		.4byte	.LFB25
 6801 00d4 20000000 		.4byte	.LFE25-.LFB25
 6802 00d8 00000000 		.4byte	.LFB26
 6803 00dc E4000000 		.4byte	.LFE26-.LFB26
 6804 00e0 00000000 		.4byte	.LFB27
 6805 00e4 34000000 		.4byte	.LFE27-.LFB27
 6806 00e8 00000000 		.4byte	.LFB28
 6807 00ec 30000000 		.4byte	.LFE28-.LFB28
 6808 00f0 00000000 		.4byte	.LFB29
 6809 00f4 2C000000 		.4byte	.LFE29-.LFB29
 6810 00f8 00000000 		.4byte	.LFB30
 6811 00fc 2C000000 		.4byte	.LFE30-.LFB30
 6812 0100 00000000 		.4byte	.LFB31
 6813 0104 30000000 		.4byte	.LFE31-.LFB31
 6814 0108 00000000 		.4byte	.LFB32
 6815 010c 30000000 		.4byte	.LFE32-.LFB32
ARM GAS  C:\Users\JamesN4\AppData\Local\Temp\ccgbGPCH.s 			page 147


 6816 0110 00000000 		.4byte	.LFB33
 6817 0114 48000000 		.4byte	.LFE33-.LFB33
 6818 0118 00000000 		.4byte	.LFB34
 6819 011c 34000000 		.4byte	.LFE34-.LFB34
 6820 0120 00000000 		.4byte	.LFB35
 6821 0124 4C000000 		.4byte	.LFE35-.LFB35
 6822 0128 00000000 		.4byte	.LFB36
 6823 012c 34000000 		.4byte	.LFE36-.LFB36
 6824 0130 00000000 		.4byte	.LFB37
 6825 0134 48000000 		.4byte	.LFE37-.LFB37
 6826 0138 00000000 		.4byte	.LFB38
 6827 013c 34000000 		.4byte	.LFE38-.LFB38
 6828 0140 00000000 		.4byte	.LFB39
 6829 0144 48000000 		.4byte	.LFE39-.LFB39
 6830 0148 00000000 		.4byte	.LFB40
 6831 014c 34000000 		.4byte	.LFE40-.LFB40
 6832 0150 00000000 		.4byte	.LFB41
 6833 0154 48000000 		.4byte	.LFE41-.LFB41
 6834 0158 00000000 		.4byte	.LFB42
 6835 015c 34000000 		.4byte	.LFE42-.LFB42
 6836 0160 00000000 		.4byte	.LFB43
 6837 0164 44000000 		.4byte	.LFE43-.LFB43
 6838 0168 00000000 		.4byte	.LFB44
 6839 016c 34000000 		.4byte	.LFE44-.LFB44
 6840 0170 00000000 		.4byte	.LFB45
 6841 0174 48000000 		.4byte	.LFE45-.LFB45
 6842 0178 00000000 		.4byte	.LFB46
 6843 017c 34000000 		.4byte	.LFE46-.LFB46
 6844 0180 00000000 		.4byte	.LFB47
 6845 0184 48000000 		.4byte	.LFE47-.LFB47
 6846 0188 00000000 		.4byte	.LFB48
 6847 018c 34000000 		.4byte	.LFE48-.LFB48
 6848 0190 00000000 		.4byte	0
 6849 0194 00000000 		.4byte	0
 6850              		.section	.debug_ranges,"",%progbits
 6851              	.Ldebug_ranges0:
 6852 0000 00000000 		.4byte	.LFB15
 6853 0004 30000000 		.4byte	.LFE15
 6854 0008 00000000 		.4byte	.LFB16
 6855 000c 0A000000 		.4byte	.LFE16
 6856 0010 00000000 		.4byte	.LFB2
 6857 0014 10000000 		.4byte	.LFE2
 6858 0018 00000000 		.4byte	.LFB3
 6859 001c 0C000000 		.4byte	.LFE3
 6860 0020 00000000 		.4byte	.LFB4
 6861 0024 0C000000 		.4byte	.LFE4
 6862 0028 00000000 		.4byte	.LFB5
 6863 002c 0C000000 		.4byte	.LFE5
 6864 0030 00000000 		.4byte	.LFB6
 6865 0034 0C000000 		.4byte	.LFE6
 6866 0038 00000000 		.4byte	.LFB7
 6867 003c 0C000000 		.4byte	.LFE7
 6868 0040 00000000 		.4byte	.LFB1
 6869 0044 34000000 		.4byte	.LFE1
 6870 0048 00000000 		.4byte	.LFB8
 6871 004c 0C000000 		.4byte	.LFE8
 6872 0050 00000000 		.4byte	.LFB9
ARM GAS  C:\Users\JamesN4\AppData\Local\Temp\ccgbGPCH.s 			page 148


 6873 0054 0C000000 		.4byte	.LFE9
 6874 0058 00000000 		.4byte	.LFB10
 6875 005c 0C000000 		.4byte	.LFE10
 6876 0060 00000000 		.4byte	.LFB11
 6877 0064 0C000000 		.4byte	.LFE11
 6878 0068 00000000 		.4byte	.LFB12
 6879 006c 0C000000 		.4byte	.LFE12
 6880 0070 00000000 		.4byte	.LFB13
 6881 0074 20000000 		.4byte	.LFE13
 6882 0078 00000000 		.4byte	.LFB14
 6883 007c 1C000000 		.4byte	.LFE14
 6884 0080 00000000 		.4byte	.LFB17
 6885 0084 24000000 		.4byte	.LFE17
 6886 0088 00000000 		.4byte	.LFB18
 6887 008c 24000000 		.4byte	.LFE18
 6888 0090 00000000 		.4byte	.LFB19
 6889 0094 24000000 		.4byte	.LFE19
 6890 0098 00000000 		.4byte	.LFB20
 6891 009c 20000000 		.4byte	.LFE20
 6892 00a0 00000000 		.4byte	.LFB21
 6893 00a4 24000000 		.4byte	.LFE21
 6894 00a8 00000000 		.4byte	.LFB22
 6895 00ac 34000000 		.4byte	.LFE22
 6896 00b0 00000000 		.4byte	.LFB23
 6897 00b4 20000000 		.4byte	.LFE23
 6898 00b8 00000000 		.4byte	.LFB24
 6899 00bc 34000000 		.4byte	.LFE24
 6900 00c0 00000000 		.4byte	.LFB25
 6901 00c4 20000000 		.4byte	.LFE25
 6902 00c8 00000000 		.4byte	.LFB26
 6903 00cc E4000000 		.4byte	.LFE26
 6904 00d0 00000000 		.4byte	.LFB27
 6905 00d4 34000000 		.4byte	.LFE27
 6906 00d8 00000000 		.4byte	.LFB28
 6907 00dc 30000000 		.4byte	.LFE28
 6908 00e0 00000000 		.4byte	.LFB29
 6909 00e4 2C000000 		.4byte	.LFE29
 6910 00e8 00000000 		.4byte	.LFB30
 6911 00ec 2C000000 		.4byte	.LFE30
 6912 00f0 00000000 		.4byte	.LFB31
 6913 00f4 30000000 		.4byte	.LFE31
 6914 00f8 00000000 		.4byte	.LFB32
 6915 00fc 30000000 		.4byte	.LFE32
 6916 0100 00000000 		.4byte	.LFB33
 6917 0104 48000000 		.4byte	.LFE33
 6918 0108 00000000 		.4byte	.LFB34
 6919 010c 34000000 		.4byte	.LFE34
 6920 0110 00000000 		.4byte	.LFB35
 6921 0114 4C000000 		.4byte	.LFE35
 6922 0118 00000000 		.4byte	.LFB36
 6923 011c 34000000 		.4byte	.LFE36
 6924 0120 00000000 		.4byte	.LFB37
 6925 0124 48000000 		.4byte	.LFE37
 6926 0128 00000000 		.4byte	.LFB38
 6927 012c 34000000 		.4byte	.LFE38
 6928 0130 00000000 		.4byte	.LFB39
 6929 0134 48000000 		.4byte	.LFE39
ARM GAS  C:\Users\JamesN4\AppData\Local\Temp\ccgbGPCH.s 			page 149


 6930 0138 00000000 		.4byte	.LFB40
 6931 013c 34000000 		.4byte	.LFE40
 6932 0140 00000000 		.4byte	.LFB41
 6933 0144 48000000 		.4byte	.LFE41
 6934 0148 00000000 		.4byte	.LFB42
 6935 014c 34000000 		.4byte	.LFE42
 6936 0150 00000000 		.4byte	.LFB43
 6937 0154 44000000 		.4byte	.LFE43
 6938 0158 00000000 		.4byte	.LFB44
 6939 015c 34000000 		.4byte	.LFE44
 6940 0160 00000000 		.4byte	.LFB45
 6941 0164 48000000 		.4byte	.LFE45
 6942 0168 00000000 		.4byte	.LFB46
 6943 016c 34000000 		.4byte	.LFE46
 6944 0170 00000000 		.4byte	.LFB47
 6945 0174 48000000 		.4byte	.LFE47
 6946 0178 00000000 		.4byte	.LFB48
 6947 017c 34000000 		.4byte	.LFE48
 6948 0180 00000000 		.4byte	0
 6949 0184 00000000 		.4byte	0
 6950              		.section	.debug_line,"",%progbits
 6951              	.Ldebug_line0:
 6952 0000 4A060000 		.section	.debug_str,"MS",%progbits,1
 6952      02005800 
 6952      00000201 
 6952      FB0E0D00 
 6952      01010101 
 6953              	.LASF42:
 6954 0000 4379446D 		.ascii	"CyDmaSetInterruptVector\000"
 6954      61536574 
 6954      496E7465 
 6954      72727570 
 6954      74566563 
 6955              	.LASF78:
 6956 0018 4379446D 		.ascii	"CyDmaGetSrcAddress\000"
 6956      61476574 
 6956      53726341 
 6956      64647265 
 6956      737300
 6957              	.LASF39:
 6958 002b 4379446D 		.ascii	"CyDmaGetActiveSrcAddress\000"
 6958      61476574 
 6958      41637469 
 6958      76655372 
 6958      63416464 
 6959              	.LASF62:
 6960 0044 4379446D 		.ascii	"CyDmaChDisable\000"
 6960      61436844 
 6960      69736162 
 6960      6C6500
 6961              	.LASF79:
 6962 0053 4379446D 		.ascii	"CyDmaSetDstAddress\000"
 6962      61536574 
 6962      44737441 
 6962      64647265 
 6962      737300
 6963              	.LASF61:
ARM GAS  C:\Users\JamesN4\AppData\Local\Temp\ccgbGPCH.s 			page 150


 6964 0066 4379446D 		.ascii	"CyDmaChEnable\000"
 6964      61436845 
 6964      6E61626C 
 6964      6500
 6965              	.LASF105:
 6966 0074 474E5520 		.ascii	"GNU C11 5.4.1 20160609 (release) [ARM/embedded-5-br"
 6966      43313120 
 6966      352E342E 
 6966      31203230 
 6966      31363036 
 6967 00a7 616E6368 		.ascii	"anch revision 237715] -mcpu=cortex-m0 -mthumb -g -O"
 6967      20726576 
 6967      6973696F 
 6967      6E203233 
 6967      37373135 
 6968 00da 67202D66 		.ascii	"g -ffunction-sections -ffat-lto-objects\000"
 6968      66756E63 
 6968      74696F6E 
 6968      2D736563 
 6968      74696F6E 
 6969              	.LASF36:
 6970 0102 63624964 		.ascii	"cbIdx\000"
 6970      7800
 6971              	.LASF68:
 6972 0108 4379446D 		.ascii	"CyDmaGetPriority\000"
 6972      61476574 
 6972      5072696F 
 6972      72697479 
 6972      00
 6973              	.LASF7:
 6974 0119 6C6F6E67 		.ascii	"long long unsigned int\000"
 6974      206C6F6E 
 6974      6720756E 
 6974      7369676E 
 6974      65642069 
 6975              	.LASF47:
 6976 0130 696E7465 		.ascii	"interruptVector\000"
 6976      72727570 
 6976      74566563 
 6976      746F7200 
 6977              	.LASF72:
 6978 0140 4379446D 		.ascii	"CyDmaSetConfiguration\000"
 6978      61536574 
 6978      436F6E66 
 6978      69677572 
 6978      6174696F 
 6979              	.LASF64:
 6980 0156 74724374 		.ascii	"trCtlLut\000"
 6980      6C4C7574 
 6980      00
 6981              	.LASF6:
 6982 015f 6C6F6E67 		.ascii	"long long int\000"
 6982      206C6F6E 
 6982      6720696E 
 6982      7400
 6983              	.LASF0:
 6984 016d 7369676E 		.ascii	"signed char\000"
ARM GAS  C:\Users\JamesN4\AppData\Local\Temp\ccgbGPCH.s 			page 151


 6984      65642063 
 6984      68617200 
 6985              	.LASF85:
 6986 0179 4379446D 		.ascii	"CyDmaGetNumDataElements\000"
 6986      61476574 
 6986      4E756D44 
 6986      61746145 
 6986      6C656D65 
 6987              	.LASF11:
 6988 0191 696E7433 		.ascii	"int32\000"
 6988      3200
 6989              	.LASF70:
 6990 0197 4379446D 		.ascii	"CyDmaGetNextDescriptor\000"
 6990      61476574 
 6990      4E657874 
 6990      44657363 
 6990      72697074 
 6991              	.LASF4:
 6992 01ae 6C6F6E67 		.ascii	"long int\000"
 6992      20696E74 
 6992      00
 6993              	.LASF19:
 6994 01b7 6379646D 		.ascii	"cydma_channel_ctl_struct\000"
 6994      615F6368 
 6994      616E6E65 
 6994      6C5F6374 
 6994      6C5F7374 
 6995              	.LASF76:
 6996 01d0 4379446D 		.ascii	"CyDmaSetSrcAddress\000"
 6996      61536574 
 6996      53726341 
 6996      64647265 
 6996      737300
 6997              	.LASF44:
 6998 01e3 696E6974 		.ascii	"initIntrVector\000"
 6998      496E7472 
 6998      56656374 
 6998      6F7200
 6999              	.LASF56:
 7000 01f2 4379446D 		.ascii	"CyDmaGetInterruptCallback\000"
 7000      61476574 
 7000      496E7465 
 7000      72727570 
 7000      7443616C 
 7001              	.LASF25:
 7002 020c 6E756D44 		.ascii	"numDataElements\000"
 7002      61746145 
 7002      6C656D65 
 7002      6E747300 
 7003              	.LASF9:
 7004 021c 75696E74 		.ascii	"uint8\000"
 7004      3800
 7005              	.LASF109:
 7006 0222 4379446D 		.ascii	"CyDmaDisable\000"
 7006      61446973 
 7006      61626C65 
 7006      00
ARM GAS  C:\Users\JamesN4\AppData\Local\Temp\ccgbGPCH.s 			page 152


 7007              	.LASF60:
 7008 022f 72657375 		.ascii	"result\000"
 7008      6C7400
 7009              	.LASF13:
 7010 0236 646F7562 		.ascii	"double\000"
 7010      6C6500
 7011              	.LASF89:
 7012 023d 4379446D 		.ascii	"CyDmaGetSrcDstTransferWidth\000"
 7012      61476574 
 7012      53726344 
 7012      73745472 
 7012      616E7366 
 7013              	.LASF10:
 7014 0259 75696E74 		.ascii	"uint32\000"
 7014      333200
 7015              	.LASF28:
 7016 0260 74726967 		.ascii	"triggerType\000"
 7016      67657254 
 7016      79706500 
 7017              	.LASF54:
 7018 026c 70726576 		.ascii	"prevCallback\000"
 7018      43616C6C 
 7018      6261636B 
 7018      00
 7019              	.LASF67:
 7020 0279 72656756 		.ascii	"regValue\000"
 7020      616C7565 
 7020      00
 7021              	.LASF49:
 7022 0282 4379446D 		.ascii	"CyDmaSetInterruptSourceMask\000"
 7022      61536574 
 7022      496E7465 
 7022      72727570 
 7022      74536F75 
 7023              	.LASF32:
 7024 029e 6379646D 		.ascii	"cydma_init_struct\000"
 7024      615F696E 
 7024      69745F73 
 7024      74727563 
 7024      7400
 7025              	.LASF69:
 7026 02b0 4379446D 		.ascii	"CyDmaSetNextDescriptor\000"
 7026      61536574 
 7026      4E657874 
 7026      44657363 
 7026      72697074 
 7027              	.LASF29:
 7028 02c7 7472616E 		.ascii	"transferMode\000"
 7028      73666572 
 7028      4D6F6465 
 7028      00
 7029              	.LASF8:
 7030 02d4 756E7369 		.ascii	"unsigned int\000"
 7030      676E6564 
 7030      20696E74 
 7030      00
 7031              	.LASF38:
ARM GAS  C:\Users\JamesN4\AppData\Local\Temp\ccgbGPCH.s 			page 153


 7032 02e1 4379446D 		.ascii	"CyDmaGetActiveChannels\000"
 7032      61476574 
 7032      41637469 
 7032      76654368 
 7032      616E6E65 
 7033              	.LASF5:
 7034 02f8 6C6F6E67 		.ascii	"long unsigned int\000"
 7034      20756E73 
 7034      69676E65 
 7034      6420696E 
 7034      7400
 7035              	.LASF80:
 7036 030a 64737441 		.ascii	"dstAddress\000"
 7036      64647265 
 7036      737300
 7037              	.LASF3:
 7038 0315 73686F72 		.ascii	"short unsigned int\000"
 7038      7420756E 
 7038      7369676E 
 7038      65642069 
 7038      6E7400
 7039              	.LASF99:
 7040 0328 4379446D 		.ascii	"CyDmaGetPostCompletionActions\000"
 7040      61476574 
 7040      506F7374 
 7040      436F6D70 
 7040      6C657469 
 7041              	.LASF103:
 7042 0346 4379496E 		.ascii	"CyIntSetVector\000"
 7042      74536574 
 7042      56656374 
 7042      6F7200
 7043              	.LASF91:
 7044 0355 4379446D 		.ascii	"CyDmaGetAddressIncrement\000"
 7044      61476574 
 7044      41646472 
 7044      65737349 
 7044      6E637265 
 7045              	.LASF53:
 7046 036e 63616C6C 		.ascii	"callback\000"
 7046      6261636B 
 7046      00
 7047              	.LASF66:
 7048 0377 7072696F 		.ascii	"priority\000"
 7048      72697479 
 7048      00
 7049              	.LASF90:
 7050 0380 4379446D 		.ascii	"CyDmaSetAddressIncrement\000"
 7050      61536574 
 7050      41646472 
 7050      65737349 
 7050      6E637265 
 7051              	.LASF97:
 7052 0399 4379446D 		.ascii	"CyDmaGetPreemptable\000"
 7052      61476574 
 7052      50726565 
 7052      6D707461 
ARM GAS  C:\Users\JamesN4\AppData\Local\Temp\ccgbGPCH.s 			page 154


 7052      626C6500 
 7053              	.LASF104:
 7054 03ad 4379496E 		.ascii	"CyIntSetPriority\000"
 7054      74536574 
 7054      5072696F 
 7054      72697479 
 7054      00
 7055              	.LASF107:
 7056 03be 433A5C55 		.ascii	"C:\\Users\\JamesN4\\Documents\\PSoC Creator\\Hybrid"
 7056      73657273 
 7056      5C4A616D 
 7056      65734E34 
 7056      5C446F63 
 7057 03ec 456E636F 		.ascii	"EncoderCY8CKIT43\\firmware\\HybridEncoder.cydsn\000"
 7057      64657243 
 7057      5938434B 
 7057      49543433 
 7057      5C666972 
 7058              	.LASF16:
 7059 041a 72656733 		.ascii	"reg32\000"
 7059      3200
 7060              	.LASF95:
 7061 0420 4379446D 		.ascii	"CyDmaGetTransferMode\000"
 7061      61476574 
 7061      5472616E 
 7061      73666572 
 7061      4D6F6465 
 7062              	.LASF98:
 7063 0435 4379446D 		.ascii	"CyDmaSetPostCompletionActions\000"
 7063      61536574 
 7063      506F7374 
 7063      436F6D70 
 7063      6C657469 
 7064              	.LASF18:
 7065 0453 73697A65 		.ascii	"sizetype\000"
 7065      74797065 
 7065      00
 7066              	.LASF34:
 7067 045c 6C6F6E67 		.ascii	"long double\000"
 7067      20646F75 
 7067      626C6500 
 7068              	.LASF35:
 7069 0468 696E7472 		.ascii	"intr\000"
 7069      00
 7070              	.LASF108:
 7071 046d 4379446D 		.ascii	"CyDmaDefaultInterruptCallback\000"
 7071      61446566 
 7071      61756C74 
 7071      496E7465 
 7071      72727570 
 7072              	.LASF86:
 7073 048b 6E756D45 		.ascii	"numElements\000"
 7073      6C656D65 
 7073      6E747300 
 7074              	.LASF77:
 7075 0497 73726341 		.ascii	"srcAddress\000"
 7075      64647265 
ARM GAS  C:\Users\JamesN4\AppData\Local\Temp\ccgbGPCH.s 			page 155


 7075      737300
 7076              	.LASF75:
 7077 04a2 4379446D 		.ascii	"CyDmaGetDescriptorStatus\000"
 7077      61476574 
 7077      44657363 
 7077      72697074 
 7077      6F725374 
 7078              	.LASF55:
 7079 04bb 4379446D 		.ascii	"CyDmaSetInterruptCallback\000"
 7079      61536574 
 7079      496E7465 
 7079      72727570 
 7079      7443616C 
 7080              	.LASF45:
 7081 04d5 4379446D 		.ascii	"CyDmaGetInterruptSource\000"
 7081      61476574 
 7081      496E7465 
 7081      72727570 
 7081      74536F75 
 7082              	.LASF26:
 7083 04ed 73726344 		.ascii	"srcDstTransferWidth\000"
 7083      73745472 
 7083      616E7366 
 7083      65725769 
 7083      64746800 
 7084              	.LASF82:
 7085 0501 4379446D 		.ascii	"CyDmaSetDataElementSize\000"
 7085      61536574 
 7085      44617461 
 7085      456C656D 
 7085      656E7453 
 7086              	.LASF41:
 7087 0519 4379446D 		.ascii	"CyDmaInterrupt\000"
 7087      61496E74 
 7087      65727275 
 7087      707400
 7088              	.LASF65:
 7089 0528 4379446D 		.ascii	"CyDmaSetPriority\000"
 7089      61536574 
 7089      5072696F 
 7089      72697479 
 7089      00
 7090              	.LASF24:
 7091 0539 64617461 		.ascii	"dataElementSize\000"
 7091      456C656D 
 7091      656E7453 
 7091      697A6500 
 7092              	.LASF12:
 7093 0549 666C6F61 		.ascii	"float\000"
 7093      7400
 7094              	.LASF33:
 7095 054f 6379646D 		.ascii	"cydma_callback_t\000"
 7095      615F6361 
 7095      6C6C6261 
 7095      636B5F74 
 7095      00
 7096              	.LASF100:
ARM GAS  C:\Users\JamesN4\AppData\Local\Temp\ccgbGPCH.s 			page 156


 7097 0560 4379446D 		.ascii	"CyDmaInterruptCallback\000"
 7097      61496E74 
 7097      65727275 
 7097      70744361 
 7097      6C6C6261 
 7098              	.LASF102:
 7099 0577 43794861 		.ascii	"CyHalt\000"
 7099      6C7400
 7100              	.LASF37:
 7101 057e 4379446D 		.ascii	"CyDmaGetStatus\000"
 7101      61476574 
 7101      53746174 
 7101      757300
 7102              	.LASF1:
 7103 058d 756E7369 		.ascii	"unsigned char\000"
 7103      676E6564 
 7103      20636861 
 7103      7200
 7104              	.LASF51:
 7105 059b 4379446D 		.ascii	"CyDmaGetInterruptSourceMasked\000"
 7105      61476574 
 7105      496E7465 
 7105      72727570 
 7105      74536F75 
 7106              	.LASF2:
 7107 05b9 73686F72 		.ascii	"short int\000"
 7107      7420696E 
 7107      7400
 7108              	.LASF48:
 7109 05c3 696E7465 		.ascii	"interruptMask\000"
 7109      72727570 
 7109      744D6173 
 7109      6B00
 7110              	.LASF50:
 7111 05d1 4379446D 		.ascii	"CyDmaGetInterruptSourceMask\000"
 7111      61476574 
 7111      496E7465 
 7111      72727570 
 7111      74536F75 
 7112              	.LASF71:
 7113 05ed 6E657874 		.ascii	"nextDescriptor\000"
 7113      44657363 
 7113      72697074 
 7113      6F7200
 7114              	.LASF52:
 7115 05fc 6368616E 		.ascii	"channel\000"
 7115      6E656C00 
 7116              	.LASF93:
 7117 0604 4379446D 		.ascii	"CyDmaGetTriggerType\000"
 7117      61476574 
 7117      54726967 
 7117      67657254 
 7117      79706500 
 7118              	.LASF57:
 7119 0618 4379446D 		.ascii	"CyDmaChAlloc\000"
 7119      61436841 
 7119      6C6C6F63 
ARM GAS  C:\Users\JamesN4\AppData\Local\Temp\ccgbGPCH.s 			page 157


 7119      00
 7120              	.LASF22:
 7121 0625 64657363 		.ascii	"descriptor\000"
 7121      72697074 
 7121      6F7200
 7122              	.LASF58:
 7123 0630 6368616E 		.ascii	"channelMask\000"
 7123      6E656C4D 
 7123      61736B00 
 7124              	.LASF14:
 7125 063c 63686172 		.ascii	"char\000"
 7125      00
 7126              	.LASF46:
 7127 0641 4379446D 		.ascii	"CyDmaClearInterruptSource\000"
 7127      61436C65 
 7127      6172496E 
 7127      74657272 
 7127      75707453 
 7128              	.LASF17:
 7129 065b 63796973 		.ascii	"cyisraddress\000"
 7129      72616464 
 7129      72657373 
 7129      00
 7130              	.LASF73:
 7131 0668 636F6E66 		.ascii	"config\000"
 7131      696700
 7132              	.LASF101:
 7133 066f 4379446D 		.ascii	"CyDmaChannelUsedMask\000"
 7133      61436861 
 7133      6E6E656C 
 7133      55736564 
 7133      4D61736B 
 7134              	.LASF83:
 7135 0684 4379446D 		.ascii	"CyDmaGetDataElementSize\000"
 7135      61476574 
 7135      44617461 
 7135      456C656D 
 7135      656E7453 
 7136              	.LASF87:
 7137 069c 4379446D 		.ascii	"CyDmaSetSrcDstTransferWidth\000"
 7137      61536574 
 7137      53726344 
 7137      73745472 
 7137      616E7366 
 7138              	.LASF74:
 7139 06b8 4379446D 		.ascii	"CyDmaValidateDescriptor\000"
 7139      6156616C 
 7139      69646174 
 7139      65446573 
 7139      63726970 
 7140              	.LASF43:
 7141 06d0 4379446D 		.ascii	"CyDmaEnable\000"
 7141      61456E61 
 7141      626C6500 
 7142              	.LASF27:
 7143 06dc 61646472 		.ascii	"addressIncrement\000"
 7143      65737349 
ARM GAS  C:\Users\JamesN4\AppData\Local\Temp\ccgbGPCH.s 			page 158


 7143      6E637265 
 7143      6D656E74 
 7143      00
 7144              	.LASF81:
 7145 06ed 4379446D 		.ascii	"CyDmaGetDstAddress\000"
 7145      61476574 
 7145      44737441 
 7145      64647265 
 7145      737300
 7146              	.LASF40:
 7147 0700 4379446D 		.ascii	"CyDmaGetActiveDstAddress\000"
 7147      61476574 
 7147      41637469 
 7147      76654473 
 7147      74416464 
 7148              	.LASF84:
 7149 0719 4379446D 		.ascii	"CyDmaSetNumDataElements\000"
 7149      61536574 
 7149      4E756D44 
 7149      61746145 
 7149      6C656D65 
 7150              	.LASF20:
 7151 0731 73746174 		.ascii	"status\000"
 7151      757300
 7152              	.LASF21:
 7153 0738 6379646D 		.ascii	"cydma_descriptor_struct\000"
 7153      615F6465 
 7153      73637269 
 7153      70746F72 
 7153      5F737472 
 7154              	.LASF15:
 7155 0750 63797374 		.ascii	"cystatus\000"
 7155      61747573 
 7155      00
 7156              	.LASF88:
 7157 0759 7472616E 		.ascii	"transferWidth\000"
 7157      73666572 
 7157      57696474 
 7157      6800
 7158              	.LASF63:
 7159 0767 4379446D 		.ascii	"CyDmaTrigger\000"
 7159      61547269 
 7159      67676572 
 7159      00
 7160              	.LASF94:
 7161 0774 4379446D 		.ascii	"CyDmaSetTransferMode\000"
 7161      61536574 
 7161      5472616E 
 7161      73666572 
 7161      4D6F6465 
 7162              	.LASF23:
 7163 0789 6379646D 		.ascii	"cydma_descriptor_ram_struct\000"
 7163      615F6465 
 7163      73637269 
 7163      70746F72 
 7163      5F72616D 
 7164              	.LASF92:
ARM GAS  C:\Users\JamesN4\AppData\Local\Temp\ccgbGPCH.s 			page 159


 7165 07a5 4379446D 		.ascii	"CyDmaSetTriggerType\000"
 7165      61536574 
 7165      54726967 
 7165      67657254 
 7165      79706500 
 7166              	.LASF106:
 7167 07b9 47656E65 		.ascii	"Generated_Source\\PSoC4\\CyDMA.c\000"
 7167      72617465 
 7167      645F536F 
 7167      75726365 
 7167      5C50536F 
 7168              	.LASF31:
 7169 07d8 61637469 		.ascii	"actions\000"
 7169      6F6E7300 
 7170              	.LASF30:
 7171 07e0 70726565 		.ascii	"preemptable\000"
 7171      6D707461 
 7171      626C6500 
 7172              	.LASF96:
 7173 07ec 4379446D 		.ascii	"CyDmaSetPreemptable\000"
 7173      61536574 
 7173      50726565 
 7173      6D707461 
 7173      626C6500 
 7174              	.LASF59:
 7175 0800 4379446D 		.ascii	"CyDmaChFree\000"
 7175      61436846 
 7175      72656500 
 7176              		.ident	"GCC: (GNU Tools for ARM Embedded Processors) 5.4.1 20160609 (release) [ARM/embedded-5-bran
