ARM GAS  C:\Users\JamesN4\AppData\Local\Temp\ccOIY297.s 			page 1


   1              		.syntax unified
   2              		.cpu cortex-m0
   3              		.fpu softvfp
   4              		.eabi_attribute 20, 1
   5              		.eabi_attribute 21, 1
   6              		.eabi_attribute 23, 3
   7              		.eabi_attribute 24, 1
   8              		.eabi_attribute 25, 1
   9              		.eabi_attribute 26, 1
  10              		.eabi_attribute 30, 1
  11              		.eabi_attribute 34, 0
  12              		.eabi_attribute 18, 4
  13              		.thumb
  14              		.syntax unified
  15              		.file	"CyLFClk.c"
  16              		.text
  17              	.Ltext0:
  18              		.cfi_sections	.debug_frame
  19              		.section	.text.CySysClkIloEnabled,"ax",%progbits
  20              		.align	2
  21              		.code	16
  22              		.thumb_func
  23              		.type	CySysClkIloEnabled, %function
  24              	CySysClkIloEnabled:
  25              	.LFB6:
  26              		.file 1 "Generated_Source\\PSoC4\\CyLFClk.c"
   1:Generated_Source\PSoC4/CyLFClk.c **** /***************************************************************************//**
   2:Generated_Source\PSoC4/CyLFClk.c **** * \file .c
   3:Generated_Source\PSoC4/CyLFClk.c **** * \version 1.20
   4:Generated_Source\PSoC4/CyLFClk.c **** *
   5:Generated_Source\PSoC4/CyLFClk.c **** * \brief
   6:Generated_Source\PSoC4/CyLFClk.c **** *  This file provides the source code for configuring watchdog timers WDTs, 
   7:Generated_Source\PSoC4/CyLFClk.c **** *  low frequency clocks (LFCLK) and the Real-time Clock (RTC) component in
   8:Generated_Source\PSoC4/CyLFClk.c **** *  PSoC Creator for the PSoC 4 families.
   9:Generated_Source\PSoC4/CyLFClk.c **** *
  10:Generated_Source\PSoC4/CyLFClk.c **** ********************************************************************************
  11:Generated_Source\PSoC4/CyLFClk.c **** * \copyright
  12:Generated_Source\PSoC4/CyLFClk.c **** * Copyright 2008-2017, Cypress Semiconductor Corporation.  All rights reserved.
  13:Generated_Source\PSoC4/CyLFClk.c **** * You may use this file only in accordance with the license, terms, conditions,
  14:Generated_Source\PSoC4/CyLFClk.c **** * disclaimers, and limitations in the end user license agreement accompanying
  15:Generated_Source\PSoC4/CyLFClk.c **** * the software package with which this file was provided.
  16:Generated_Source\PSoC4/CyLFClk.c **** *******************************************************************************/
  17:Generated_Source\PSoC4/CyLFClk.c **** 
  18:Generated_Source\PSoC4/CyLFClk.c **** 
  19:Generated_Source\PSoC4/CyLFClk.c **** #include "CyLFClk.h"
  20:Generated_Source\PSoC4/CyLFClk.c **** #include "CyLib.h"
  21:Generated_Source\PSoC4/CyLFClk.c **** 
  22:Generated_Source\PSoC4/CyLFClk.c **** #if (CY_IP_WCO && CY_IP_SRSSV2)
  23:Generated_Source\PSoC4/CyLFClk.c ****     static uint32 CySysClkGetLfclkSource(void);
  24:Generated_Source\PSoC4/CyLFClk.c **** #endif /* (CY_IP_WCO && CY_IP_SRSSV2) */
  25:Generated_Source\PSoC4/CyLFClk.c **** 
  26:Generated_Source\PSoC4/CyLFClk.c **** 
  27:Generated_Source\PSoC4/CyLFClk.c **** #if(CY_IP_SRSSV2 && (!CY_IP_CPUSS))
  28:Generated_Source\PSoC4/CyLFClk.c ****     /* Default Ilo Trim Register value for ILO trimming*/
  29:Generated_Source\PSoC4/CyLFClk.c ****     static volatile uint16 defaultIloTrimRegValue = CY_SYS_CLK_ILO_TRIM_DEFAULT_VALUE;
  30:Generated_Source\PSoC4/CyLFClk.c **** #endif /* (CY_IP_SRSSV2 && (!CY_IP_CPUSS)) */
  31:Generated_Source\PSoC4/CyLFClk.c **** 
ARM GAS  C:\Users\JamesN4\AppData\Local\Temp\ccOIY297.s 			page 2


  32:Generated_Source\PSoC4/CyLFClk.c **** #if(CY_IP_SRSSV2)
  33:Generated_Source\PSoC4/CyLFClk.c ****     /* CySysClkLfclkPosedgeCatch() / CySysClkLfclkPosedgeRestore() */
  34:Generated_Source\PSoC4/CyLFClk.c ****     static uint32 lfclkPosedgeWdtCounter0Enabled = 0u;
  35:Generated_Source\PSoC4/CyLFClk.c ****     static uint32 lfclkPosedgeWdtCounter0Mode    = CY_SYS_WDT_MODE_NONE;
  36:Generated_Source\PSoC4/CyLFClk.c **** 
  37:Generated_Source\PSoC4/CyLFClk.c ****     static volatile uint32 disableServicedIsr = 0uL;
  38:Generated_Source\PSoC4/CyLFClk.c ****     static volatile uint32 wdtIsrMask = CY_SYS_WDT_COUNTER0_INT |\
  39:Generated_Source\PSoC4/CyLFClk.c ****                                         CY_SYS_WDT_COUNTER1_INT |\
  40:Generated_Source\PSoC4/CyLFClk.c ****                                         CY_SYS_WDT_COUNTER2_INT;
  41:Generated_Source\PSoC4/CyLFClk.c **** 
  42:Generated_Source\PSoC4/CyLFClk.c ****     static const uint32 counterIntMaskTbl[CY_WDT_NUM_OF_WDT] = {CY_SYS_WDT_COUNTER0_INT,
  43:Generated_Source\PSoC4/CyLFClk.c ****                                                                 CY_SYS_WDT_COUNTER1_INT,
  44:Generated_Source\PSoC4/CyLFClk.c ****                                                                 CY_SYS_WDT_COUNTER2_INT};
  45:Generated_Source\PSoC4/CyLFClk.c **** 
  46:Generated_Source\PSoC4/CyLFClk.c ****     static void CySysClkLfclkPosedgeCatch(void);
  47:Generated_Source\PSoC4/CyLFClk.c ****     static void CySysClkLfclkPosedgeRestore(void);
  48:Generated_Source\PSoC4/CyLFClk.c **** 
  49:Generated_Source\PSoC4/CyLFClk.c ****     static uint32 CySysWdtLocked(void);
  50:Generated_Source\PSoC4/CyLFClk.c ****     static uint32 CySysClkIloEnabled(void);
  51:Generated_Source\PSoC4/CyLFClk.c **** #endif /* (CY_IP_SRSSV2) */
  52:Generated_Source\PSoC4/CyLFClk.c **** 
  53:Generated_Source\PSoC4/CyLFClk.c **** #if (CY_IP_SRSSLT && CY_IP_WCO && CY_IP_WCO_WDT_EN)
  54:Generated_Source\PSoC4/CyLFClk.c ****     static uint32 CySysClkGetTimerSource(void);
  55:Generated_Source\PSoC4/CyLFClk.c ****     static volatile uint32 disableTimerServicedIsr = 0uL;
  56:Generated_Source\PSoC4/CyLFClk.c ****     static volatile uint32 timerIsrMask = CY_SYS_TIMER0_INT |\
  57:Generated_Source\PSoC4/CyLFClk.c ****                                           CY_SYS_TIMER1_INT |\
  58:Generated_Source\PSoC4/CyLFClk.c ****                                           CY_SYS_TIMER2_INT;
  59:Generated_Source\PSoC4/CyLFClk.c **** 
  60:Generated_Source\PSoC4/CyLFClk.c ****     static const uint32 counterTimerIntMaskTbl[CY_SYS_NUM_OF_TIMERS] = {CY_SYS_TIMER0_INT,
  61:Generated_Source\PSoC4/CyLFClk.c ****                                                                         CY_SYS_TIMER1_INT,
  62:Generated_Source\PSoC4/CyLFClk.c ****                                                                         CY_SYS_TIMER2_INT};
  63:Generated_Source\PSoC4/CyLFClk.c **** 
  64:Generated_Source\PSoC4/CyLFClk.c ****     static cyTimerCallback cySysTimerCallback[CY_SYS_NUM_OF_TIMERS] = {(void *)0, (void *)0, (void 
  65:Generated_Source\PSoC4/CyLFClk.c **** #endif /* (CY_IP_SRSSLT && CY_IP_WCO && CY_IP_WCO_DWT_EN) */
  66:Generated_Source\PSoC4/CyLFClk.c **** 
  67:Generated_Source\PSoC4/CyLFClk.c **** #if(CY_IP_SRSSV2)
  68:Generated_Source\PSoC4/CyLFClk.c ****     static cyWdtCallback cySysWdtCallback[CY_WDT_NUM_OF_WDT] = {(void *)0, (void *)0, (void *)0};
  69:Generated_Source\PSoC4/CyLFClk.c **** #else
  70:Generated_Source\PSoC4/CyLFClk.c ****     static cyWdtCallback cySysWdtCallback = (void *)0;
  71:Generated_Source\PSoC4/CyLFClk.c **** #endif /* (CY_IP_SRSSV2) */
  72:Generated_Source\PSoC4/CyLFClk.c **** 
  73:Generated_Source\PSoC4/CyLFClk.c **** 
  74:Generated_Source\PSoC4/CyLFClk.c **** /*******************************************************************************
  75:Generated_Source\PSoC4/CyLFClk.c **** * Function Name: CySysClkIloStart
  76:Generated_Source\PSoC4/CyLFClk.c **** ****************************************************************************//**
  77:Generated_Source\PSoC4/CyLFClk.c **** * \brief
  78:Generated_Source\PSoC4/CyLFClk.c **** *  Enables ILO.
  79:Generated_Source\PSoC4/CyLFClk.c **** *
  80:Generated_Source\PSoC4/CyLFClk.c **** *  Refer to the device datasheet for the ILO startup time.
  81:Generated_Source\PSoC4/CyLFClk.c **** *
  82:Generated_Source\PSoC4/CyLFClk.c **** *******************************************************************************/
  83:Generated_Source\PSoC4/CyLFClk.c **** void CySysClkIloStart(void)
  84:Generated_Source\PSoC4/CyLFClk.c **** {
  85:Generated_Source\PSoC4/CyLFClk.c ****     CY_SYS_CLK_ILO_CONFIG_REG |= CY_SYS_CLK_ILO_CONFIG_ENABLE;
  86:Generated_Source\PSoC4/CyLFClk.c **** }
  87:Generated_Source\PSoC4/CyLFClk.c **** 
  88:Generated_Source\PSoC4/CyLFClk.c **** 
ARM GAS  C:\Users\JamesN4\AppData\Local\Temp\ccOIY297.s 			page 3


  89:Generated_Source\PSoC4/CyLFClk.c **** /*******************************************************************************
  90:Generated_Source\PSoC4/CyLFClk.c **** * Function Name: CySysClkIloStop
  91:Generated_Source\PSoC4/CyLFClk.c **** ****************************************************************************//**
  92:Generated_Source\PSoC4/CyLFClk.c **** * \brief
  93:Generated_Source\PSoC4/CyLFClk.c **** *  Disables the ILO.
  94:Generated_Source\PSoC4/CyLFClk.c **** *
  95:Generated_Source\PSoC4/CyLFClk.c **** *  This function has no effect if WDT is locked (CySysWdtLock() is
  96:Generated_Source\PSoC4/CyLFClk.c **** *  called). Call CySysWdtUnlock() to unlock WDT and stop ILO.
  97:Generated_Source\PSoC4/CyLFClk.c **** *
  98:Generated_Source\PSoC4/CyLFClk.c **** *  PSoC 4100 / PSoC 4200: Note that ILO is required for WDT's operation.
  99:Generated_Source\PSoC4/CyLFClk.c **** *
 100:Generated_Source\PSoC4/CyLFClk.c **** *  PSoC 4100 BLE / PSoC 4200 BLE / PSoC 4200L / PSoC 4100M / 
 101:Generated_Source\PSoC4/CyLFClk.c **** *  PSoC 4200M:
 102:Generated_Source\PSoC4/CyLFClk.c **** *  Stopping ILO affects the peripheral clocked by LFCLK, if
 103:Generated_Source\PSoC4/CyLFClk.c **** *  LFCLK is configured to be sourced by ILO.
 104:Generated_Source\PSoC4/CyLFClk.c **** *
 105:Generated_Source\PSoC4/CyLFClk.c **** *  If the ILO is disabled, all blocks run by ILO will stop functioning.
 106:Generated_Source\PSoC4/CyLFClk.c **** *
 107:Generated_Source\PSoC4/CyLFClk.c **** *******************************************************************************/
 108:Generated_Source\PSoC4/CyLFClk.c **** void CySysClkIloStop(void)
 109:Generated_Source\PSoC4/CyLFClk.c **** {
 110:Generated_Source\PSoC4/CyLFClk.c ****     #if(CY_IP_SRSSV2)
 111:Generated_Source\PSoC4/CyLFClk.c ****         uint8  interruptState;
 112:Generated_Source\PSoC4/CyLFClk.c **** 
 113:Generated_Source\PSoC4/CyLFClk.c ****         /* Do nothing if WDT is locked or ILO is disabled */
 114:Generated_Source\PSoC4/CyLFClk.c ****         if (0u == CySysWdtLocked())
 115:Generated_Source\PSoC4/CyLFClk.c ****         {
 116:Generated_Source\PSoC4/CyLFClk.c ****             if (0u != CySysClkIloEnabled())
 117:Generated_Source\PSoC4/CyLFClk.c ****             {
 118:Generated_Source\PSoC4/CyLFClk.c **** 
 119:Generated_Source\PSoC4/CyLFClk.c ****             #if (CY_IP_WCO)
 120:Generated_Source\PSoC4/CyLFClk.c ****                 if (CY_SYS_CLK_LFCLK_SRC_ILO == CySysClkGetLfclkSource())
 121:Generated_Source\PSoC4/CyLFClk.c ****                 {
 122:Generated_Source\PSoC4/CyLFClk.c ****             #endif /* (CY_IP_WCO) */
 123:Generated_Source\PSoC4/CyLFClk.c **** 
 124:Generated_Source\PSoC4/CyLFClk.c ****                 interruptState = CyEnterCriticalSection();
 125:Generated_Source\PSoC4/CyLFClk.c ****                 CySysClkLfclkPosedgeCatch();
 126:Generated_Source\PSoC4/CyLFClk.c ****                 CY_SYS_CLK_ILO_CONFIG_REG &= (uint32) ( ~(uint32)CY_SYS_CLK_ILO_CONFIG_ENABLE);
 127:Generated_Source\PSoC4/CyLFClk.c ****                 CySysClkLfclkPosedgeRestore();
 128:Generated_Source\PSoC4/CyLFClk.c ****                 CyExitCriticalSection(interruptState);
 129:Generated_Source\PSoC4/CyLFClk.c **** 
 130:Generated_Source\PSoC4/CyLFClk.c ****             #if (CY_IP_WCO)
 131:Generated_Source\PSoC4/CyLFClk.c ****                 }
 132:Generated_Source\PSoC4/CyLFClk.c ****                 else /* Safe to disable - shortened pulse does not impact peripheral */
 133:Generated_Source\PSoC4/CyLFClk.c ****                 {
 134:Generated_Source\PSoC4/CyLFClk.c ****                     CY_SYS_CLK_ILO_CONFIG_REG &= (uint32) ( ~(uint32)CY_SYS_CLK_ILO_CONFIG_ENABLE);
 135:Generated_Source\PSoC4/CyLFClk.c ****                 }
 136:Generated_Source\PSoC4/CyLFClk.c ****             #endif /* (CY_IP_WCO) */
 137:Generated_Source\PSoC4/CyLFClk.c **** 
 138:Generated_Source\PSoC4/CyLFClk.c ****             }
 139:Generated_Source\PSoC4/CyLFClk.c ****         }
 140:Generated_Source\PSoC4/CyLFClk.c ****     #else
 141:Generated_Source\PSoC4/CyLFClk.c ****         CY_SYS_CLK_ILO_CONFIG_REG &= ( uint32 ) ( ~( uint32 )CY_SYS_CLK_ILO_CONFIG_ENABLE);
 142:Generated_Source\PSoC4/CyLFClk.c ****     #endif /* (CY_IP_SRSSV2) */
 143:Generated_Source\PSoC4/CyLFClk.c **** }
 144:Generated_Source\PSoC4/CyLFClk.c **** 
 145:Generated_Source\PSoC4/CyLFClk.c **** 
ARM GAS  C:\Users\JamesN4\AppData\Local\Temp\ccOIY297.s 			page 4


 146:Generated_Source\PSoC4/CyLFClk.c **** /******************************************************************************
 147:Generated_Source\PSoC4/CyLFClk.c **** * Function Name: CySysClkIloStartMeasurement
 148:Generated_Source\PSoC4/CyLFClk.c **** ***************************************************************************//**
 149:Generated_Source\PSoC4/CyLFClk.c **** * \brief
 150:Generated_Source\PSoC4/CyLFClk.c **** * Starts the ILO accuracy measurement.
 151:Generated_Source\PSoC4/CyLFClk.c **** *
 152:Generated_Source\PSoC4/CyLFClk.c **** * This function is non-blocking and needs to be called before using the 
 153:Generated_Source\PSoC4/CyLFClk.c **** * CySysClkIloTrim() and CySysClkIloCompensate() API.
 154:Generated_Source\PSoC4/CyLFClk.c **** *
 155:Generated_Source\PSoC4/CyLFClk.c **** * This API configures measurement counters to be sourced by SysClk (Counter 1)
 156:Generated_Source\PSoC4/CyLFClk.c **** * and ILO (Counter 2). 
 157:Generated_Source\PSoC4/CyLFClk.c **** *
 158:Generated_Source\PSoC4/CyLFClk.c **** * \note SysClk should be sourced by IMO. Otherwise CySysClkIloTrim() and 
 159:Generated_Source\PSoC4/CyLFClk.c **** * CySysClkIloCompensate() API can give incorrect results.
 160:Generated_Source\PSoC4/CyLFClk.c **** *
 161:Generated_Source\PSoC4/CyLFClk.c **** * In addition, this API stores the factory ILO trim settings on the first call 
 162:Generated_Source\PSoC4/CyLFClk.c **** * after reset. This stored factory setting is used by the 
 163:Generated_Source\PSoC4/CyLFClk.c **** * CySysClkIloRestoreFactoryTrim() API to restore the ILO factory trim. 
 164:Generated_Source\PSoC4/CyLFClk.c **** * Hence, it is important to call this API before restoring the ILO 
 165:Generated_Source\PSoC4/CyLFClk.c **** * factory trim settings.
 166:Generated_Source\PSoC4/CyLFClk.c **** *
 167:Generated_Source\PSoC4/CyLFClk.c **** ******************************************************************************/
 168:Generated_Source\PSoC4/CyLFClk.c **** void CySysClkIloStartMeasurement(void)
 169:Generated_Source\PSoC4/CyLFClk.c **** {
 170:Generated_Source\PSoC4/CyLFClk.c **** #if(CY_IP_SRSSV2 && (!CY_IP_CPUSS))
 171:Generated_Source\PSoC4/CyLFClk.c ****     static uint8 iloTrimTrig = 0u;
 172:Generated_Source\PSoC4/CyLFClk.c **** 
 173:Generated_Source\PSoC4/CyLFClk.c ****     /* Write default ILO trim value while ILO starting ( Cypress ID 225244 )*/
 174:Generated_Source\PSoC4/CyLFClk.c ****     if (0u == iloTrimTrig)
 175:Generated_Source\PSoC4/CyLFClk.c ****     {
 176:Generated_Source\PSoC4/CyLFClk.c ****         defaultIloTrimRegValue = ((uint8)(CY_SYS_CLK_ILO_TRIM_REG & CY_SYS_CLK_ILO_TRIM_MASK));
 177:Generated_Source\PSoC4/CyLFClk.c ****         iloTrimTrig = 1u;
 178:Generated_Source\PSoC4/CyLFClk.c ****     }
 179:Generated_Source\PSoC4/CyLFClk.c **** #endif /* (CY_IP_SRSSV2 && (!CY_IP_CPUSS)) */
 180:Generated_Source\PSoC4/CyLFClk.c **** 
 181:Generated_Source\PSoC4/CyLFClk.c ****     /* Configure measurement counters to source by SysClk (Counter 1) and ILO (Counter 2)*/
 182:Generated_Source\PSoC4/CyLFClk.c ****     CY_SYS_CLK_DFT_REG = (CY_SYS_CLK_DFT_REG & (uint32) ~CY_SYS_CLK_DFT_SELECT_DEFAULT_MASK) |
 183:Generated_Source\PSoC4/CyLFClk.c ****                             CY_SYS_CLK_SEL_ILO_DFT_SOURCE; 
 184:Generated_Source\PSoC4/CyLFClk.c **** 
 185:Generated_Source\PSoC4/CyLFClk.c ****     CY_SYS_TST_DDFT_CTRL_REG = (CY_SYS_TST_DDFT_CTRL_REG & (uint32) ~ CY_SYS_TST_DDFT_CTRL_REG_DEFA
 186:Generated_Source\PSoC4/CyLFClk.c ****                             CY_SYS_TST_DDFT_CTRL_REG_SEL2_CLK1;
 187:Generated_Source\PSoC4/CyLFClk.c **** }
 188:Generated_Source\PSoC4/CyLFClk.c **** 
 189:Generated_Source\PSoC4/CyLFClk.c **** 
 190:Generated_Source\PSoC4/CyLFClk.c **** /******************************************************************************
 191:Generated_Source\PSoC4/CyLFClk.c **** * Function Name: CySysClkIloStopMeasurement
 192:Generated_Source\PSoC4/CyLFClk.c **** ***************************************************************************//**
 193:Generated_Source\PSoC4/CyLFClk.c **** * \brief
 194:Generated_Source\PSoC4/CyLFClk.c **** * Stops the ILO accuracy measurement.
 195:Generated_Source\PSoC4/CyLFClk.c **** *
 196:Generated_Source\PSoC4/CyLFClk.c **** * Calling this function immediately stops the the ILO frequency measurement.
 197:Generated_Source\PSoC4/CyLFClk.c **** * This function should be called before placing the device to deepsleep, if 
 198:Generated_Source\PSoC4/CyLFClk.c **** * CySysClkIloStartMeasurement() API was called before. 
 199:Generated_Source\PSoC4/CyLFClk.c **** *
 200:Generated_Source\PSoC4/CyLFClk.c **** ******************************************************************************/
 201:Generated_Source\PSoC4/CyLFClk.c **** void CySysClkIloStopMeasurement(void)
 202:Generated_Source\PSoC4/CyLFClk.c **** {
ARM GAS  C:\Users\JamesN4\AppData\Local\Temp\ccOIY297.s 			page 5


 203:Generated_Source\PSoC4/CyLFClk.c ****     /* Set default configurations in 11...8 DFT register bits to zero */
 204:Generated_Source\PSoC4/CyLFClk.c ****     CY_SYS_CLK_DFT_REG &= ~CY_SYS_CLK_DFT_SELECT_DEFAULT_MASK;
 205:Generated_Source\PSoC4/CyLFClk.c ****     #if(CY_IP_SRSSLT)
 206:Generated_Source\PSoC4/CyLFClk.c ****         CY_SYS_TST_DDFT_CTRL_REG &= ((uint32) CY_SYS_TST_DDFT_CTRL_REG_DEFAULT_MASK);
 207:Generated_Source\PSoC4/CyLFClk.c ****     #endif /* (CY_IP_SRSSLT) */
 208:Generated_Source\PSoC4/CyLFClk.c **** }
 209:Generated_Source\PSoC4/CyLFClk.c **** 
 210:Generated_Source\PSoC4/CyLFClk.c **** 
 211:Generated_Source\PSoC4/CyLFClk.c **** /******************************************************************************
 212:Generated_Source\PSoC4/CyLFClk.c **** * Function Name: CySysClkIloCompensate
 213:Generated_Source\PSoC4/CyLFClk.c **** ***************************************************************************//**
 214:Generated_Source\PSoC4/CyLFClk.c **** * \brief
 215:Generated_Source\PSoC4/CyLFClk.c **** * This API measures the current ILO accuracy.
 216:Generated_Source\PSoC4/CyLFClk.c **** *
 217:Generated_Source\PSoC4/CyLFClk.c **** * Basing on the measured frequency the required number of ILO cycles for a 
 218:Generated_Source\PSoC4/CyLFClk.c **** * given delay (in microseconds) is obtained. The desired delay that needs to 
 219:Generated_Source\PSoC4/CyLFClk.c **** * be compensated is passed through the desiredDelay parameter. The compensated 
 220:Generated_Source\PSoC4/CyLFClk.c **** * cycle count is returned through the compesatedCycles pointer.
 221:Generated_Source\PSoC4/CyLFClk.c **** * The compensated ILO cycles can then be used to define the WDT period value, 
 222:Generated_Source\PSoC4/CyLFClk.c **** * effectively compensating for the ILO inaccuracy and allowing a more 
 223:Generated_Source\PSoC4/CyLFClk.c **** * accurate WDT interrupt generation.
 224:Generated_Source\PSoC4/CyLFClk.c **** *
 225:Generated_Source\PSoC4/CyLFClk.c **** * CySysClkIloStartMeasurement() API should be called prior to calling this API. 
 226:Generated_Source\PSoC4/CyLFClk.c **** *
 227:Generated_Source\PSoC4/CyLFClk.c **** * \note SysClk should be sourced by IMO. Otherwise CySysClkIloTrim() and 
 228:Generated_Source\PSoC4/CyLFClk.c **** * CySysClkIloCompensate() API can give incorrect results.
 229:Generated_Source\PSoC4/CyLFClk.c **** *
 230:Generated_Source\PSoC4/CyLFClk.c **** * \note If the System clock frequency is changed in runtime, the CyDelayFreq() 
 231:Generated_Source\PSoC4/CyLFClk.c **** * with the appropriate parameter (Frequency of bus clock in Hertz) should be 
 232:Generated_Source\PSoC4/CyLFClk.c **** * called before calling a next CySysClkIloCompensate().
 233:Generated_Source\PSoC4/CyLFClk.c **** *
 234:Generated_Source\PSoC4/CyLFClk.c **** * \warning Do not enter deep sleep mode until the function returns CYRET_SUCCESS.
 235:Generated_Source\PSoC4/CyLFClk.c **** *
 236:Generated_Source\PSoC4/CyLFClk.c **** * \param desiredDelay Required delay in microseconds.
 237:Generated_Source\PSoC4/CyLFClk.c **** *
 238:Generated_Source\PSoC4/CyLFClk.c **** * \param *compensatedCycles The pointer to the variable in which the required
 239:Generated_Source\PSoC4/CyLFClk.c **** * number of ILO cycles for the given delay will be returned.
 240:Generated_Source\PSoC4/CyLFClk.c **** *
 241:Generated_Source\PSoC4/CyLFClk.c **** * \details
 242:Generated_Source\PSoC4/CyLFClk.c **** * The value returned in *compensatedCycles pointer is not valid until the 
 243:Generated_Source\PSoC4/CyLFClk.c **** * function returns CYRET_SUCCESS.
 244:Generated_Source\PSoC4/CyLFClk.c **** *
 245:Generated_Source\PSoC4/CyLFClk.c **** * The desiredDelay parameter value should be in next range: <br>From 100 to 
 246:Generated_Source\PSoC4/CyLFClk.c **** * 2 000 000 microseconds for PSoC 4000 / PSoC 4000S / PSoC 4100S / PSoC Analog 
 247:Generated_Source\PSoC4/CyLFClk.c **** * Coprocessor devices.<br>From 100 to 4 000 000 000 microseconds for 
 248:Generated_Source\PSoC4/CyLFClk.c **** * PSoC 4100 / PSoC 4200 / PSoC 4100 BLE / PSoC 4200 BLE / PRoC BLE /
 249:Generated_Source\PSoC4/CyLFClk.c **** * PSoC 4200L / PSoC 4100M /PSoC 4200M devices.
 250:Generated_Source\PSoC4/CyLFClk.c **** *
 251:Generated_Source\PSoC4/CyLFClk.c **** * \return CYRET_SUCCESS - The compensation process is complete and the 
 252:Generated_Source\PSoC4/CyLFClk.c **** * compensated cycles value is returned in the compensatedCycles pointer.
 253:Generated_Source\PSoC4/CyLFClk.c **** *
 254:Generated_Source\PSoC4/CyLFClk.c **** * \return CYRET_STARTED - Indicates measurement is in progress. It is 
 255:Generated_Source\PSoC4/CyLFClk.c **** * strongly recommended to do not make pauses between API calling. The 
 256:Generated_Source\PSoC4/CyLFClk.c **** * function should be called repeatedly until the API returns CYRET_SUCCESS.
 257:Generated_Source\PSoC4/CyLFClk.c **** *
 258:Generated_Source\PSoC4/CyLFClk.c **** * \return CYRET_INVALID_STATE - Indicates that measurement not started. 
 259:Generated_Source\PSoC4/CyLFClk.c **** * The user should call CySysClkIloStartMeasurement() API before calling 
ARM GAS  C:\Users\JamesN4\AppData\Local\Temp\ccOIY297.s 			page 6


 260:Generated_Source\PSoC4/CyLFClk.c **** * this API.
 261:Generated_Source\PSoC4/CyLFClk.c **** *
 262:Generated_Source\PSoC4/CyLFClk.c **** * \note For a correct WDT or DeepSleep Timers functioning with ILO compensating 
 263:Generated_Source\PSoC4/CyLFClk.c **** * the CySysClkIloCompensate() should be called before WDT or DeepSleep Timers 
 264:Generated_Source\PSoC4/CyLFClk.c **** * enabling.
 265:Generated_Source\PSoC4/CyLFClk.c **** *
 266:Generated_Source\PSoC4/CyLFClk.c **** *******************************************************************************/
 267:Generated_Source\PSoC4/CyLFClk.c **** cystatus CySysClkIloCompensate(uint32 desiredDelay , uint32* compensatedCycles)
 268:Generated_Source\PSoC4/CyLFClk.c **** {
 269:Generated_Source\PSoC4/CyLFClk.c ****     uint32 iloCompensatedCycles;
 270:Generated_Source\PSoC4/CyLFClk.c ****     uint32 desiredDelayInCounts;
 271:Generated_Source\PSoC4/CyLFClk.c ****     static uint32 compensateRunningStatus = CY_SYS_CLK_TRIM_OR_COMP_FINISHED;
 272:Generated_Source\PSoC4/CyLFClk.c ****     uint32 checkStatus;
 273:Generated_Source\PSoC4/CyLFClk.c ****     cystatus returnStatus;
 274:Generated_Source\PSoC4/CyLFClk.c **** 
 275:Generated_Source\PSoC4/CyLFClk.c ****     checkStatus = (uint32) (CY_SYS_CLK_DFT_REG & (uint32) CY_SYS_TST_DDFT_CTRL_REG_DEFAULT_MASK);
 276:Generated_Source\PSoC4/CyLFClk.c **** 
 277:Generated_Source\PSoC4/CyLFClk.c ****     /* Check if CySysStartMeasurement was called before */
 278:Generated_Source\PSoC4/CyLFClk.c ****     if((checkStatus == CY_SYS_CLK_SEL_ILO_DFT_SOURCE) && 
 279:Generated_Source\PSoC4/CyLFClk.c ****        (CY_SYS_TST_DDFT_CTRL_REG == CY_SYS_TST_DDFT_CTRL_REG_SEL2_CLK1) &&
 280:Generated_Source\PSoC4/CyLFClk.c ****        (CY_SYS_CLK_MAX_DELAY_US >= desiredDelay) &&
 281:Generated_Source\PSoC4/CyLFClk.c ****        (CY_SYS_CLK_MIN_DELAY_US <= desiredDelay) &&
 282:Generated_Source\PSoC4/CyLFClk.c ****        (compensatedCycles !=  NULL))
 283:Generated_Source\PSoC4/CyLFClk.c ****     {
 284:Generated_Source\PSoC4/CyLFClk.c ****         if(CY_SYS_CLK_TRIM_OR_COMP_FINISHED != compensateRunningStatus)
 285:Generated_Source\PSoC4/CyLFClk.c ****         {
 286:Generated_Source\PSoC4/CyLFClk.c ****             /* Wait until counter 1 stopped counting and after it calculate compensated cycles */
 287:Generated_Source\PSoC4/CyLFClk.c ****             if(0u != (CY_SYS_CNT_REG1_REG & CY_SYS_CLK_ILO_CALIBR_COMPLETE_MASK))
 288:Generated_Source\PSoC4/CyLFClk.c ****             {
 289:Generated_Source\PSoC4/CyLFClk.c ****                 if (0u != CY_SYS_CNT_REG2_REG)
 290:Generated_Source\PSoC4/CyLFClk.c ****                 {
 291:Generated_Source\PSoC4/CyLFClk.c ****                     /* Calculate required number of ILO cycles for given delay */
 292:Generated_Source\PSoC4/CyLFClk.c ****                     #if(CY_IP_SRSSV2)
 293:Generated_Source\PSoC4/CyLFClk.c ****                         if (CY_SYS_CLK_DELAY_COUNTS_LIMIT < desiredDelay)
 294:Generated_Source\PSoC4/CyLFClk.c ****                         {
 295:Generated_Source\PSoC4/CyLFClk.c ****                             desiredDelayInCounts = (desiredDelay / CY_SYS_CLK_ILO_PERIOD);
 296:Generated_Source\PSoC4/CyLFClk.c ****                             iloCompensatedCycles = 
 297:Generated_Source\PSoC4/CyLFClk.c ****                             (((CY_SYS_CNT_REG2_REG * cydelayFreqHz) / (cydelayFreqHz >> CY_SYS_CLK_
 298:Generated_Source\PSoC4/CyLFClk.c ****                                 CY_SYS_CLK_ILO_FREQ_2MSB) * (desiredDelayInCounts / CY_SYS_CLK_ILO_
 299:Generated_Source\PSoC4/CyLFClk.c ****                         }
 300:Generated_Source\PSoC4/CyLFClk.c ****                         else
 301:Generated_Source\PSoC4/CyLFClk.c ****                         {
 302:Generated_Source\PSoC4/CyLFClk.c ****                             desiredDelayInCounts = ((desiredDelay * CY_SYS_CLK_COEF_PHUNDRED) + 
 303:Generated_Source\PSoC4/CyLFClk.c ****                                                      CY_SYS_CLK_HALF_OF_CLOCK) / CY_SYS_CLK_ILO_PER
 304:Generated_Source\PSoC4/CyLFClk.c **** 
 305:Generated_Source\PSoC4/CyLFClk.c ****                             iloCompensatedCycles = (((CY_SYS_CNT_REG2_REG * cydelayFreqHz) / 
 306:Generated_Source\PSoC4/CyLFClk.c ****                                                      (cydelayFreqHz >> CY_SYS_CLK_SYS_CLK_DEVIDER))
 307:Generated_Source\PSoC4/CyLFClk.c ****                                                      desiredDelayInCounts) / CY_SYS_CLK_ILO_DESIRED
 308:Generated_Source\PSoC4/CyLFClk.c ****                         }
 309:Generated_Source\PSoC4/CyLFClk.c ****                     #else /* (CY_IP_SRSSLT) */
 310:Generated_Source\PSoC4/CyLFClk.c ****                         desiredDelayInCounts = ((desiredDelay * CY_SYS_CLK_COEF_PHUNDRED) + CY_SYS_
 311:Generated_Source\PSoC4/CyLFClk.c ****                                                                                            CY_SYS_C
 312:Generated_Source\PSoC4/CyLFClk.c ****                         if(CY_SYS_CLK_MAX_LITE_NUMBER < desiredDelayInCounts)
 313:Generated_Source\PSoC4/CyLFClk.c ****                         {
 314:Generated_Source\PSoC4/CyLFClk.c ****                             iloCompensatedCycles = (((CY_SYS_CNT_REG2_REG * cydelayFreqHz) / (cydel
 315:Generated_Source\PSoC4/CyLFClk.c ****                                                    CY_SYS_CLK_SYS_CLK_DEVIDER)) / CY_SYS_CLK_ILO_FR
 316:Generated_Source\PSoC4/CyLFClk.c ****                                                    (desiredDelayInCounts / CY_SYS_CLK_ILO_FREQ_3LSB
ARM GAS  C:\Users\JamesN4\AppData\Local\Temp\ccOIY297.s 			page 7


 317:Generated_Source\PSoC4/CyLFClk.c ****                         }
 318:Generated_Source\PSoC4/CyLFClk.c ****                         else
 319:Generated_Source\PSoC4/CyLFClk.c ****                         {
 320:Generated_Source\PSoC4/CyLFClk.c ****                             iloCompensatedCycles = (((CY_SYS_CNT_REG2_REG * cydelayFreqHz) / 
 321:Generated_Source\PSoC4/CyLFClk.c ****                                                      (cydelayFreqHz >> CY_SYS_CLK_SYS_CLK_DEVIDER))
 322:Generated_Source\PSoC4/CyLFClk.c ****                                                      desiredDelayInCounts) / CY_SYS_CLK_ILO_DESIRED
 323:Generated_Source\PSoC4/CyLFClk.c ****                         }
 324:Generated_Source\PSoC4/CyLFClk.c ****                     #endif /* (CY_IP_SRSSV2) */
 325:Generated_Source\PSoC4/CyLFClk.c **** 
 326:Generated_Source\PSoC4/CyLFClk.c ****                     *compensatedCycles = iloCompensatedCycles;
 327:Generated_Source\PSoC4/CyLFClk.c ****                     compensateRunningStatus = CY_SYS_CLK_TRIM_OR_COMP_FINISHED;
 328:Generated_Source\PSoC4/CyLFClk.c ****                     returnStatus = CYRET_SUCCESS;
 329:Generated_Source\PSoC4/CyLFClk.c ****                 }
 330:Generated_Source\PSoC4/CyLFClk.c ****                 else
 331:Generated_Source\PSoC4/CyLFClk.c ****                 {
 332:Generated_Source\PSoC4/CyLFClk.c ****                     returnStatus  = CYRET_INVALID_STATE;
 333:Generated_Source\PSoC4/CyLFClk.c ****                 }
 334:Generated_Source\PSoC4/CyLFClk.c ****             }
 335:Generated_Source\PSoC4/CyLFClk.c ****             else
 336:Generated_Source\PSoC4/CyLFClk.c ****             {
 337:Generated_Source\PSoC4/CyLFClk.c ****                 returnStatus = CYRET_STARTED;
 338:Generated_Source\PSoC4/CyLFClk.c ****             }
 339:Generated_Source\PSoC4/CyLFClk.c ****         }
 340:Generated_Source\PSoC4/CyLFClk.c ****         else
 341:Generated_Source\PSoC4/CyLFClk.c ****         {
 342:Generated_Source\PSoC4/CyLFClk.c ****             /* Reload CNTR 1 count value for next measurement cycle*/
 343:Generated_Source\PSoC4/CyLFClk.c ****             CY_SYS_CNT_REG1_REG = (cydelayFreqHz >> CY_SYS_CLK_SYS_CLK_DEVIDER);
 344:Generated_Source\PSoC4/CyLFClk.c ****             compensateRunningStatus = CY_SYS_CLK_TRIM_OR_COMP_STARTED;
 345:Generated_Source\PSoC4/CyLFClk.c ****             returnStatus = CYRET_STARTED;
 346:Generated_Source\PSoC4/CyLFClk.c ****         }
 347:Generated_Source\PSoC4/CyLFClk.c ****     }
 348:Generated_Source\PSoC4/CyLFClk.c ****     else
 349:Generated_Source\PSoC4/CyLFClk.c ****     {
 350:Generated_Source\PSoC4/CyLFClk.c ****         returnStatus = CYRET_INVALID_STATE;
 351:Generated_Source\PSoC4/CyLFClk.c ****     }
 352:Generated_Source\PSoC4/CyLFClk.c **** 
 353:Generated_Source\PSoC4/CyLFClk.c ****     return (returnStatus);
 354:Generated_Source\PSoC4/CyLFClk.c **** }
 355:Generated_Source\PSoC4/CyLFClk.c **** 
 356:Generated_Source\PSoC4/CyLFClk.c **** 
 357:Generated_Source\PSoC4/CyLFClk.c **** #if(CY_IP_SRSSV2)
 358:Generated_Source\PSoC4/CyLFClk.c ****     /*******************************************************************************
 359:Generated_Source\PSoC4/CyLFClk.c ****     * Function Name: CySysClkIloEnabled
 360:Generated_Source\PSoC4/CyLFClk.c ****     ****************************************************************************//**
 361:Generated_Source\PSoC4/CyLFClk.c ****     *
 362:Generated_Source\PSoC4/CyLFClk.c ****     * \internal
 363:Generated_Source\PSoC4/CyLFClk.c ****     * Reports the ILO enable state.
 364:Generated_Source\PSoC4/CyLFClk.c ****     *
 365:Generated_Source\PSoC4/CyLFClk.c ****     * \return
 366:Generated_Source\PSoC4/CyLFClk.c ****     * 1 if ILO is enabled, and 0 if ILO is disabled.
 367:Generated_Source\PSoC4/CyLFClk.c ****     *
 368:Generated_Source\PSoC4/CyLFClk.c ****     * \endinternal
 369:Generated_Source\PSoC4/CyLFClk.c ****     ********************************************************************************/
 370:Generated_Source\PSoC4/CyLFClk.c ****     static uint32 CySysClkIloEnabled(void)
 371:Generated_Source\PSoC4/CyLFClk.c ****     {
  27              		.loc 1 371 0
  28              		.cfi_startproc
ARM GAS  C:\Users\JamesN4\AppData\Local\Temp\ccOIY297.s 			page 8


  29              		@ args = 0, pretend = 0, frame = 0
  30              		@ frame_needed = 0, uses_anonymous_args = 0
  31              		@ link register save eliminated.
 372:Generated_Source\PSoC4/CyLFClk.c ****         /* Prohibits writing to WDT registers and ILO/WCO registers when not equal to 0 */
 373:Generated_Source\PSoC4/CyLFClk.c ****         return ((0u != (CY_SYS_CLK_ILO_CONFIG_REG & (uint32)(CY_SYS_CLK_ILO_CONFIG_ENABLE))) ?
  32              		.loc 1 373 0
  33 0000 034B     		ldr	r3, .L4
  34 0002 1B68     		ldr	r3, [r3]
 374:Generated_Source\PSoC4/CyLFClk.c ****             (uint32) 1u :
  35              		.loc 1 374 0
  36 0004 002B     		cmp	r3, #0
  37 0006 01DA     		bge	.L3
  38 0008 0120     		movs	r0, #1
  39 000a 00E0     		b	.L2
  40              	.L3:
  41 000c 0020     		movs	r0, #0
  42              	.L2:
 375:Generated_Source\PSoC4/CyLFClk.c ****             (uint32) 0u);
 376:Generated_Source\PSoC4/CyLFClk.c ****     }
  43              		.loc 1 376 0
  44              		@ sp needed
  45 000e 7047     		bx	lr
  46              	.L5:
  47              		.align	2
  48              	.L4:
  49 0010 04010B40 		.word	1074462980
  50              		.cfi_endproc
  51              	.LFE6:
  52              		.size	CySysClkIloEnabled, .-CySysClkIloEnabled
  53              		.section	.text.CySysClkGetLfclkSource,"ax",%progbits
  54              		.align	2
  55              		.code	16
  56              		.thumb_func
  57              		.type	CySysClkGetLfclkSource, %function
  58              	CySysClkGetLfclkSource:
  59              	.LFB10:
 377:Generated_Source\PSoC4/CyLFClk.c **** #endif /* (CY_IP_SRSSV2) */
 378:Generated_Source\PSoC4/CyLFClk.c **** 
 379:Generated_Source\PSoC4/CyLFClk.c **** 
 380:Generated_Source\PSoC4/CyLFClk.c **** #if(CY_IP_SRSSV2 && (!CY_IP_CPUSS))
 381:Generated_Source\PSoC4/CyLFClk.c **** /********************************************************************************
 382:Generated_Source\PSoC4/CyLFClk.c **** * Function Name: CySysClkIloTrim
 383:Generated_Source\PSoC4/CyLFClk.c **** *****************************************************************************//**
 384:Generated_Source\PSoC4/CyLFClk.c **** * \brief
 385:Generated_Source\PSoC4/CyLFClk.c **** * The API trims the ILO frequency to +/- 10% accuracy range using accurate 
 386:Generated_Source\PSoC4/CyLFClk.c **** * SysClk.
 387:Generated_Source\PSoC4/CyLFClk.c **** *
 388:Generated_Source\PSoC4/CyLFClk.c **** * The API can be blocking or non-blocking depending on the value of the mode 
 389:Generated_Source\PSoC4/CyLFClk.c **** * parameter passed. The accuracy of ILO after trimming in parts per thousand 
 390:Generated_Source\PSoC4/CyLFClk.c **** * is returned through the iloAccuracyInPPT pointer. A positive number indicates 
 391:Generated_Source\PSoC4/CyLFClk.c **** * that the ILO is running fast and a negative number indicates that the ILO is 
 392:Generated_Source\PSoC4/CyLFClk.c **** * running slowly. This error is relative to the error in the reference clock 
 393:Generated_Source\PSoC4/CyLFClk.c **** * (SysClk), so the absolute error will be higher and depends on the accuracy 
 394:Generated_Source\PSoC4/CyLFClk.c **** * of the reference.
 395:Generated_Source\PSoC4/CyLFClk.c **** *
 396:Generated_Source\PSoC4/CyLFClk.c **** * The CySysClkIloStartMeasurement() API should be called prior to calling this 
 397:Generated_Source\PSoC4/CyLFClk.c **** * API. Otherwise it will return CYRET_INVALID_STATE as the measurement was not 
ARM GAS  C:\Users\JamesN4\AppData\Local\Temp\ccOIY297.s 			page 9


 398:Generated_Source\PSoC4/CyLFClk.c **** * started.
 399:Generated_Source\PSoC4/CyLFClk.c **** *
 400:Generated_Source\PSoC4/CyLFClk.c **** * \note SysClk should be sourced by IMO. Otherwise CySysClkIloTrim() and 
 401:Generated_Source\PSoC4/CyLFClk.c **** * CySysClkIloCompensate() API can give incorrect results.
 402:Generated_Source\PSoC4/CyLFClk.c **** *
 403:Generated_Source\PSoC4/CyLFClk.c **** * \note If System clock frequency is changed in runtime, the CyDelayFreq() 
 404:Generated_Source\PSoC4/CyLFClk.c **** * with the appropriate parameter (Frequency of bus clock in Hertz) should be 
 405:Generated_Source\PSoC4/CyLFClk.c **** * called before next CySysClkIloCompensate() usage.
 406:Generated_Source\PSoC4/CyLFClk.c **** *
 407:Generated_Source\PSoC4/CyLFClk.c **** * \warning Do not enter deep sleep mode until the function returns CYRET_SUCCESS
 408:Generated_Source\PSoC4/CyLFClk.c **** * or CYRET_TIMEOUT.
 409:Generated_Source\PSoC4/CyLFClk.c **** *
 410:Generated_Source\PSoC4/CyLFClk.c **** * Available for all PSoC 4 devices with ILO trim capability. This excludes 
 411:Generated_Source\PSoC4/CyLFClk.c **** * PSoC 4000 / PSoC 4100 / PSoC 4200 / PSoC 4000S / PSoC 4100S / PSoC
 412:Generated_Source\PSoC4/CyLFClk.c **** * Analog Coprocessor devices.
 413:Generated_Source\PSoC4/CyLFClk.c **** *
 414:Generated_Source\PSoC4/CyLFClk.c **** * \param mode
 415:Generated_Source\PSoC4/CyLFClk.c **** *  CY_SYS_CLK_BLOCKING -  The function does not return until the ILO is 
 416:Generated_Source\PSoC4/CyLFClk.c **** * within +/-10% accuracy range or time out has occurred.<br>
 417:Generated_Source\PSoC4/CyLFClk.c **** * CY_SYS_CLK_NON_BLOCKING - The function returns immediately after 
 418:Generated_Source\PSoC4/CyLFClk.c **** * performing a single iteration of the trim process. The function should be 
 419:Generated_Source\PSoC4/CyLFClk.c **** * called repeatedly until the trimming is completed successfully.
 420:Generated_Source\PSoC4/CyLFClk.c **** *
 421:Generated_Source\PSoC4/CyLFClk.c **** * \param *iloAccuracyInPPT Pointer to an integer in which the trimmed ILO 
 422:Generated_Source\PSoC4/CyLFClk.c **** * accuracy will be returned.
 423:Generated_Source\PSoC4/CyLFClk.c **** *
 424:Generated_Source\PSoC4/CyLFClk.c **** * \details The value returned in *iloAccuracyInPPT pointer is not valid 
 425:Generated_Source\PSoC4/CyLFClk.c **** * until the function returns CYRET_SUCCESS. ILO accuracy in PPT is given by:
 426:Generated_Source\PSoC4/CyLFClk.c **** *
 427:Generated_Source\PSoC4/CyLFClk.c **** * IloAccuracyInPPT = ((MeasuredIloFreq - DesiredIloFreq) * 
 428:Generated_Source\PSoC4/CyLFClk.c **** * CY_SYS_CLK_PERTHOUSAND) / DesiredIloFreq);
 429:Generated_Source\PSoC4/CyLFClk.c **** *
 430:Generated_Source\PSoC4/CyLFClk.c **** * DesiredIloFreq  = 32000, CY_SYS_CLK_PERTHOUSAND = 1000;
 431:Generated_Source\PSoC4/CyLFClk.c **** *
 432:Generated_Source\PSoC4/CyLFClk.c **** * \return CYRET_SUCCESS - Indicates trimming is complete. This value indicates 
 433:Generated_Source\PSoC4/CyLFClk.c **** * trimming is successful and iloAccuracyInPPT is within +/- 10%.
 434:Generated_Source\PSoC4/CyLFClk.c **** *
 435:Generated_Source\PSoC4/CyLFClk.c **** * \return CYRET_STARTED - Indicates measurement is in progress. This is applicable 
 436:Generated_Source\PSoC4/CyLFClk.c **** * only for non-blocking mode.
 437:Generated_Source\PSoC4/CyLFClk.c **** *
 438:Generated_Source\PSoC4/CyLFClk.c **** * \return CYRET_INVALID_STATE - Indicates trimming was unsuccessful. You should 
 439:Generated_Source\PSoC4/CyLFClk.c **** * call CySysClkIloStartMeasurement() before calling this API.
 440:Generated_Source\PSoC4/CyLFClk.c **** *
 441:Generated_Source\PSoC4/CyLFClk.c **** * \return CYRET_TIMEOUT - Indicates trimming was unsuccessful. This is applicable 
 442:Generated_Source\PSoC4/CyLFClk.c **** * only for blocking mode. Timeout means the trimming was tried 5 times without 
 443:Generated_Source\PSoC4/CyLFClk.c **** * success (i.e. ILO accuracy > +/- 10%). The user can call the API again for 
 444:Generated_Source\PSoC4/CyLFClk.c **** * another try or wait for some time before calling it again (to let the system 
 445:Generated_Source\PSoC4/CyLFClk.c **** * to settle to another operating point change in temperature etc.) and continue 
 446:Generated_Source\PSoC4/CyLFClk.c **** * using the previous trim value till the next call.
 447:Generated_Source\PSoC4/CyLFClk.c **** *
 448:Generated_Source\PSoC4/CyLFClk.c **** **********************************************************************************/
 449:Generated_Source\PSoC4/CyLFClk.c **** cystatus CySysClkIloTrim(uint32 mode, int32* iloAccuracyInPPT)
 450:Generated_Source\PSoC4/CyLFClk.c **** {
 451:Generated_Source\PSoC4/CyLFClk.c ****     uint32 timeOutClocks = CY_SYS_CLK_TIMEOUT;
 452:Generated_Source\PSoC4/CyLFClk.c ****     uint32 waitUntilCntr1Stops;
 453:Generated_Source\PSoC4/CyLFClk.c ****     static uint32 trimRunningStatus = CY_SYS_CLK_TRIM_OR_COMP_FINISHED;
 454:Generated_Source\PSoC4/CyLFClk.c ****     uint32 checkStatus;
ARM GAS  C:\Users\JamesN4\AppData\Local\Temp\ccOIY297.s 			page 10


 455:Generated_Source\PSoC4/CyLFClk.c ****     cystatus returnStatus;
 456:Generated_Source\PSoC4/CyLFClk.c **** 
 457:Generated_Source\PSoC4/CyLFClk.c ****     checkStatus = (uint32) (CY_SYS_CLK_DFT_REG & (uint32) CY_SYS_TST_DDFT_CTRL_REG_DEFAULT_MASK);
 458:Generated_Source\PSoC4/CyLFClk.c **** 
 459:Generated_Source\PSoC4/CyLFClk.c ****     /* Check if DFT and CTRL registers were configures in CySysStartMeasurement*/
 460:Generated_Source\PSoC4/CyLFClk.c ****     if((checkStatus == CY_SYS_CLK_SEL_ILO_DFT_SOURCE) &&
 461:Generated_Source\PSoC4/CyLFClk.c ****        (CY_SYS_TST_DDFT_CTRL_REG == CY_SYS_TST_DDFT_CTRL_REG_SEL2_CLK1) &&
 462:Generated_Source\PSoC4/CyLFClk.c ****        (iloAccuracyInPPT != NULL))
 463:Generated_Source\PSoC4/CyLFClk.c ****     {
 464:Generated_Source\PSoC4/CyLFClk.c ****         if(CY_SYS_CLK_BLOCKING == mode)
 465:Generated_Source\PSoC4/CyLFClk.c ****         {
 466:Generated_Source\PSoC4/CyLFClk.c ****             waitUntilCntr1Stops = cydelayFreqHz >> CY_SYS_CLK_SYS_CLK_DEVIDER;
 467:Generated_Source\PSoC4/CyLFClk.c ****             do
 468:Generated_Source\PSoC4/CyLFClk.c ****             {
 469:Generated_Source\PSoC4/CyLFClk.c ****                 /* Reload CNTR 1 count value for measuring cycle*/
 470:Generated_Source\PSoC4/CyLFClk.c ****                 CY_SYS_CNT_REG1_REG = cydelayFreqHz >> CY_SYS_CLK_SYS_CLK_DEVIDER; 
 471:Generated_Source\PSoC4/CyLFClk.c **** 
 472:Generated_Source\PSoC4/CyLFClk.c ****                 /* Wait until counter CNTR 1 will finish down-counting */
 473:Generated_Source\PSoC4/CyLFClk.c ****                 while (0u == (CY_SYS_CNT_REG1_REG & CY_SYS_CLK_ILO_CALIBR_COMPLETE_MASK))
 474:Generated_Source\PSoC4/CyLFClk.c ****                 {
 475:Generated_Source\PSoC4/CyLFClk.c ****                     waitUntilCntr1Stops--;
 476:Generated_Source\PSoC4/CyLFClk.c ****                     if (0u == waitUntilCntr1Stops)
 477:Generated_Source\PSoC4/CyLFClk.c ****                     {
 478:Generated_Source\PSoC4/CyLFClk.c ****                         break;
 479:Generated_Source\PSoC4/CyLFClk.c ****                     }
 480:Generated_Source\PSoC4/CyLFClk.c ****                 }
 481:Generated_Source\PSoC4/CyLFClk.c ****                 trimRunningStatus = CySysClkIloUpdateTrimReg(iloAccuracyInPPT);
 482:Generated_Source\PSoC4/CyLFClk.c ****                 timeOutClocks--;
 483:Generated_Source\PSoC4/CyLFClk.c **** 
 484:Generated_Source\PSoC4/CyLFClk.c ****             /* Untill ILO accuracy will be in range less than +/- 10% or timeout occurs*/
 485:Generated_Source\PSoC4/CyLFClk.c ****             } while((CYRET_SUCCESS != trimRunningStatus) && 
 486:Generated_Source\PSoC4/CyLFClk.c ****               (CYRET_INVALID_STATE != trimRunningStatus) && 
 487:Generated_Source\PSoC4/CyLFClk.c ****                                (0u != timeOutClocks));
 488:Generated_Source\PSoC4/CyLFClk.c **** 
 489:Generated_Source\PSoC4/CyLFClk.c ****             if (CYRET_SUCCESS == trimRunningStatus)
 490:Generated_Source\PSoC4/CyLFClk.c ****             {
 491:Generated_Source\PSoC4/CyLFClk.c ****                 returnStatus = CYRET_SUCCESS;
 492:Generated_Source\PSoC4/CyLFClk.c ****             }
 493:Generated_Source\PSoC4/CyLFClk.c ****             else
 494:Generated_Source\PSoC4/CyLFClk.c ****             {
 495:Generated_Source\PSoC4/CyLFClk.c ****                 if(0u == timeOutClocks)
 496:Generated_Source\PSoC4/CyLFClk.c ****                 {
 497:Generated_Source\PSoC4/CyLFClk.c ****                     trimRunningStatus = CY_SYS_CLK_TRIM_OR_COMP_FINISHED;
 498:Generated_Source\PSoC4/CyLFClk.c ****                     returnStatus = CYRET_TIMEOUT;
 499:Generated_Source\PSoC4/CyLFClk.c ****                 }
 500:Generated_Source\PSoC4/CyLFClk.c ****                 else
 501:Generated_Source\PSoC4/CyLFClk.c ****                 {
 502:Generated_Source\PSoC4/CyLFClk.c ****                     returnStatus = CYRET_INVALID_STATE;
 503:Generated_Source\PSoC4/CyLFClk.c ****                 }
 504:Generated_Source\PSoC4/CyLFClk.c ****             }
 505:Generated_Source\PSoC4/CyLFClk.c ****         }
 506:Generated_Source\PSoC4/CyLFClk.c ****         /* Non - blocking mode */
 507:Generated_Source\PSoC4/CyLFClk.c ****         else
 508:Generated_Source\PSoC4/CyLFClk.c ****         {
 509:Generated_Source\PSoC4/CyLFClk.c ****             if (CY_SYS_CLK_TRIM_OR_COMP_FINISHED != trimRunningStatus)
 510:Generated_Source\PSoC4/CyLFClk.c ****             {
 511:Generated_Source\PSoC4/CyLFClk.c ****                 /* Checking if the counter CNTR 1 finished down-counting */
ARM GAS  C:\Users\JamesN4\AppData\Local\Temp\ccOIY297.s 			page 11


 512:Generated_Source\PSoC4/CyLFClk.c ****                 if(0u != (CY_SYS_CNT_REG1_REG & CY_SYS_CLK_ILO_CALIBR_COMPLETE_MASK))
 513:Generated_Source\PSoC4/CyLFClk.c ****                 {
 514:Generated_Source\PSoC4/CyLFClk.c ****                     returnStatus = CySysClkIloUpdateTrimReg(iloAccuracyInPPT);
 515:Generated_Source\PSoC4/CyLFClk.c ****                     trimRunningStatus = CY_SYS_CLK_TRIM_OR_COMP_FINISHED;
 516:Generated_Source\PSoC4/CyLFClk.c ****                 }
 517:Generated_Source\PSoC4/CyLFClk.c ****                 else
 518:Generated_Source\PSoC4/CyLFClk.c ****                 {
 519:Generated_Source\PSoC4/CyLFClk.c ****                     returnStatus = CYRET_STARTED;
 520:Generated_Source\PSoC4/CyLFClk.c ****                 }
 521:Generated_Source\PSoC4/CyLFClk.c ****             }
 522:Generated_Source\PSoC4/CyLFClk.c ****             else
 523:Generated_Source\PSoC4/CyLFClk.c ****             {
 524:Generated_Source\PSoC4/CyLFClk.c ****                 /* Reload CNTR 1 count value for next measuring */
 525:Generated_Source\PSoC4/CyLFClk.c ****                 CY_SYS_CNT_REG1_REG = cydelayFreqHz >> CY_SYS_CLK_SYS_CLK_DEVIDER;
 526:Generated_Source\PSoC4/CyLFClk.c ****                 trimRunningStatus = CY_SYS_CLK_TRIM_OR_COMP_STARTED;
 527:Generated_Source\PSoC4/CyLFClk.c ****                 returnStatus = CYRET_STARTED;
 528:Generated_Source\PSoC4/CyLFClk.c ****             }
 529:Generated_Source\PSoC4/CyLFClk.c ****         }
 530:Generated_Source\PSoC4/CyLFClk.c ****     }
 531:Generated_Source\PSoC4/CyLFClk.c ****     else
 532:Generated_Source\PSoC4/CyLFClk.c ****     {
 533:Generated_Source\PSoC4/CyLFClk.c ****         returnStatus = CYRET_INVALID_STATE;
 534:Generated_Source\PSoC4/CyLFClk.c ****     }
 535:Generated_Source\PSoC4/CyLFClk.c **** 
 536:Generated_Source\PSoC4/CyLFClk.c ****     return (returnStatus);
 537:Generated_Source\PSoC4/CyLFClk.c **** }
 538:Generated_Source\PSoC4/CyLFClk.c **** 
 539:Generated_Source\PSoC4/CyLFClk.c **** 
 540:Generated_Source\PSoC4/CyLFClk.c **** /********************************************************************************
 541:Generated_Source\PSoC4/CyLFClk.c **** * Function Name: CySysClkIloUpdateTrimReg
 542:Generated_Source\PSoC4/CyLFClk.c **** *********************************************************************************
 543:Generated_Source\PSoC4/CyLFClk.c **** *
 544:Generated_Source\PSoC4/CyLFClk.c **** * \internal
 545:Generated_Source\PSoC4/CyLFClk.c **** * Function calculates ILO accuracy and check is error range is higher than 
 546:Generated_Source\PSoC4/CyLFClk.c **** * +/- 10%. If Measured frequency is higher than +/- 10% function updates 
 547:Generated_Source\PSoC4/CyLFClk.c **** * ILO Trim register.
 548:Generated_Source\PSoC4/CyLFClk.c **** *
 549:Generated_Source\PSoC4/CyLFClk.c **** * \param
 550:Generated_Source\PSoC4/CyLFClk.c **** * iloAccuracyInPPT Pointer to an integer in which the trimmed ILO 
 551:Generated_Source\PSoC4/CyLFClk.c **** * accuracy will be returned. The value returned in this pointer is not valid 
 552:Generated_Source\PSoC4/CyLFClk.c **** * until the function returns CYRET_SUCCESS. If ILO frequency error is lower 
 553:Generated_Source\PSoC4/CyLFClk.c **** * than +/- 10% then the value returned in this pointer will be updated.
 554:Generated_Source\PSoC4/CyLFClk.c **** *
 555:Generated_Source\PSoC4/CyLFClk.c **** * \return CYRET_SUCCESS - Indicates that ILO frequency error is lower than 
 556:Generated_Source\PSoC4/CyLFClk.c **** * +/- 10% and no actions are required.
 557:Generated_Source\PSoC4/CyLFClk.c **** *
 558:Generated_Source\PSoC4/CyLFClk.c **** * \return  CYRET_STARTED - Indicates that ILO frequency error is higher than 
 559:Generated_Source\PSoC4/CyLFClk.c **** * +/- 10% and ILO Trim register was updated.
 560:Generated_Source\PSoC4/CyLFClk.c **** *
 561:Generated_Source\PSoC4/CyLFClk.c **** * \return CYRET_INVALID_STATE - Indicates trimming was unsuccessful.
 562:Generated_Source\PSoC4/CyLFClk.c **** *
 563:Generated_Source\PSoC4/CyLFClk.c **** * Post #1 - To obtain 10% ILO accuracy the calculated accuracy should be equal 
 564:Generated_Source\PSoC4/CyLFClk.c **** * CY_SYS_CLK_ERROR_RANGE = 5.6%. Error value should take to account IMO error of 
 565:Generated_Source\PSoC4/CyLFClk.c **** * +/-2% (+/-0.64kHz), trim step of 2.36kHz (+/-1.18kHz) and error while ILO 
 566:Generated_Source\PSoC4/CyLFClk.c **** * frequency measuring.
 567:Generated_Source\PSoC4/CyLFClk.c **** *
 568:Generated_Source\PSoC4/CyLFClk.c **** * \endinternal
ARM GAS  C:\Users\JamesN4\AppData\Local\Temp\ccOIY297.s 			page 12


 569:Generated_Source\PSoC4/CyLFClk.c **** *
 570:Generated_Source\PSoC4/CyLFClk.c **** **********************************************************************************/
 571:Generated_Source\PSoC4/CyLFClk.c **** cystatus CySysClkIloUpdateTrimReg(int32* iloAccuracyInPPT)
 572:Generated_Source\PSoC4/CyLFClk.c **** {
 573:Generated_Source\PSoC4/CyLFClk.c ****     uint32 measuredIloFreq;
 574:Generated_Source\PSoC4/CyLFClk.c ****     uint32 currentIloTrimValue;
 575:Generated_Source\PSoC4/CyLFClk.c ****     int32 iloAccuracyValue;
 576:Generated_Source\PSoC4/CyLFClk.c ****     int32 trimStep;
 577:Generated_Source\PSoC4/CyLFClk.c ****     cystatus errorRangeStatus;
 578:Generated_Source\PSoC4/CyLFClk.c **** 
 579:Generated_Source\PSoC4/CyLFClk.c ****     if(0u != CY_SYS_CNT_REG2_REG)
 580:Generated_Source\PSoC4/CyLFClk.c ****     {
 581:Generated_Source\PSoC4/CyLFClk.c ****         measuredIloFreq = (CY_SYS_CNT_REG2_REG * cydelayFreqHz) / (cydelayFreqHz >> CY_SYS_CLK_SYS_
 582:Generated_Source\PSoC4/CyLFClk.c **** 
 583:Generated_Source\PSoC4/CyLFClk.c ****         /* Calculate value of error in PPT according to formula - 
 584:Generated_Source\PSoC4/CyLFClk.c ****         *       ((measuredIlofrequency - iloDesired frequency) * 1000 / iloDesired frequency) */
 585:Generated_Source\PSoC4/CyLFClk.c ****         iloAccuracyValue = (((int32) measuredIloFreq - (int32) CY_SYS_CLK_ILO_DESIRED_FREQ_HZ) * \
 586:Generated_Source\PSoC4/CyLFClk.c ****                             ((int32) CY_SYS_CLK_PERTHOUSAND)) / ((int32) CY_SYS_CLK_ILO_DESIRED_FRE
 587:Generated_Source\PSoC4/CyLFClk.c **** 
 588:Generated_Source\PSoC4/CyLFClk.c ****         /* Check if ILO accuracy is more than +/- CY_SYS_CLK_ERROR_RANGE. See post #1 of API descri
 589:Generated_Source\PSoC4/CyLFClk.c ****         if(CY_SYS_CLK_ERROR_RANGE < (uint32) (CY_SYS_CLK_ABS_MACRO(iloAccuracyValue)))
 590:Generated_Source\PSoC4/CyLFClk.c ****         {
 591:Generated_Source\PSoC4/CyLFClk.c ****             if (0 < iloAccuracyValue)
 592:Generated_Source\PSoC4/CyLFClk.c ****             {
 593:Generated_Source\PSoC4/CyLFClk.c ****                 trimStep = (int32) (((iloAccuracyValue * (int32) CY_SYS_CLK_ERROR_COEF) + 
 594:Generated_Source\PSoC4/CyLFClk.c ****                 CY_SYS_CLK_HALF_OF_STEP) / CY_SYS_CLK_ERROR_STEP);
 595:Generated_Source\PSoC4/CyLFClk.c ****             }
 596:Generated_Source\PSoC4/CyLFClk.c ****             else
 597:Generated_Source\PSoC4/CyLFClk.c ****             {
 598:Generated_Source\PSoC4/CyLFClk.c ****                 trimStep = (int32) (((iloAccuracyValue * (int32) CY_SYS_CLK_ERROR_COEF) - 
 599:Generated_Source\PSoC4/CyLFClk.c ****                 CY_SYS_CLK_HALF_OF_STEP) / CY_SYS_CLK_ERROR_STEP);
 600:Generated_Source\PSoC4/CyLFClk.c ****             }
 601:Generated_Source\PSoC4/CyLFClk.c ****             currentIloTrimValue = (CY_SYS_CLK_ILO_TRIM_REG & CY_SYS_CLK_ILO_TRIM_MASK);
 602:Generated_Source\PSoC4/CyLFClk.c ****             trimStep = (int32) currentIloTrimValue - trimStep;
 603:Generated_Source\PSoC4/CyLFClk.c **** 
 604:Generated_Source\PSoC4/CyLFClk.c ****             if(trimStep > CY_SYS_CLK_FOURBITS_MAX)
 605:Generated_Source\PSoC4/CyLFClk.c ****             {
 606:Generated_Source\PSoC4/CyLFClk.c ****                 trimStep = CY_SYS_CLK_FOURBITS_MAX;
 607:Generated_Source\PSoC4/CyLFClk.c ****             }
 608:Generated_Source\PSoC4/CyLFClk.c ****             if(trimStep < 0)
 609:Generated_Source\PSoC4/CyLFClk.c ****             {
 610:Generated_Source\PSoC4/CyLFClk.c ****                 trimStep = 0;
 611:Generated_Source\PSoC4/CyLFClk.c ****             }
 612:Generated_Source\PSoC4/CyLFClk.c ****             CY_SYS_CLK_ILO_TRIM_REG = (CY_SYS_CLK_ILO_TRIM_REG & (uint32)(~CY_SYS_CLK_ILO_TRIM_MASK
 613:Generated_Source\PSoC4/CyLFClk.c ****                                                                  ((uint32) trimStep);
 614:Generated_Source\PSoC4/CyLFClk.c ****             errorRangeStatus = CYRET_STARTED;
 615:Generated_Source\PSoC4/CyLFClk.c ****         } /* Else return success because error is in +/- 10% range*/
 616:Generated_Source\PSoC4/CyLFClk.c ****         else
 617:Generated_Source\PSoC4/CyLFClk.c ****         {
 618:Generated_Source\PSoC4/CyLFClk.c ****             /* Write trimmed ILO accuracy through pointer. */
 619:Generated_Source\PSoC4/CyLFClk.c ****             *iloAccuracyInPPT = iloAccuracyValue;
 620:Generated_Source\PSoC4/CyLFClk.c ****             errorRangeStatus = CYRET_SUCCESS;
 621:Generated_Source\PSoC4/CyLFClk.c ****         }
 622:Generated_Source\PSoC4/CyLFClk.c ****     }
 623:Generated_Source\PSoC4/CyLFClk.c ****     else
 624:Generated_Source\PSoC4/CyLFClk.c ****     {
 625:Generated_Source\PSoC4/CyLFClk.c ****         errorRangeStatus = CYRET_INVALID_STATE;
ARM GAS  C:\Users\JamesN4\AppData\Local\Temp\ccOIY297.s 			page 13


 626:Generated_Source\PSoC4/CyLFClk.c ****     }
 627:Generated_Source\PSoC4/CyLFClk.c **** return (errorRangeStatus);
 628:Generated_Source\PSoC4/CyLFClk.c **** }
 629:Generated_Source\PSoC4/CyLFClk.c **** 
 630:Generated_Source\PSoC4/CyLFClk.c **** 
 631:Generated_Source\PSoC4/CyLFClk.c **** /*******************************************************************************
 632:Generated_Source\PSoC4/CyLFClk.c **** * Function Name: CySysClkIloRestoreFactoryTrim
 633:Generated_Source\PSoC4/CyLFClk.c **** ****************************************************************************//**
 634:Generated_Source\PSoC4/CyLFClk.c **** * \brief
 635:Generated_Source\PSoC4/CyLFClk.c **** * Restores the ILO Trim Register to factory value.
 636:Generated_Source\PSoC4/CyLFClk.c **** *
 637:Generated_Source\PSoC4/CyLFClk.c **** * The CySysClkIloStartMeasurement() API should be called prior to 
 638:Generated_Source\PSoC4/CyLFClk.c **** * calling this API. Otherwise CYRET_UNKNOWN will be returned.
 639:Generated_Source\PSoC4/CyLFClk.c **** *
 640:Generated_Source\PSoC4/CyLFClk.c **** * Available for all PSoC 4 devices except for PSoC 4000 / PSoC 4100 / PSoC 4200 
 641:Generated_Source\PSoC4/CyLFClk.c **** * / PSoC 4000S / PSoC 4100S / PSoC Analog Coprocessor devices.
 642:Generated_Source\PSoC4/CyLFClk.c **** *
 643:Generated_Source\PSoC4/CyLFClk.c **** * \return CYRET_SUCCESS - Operation was successful. 
 644:Generated_Source\PSoC4/CyLFClk.c **** * \return CYRET_UNKNOWN - CySysClkIloStartMeasurement() was not called 
 645:Generated_Source\PSoC4/CyLFClk.c **** * before this API. Hence the trim value cannot be updated.
 646:Generated_Source\PSoC4/CyLFClk.c **** *
 647:Generated_Source\PSoC4/CyLFClk.c **** ******************************************************************************/
 648:Generated_Source\PSoC4/CyLFClk.c **** cystatus CySysClkIloRestoreFactoryTrim(void)
 649:Generated_Source\PSoC4/CyLFClk.c **** {
 650:Generated_Source\PSoC4/CyLFClk.c ****     cystatus returnStatus = CYRET_SUCCESS;
 651:Generated_Source\PSoC4/CyLFClk.c **** 
 652:Generated_Source\PSoC4/CyLFClk.c ****     /* Check was defaultIloTrimRegValue modified in CySysClkIloStartMeasurement */
 653:Generated_Source\PSoC4/CyLFClk.c ****     if(CY_SYS_CLK_ILO_TRIM_DEFAULT_VALUE != defaultIloTrimRegValue)
 654:Generated_Source\PSoC4/CyLFClk.c ****         {
 655:Generated_Source\PSoC4/CyLFClk.c ****             CY_SYS_CLK_ILO_TRIM_REG = ((CY_SYS_CLK_ILO_TRIM_REG & (uint32)(~CY_SYS_CLK_ILO_TRIM_MAS
 656:Generated_Source\PSoC4/CyLFClk.c ****                                        (defaultIloTrimRegValue & CY_SYS_CLK_ILO_TRIM_MASK));
 657:Generated_Source\PSoC4/CyLFClk.c ****         }
 658:Generated_Source\PSoC4/CyLFClk.c ****         else
 659:Generated_Source\PSoC4/CyLFClk.c ****         {
 660:Generated_Source\PSoC4/CyLFClk.c ****             returnStatus = CYRET_UNKNOWN;
 661:Generated_Source\PSoC4/CyLFClk.c ****         }
 662:Generated_Source\PSoC4/CyLFClk.c **** 
 663:Generated_Source\PSoC4/CyLFClk.c ****         return (returnStatus);
 664:Generated_Source\PSoC4/CyLFClk.c **** }
 665:Generated_Source\PSoC4/CyLFClk.c **** #endif /* (CY_IP_SRSSV2 && (!CY_IP_CPUSS)) */
 666:Generated_Source\PSoC4/CyLFClk.c **** 
 667:Generated_Source\PSoC4/CyLFClk.c **** 
 668:Generated_Source\PSoC4/CyLFClk.c **** #if (CY_IP_WCO && CY_IP_SRSSV2)
 669:Generated_Source\PSoC4/CyLFClk.c ****     /*******************************************************************************
 670:Generated_Source\PSoC4/CyLFClk.c ****     * Function Name: CySysClkGetLfclkSource
 671:Generated_Source\PSoC4/CyLFClk.c ****     ********************************************************************************
 672:Generated_Source\PSoC4/CyLFClk.c ****     *
 673:Generated_Source\PSoC4/CyLFClk.c ****     * \internal
 674:Generated_Source\PSoC4/CyLFClk.c ****     *  Gets the clock source for the LFCLK clock.
 675:Generated_Source\PSoC4/CyLFClk.c ****     *  The function is applicable only for PSoC 4100 BLE / PSoC 4200 BLE / 
 676:Generated_Source\PSoC4/CyLFClk.c ****     *  PSoC 4100M / PSoC 4200M / PSoC 4200L.
 677:Generated_Source\PSoC4/CyLFClk.c ****     *
 678:Generated_Source\PSoC4/CyLFClk.c ****     * \return The LFCLK source:
 679:Generated_Source\PSoC4/CyLFClk.c ****     * CY_SYS_CLK_LFCLK_SRC_ILO Internal Low Frequency (32 kHz) Oscillator (ILO)
 680:Generated_Source\PSoC4/CyLFClk.c ****     * CY_SYS_CLK_LFCLK_SRC_WCO Low Frequency Watch Crystal Oscillator (WCO)
 681:Generated_Source\PSoC4/CyLFClk.c ****     *
 682:Generated_Source\PSoC4/CyLFClk.c ****     * \endinternal
ARM GAS  C:\Users\JamesN4\AppData\Local\Temp\ccOIY297.s 			page 14


 683:Generated_Source\PSoC4/CyLFClk.c ****     *
 684:Generated_Source\PSoC4/CyLFClk.c ****     *******************************************************************************/
 685:Generated_Source\PSoC4/CyLFClk.c ****     static uint32 CySysClkGetLfclkSource(void)
 686:Generated_Source\PSoC4/CyLFClk.c ****     {
  60              		.loc 1 686 0
  61              		.cfi_startproc
  62              		@ args = 0, pretend = 0, frame = 0
  63              		@ frame_needed = 0, uses_anonymous_args = 0
  64              		@ link register save eliminated.
 687:Generated_Source\PSoC4/CyLFClk.c ****         uint32 lfclkSource;
 688:Generated_Source\PSoC4/CyLFClk.c ****         lfclkSource = CY_SYS_WDT_CONFIG_REG & CY_SYS_CLK_LFCLK_SEL_MASK;
  65              		.loc 1 688 0
  66 0000 024B     		ldr	r3, .L7
  67 0002 1868     		ldr	r0, [r3]
  68 0004 800F     		lsrs	r0, r0, #30
  69 0006 8007     		lsls	r0, r0, #30
  70              	.LVL0:
 689:Generated_Source\PSoC4/CyLFClk.c ****         return (lfclkSource);
 690:Generated_Source\PSoC4/CyLFClk.c ****     }
  71              		.loc 1 690 0
  72              		@ sp needed
  73 0008 7047     		bx	lr
  74              	.L8:
  75 000a C046     		.align	2
  76              	.L7:
  77 000c 0C020B40 		.word	1074463244
  78              		.cfi_endproc
  79              	.LFE10:
  80              		.size	CySysClkGetLfclkSource, .-CySysClkGetLfclkSource
  81              		.section	.text.CySysWdtLocked,"ax",%progbits
  82              		.align	2
  83              		.code	16
  84              		.thumb_func
  85              		.type	CySysWdtLocked, %function
  86              	CySysWdtLocked:
  87              	.LFB18:
 691:Generated_Source\PSoC4/CyLFClk.c **** 
 692:Generated_Source\PSoC4/CyLFClk.c **** 
 693:Generated_Source\PSoC4/CyLFClk.c ****     /*******************************************************************************
 694:Generated_Source\PSoC4/CyLFClk.c ****     * Function Name: CySysClkSetLfclkSource
 695:Generated_Source\PSoC4/CyLFClk.c ****     ****************************************************************************//**
 696:Generated_Source\PSoC4/CyLFClk.c ****     * \brief
 697:Generated_Source\PSoC4/CyLFClk.c ****     *  Sets the clock source for the LFCLK clock.
 698:Generated_Source\PSoC4/CyLFClk.c ****     *
 699:Generated_Source\PSoC4/CyLFClk.c ****     * The switch between LFCLK sources must be done between the positive edges of
 700:Generated_Source\PSoC4/CyLFClk.c ****     * LFCLK, because the glitch risk is around the LFCLK positive edge. To ensure
 701:Generated_Source\PSoC4/CyLFClk.c ****     * that the switch can be done safely, the WDT counter value is read until it
 702:Generated_Source\PSoC4/CyLFClk.c ****     * changes.
 703:Generated_Source\PSoC4/CyLFClk.c ****     *
 704:Generated_Source\PSoC4/CyLFClk.c ****     * That means that the positive edge just finished and the switch is performed.
 705:Generated_Source\PSoC4/CyLFClk.c ****     * The enabled WDT counter is used for that purpose. If no counters are enabled,
 706:Generated_Source\PSoC4/CyLFClk.c ****     * counter 0 is enabled. And after the LFCLK source is switched, counter 0
 707:Generated_Source\PSoC4/CyLFClk.c ****     * configuration is restored.
 708:Generated_Source\PSoC4/CyLFClk.c ****     *
 709:Generated_Source\PSoC4/CyLFClk.c ****     *  The function is applicable only for devices with more than one source for 
 710:Generated_Source\PSoC4/CyLFClk.c ****     * LFCLK - PSoC 4100 BLE / PSoC 4200 BLE / PRoC BLE / PSoC 4100M / PSoC 4200M / 
 711:Generated_Source\PSoC4/CyLFClk.c ****     * PSoC 4200L.
ARM GAS  C:\Users\JamesN4\AppData\Local\Temp\ccOIY297.s 			page 15


 712:Generated_Source\PSoC4/CyLFClk.c ****     *
 713:Generated_Source\PSoC4/CyLFClk.c ****     * \note For PSoC 4000S / PSoC 4100S / PSoC Analog Coprocessor devices LFCLK can
 714:Generated_Source\PSoC4/CyLFClk.c ****     * only be sourced from ILO even though WCO is available.
 715:Generated_Source\PSoC4/CyLFClk.c ****     *
 716:Generated_Source\PSoC4/CyLFClk.c ****     * \param
 717:Generated_Source\PSoC4/CyLFClk.c ****     * source
 718:Generated_Source\PSoC4/CyLFClk.c ****     * CY_SYS_CLK_LFCLK_SRC_ILO - Internal Low Frequency (32 kHz) 
 719:Generated_Source\PSoC4/CyLFClk.c ****     * Oscillator (ILO).<br>
 720:Generated_Source\PSoC4/CyLFClk.c ****     * CY_SYS_CLK_LFCLK_SRC_WCO - Low Frequency Watch Crystal Oscillator (WCO).
 721:Generated_Source\PSoC4/CyLFClk.c ****     *
 722:Generated_Source\PSoC4/CyLFClk.c ****     * \details
 723:Generated_Source\PSoC4/CyLFClk.c ****     * This function has no effect if WDT is locked (CySysWdtLock() is called). 
 724:Generated_Source\PSoC4/CyLFClk.c ****     * Call CySysWdtUnlock() to unlock WDT.
 725:Generated_Source\PSoC4/CyLFClk.c ****     *
 726:Generated_Source\PSoC4/CyLFClk.c ****     * Both the current source and the new source must be running and stable before
 727:Generated_Source\PSoC4/CyLFClk.c ****     * calling this function.
 728:Generated_Source\PSoC4/CyLFClk.c ****     *
 729:Generated_Source\PSoC4/CyLFClk.c ****     * Changing the LFCLK clock source may change the LFCLK clock frequency and
 730:Generated_Source\PSoC4/CyLFClk.c ****     * affect the functionality that uses this clock. For example, watchdog timer
 731:Generated_Source\PSoC4/CyLFClk.c ****     * "uses this clock" or "this clock uses" (WDT) is clocked by LFCLK.
 732:Generated_Source\PSoC4/CyLFClk.c ****     *
 733:Generated_Source\PSoC4/CyLFClk.c ****     *******************************************************************************/
 734:Generated_Source\PSoC4/CyLFClk.c ****     void CySysClkSetLfclkSource(uint32 source)
 735:Generated_Source\PSoC4/CyLFClk.c ****     {
 736:Generated_Source\PSoC4/CyLFClk.c ****         uint8  interruptState;
 737:Generated_Source\PSoC4/CyLFClk.c **** 
 738:Generated_Source\PSoC4/CyLFClk.c ****         if (CySysClkGetLfclkSource() != source)
 739:Generated_Source\PSoC4/CyLFClk.c ****         {
 740:Generated_Source\PSoC4/CyLFClk.c ****             interruptState = CyEnterCriticalSection();
 741:Generated_Source\PSoC4/CyLFClk.c ****             CySysClkLfclkPosedgeCatch();
 742:Generated_Source\PSoC4/CyLFClk.c ****             CY_SYS_WDT_CONFIG_REG = (CY_SYS_WDT_CONFIG_REG & (uint32)(~CY_SYS_CLK_LFCLK_SEL_MASK)) 
 743:Generated_Source\PSoC4/CyLFClk.c ****                                     (source & CY_SYS_CLK_LFCLK_SEL_MASK);
 744:Generated_Source\PSoC4/CyLFClk.c ****             CySysClkLfclkPosedgeRestore();
 745:Generated_Source\PSoC4/CyLFClk.c ****             CyExitCriticalSection(interruptState);
 746:Generated_Source\PSoC4/CyLFClk.c ****         }
 747:Generated_Source\PSoC4/CyLFClk.c ****     }
 748:Generated_Source\PSoC4/CyLFClk.c **** #endif /* (CY_IP_WCO && CY_IP_SRSSV2) */
 749:Generated_Source\PSoC4/CyLFClk.c **** 
 750:Generated_Source\PSoC4/CyLFClk.c **** 
 751:Generated_Source\PSoC4/CyLFClk.c **** #if (CY_IP_WCO)
 752:Generated_Source\PSoC4/CyLFClk.c ****     /*******************************************************************************
 753:Generated_Source\PSoC4/CyLFClk.c ****     * Function Name: CySysClkWcoStart
 754:Generated_Source\PSoC4/CyLFClk.c ****     ****************************************************************************//**
 755:Generated_Source\PSoC4/CyLFClk.c ****     * \brief
 756:Generated_Source\PSoC4/CyLFClk.c ****     *  Enables Watch Crystal Oscillator (WCO).
 757:Generated_Source\PSoC4/CyLFClk.c ****     * 
 758:Generated_Source\PSoC4/CyLFClk.c ****     * This API enables WCO which is used as a source for LFCLK. Similar to ILO, 
 759:Generated_Source\PSoC4/CyLFClk.c ****     * WCO is also available in all modes except Hibernate and Stop modes.
 760:Generated_Source\PSoC4/CyLFClk.c ****     * \note In PSoC 4000S / PSoC 4100S / PSoC Analog Coprocessor devices
 761:Generated_Source\PSoC4/CyLFClk.c ****     * WCO cannot be a source for the LFCLK. 
 762:Generated_Source\PSoC4/CyLFClk.c ****     *
 763:Generated_Source\PSoC4/CyLFClk.c ****     *  WCO is always enabled in High Power Mode (HPM). Refer to the device
 764:Generated_Source\PSoC4/CyLFClk.c ****     *  datasheet for the  WCO startup time. Once WCO becomes stable it can be
 765:Generated_Source\PSoC4/CyLFClk.c ****     *  switched to Low Power Mode (LPM). Note that oscillator can be unstable
 766:Generated_Source\PSoC4/CyLFClk.c ****     *  during a switch and hence its output should not be used at that moment.
 767:Generated_Source\PSoC4/CyLFClk.c ****     *
 768:Generated_Source\PSoC4/CyLFClk.c ****     *  The CySysClkWcoSetPowerMode() function configures the WCO power mode.
ARM GAS  C:\Users\JamesN4\AppData\Local\Temp\ccOIY297.s 			page 16


 769:Generated_Source\PSoC4/CyLFClk.c ****     *
 770:Generated_Source\PSoC4/CyLFClk.c ****     *******************************************************************************/
 771:Generated_Source\PSoC4/CyLFClk.c ****     void CySysClkWcoStart(void)
 772:Generated_Source\PSoC4/CyLFClk.c ****     {
 773:Generated_Source\PSoC4/CyLFClk.c ****         CySysClkWcoSetHighPowerMode();
 774:Generated_Source\PSoC4/CyLFClk.c ****         CY_SYS_CLK_WCO_CONFIG_REG |= CY_SYS_CLK_WCO_CONFIG_LPM_ENABLE;
 775:Generated_Source\PSoC4/CyLFClk.c ****     }
 776:Generated_Source\PSoC4/CyLFClk.c **** 
 777:Generated_Source\PSoC4/CyLFClk.c **** 
 778:Generated_Source\PSoC4/CyLFClk.c ****     /*******************************************************************************
 779:Generated_Source\PSoC4/CyLFClk.c ****     * Function Name: CySysClkWcoStop
 780:Generated_Source\PSoC4/CyLFClk.c ****     ****************************************************************************//**
 781:Generated_Source\PSoC4/CyLFClk.c ****     * \brief
 782:Generated_Source\PSoC4/CyLFClk.c ****     * Disables the 32 KHz Crystal Oscillator.
 783:Generated_Source\PSoC4/CyLFClk.c ****     *
 784:Generated_Source\PSoC4/CyLFClk.c ****     * API switch of WCO.
 785:Generated_Source\PSoC4/CyLFClk.c ****     * \note PSoC 4100S / PSoC Analog Coprocessor: WCO is required for DeepSleep 
 786:Generated_Source\PSoC4/CyLFClk.c ****     * Timer's operation.
 787:Generated_Source\PSoC4/CyLFClk.c ****     *
 788:Generated_Source\PSoC4/CyLFClk.c ****     *******************************************************************************/
 789:Generated_Source\PSoC4/CyLFClk.c ****     void  CySysClkWcoStop(void)
 790:Generated_Source\PSoC4/CyLFClk.c ****     {
 791:Generated_Source\PSoC4/CyLFClk.c ****         #if (CY_IP_SRSSV2)
 792:Generated_Source\PSoC4/CyLFClk.c ****             uint8  interruptState;
 793:Generated_Source\PSoC4/CyLFClk.c ****         #endif /* (CY_IP_SRSSV2) */
 794:Generated_Source\PSoC4/CyLFClk.c **** 
 795:Generated_Source\PSoC4/CyLFClk.c ****         if (0u != CySysClkWcoEnabled())
 796:Generated_Source\PSoC4/CyLFClk.c ****         {
 797:Generated_Source\PSoC4/CyLFClk.c ****             #if (CY_IP_SRSSV2)
 798:Generated_Source\PSoC4/CyLFClk.c ****                 if (CY_SYS_CLK_LFCLK_SRC_WCO == CySysClkGetLfclkSource())
 799:Generated_Source\PSoC4/CyLFClk.c ****                 {
 800:Generated_Source\PSoC4/CyLFClk.c ****                     interruptState = CyEnterCriticalSection();
 801:Generated_Source\PSoC4/CyLFClk.c ****                     CySysClkLfclkPosedgeCatch();
 802:Generated_Source\PSoC4/CyLFClk.c ****                     CY_SYS_CLK_WCO_CONFIG_REG &= (uint32) ~CY_SYS_CLK_WCO_CONFIG_LPM_ENABLE;
 803:Generated_Source\PSoC4/CyLFClk.c ****                     CySysClkLfclkPosedgeRestore();
 804:Generated_Source\PSoC4/CyLFClk.c ****                     CyExitCriticalSection(interruptState);
 805:Generated_Source\PSoC4/CyLFClk.c ****                 }
 806:Generated_Source\PSoC4/CyLFClk.c ****                 else /* Safe to disable - shortened pulse does not impact peripheral */
 807:Generated_Source\PSoC4/CyLFClk.c ****             #endif /* (CY_IP_SRSSV2) */
 808:Generated_Source\PSoC4/CyLFClk.c ****             {
 809:Generated_Source\PSoC4/CyLFClk.c ****                 CY_SYS_CLK_WCO_CONFIG_REG &= (uint32) ~CY_SYS_CLK_WCO_CONFIG_LPM_ENABLE;
 810:Generated_Source\PSoC4/CyLFClk.c ****             }
 811:Generated_Source\PSoC4/CyLFClk.c ****         } /* Otherwise do nothing. WCO configuration cannot be changed. */
 812:Generated_Source\PSoC4/CyLFClk.c ****     }
 813:Generated_Source\PSoC4/CyLFClk.c **** 
 814:Generated_Source\PSoC4/CyLFClk.c **** 
 815:Generated_Source\PSoC4/CyLFClk.c ****     /*******************************************************************************
 816:Generated_Source\PSoC4/CyLFClk.c ****     * Function Name: CySysClkWcoEnabled
 817:Generated_Source\PSoC4/CyLFClk.c ****     ****************************************************************************//**
 818:Generated_Source\PSoC4/CyLFClk.c ****     * \internal Reports the WCO enable state.
 819:Generated_Source\PSoC4/CyLFClk.c ****     *
 820:Generated_Source\PSoC4/CyLFClk.c ****     * \return 1 if WCO is enabled
 821:Generated_Source\PSoC4/CyLFClk.c ****     * \return 0 if WCO is disabled.
 822:Generated_Source\PSoC4/CyLFClk.c ****     * \endinternal
 823:Generated_Source\PSoC4/CyLFClk.c ****     *******************************************************************************/
 824:Generated_Source\PSoC4/CyLFClk.c ****     uint32 CySysClkWcoEnabled(void)
 825:Generated_Source\PSoC4/CyLFClk.c ****     {
ARM GAS  C:\Users\JamesN4\AppData\Local\Temp\ccOIY297.s 			page 17


 826:Generated_Source\PSoC4/CyLFClk.c ****         return ((0u != (CY_SYS_CLK_WCO_CONFIG_REG & (uint32)(CY_SYS_CLK_WCO_CONFIG_LPM_ENABLE))) ?
 827:Generated_Source\PSoC4/CyLFClk.c ****                 (uint32) 1u :
 828:Generated_Source\PSoC4/CyLFClk.c ****                 (uint32) 0u);
 829:Generated_Source\PSoC4/CyLFClk.c ****     }
 830:Generated_Source\PSoC4/CyLFClk.c **** 
 831:Generated_Source\PSoC4/CyLFClk.c **** 
 832:Generated_Source\PSoC4/CyLFClk.c ****     /*******************************************************************************
 833:Generated_Source\PSoC4/CyLFClk.c ****     * Function Name: CySysClkWcoSetPowerMode
 834:Generated_Source\PSoC4/CyLFClk.c ****     ****************************************************************************//**
 835:Generated_Source\PSoC4/CyLFClk.c ****     * \brief
 836:Generated_Source\PSoC4/CyLFClk.c ****     * Sets the power mode for the 32 KHz WCO.
 837:Generated_Source\PSoC4/CyLFClk.c ****     *
 838:Generated_Source\PSoC4/CyLFClk.c ****     * By default (if this function is not called), the WCO is in High power mode 
 839:Generated_Source\PSoC4/CyLFClk.c ****     * during Active and device's low power modes
 840:Generated_Source\PSoC4/CyLFClk.c ****     *
 841:Generated_Source\PSoC4/CyLFClk.c ****     * \param mode
 842:Generated_Source\PSoC4/CyLFClk.c ****     * CY_SYS_CLK_WCO_HPM - The High Power mode.<br>
 843:Generated_Source\PSoC4/CyLFClk.c ****     * CY_SYS_CLK_WCO_LPM - The Low Power mode.
 844:Generated_Source\PSoC4/CyLFClk.c ****     *
 845:Generated_Source\PSoC4/CyLFClk.c ****     * \return A previous power mode. The same as the parameters.
 846:Generated_Source\PSoC4/CyLFClk.c ****     *
 847:Generated_Source\PSoC4/CyLFClk.c ****     * \note
 848:Generated_Source\PSoC4/CyLFClk.c ****     * The WCO Low Power mode is applicable for PSoC 4100 BLE / PSoC 4200 BLE devices.
 849:Generated_Source\PSoC4/CyLFClk.c ****     *
 850:Generated_Source\PSoC4/CyLFClk.c ****     *******************************************************************************/
 851:Generated_Source\PSoC4/CyLFClk.c ****     uint32 CySysClkWcoSetPowerMode(uint32 mode)
 852:Generated_Source\PSoC4/CyLFClk.c ****     {
 853:Generated_Source\PSoC4/CyLFClk.c ****         uint32 powerModeStatus;
 854:Generated_Source\PSoC4/CyLFClk.c **** 
 855:Generated_Source\PSoC4/CyLFClk.c ****         powerModeStatus = CY_SYS_CLK_WCO_CONFIG_REG & CY_SYS_CLK_WCO_CONFIG_LPM_EN;
 856:Generated_Source\PSoC4/CyLFClk.c **** 
 857:Generated_Source\PSoC4/CyLFClk.c ****         switch(mode)
 858:Generated_Source\PSoC4/CyLFClk.c ****         {
 859:Generated_Source\PSoC4/CyLFClk.c ****         case CY_SYS_CLK_WCO_HPM:
 860:Generated_Source\PSoC4/CyLFClk.c ****                 CySysClkWcoSetHighPowerMode();
 861:Generated_Source\PSoC4/CyLFClk.c ****             break;
 862:Generated_Source\PSoC4/CyLFClk.c **** 
 863:Generated_Source\PSoC4/CyLFClk.c ****         #if(CY_IP_BLESS)
 864:Generated_Source\PSoC4/CyLFClk.c ****             case CY_SYS_CLK_WCO_LPM:
 865:Generated_Source\PSoC4/CyLFClk.c ****                     CySysClkWcoSetLowPowerMode();
 866:Generated_Source\PSoC4/CyLFClk.c ****                 break;
 867:Generated_Source\PSoC4/CyLFClk.c ****         #endif /* (CY_IP_BLESS) */
 868:Generated_Source\PSoC4/CyLFClk.c **** 
 869:Generated_Source\PSoC4/CyLFClk.c ****         default:
 870:Generated_Source\PSoC4/CyLFClk.c ****             CYASSERT(0u != 0u);
 871:Generated_Source\PSoC4/CyLFClk.c ****             break;
 872:Generated_Source\PSoC4/CyLFClk.c ****         }
 873:Generated_Source\PSoC4/CyLFClk.c **** 
 874:Generated_Source\PSoC4/CyLFClk.c ****         return (powerModeStatus);
 875:Generated_Source\PSoC4/CyLFClk.c ****     }
 876:Generated_Source\PSoC4/CyLFClk.c **** 
 877:Generated_Source\PSoC4/CyLFClk.c **** 
 878:Generated_Source\PSoC4/CyLFClk.c ****     /*******************************************************************************
 879:Generated_Source\PSoC4/CyLFClk.c ****     * Function Name: CySysClkWcoClockOutSelect
 880:Generated_Source\PSoC4/CyLFClk.c ****     ****************************************************************************//**
 881:Generated_Source\PSoC4/CyLFClk.c ****     * \brief
 882:Generated_Source\PSoC4/CyLFClk.c ****     * Selects the WCO block output source.
ARM GAS  C:\Users\JamesN4\AppData\Local\Temp\ccOIY297.s 			page 18


 883:Generated_Source\PSoC4/CyLFClk.c ****     *
 884:Generated_Source\PSoC4/CyLFClk.c ****     * In addition to generating 32.768 kHz clock from external crystals, WCO 
 885:Generated_Source\PSoC4/CyLFClk.c ****     * can be sourced by external clock source using wco_out pin. The API help to
 886:Generated_Source\PSoC4/CyLFClk.c ****     * lets you select between the sources: External crystal or external pin.
 887:Generated_Source\PSoC4/CyLFClk.c ****     *
 888:Generated_Source\PSoC4/CyLFClk.c ****     * If you want to use external pin to drive WCO the next procedure is required:
 889:Generated_Source\PSoC4/CyLFClk.c ****     * <br> 1) Disable the WCO.
 890:Generated_Source\PSoC4/CyLFClk.c ****     * <br> 2) Drive the wco_out pin to an external signal source.
 891:Generated_Source\PSoC4/CyLFClk.c ****     * <br> 3) Call CySysClkWcoClockOutSelect(CY_SYS_CLK_WCO_SEL_PIN).
 892:Generated_Source\PSoC4/CyLFClk.c ****     * <br> 4) Enable the WCO and wait for 15 us before clocking the XO pad at the high 
 893:Generated_Source\PSoC4/CyLFClk.c ****     * potential. Let's assume you are using the 1.6v clock amplitude, then the
 894:Generated_Source\PSoC4/CyLFClk.c ****     * sequence would start at 1.6v, then 0v, then 1.6v etc at a chosen frequency.
 895:Generated_Source\PSoC4/CyLFClk.c ****     *
 896:Generated_Source\PSoC4/CyLFClk.c ****     * If you want to use WCO after using an external pin source:
 897:Generated_Source\PSoC4/CyLFClk.c ****     * <br> 1) Disable the WCO.
 898:Generated_Source\PSoC4/CyLFClk.c ****     * <br> 2) Drive off wco_out pin with external signal source.
 899:Generated_Source\PSoC4/CyLFClk.c ****     * <br> 3) Call CySysClkWcoClockOutSelect(CY_SYS_CLK_WCO_SEL_CRYSTAL).
 900:Generated_Source\PSoC4/CyLFClk.c ****     * <br> 4) Enable the WCO.
 901:Generated_Source\PSoC4/CyLFClk.c ****     *
 902:Generated_Source\PSoC4/CyLFClk.c ****     * \warning 
 903:Generated_Source\PSoC4/CyLFClk.c ****     * Do not use the oscillator output clock prior to a 15uS delay in your system.
 904:Generated_Source\PSoC4/CyLFClk.c ****     * There are no limitations on the external clock frequency.
 905:Generated_Source\PSoC4/CyLFClk.c ****     * \warning 
 906:Generated_Source\PSoC4/CyLFClk.c ****     * When external clock source was selected to drive WCO block the IMO can be 
 907:Generated_Source\PSoC4/CyLFClk.c ****     * trimmed only when external clock source period is equal to WCO external
 908:Generated_Source\PSoC4/CyLFClk.c ****     * crystal period. Also external clock source accuracy should be higher 
 909:Generated_Source\PSoC4/CyLFClk.c ****     * or equal to WCO external crystal accuracy.
 910:Generated_Source\PSoC4/CyLFClk.c ****     *
 911:Generated_Source\PSoC4/CyLFClk.c ****     * \param clockSel
 912:Generated_Source\PSoC4/CyLFClk.c ****     * CY_SYS_CLK_WCO_SEL_CRYSTAL - Selects External crystal as clock 
 913:Generated_Source\PSoC4/CyLFClk.c ****     * source of WCO.<br>
 914:Generated_Source\PSoC4/CyLFClk.c ****     * CY_SYS_CLK_WCO_SEL_PIN - Selects External clock input on wco_in pin as 
 915:Generated_Source\PSoC4/CyLFClk.c ****     * clock source of WCO.
 916:Generated_Source\PSoC4/CyLFClk.c ****     *
 917:Generated_Source\PSoC4/CyLFClk.c ****     *******************************************************************************/
 918:Generated_Source\PSoC4/CyLFClk.c ****     void CySysClkWcoClockOutSelect(uint32 clockSel)
 919:Generated_Source\PSoC4/CyLFClk.c ****     {
 920:Generated_Source\PSoC4/CyLFClk.c ****         if (0u != CySysClkWcoEnabled())
 921:Generated_Source\PSoC4/CyLFClk.c ****         {
 922:Generated_Source\PSoC4/CyLFClk.c ****             if (1u >= clockSel)
 923:Generated_Source\PSoC4/CyLFClk.c ****             {
 924:Generated_Source\PSoC4/CyLFClk.c ****                 CY_SYS_CLK_WCO_CONFIG_REG = (CY_SYS_CLK_WCO_CONFIG_REG & (uint32)(~CY_SYS_CLK_WCO_S
 925:Generated_Source\PSoC4/CyLFClk.c ****                                         (clockSel << CY_SYS_CLK_WCO_SELECT_PIN_OFFSET);
 926:Generated_Source\PSoC4/CyLFClk.c ****             }
 927:Generated_Source\PSoC4/CyLFClk.c ****             else
 928:Generated_Source\PSoC4/CyLFClk.c ****             {
 929:Generated_Source\PSoC4/CyLFClk.c ****                 CYASSERT(0u != 0u);
 930:Generated_Source\PSoC4/CyLFClk.c ****             }
 931:Generated_Source\PSoC4/CyLFClk.c ****         }
 932:Generated_Source\PSoC4/CyLFClk.c ****     }
 933:Generated_Source\PSoC4/CyLFClk.c **** #endif  /* (CY_IP_WCO) */
 934:Generated_Source\PSoC4/CyLFClk.c **** 
 935:Generated_Source\PSoC4/CyLFClk.c **** 
 936:Generated_Source\PSoC4/CyLFClk.c **** #if(CY_IP_SRSSV2)
 937:Generated_Source\PSoC4/CyLFClk.c ****     /*******************************************************************************
 938:Generated_Source\PSoC4/CyLFClk.c ****     * Function Name: CySysWdtLock
 939:Generated_Source\PSoC4/CyLFClk.c ****     ****************************************************************************//**
ARM GAS  C:\Users\JamesN4\AppData\Local\Temp\ccOIY297.s 			page 19


 940:Generated_Source\PSoC4/CyLFClk.c ****     * \brief
 941:Generated_Source\PSoC4/CyLFClk.c ****     * Locks out configuration changes to the Watchdog timer registers and ILO
 942:Generated_Source\PSoC4/CyLFClk.c ****     * configuration register.
 943:Generated_Source\PSoC4/CyLFClk.c ****     *
 944:Generated_Source\PSoC4/CyLFClk.c ****     * After this function is called, ILO clock can't be disabled until
 945:Generated_Source\PSoC4/CyLFClk.c ****     * CySysWdtUnlock() is called.
 946:Generated_Source\PSoC4/CyLFClk.c ****     *
 947:Generated_Source\PSoC4/CyLFClk.c ****     *******************************************************************************/
 948:Generated_Source\PSoC4/CyLFClk.c ****     void CySysWdtLock(void)
 949:Generated_Source\PSoC4/CyLFClk.c ****     {
 950:Generated_Source\PSoC4/CyLFClk.c ****         uint8 interruptState;
 951:Generated_Source\PSoC4/CyLFClk.c ****         interruptState = CyEnterCriticalSection();
 952:Generated_Source\PSoC4/CyLFClk.c **** 
 953:Generated_Source\PSoC4/CyLFClk.c ****         CY_SYS_CLK_SELECT_REG = (CY_SYS_CLK_SELECT_REG & (uint32)(~CY_SYS_WDT_CLK_LOCK_BITS_MASK)) 
 954:Generated_Source\PSoC4/CyLFClk.c ****                  CY_SYS_WDT_CLK_LOCK_BITS_MASK;
 955:Generated_Source\PSoC4/CyLFClk.c **** 
 956:Generated_Source\PSoC4/CyLFClk.c ****         CyExitCriticalSection(interruptState);
 957:Generated_Source\PSoC4/CyLFClk.c ****     }
 958:Generated_Source\PSoC4/CyLFClk.c **** 
 959:Generated_Source\PSoC4/CyLFClk.c **** 
 960:Generated_Source\PSoC4/CyLFClk.c ****     /*******************************************************************************
 961:Generated_Source\PSoC4/CyLFClk.c ****     * Function Name: CySysWdtLocked
 962:Generated_Source\PSoC4/CyLFClk.c ****     ****************************************************************************//**
 963:Generated_Source\PSoC4/CyLFClk.c ****     * \internal
 964:Generated_Source\PSoC4/CyLFClk.c ****     * Reports the WDT lock state.
 965:Generated_Source\PSoC4/CyLFClk.c ****     *
 966:Generated_Source\PSoC4/CyLFClk.c ****     * \return 1 - WDT is locked, and 0 - WDT is unlocked.
 967:Generated_Source\PSoC4/CyLFClk.c ****     * \endinternal
 968:Generated_Source\PSoC4/CyLFClk.c ****     *******************************************************************************/
 969:Generated_Source\PSoC4/CyLFClk.c ****     static uint32 CySysWdtLocked(void)
 970:Generated_Source\PSoC4/CyLFClk.c ****     {
  88              		.loc 1 970 0
  89              		.cfi_startproc
  90              		@ args = 0, pretend = 0, frame = 0
  91              		@ frame_needed = 0, uses_anonymous_args = 0
  92              		@ link register save eliminated.
 971:Generated_Source\PSoC4/CyLFClk.c ****         /* Prohibits writing to WDT registers and ILO/WCO registers when not equal 0 */
 972:Generated_Source\PSoC4/CyLFClk.c ****         return ((0u != (CY_SYS_CLK_SELECT_REG & (uint32)(CY_SYS_WDT_CLK_LOCK_BITS_MASK))) ? (uint32
  93              		.loc 1 972 0
  94 0000 034B     		ldr	r3, .L11
  95 0002 1868     		ldr	r0, [r3]
  96 0004 C023     		movs	r3, #192
  97 0006 1B02     		lsls	r3, r3, #8
  98 0008 1840     		ands	r0, r3
  99 000a 00D0     		beq	.L10
 100 000c 0120     		movs	r0, #1
 101              	.L10:
 973:Generated_Source\PSoC4/CyLFClk.c ****     }
 102              		.loc 1 973 0 discriminator 4
 103              		@ sp needed
 104 000e 7047     		bx	lr
 105              	.L12:
 106              		.align	2
 107              	.L11:
 108 0010 00010B40 		.word	1074462976
 109              		.cfi_endproc
 110              	.LFE18:
ARM GAS  C:\Users\JamesN4\AppData\Local\Temp\ccOIY297.s 			page 20


 111              		.size	CySysWdtLocked, .-CySysWdtLocked
 112              		.section	.text.CySysClkIloStart,"ax",%progbits
 113              		.align	2
 114              		.global	CySysClkIloStart
 115              		.code	16
 116              		.thumb_func
 117              		.type	CySysClkIloStart, %function
 118              	CySysClkIloStart:
 119              	.LFB1:
  84:Generated_Source\PSoC4/CyLFClk.c ****     CY_SYS_CLK_ILO_CONFIG_REG |= CY_SYS_CLK_ILO_CONFIG_ENABLE;
 120              		.loc 1 84 0
 121              		.cfi_startproc
 122              		@ args = 0, pretend = 0, frame = 0
 123              		@ frame_needed = 0, uses_anonymous_args = 0
 124              		@ link register save eliminated.
  85:Generated_Source\PSoC4/CyLFClk.c **** }
 125              		.loc 1 85 0
 126 0000 034A     		ldr	r2, .L14
 127 0002 1368     		ldr	r3, [r2]
 128 0004 8021     		movs	r1, #128
 129 0006 0906     		lsls	r1, r1, #24
 130 0008 0B43     		orrs	r3, r1
 131 000a 1360     		str	r3, [r2]
  86:Generated_Source\PSoC4/CyLFClk.c **** 
 132              		.loc 1 86 0
 133              		@ sp needed
 134 000c 7047     		bx	lr
 135              	.L15:
 136 000e C046     		.align	2
 137              	.L14:
 138 0010 04010B40 		.word	1074462980
 139              		.cfi_endproc
 140              	.LFE1:
 141              		.size	CySysClkIloStart, .-CySysClkIloStart
 142              		.section	.text.CySysClkIloStartMeasurement,"ax",%progbits
 143              		.align	2
 144              		.global	CySysClkIloStartMeasurement
 145              		.code	16
 146              		.thumb_func
 147              		.type	CySysClkIloStartMeasurement, %function
 148              	CySysClkIloStartMeasurement:
 149              	.LFB3:
 169:Generated_Source\PSoC4/CyLFClk.c **** #if(CY_IP_SRSSV2 && (!CY_IP_CPUSS))
 150              		.loc 1 169 0
 151              		.cfi_startproc
 152              		@ args = 0, pretend = 0, frame = 0
 153              		@ frame_needed = 0, uses_anonymous_args = 0
 154              		@ link register save eliminated.
 174:Generated_Source\PSoC4/CyLFClk.c ****     {
 155              		.loc 1 174 0
 156 0000 0E4B     		ldr	r3, .L18
 157 0002 1B78     		ldrb	r3, [r3]
 158 0004 002B     		cmp	r3, #0
 159 0006 08D1     		bne	.L17
 176:Generated_Source\PSoC4/CyLFClk.c ****         iloTrimTrig = 1u;
 160              		.loc 1 176 0
 161 0008 0D4B     		ldr	r3, .L18+4
ARM GAS  C:\Users\JamesN4\AppData\Local\Temp\ccOIY297.s 			page 21


 162 000a 1A68     		ldr	r2, [r3]
 163 000c 0F23     		movs	r3, #15
 164 000e 1340     		ands	r3, r2
 165 0010 0C4A     		ldr	r2, .L18+8
 166 0012 1380     		strh	r3, [r2]
 177:Generated_Source\PSoC4/CyLFClk.c ****     }
 167              		.loc 1 177 0
 168 0014 0122     		movs	r2, #1
 169 0016 094B     		ldr	r3, .L18
 170 0018 1A70     		strb	r2, [r3]
 171              	.L17:
 182:Generated_Source\PSoC4/CyLFClk.c ****                             CY_SYS_CLK_SEL_ILO_DFT_SOURCE; 
 172              		.loc 1 182 0
 173 001a 0B4A     		ldr	r2, .L18+12
 174 001c 1168     		ldr	r1, [r2]
 175 001e 0B4B     		ldr	r3, .L18+16
 176 0020 0B40     		ands	r3, r1
 177 0022 8021     		movs	r1, #128
 178 0024 4900     		lsls	r1, r1, #1
 179 0026 0B43     		orrs	r3, r1
 180 0028 1360     		str	r3, [r2]
 185:Generated_Source\PSoC4/CyLFClk.c ****                             CY_SYS_TST_DDFT_CTRL_REG_SEL2_CLK1;
 181              		.loc 1 185 0
 182 002a 094A     		ldr	r2, .L18+20
 183 002c 1168     		ldr	r1, [r2]
 184 002e 094B     		ldr	r3, .L18+24
 185 0030 0B40     		ands	r3, r1
 186 0032 0949     		ldr	r1, .L18+28
 187 0034 0B43     		orrs	r3, r1
 188 0036 1360     		str	r3, [r2]
 187:Generated_Source\PSoC4/CyLFClk.c **** 
 189              		.loc 1 187 0
 190              		@ sp needed
 191 0038 7047     		bx	lr
 192              	.L19:
 193 003a C046     		.align	2
 194              	.L18:
 195 003c 00000000 		.word	.LANCHOR0
 196 0040 24FF0B40 		.word	1074528036
 197 0044 00000000 		.word	.LANCHOR1
 198 0048 10010B40 		.word	1074462992
 199 004c FFF0FFFF 		.word	-3841
 200 0050 08000340 		.word	1073938440
 201 0054 C0C0FFFF 		.word	-16192
 202 0058 0A0B0000 		.word	2826
 203              		.cfi_endproc
 204              	.LFE3:
 205              		.size	CySysClkIloStartMeasurement, .-CySysClkIloStartMeasurement
 206              		.section	.text.CySysClkIloStopMeasurement,"ax",%progbits
 207              		.align	2
 208              		.global	CySysClkIloStopMeasurement
 209              		.code	16
 210              		.thumb_func
 211              		.type	CySysClkIloStopMeasurement, %function
 212              	CySysClkIloStopMeasurement:
 213              	.LFB4:
 202:Generated_Source\PSoC4/CyLFClk.c ****     /* Set default configurations in 11...8 DFT register bits to zero */
ARM GAS  C:\Users\JamesN4\AppData\Local\Temp\ccOIY297.s 			page 22


 214              		.loc 1 202 0
 215              		.cfi_startproc
 216              		@ args = 0, pretend = 0, frame = 0
 217              		@ frame_needed = 0, uses_anonymous_args = 0
 218              		@ link register save eliminated.
 204:Generated_Source\PSoC4/CyLFClk.c ****     #if(CY_IP_SRSSLT)
 219              		.loc 1 204 0
 220 0000 024A     		ldr	r2, .L21
 221 0002 1168     		ldr	r1, [r2]
 222 0004 024B     		ldr	r3, .L21+4
 223 0006 0B40     		ands	r3, r1
 224 0008 1360     		str	r3, [r2]
 208:Generated_Source\PSoC4/CyLFClk.c **** 
 225              		.loc 1 208 0
 226              		@ sp needed
 227 000a 7047     		bx	lr
 228              	.L22:
 229              		.align	2
 230              	.L21:
 231 000c 10010B40 		.word	1074462992
 232 0010 FFF0FFFF 		.word	-3841
 233              		.cfi_endproc
 234              	.LFE4:
 235              		.size	CySysClkIloStopMeasurement, .-CySysClkIloStopMeasurement
 236              		.global	__aeabi_uidiv
 237              		.section	.text.CySysClkIloCompensate,"ax",%progbits
 238              		.align	2
 239              		.global	CySysClkIloCompensate
 240              		.code	16
 241              		.thumb_func
 242              		.type	CySysClkIloCompensate, %function
 243              	CySysClkIloCompensate:
 244              	.LFB5:
 268:Generated_Source\PSoC4/CyLFClk.c ****     uint32 iloCompensatedCycles;
 245              		.loc 1 268 0
 246              		.cfi_startproc
 247              		@ args = 0, pretend = 0, frame = 0
 248              		@ frame_needed = 0, uses_anonymous_args = 0
 249              	.LVL1:
 250 0000 70B5     		push	{r4, r5, r6, lr}
 251              		.cfi_def_cfa_offset 16
 252              		.cfi_offset 4, -16
 253              		.cfi_offset 5, -12
 254              		.cfi_offset 6, -8
 255              		.cfi_offset 14, -4
 256 0002 0400     		movs	r4, r0
 257 0004 0D00     		movs	r5, r1
 275:Generated_Source\PSoC4/CyLFClk.c **** 
 258              		.loc 1 275 0
 259 0006 324B     		ldr	r3, .L35
 260 0008 1A68     		ldr	r2, [r3]
 261 000a 324B     		ldr	r3, .L35+4
 262 000c 1340     		ands	r3, r2
 263              	.LVL2:
 278:Generated_Source\PSoC4/CyLFClk.c ****        (CY_SYS_TST_DDFT_CTRL_REG == CY_SYS_TST_DDFT_CTRL_REG_SEL2_CLK1) &&
 264              		.loc 1 278 0
 265 000e 8022     		movs	r2, #128
ARM GAS  C:\Users\JamesN4\AppData\Local\Temp\ccOIY297.s 			page 23


 266 0010 5200     		lsls	r2, r2, #1
 267 0012 9342     		cmp	r3, r2
 268 0014 4ED1     		bne	.L28
 279:Generated_Source\PSoC4/CyLFClk.c ****        (CY_SYS_CLK_MAX_DELAY_US >= desiredDelay) &&
 269              		.loc 1 279 0 discriminator 1
 270 0016 304B     		ldr	r3, .L35+8
 271              	.LVL3:
 272 0018 1A68     		ldr	r2, [r3]
 278:Generated_Source\PSoC4/CyLFClk.c ****        (CY_SYS_TST_DDFT_CTRL_REG == CY_SYS_TST_DDFT_CTRL_REG_SEL2_CLK1) &&
 273              		.loc 1 278 0 discriminator 1
 274 001a 304B     		ldr	r3, .L35+12
 275 001c 9A42     		cmp	r2, r3
 276 001e 4BD1     		bne	.L29
 279:Generated_Source\PSoC4/CyLFClk.c ****        (CY_SYS_CLK_MAX_DELAY_US >= desiredDelay) &&
 277              		.loc 1 279 0
 278 0020 2F4B     		ldr	r3, .L35+16
 279 0022 9842     		cmp	r0, r3
 280 0024 4AD8     		bhi	.L30
 280:Generated_Source\PSoC4/CyLFClk.c ****        (CY_SYS_CLK_MIN_DELAY_US <= desiredDelay) &&
 281              		.loc 1 280 0
 282 0026 6328     		cmp	r0, #99
 283 0028 4AD9     		bls	.L31
 281:Generated_Source\PSoC4/CyLFClk.c ****        (compensatedCycles !=  NULL))
 284              		.loc 1 281 0
 285 002a 0029     		cmp	r1, #0
 286 002c 4AD0     		beq	.L32
 284:Generated_Source\PSoC4/CyLFClk.c ****         {
 287              		.loc 1 284 0
 288 002e 2D4B     		ldr	r3, .L35+20
 289 0030 5B68     		ldr	r3, [r3, #4]
 290 0032 002B     		cmp	r3, #0
 291 0034 34D0     		beq	.L25
 287:Generated_Source\PSoC4/CyLFClk.c ****             {
 292              		.loc 1 287 0
 293 0036 2C4B     		ldr	r3, .L35+24
 294 0038 1B68     		ldr	r3, [r3]
 295 003a 002B     		cmp	r3, #0
 296 003c 44DA     		bge	.L33
 289:Generated_Source\PSoC4/CyLFClk.c ****                 {
 297              		.loc 1 289 0
 298 003e 2B4B     		ldr	r3, .L35+28
 299 0040 1B68     		ldr	r3, [r3]
 300 0042 002B     		cmp	r3, #0
 301 0044 42D0     		beq	.L34
 293:Generated_Source\PSoC4/CyLFClk.c ****                         {
 302              		.loc 1 293 0
 303 0046 2A4B     		ldr	r3, .L35+32
 304 0048 9842     		cmp	r0, r3
 305 004a 0ED9     		bls	.L26
 306              	.LVL4:
 297:Generated_Source\PSoC4/CyLFClk.c ****                                 CY_SYS_CLK_ILO_FREQ_2MSB) * (desiredDelayInCounts / CY_SYS_CLK_ILO_
 307              		.loc 1 297 0
 308 004c 274B     		ldr	r3, .L35+28
 309 004e 1868     		ldr	r0, [r3]
 310              	.LVL5:
 311 0050 284B     		ldr	r3, .L35+36
 312 0052 1968     		ldr	r1, [r3]
ARM GAS  C:\Users\JamesN4\AppData\Local\Temp\ccOIY297.s 			page 24


 313              	.LVL6:
 314 0054 4843     		muls	r0, r1
 315 0056 890A     		lsrs	r1, r1, #10
 316 0058 FFF7FEFF 		bl	__aeabi_uidiv
 317              	.LVL7:
 318 005c 4609     		lsrs	r6, r0, #5
 298:Generated_Source\PSoC4/CyLFClk.c ****                         }
 319              		.loc 1 298 0
 320 005e 2649     		ldr	r1, .L35+40
 321 0060 2000     		movs	r0, r4
 322 0062 FFF7FEFF 		bl	__aeabi_uidiv
 323              	.LVL8:
 296:Generated_Source\PSoC4/CyLFClk.c ****                             (((CY_SYS_CNT_REG2_REG * cydelayFreqHz) / (cydelayFreqHz >> CY_SYS_CLK_
 324              		.loc 1 296 0
 325 0066 7043     		muls	r0, r6
 326              	.LVL9:
 327 0068 15E0     		b	.L27
 328              	.LVL10:
 329              	.L26:
 302:Generated_Source\PSoC4/CyLFClk.c ****                                                      CY_SYS_CLK_HALF_OF_CLOCK) / CY_SYS_CLK_ILO_PER
 330              		.loc 1 302 0
 331 006a 6420     		movs	r0, #100
 332              	.LVL11:
 333 006c 6043     		muls	r0, r4
 334 006e 234B     		ldr	r3, .L35+44
 335 0070 9C46     		mov	ip, r3
 336 0072 6044     		add	r0, r0, ip
 337 0074 2249     		ldr	r1, .L35+48
 338              	.LVL12:
 339 0076 FFF7FEFF 		bl	__aeabi_uidiv
 340              	.LVL13:
 341 007a 0400     		movs	r4, r0
 342              	.LVL14:
 305:Generated_Source\PSoC4/CyLFClk.c ****                                                      (cydelayFreqHz >> CY_SYS_CLK_SYS_CLK_DEVIDER))
 343              		.loc 1 305 0
 344 007c 1B4B     		ldr	r3, .L35+28
 345 007e 1868     		ldr	r0, [r3]
 346              	.LVL15:
 347 0080 1C4B     		ldr	r3, .L35+36
 348 0082 1968     		ldr	r1, [r3]
 349 0084 4843     		muls	r0, r1
 306:Generated_Source\PSoC4/CyLFClk.c ****                                                      desiredDelayInCounts) / CY_SYS_CLK_ILO_DESIRED
 350              		.loc 1 306 0
 351 0086 890A     		lsrs	r1, r1, #10
 305:Generated_Source\PSoC4/CyLFClk.c ****                                                      (cydelayFreqHz >> CY_SYS_CLK_SYS_CLK_DEVIDER))
 352              		.loc 1 305 0
 353 0088 FFF7FEFF 		bl	__aeabi_uidiv
 354              	.LVL16:
 306:Generated_Source\PSoC4/CyLFClk.c ****                                                      desiredDelayInCounts) / CY_SYS_CLK_ILO_DESIRED
 355              		.loc 1 306 0
 356 008c 6043     		muls	r0, r4
 305:Generated_Source\PSoC4/CyLFClk.c ****                                                      (cydelayFreqHz >> CY_SYS_CLK_SYS_CLK_DEVIDER))
 357              		.loc 1 305 0
 358 008e FA21     		movs	r1, #250
 359 0090 C901     		lsls	r1, r1, #7
 360 0092 FFF7FEFF 		bl	__aeabi_uidiv
 361              	.LVL17:
ARM GAS  C:\Users\JamesN4\AppData\Local\Temp\ccOIY297.s 			page 25


 362              	.L27:
 326:Generated_Source\PSoC4/CyLFClk.c ****                     compensateRunningStatus = CY_SYS_CLK_TRIM_OR_COMP_FINISHED;
 363              		.loc 1 326 0
 364 0096 2860     		str	r0, [r5]
 327:Generated_Source\PSoC4/CyLFClk.c ****                     returnStatus = CYRET_SUCCESS;
 365              		.loc 1 327 0
 366 0098 0020     		movs	r0, #0
 367              	.LVL18:
 368 009a 124B     		ldr	r3, .L35+20
 369 009c 5860     		str	r0, [r3, #4]
 370              	.LVL19:
 371 009e 16E0     		b	.L24
 372              	.LVL20:
 373              	.L25:
 343:Generated_Source\PSoC4/CyLFClk.c ****             compensateRunningStatus = CY_SYS_CLK_TRIM_OR_COMP_STARTED;
 374              		.loc 1 343 0
 375 00a0 144B     		ldr	r3, .L35+36
 376 00a2 1B68     		ldr	r3, [r3]
 377 00a4 9B0A     		lsrs	r3, r3, #10
 378 00a6 104A     		ldr	r2, .L35+24
 379 00a8 1360     		str	r3, [r2]
 344:Generated_Source\PSoC4/CyLFClk.c ****             returnStatus = CYRET_STARTED;
 380              		.loc 1 344 0
 381 00aa 0122     		movs	r2, #1
 382 00ac 0D4B     		ldr	r3, .L35+20
 383 00ae 5A60     		str	r2, [r3, #4]
 384              	.LVL21:
 345:Generated_Source\PSoC4/CyLFClk.c ****         }
 385              		.loc 1 345 0
 386 00b0 0720     		movs	r0, #7
 387              	.LVL22:
 388 00b2 0CE0     		b	.L24
 389              	.LVL23:
 390              	.L28:
 350:Generated_Source\PSoC4/CyLFClk.c ****     }
 391              		.loc 1 350 0
 392 00b4 1120     		movs	r0, #17
 393              	.LVL24:
 394 00b6 0AE0     		b	.L24
 395              	.LVL25:
 396              	.L29:
 397 00b8 1120     		movs	r0, #17
 398              	.LVL26:
 399 00ba 08E0     		b	.L24
 400              	.LVL27:
 401              	.L30:
 402 00bc 1120     		movs	r0, #17
 403              	.LVL28:
 404 00be 06E0     		b	.L24
 405              	.LVL29:
 406              	.L31:
 407 00c0 1120     		movs	r0, #17
 408              	.LVL30:
 409 00c2 04E0     		b	.L24
 410              	.LVL31:
 411              	.L32:
 412 00c4 1120     		movs	r0, #17
ARM GAS  C:\Users\JamesN4\AppData\Local\Temp\ccOIY297.s 			page 26


 413              	.LVL32:
 414 00c6 02E0     		b	.L24
 415              	.LVL33:
 416              	.L33:
 337:Generated_Source\PSoC4/CyLFClk.c ****             }
 417              		.loc 1 337 0
 418 00c8 0720     		movs	r0, #7
 419              	.LVL34:
 420 00ca 00E0     		b	.L24
 421              	.LVL35:
 422              	.L34:
 332:Generated_Source\PSoC4/CyLFClk.c ****                 }
 423              		.loc 1 332 0
 424 00cc 1120     		movs	r0, #17
 425              	.LVL36:
 426              	.L24:
 354:Generated_Source\PSoC4/CyLFClk.c **** 
 427              		.loc 1 354 0
 428              		@ sp needed
 429              	.LVL37:
 430 00ce 70BD     		pop	{r4, r5, r6, pc}
 431              	.L36:
 432              		.align	2
 433              	.L35:
 434 00d0 10010B40 		.word	1074462992
 435 00d4 3F3F0000 		.word	16191
 436 00d8 08000340 		.word	1073938440
 437 00dc 0A0B0000 		.word	2826
 438 00e0 00286BEE 		.word	-294967296
 439 00e4 00000000 		.word	.LANCHOR0
 440 00e8 18000340 		.word	1073938456
 441 00ec 1C000340 		.word	1073938460
 442 00f0 60D10000 		.word	53600
 443 00f4 00000000 		.word	cydelayFreqHz
 444 00f8 18790000 		.word	31000
 445 00fc 0D030000 		.word	781
 446 0100 350C0000 		.word	3125
 447              		.cfi_endproc
 448              	.LFE5:
 449              		.size	CySysClkIloCompensate, .-CySysClkIloCompensate
 450              		.global	__aeabi_idiv
 451              		.section	.text.CySysClkIloUpdateTrimReg,"ax",%progbits
 452              		.align	2
 453              		.global	CySysClkIloUpdateTrimReg
 454              		.code	16
 455              		.thumb_func
 456              		.type	CySysClkIloUpdateTrimReg, %function
 457              	CySysClkIloUpdateTrimReg:
 458              	.LFB8:
 572:Generated_Source\PSoC4/CyLFClk.c ****     uint32 measuredIloFreq;
 459              		.loc 1 572 0
 460              		.cfi_startproc
 461              		@ args = 0, pretend = 0, frame = 0
 462              		@ frame_needed = 0, uses_anonymous_args = 0
 463              	.LVL38:
 464 0000 10B5     		push	{r4, lr}
 465              		.cfi_def_cfa_offset 8
ARM GAS  C:\Users\JamesN4\AppData\Local\Temp\ccOIY297.s 			page 27


 466              		.cfi_offset 4, -8
 467              		.cfi_offset 14, -4
 468 0002 0400     		movs	r4, r0
 579:Generated_Source\PSoC4/CyLFClk.c ****     {
 469              		.loc 1 579 0
 470 0004 234B     		ldr	r3, .L47
 471 0006 1B68     		ldr	r3, [r3]
 472 0008 002B     		cmp	r3, #0
 473 000a 41D0     		beq	.L44
 581:Generated_Source\PSoC4/CyLFClk.c **** 
 474              		.loc 1 581 0
 475 000c 214B     		ldr	r3, .L47
 476 000e 1868     		ldr	r0, [r3]
 477              	.LVL39:
 478 0010 214B     		ldr	r3, .L47+4
 479 0012 1968     		ldr	r1, [r3]
 480 0014 4843     		muls	r0, r1
 481 0016 890A     		lsrs	r1, r1, #10
 482 0018 FFF7FEFF 		bl	__aeabi_uidiv
 483              	.LVL40:
 585:Generated_Source\PSoC4/CyLFClk.c ****                             ((int32) CY_SYS_CLK_PERTHOUSAND)) / ((int32) CY_SYS_CLK_ILO_DESIRED_FRE
 484              		.loc 1 585 0
 485 001c 1F4B     		ldr	r3, .L47+8
 486 001e 9C46     		mov	ip, r3
 487 0020 6044     		add	r0, r0, ip
 488              	.LVL41:
 489 0022 FA23     		movs	r3, #250
 490 0024 9B00     		lsls	r3, r3, #2
 491 0026 5843     		muls	r0, r3
 492              	.LVL42:
 493 0028 FA21     		movs	r1, #250
 494 002a C901     		lsls	r1, r1, #7
 495 002c FFF7FEFF 		bl	__aeabi_idiv
 496              	.LVL43:
 589:Generated_Source\PSoC4/CyLFClk.c ****         {
 497              		.loc 1 589 0
 498 0030 C217     		asrs	r2, r0, #31
 499 0032 8318     		adds	r3, r0, r2
 500 0034 5340     		eors	r3, r2
 501 0036 382B     		cmp	r3, #56
 502 0038 27D9     		bls	.L39
 591:Generated_Source\PSoC4/CyLFClk.c ****             {
 503              		.loc 1 591 0
 504 003a 0028     		cmp	r0, #0
 505 003c 09DD     		ble	.L40
 593:Generated_Source\PSoC4/CyLFClk.c ****                 CY_SYS_CLK_HALF_OF_STEP) / CY_SYS_CLK_ERROR_STEP);
 506              		.loc 1 593 0
 507 003e 8300     		lsls	r3, r0, #2
 508 0040 1818     		adds	r0, r3, r0
 509              	.LVL44:
 510 0042 4300     		lsls	r3, r0, #1
 511 0044 7133     		adds	r3, r3, #113
 512 0046 FF33     		adds	r3, r3, #255
 513 0048 1800     		movs	r0, r3
 514 004a 1549     		ldr	r1, .L47+12
 515 004c FFF7FEFF 		bl	__aeabi_idiv
 516              	.LVL45:
ARM GAS  C:\Users\JamesN4\AppData\Local\Temp\ccOIY297.s 			page 28


 517 0050 08E0     		b	.L41
 518              	.LVL46:
 519              	.L40:
 598:Generated_Source\PSoC4/CyLFClk.c ****                 CY_SYS_CLK_HALF_OF_STEP) / CY_SYS_CLK_ERROR_STEP);
 520              		.loc 1 598 0
 521 0052 8300     		lsls	r3, r0, #2
 522 0054 1818     		adds	r0, r3, r0
 523              	.LVL47:
 524 0056 4300     		lsls	r3, r0, #1
 525 0058 713B     		subs	r3, r3, #113
 526 005a FF3B     		subs	r3, r3, #255
 527 005c 1800     		movs	r0, r3
 528 005e 1049     		ldr	r1, .L47+12
 529 0060 FFF7FEFF 		bl	__aeabi_idiv
 530              	.LVL48:
 531              	.L41:
 601:Generated_Source\PSoC4/CyLFClk.c ****             trimStep = (int32) currentIloTrimValue - trimStep;
 532              		.loc 1 601 0
 533 0064 0F4B     		ldr	r3, .L47+16
 534 0066 1B68     		ldr	r3, [r3]
 535 0068 0F22     		movs	r2, #15
 536 006a 1340     		ands	r3, r2
 537              	.LVL49:
 602:Generated_Source\PSoC4/CyLFClk.c **** 
 538              		.loc 1 602 0
 539 006c 181A     		subs	r0, r3, r0
 540              	.LVL50:
 604:Generated_Source\PSoC4/CyLFClk.c ****             {
 541              		.loc 1 604 0
 542 006e 0F28     		cmp	r0, #15
 543 0070 00DD     		ble	.L42
 606:Generated_Source\PSoC4/CyLFClk.c ****             }
 544              		.loc 1 606 0
 545 0072 0F20     		movs	r0, #15
 546              	.LVL51:
 547              	.L42:
 608:Generated_Source\PSoC4/CyLFClk.c ****             {
 548              		.loc 1 608 0
 549 0074 0028     		cmp	r0, #0
 550 0076 00DA     		bge	.L43
 610:Generated_Source\PSoC4/CyLFClk.c ****             }
 551              		.loc 1 610 0
 552 0078 0020     		movs	r0, #0
 553              	.LVL52:
 554              	.L43:
 612:Generated_Source\PSoC4/CyLFClk.c ****                                                                  ((uint32) trimStep);
 555              		.loc 1 612 0
 556 007a 0A4A     		ldr	r2, .L47+16
 557 007c 1368     		ldr	r3, [r2]
 558              	.LVL53:
 559 007e 0F21     		movs	r1, #15
 560 0080 8B43     		bics	r3, r1
 561 0082 1843     		orrs	r0, r3
 562              	.LVL54:
 563 0084 1060     		str	r0, [r2]
 564              	.LVL55:
 614:Generated_Source\PSoC4/CyLFClk.c ****         } /* Else return success because error is in +/- 10% range*/
ARM GAS  C:\Users\JamesN4\AppData\Local\Temp\ccOIY297.s 			page 29


 565              		.loc 1 614 0
 566 0086 0720     		movs	r0, #7
 567 0088 03E0     		b	.L38
 568              	.LVL56:
 569              	.L39:
 619:Generated_Source\PSoC4/CyLFClk.c ****             errorRangeStatus = CYRET_SUCCESS;
 570              		.loc 1 619 0
 571 008a 2060     		str	r0, [r4]
 572              	.LVL57:
 620:Generated_Source\PSoC4/CyLFClk.c ****         }
 573              		.loc 1 620 0
 574 008c 0020     		movs	r0, #0
 575              	.LVL58:
 576 008e 00E0     		b	.L38
 577              	.LVL59:
 578              	.L44:
 625:Generated_Source\PSoC4/CyLFClk.c ****     }
 579              		.loc 1 625 0
 580 0090 1120     		movs	r0, #17
 581              	.LVL60:
 582              	.L38:
 628:Generated_Source\PSoC4/CyLFClk.c **** 
 583              		.loc 1 628 0
 584              		@ sp needed
 585              	.LVL61:
 586 0092 10BD     		pop	{r4, pc}
 587              	.L48:
 588              		.align	2
 589              	.L47:
 590 0094 1C000340 		.word	1073938460
 591 0098 00000000 		.word	cydelayFreqHz
 592 009c 0083FFFF 		.word	-32000
 593 00a0 E1020000 		.word	737
 594 00a4 24FF0B40 		.word	1074528036
 595              		.cfi_endproc
 596              	.LFE8:
 597              		.size	CySysClkIloUpdateTrimReg, .-CySysClkIloUpdateTrimReg
 598              		.section	.text.CySysClkIloTrim,"ax",%progbits
 599              		.align	2
 600              		.global	CySysClkIloTrim
 601              		.code	16
 602              		.thumb_func
 603              		.type	CySysClkIloTrim, %function
 604              	CySysClkIloTrim:
 605              	.LFB7:
 450:Generated_Source\PSoC4/CyLFClk.c ****     uint32 timeOutClocks = CY_SYS_CLK_TIMEOUT;
 606              		.loc 1 450 0
 607              		.cfi_startproc
 608              		@ args = 0, pretend = 0, frame = 0
 609              		@ frame_needed = 0, uses_anonymous_args = 0
 610              	.LVL62:
 611 0000 70B5     		push	{r4, r5, r6, lr}
 612              		.cfi_def_cfa_offset 16
 613              		.cfi_offset 4, -16
 614              		.cfi_offset 5, -12
 615              		.cfi_offset 6, -8
 616              		.cfi_offset 14, -4
ARM GAS  C:\Users\JamesN4\AppData\Local\Temp\ccOIY297.s 			page 30


 617 0002 0C00     		movs	r4, r1
 618              	.LVL63:
 457:Generated_Source\PSoC4/CyLFClk.c **** 
 619              		.loc 1 457 0
 620 0004 2D4B     		ldr	r3, .L64
 621 0006 1A68     		ldr	r2, [r3]
 622 0008 2D4B     		ldr	r3, .L64+4
 623 000a 1340     		ands	r3, r2
 624              	.LVL64:
 460:Generated_Source\PSoC4/CyLFClk.c ****        (CY_SYS_TST_DDFT_CTRL_REG == CY_SYS_TST_DDFT_CTRL_REG_SEL2_CLK1) &&
 625              		.loc 1 460 0
 626 000c 8022     		movs	r2, #128
 627 000e 5200     		lsls	r2, r2, #1
 628 0010 9342     		cmp	r3, r2
 629 0012 47D1     		bne	.L58
 461:Generated_Source\PSoC4/CyLFClk.c ****        (iloAccuracyInPPT != NULL))
 630              		.loc 1 461 0 discriminator 1
 631 0014 2B4B     		ldr	r3, .L64+8
 632              	.LVL65:
 633 0016 1A68     		ldr	r2, [r3]
 460:Generated_Source\PSoC4/CyLFClk.c ****        (CY_SYS_TST_DDFT_CTRL_REG == CY_SYS_TST_DDFT_CTRL_REG_SEL2_CLK1) &&
 634              		.loc 1 460 0 discriminator 1
 635 0018 2B4B     		ldr	r3, .L64+12
 636 001a 9A42     		cmp	r2, r3
 637 001c 44D1     		bne	.L59
 461:Generated_Source\PSoC4/CyLFClk.c ****        (iloAccuracyInPPT != NULL))
 638              		.loc 1 461 0
 639 001e 0029     		cmp	r1, #0
 640 0020 44D0     		beq	.L60
 464:Generated_Source\PSoC4/CyLFClk.c ****         {
 641              		.loc 1 464 0
 642 0022 0028     		cmp	r0, #0
 643 0024 25D1     		bne	.L51
 466:Generated_Source\PSoC4/CyLFClk.c ****             do
 644              		.loc 1 466 0
 645 0026 294B     		ldr	r3, .L64+16
 646 0028 1D68     		ldr	r5, [r3]
 647 002a AD0A     		lsrs	r5, r5, #10
 648              	.LVL66:
 451:Generated_Source\PSoC4/CyLFClk.c ****     uint32 waitUntilCntr1Stops;
 649              		.loc 1 451 0
 650 002c 0526     		movs	r6, #5
 651              	.LVL67:
 652              	.L56:
 470:Generated_Source\PSoC4/CyLFClk.c **** 
 653              		.loc 1 470 0
 654 002e 274B     		ldr	r3, .L64+16
 655 0030 1B68     		ldr	r3, [r3]
 656 0032 9B0A     		lsrs	r3, r3, #10
 657 0034 264A     		ldr	r2, .L64+20
 658 0036 1360     		str	r3, [r2]
 473:Generated_Source\PSoC4/CyLFClk.c ****                 {
 659              		.loc 1 473 0
 660 0038 02E0     		b	.L52
 661              	.L54:
 475:Generated_Source\PSoC4/CyLFClk.c ****                     if (0u == waitUntilCntr1Stops)
 662              		.loc 1 475 0
ARM GAS  C:\Users\JamesN4\AppData\Local\Temp\ccOIY297.s 			page 31


 663 003a 013D     		subs	r5, r5, #1
 664              	.LVL68:
 476:Generated_Source\PSoC4/CyLFClk.c ****                     {
 665              		.loc 1 476 0
 666 003c 002D     		cmp	r5, #0
 667 003e 03D0     		beq	.L53
 668              	.L52:
 473:Generated_Source\PSoC4/CyLFClk.c ****                 {
 669              		.loc 1 473 0
 670 0040 234B     		ldr	r3, .L64+20
 671 0042 1B68     		ldr	r3, [r3]
 672 0044 002B     		cmp	r3, #0
 673 0046 F8DA     		bge	.L54
 674              	.L53:
 481:Generated_Source\PSoC4/CyLFClk.c ****                 timeOutClocks--;
 675              		.loc 1 481 0
 676 0048 2000     		movs	r0, r4
 677 004a FFF7FEFF 		bl	CySysClkIloUpdateTrimReg
 678              	.LVL69:
 679 004e 214B     		ldr	r3, .L64+24
 680 0050 9860     		str	r0, [r3, #8]
 482:Generated_Source\PSoC4/CyLFClk.c **** 
 681              		.loc 1 482 0
 682 0052 013E     		subs	r6, r6, #1
 683              	.LVL70:
 487:Generated_Source\PSoC4/CyLFClk.c **** 
 684              		.loc 1 487 0
 685 0054 0028     		cmp	r0, #0
 686 0056 03D0     		beq	.L55
 485:Generated_Source\PSoC4/CyLFClk.c ****               (CYRET_INVALID_STATE != trimRunningStatus) && 
 687              		.loc 1 485 0
 688 0058 1128     		cmp	r0, #17
 689 005a 01D0     		beq	.L55
 486:Generated_Source\PSoC4/CyLFClk.c ****                                (0u != timeOutClocks));
 690              		.loc 1 486 0
 691 005c 002E     		cmp	r6, #0
 692 005e E6D1     		bne	.L56
 693              	.L55:
 489:Generated_Source\PSoC4/CyLFClk.c ****             {
 694              		.loc 1 489 0
 695 0060 0028     		cmp	r0, #0
 696 0062 25D0     		beq	.L61
 495:Generated_Source\PSoC4/CyLFClk.c ****                 {
 697              		.loc 1 495 0
 698 0064 002E     		cmp	r6, #0
 699 0066 25D1     		bne	.L62
 497:Generated_Source\PSoC4/CyLFClk.c ****                     returnStatus = CYRET_TIMEOUT;
 700              		.loc 1 497 0
 701 0068 0022     		movs	r2, #0
 702 006a 1A4B     		ldr	r3, .L64+24
 703 006c 9A60     		str	r2, [r3, #8]
 704              	.LVL71:
 498:Generated_Source\PSoC4/CyLFClk.c ****                 }
 705              		.loc 1 498 0
 706 006e 1020     		movs	r0, #16
 707 0070 23E0     		b	.L50
 708              	.LVL72:
ARM GAS  C:\Users\JamesN4\AppData\Local\Temp\ccOIY297.s 			page 32


 709              	.L51:
 509:Generated_Source\PSoC4/CyLFClk.c ****             {
 710              		.loc 1 509 0
 711 0072 184B     		ldr	r3, .L64+24
 712 0074 9B68     		ldr	r3, [r3, #8]
 713 0076 002B     		cmp	r3, #0
 714 0078 0AD0     		beq	.L57
 512:Generated_Source\PSoC4/CyLFClk.c ****                 {
 715              		.loc 1 512 0
 716 007a 154B     		ldr	r3, .L64+20
 717 007c 1B68     		ldr	r3, [r3]
 718 007e 002B     		cmp	r3, #0
 719 0080 1ADA     		bge	.L63
 514:Generated_Source\PSoC4/CyLFClk.c ****                     trimRunningStatus = CY_SYS_CLK_TRIM_OR_COMP_FINISHED;
 720              		.loc 1 514 0
 721 0082 0800     		movs	r0, r1
 722              	.LVL73:
 723 0084 FFF7FEFF 		bl	CySysClkIloUpdateTrimReg
 724              	.LVL74:
 515:Generated_Source\PSoC4/CyLFClk.c ****                 }
 725              		.loc 1 515 0
 726 0088 0022     		movs	r2, #0
 727 008a 124B     		ldr	r3, .L64+24
 728 008c 9A60     		str	r2, [r3, #8]
 729 008e 14E0     		b	.L50
 730              	.LVL75:
 731              	.L57:
 525:Generated_Source\PSoC4/CyLFClk.c ****                 trimRunningStatus = CY_SYS_CLK_TRIM_OR_COMP_STARTED;
 732              		.loc 1 525 0
 733 0090 0E4B     		ldr	r3, .L64+16
 734 0092 1B68     		ldr	r3, [r3]
 735 0094 9B0A     		lsrs	r3, r3, #10
 736 0096 0E4A     		ldr	r2, .L64+20
 737 0098 1360     		str	r3, [r2]
 526:Generated_Source\PSoC4/CyLFClk.c ****                 returnStatus = CYRET_STARTED;
 738              		.loc 1 526 0
 739 009a 0122     		movs	r2, #1
 740 009c 0D4B     		ldr	r3, .L64+24
 741 009e 9A60     		str	r2, [r3, #8]
 742              	.LVL76:
 527:Generated_Source\PSoC4/CyLFClk.c ****             }
 743              		.loc 1 527 0
 744 00a0 0720     		movs	r0, #7
 745              	.LVL77:
 746 00a2 0AE0     		b	.L50
 747              	.LVL78:
 748              	.L58:
 533:Generated_Source\PSoC4/CyLFClk.c ****     }
 749              		.loc 1 533 0
 750 00a4 1120     		movs	r0, #17
 751              	.LVL79:
 752 00a6 08E0     		b	.L50
 753              	.LVL80:
 754              	.L59:
 755 00a8 1120     		movs	r0, #17
 756              	.LVL81:
 757 00aa 06E0     		b	.L50
ARM GAS  C:\Users\JamesN4\AppData\Local\Temp\ccOIY297.s 			page 33


 758              	.LVL82:
 759              	.L60:
 760 00ac 1120     		movs	r0, #17
 761              	.LVL83:
 762 00ae 04E0     		b	.L50
 763              	.LVL84:
 764              	.L61:
 491:Generated_Source\PSoC4/CyLFClk.c ****             }
 765              		.loc 1 491 0
 766 00b0 0020     		movs	r0, #0
 767 00b2 02E0     		b	.L50
 768              	.L62:
 502:Generated_Source\PSoC4/CyLFClk.c ****                 }
 769              		.loc 1 502 0
 770 00b4 1120     		movs	r0, #17
 771 00b6 00E0     		b	.L50
 772              	.LVL85:
 773              	.L63:
 519:Generated_Source\PSoC4/CyLFClk.c ****                 }
 774              		.loc 1 519 0
 775 00b8 0720     		movs	r0, #7
 776              	.LVL86:
 777              	.L50:
 537:Generated_Source\PSoC4/CyLFClk.c **** 
 778              		.loc 1 537 0
 779              		@ sp needed
 780              	.LVL87:
 781 00ba 70BD     		pop	{r4, r5, r6, pc}
 782              	.L65:
 783              		.align	2
 784              	.L64:
 785 00bc 10010B40 		.word	1074462992
 786 00c0 3F3F0000 		.word	16191
 787 00c4 08000340 		.word	1073938440
 788 00c8 0A0B0000 		.word	2826
 789 00cc 00000000 		.word	cydelayFreqHz
 790 00d0 18000340 		.word	1073938456
 791 00d4 00000000 		.word	.LANCHOR0
 792              		.cfi_endproc
 793              	.LFE7:
 794              		.size	CySysClkIloTrim, .-CySysClkIloTrim
 795              		.section	.text.CySysClkIloRestoreFactoryTrim,"ax",%progbits
 796              		.align	2
 797              		.global	CySysClkIloRestoreFactoryTrim
 798              		.code	16
 799              		.thumb_func
 800              		.type	CySysClkIloRestoreFactoryTrim, %function
 801              	CySysClkIloRestoreFactoryTrim:
 802              	.LFB9:
 649:Generated_Source\PSoC4/CyLFClk.c ****     cystatus returnStatus = CYRET_SUCCESS;
 803              		.loc 1 649 0
 804              		.cfi_startproc
 805              		@ args = 0, pretend = 0, frame = 0
 806              		@ frame_needed = 0, uses_anonymous_args = 0
 807              		@ link register save eliminated.
 808              	.LVL88:
 653:Generated_Source\PSoC4/CyLFClk.c ****         {
ARM GAS  C:\Users\JamesN4\AppData\Local\Temp\ccOIY297.s 			page 34


 809              		.loc 1 653 0
 810 0000 094B     		ldr	r3, .L69
 811 0002 1B88     		ldrh	r3, [r3]
 812 0004 9BB2     		uxth	r3, r3
 813 0006 F02B     		cmp	r3, #240
 814 0008 0BD0     		beq	.L68
 655:Generated_Source\PSoC4/CyLFClk.c ****                                        (defaultIloTrimRegValue & CY_SYS_CLK_ILO_TRIM_MASK));
 815              		.loc 1 655 0
 816 000a 0848     		ldr	r0, .L69+4
 817 000c 0368     		ldr	r3, [r0]
 818 000e 0F22     		movs	r2, #15
 819 0010 9343     		bics	r3, r2
 820 0012 1900     		movs	r1, r3
 656:Generated_Source\PSoC4/CyLFClk.c ****         }
 821              		.loc 1 656 0
 822 0014 044B     		ldr	r3, .L69
 823 0016 1B88     		ldrh	r3, [r3]
 824 0018 1340     		ands	r3, r2
 655:Generated_Source\PSoC4/CyLFClk.c ****                                        (defaultIloTrimRegValue & CY_SYS_CLK_ILO_TRIM_MASK));
 825              		.loc 1 655 0
 826 001a 0B43     		orrs	r3, r1
 827 001c 0360     		str	r3, [r0]
 650:Generated_Source\PSoC4/CyLFClk.c **** 
 828              		.loc 1 650 0
 829 001e 0020     		movs	r0, #0
 830 0020 01E0     		b	.L67
 831              	.L68:
 660:Generated_Source\PSoC4/CyLFClk.c ****         }
 832              		.loc 1 660 0
 833 0022 0120     		movs	r0, #1
 834 0024 4042     		rsbs	r0, r0, #0
 835              	.L67:
 836              	.LVL89:
 664:Generated_Source\PSoC4/CyLFClk.c **** #endif /* (CY_IP_SRSSV2 && (!CY_IP_CPUSS)) */
 837              		.loc 1 664 0
 838              		@ sp needed
 839 0026 7047     		bx	lr
 840              	.L70:
 841              		.align	2
 842              	.L69:
 843 0028 00000000 		.word	.LANCHOR1
 844 002c 24FF0B40 		.word	1074528036
 845              		.cfi_endproc
 846              	.LFE9:
 847              		.size	CySysClkIloRestoreFactoryTrim, .-CySysClkIloRestoreFactoryTrim
 848              		.section	.text.CySysClkWcoStart,"ax",%progbits
 849              		.align	2
 850              		.global	CySysClkWcoStart
 851              		.code	16
 852              		.thumb_func
 853              		.type	CySysClkWcoStart, %function
 854              	CySysClkWcoStart:
 855              	.LFB12:
 772:Generated_Source\PSoC4/CyLFClk.c ****         CySysClkWcoSetHighPowerMode();
 856              		.loc 1 772 0
 857              		.cfi_startproc
 858              		@ args = 0, pretend = 0, frame = 0
ARM GAS  C:\Users\JamesN4\AppData\Local\Temp\ccOIY297.s 			page 35


 859              		@ frame_needed = 0, uses_anonymous_args = 0
 860 0000 10B5     		push	{r4, lr}
 861              		.cfi_def_cfa_offset 8
 862              		.cfi_offset 4, -8
 863              		.cfi_offset 14, -4
 864              	.LBB6:
 865              	.LBB7:
 866              		.file 2 "Generated_Source\\PSoC4\\CyLFClk.h"
   1:Generated_Source\PSoC4/CyLFClk.h **** /***************************************************************************//**
   2:Generated_Source\PSoC4/CyLFClk.h **** * \file .h
   3:Generated_Source\PSoC4/CyLFClk.h **** * \version 1.20
   4:Generated_Source\PSoC4/CyLFClk.h **** *
   5:Generated_Source\PSoC4/CyLFClk.h **** * \brief
   6:Generated_Source\PSoC4/CyLFClk.h **** *  This file provides the source code to API for the lfclk and wdt.
   7:Generated_Source\PSoC4/CyLFClk.h **** *
   8:Generated_Source\PSoC4/CyLFClk.h **** ********************************************************************************
   9:Generated_Source\PSoC4/CyLFClk.h **** * \copyright
  10:Generated_Source\PSoC4/CyLFClk.h **** * Copyright 2008-2017, Cypress Semiconductor Corporation.  All rights reserved.
  11:Generated_Source\PSoC4/CyLFClk.h **** * You may use this file only in accordance with the license, terms, conditions,
  12:Generated_Source\PSoC4/CyLFClk.h **** * disclaimers, and limitations in the end user license agreement accompanying
  13:Generated_Source\PSoC4/CyLFClk.h **** * the software package with which this file was provided.
  14:Generated_Source\PSoC4/CyLFClk.h **** *******************************************************************************/
  15:Generated_Source\PSoC4/CyLFClk.h **** 
  16:Generated_Source\PSoC4/CyLFClk.h **** 
  17:Generated_Source\PSoC4/CyLFClk.h **** #if !defined(CY_LFCLK_CYLIB_H)
  18:Generated_Source\PSoC4/CyLFClk.h **** #define CY_LFCLK_CYLIB_H
  19:Generated_Source\PSoC4/CyLFClk.h **** 
  20:Generated_Source\PSoC4/CyLFClk.h **** #include "cytypes.h"
  21:Generated_Source\PSoC4/CyLFClk.h **** #include "cydevice_trm.h"
  22:Generated_Source\PSoC4/CyLFClk.h **** 
  23:Generated_Source\PSoC4/CyLFClk.h **** #define CY_IP_WCO_WDT_EN           (-1 == 1)
  24:Generated_Source\PSoC4/CyLFClk.h **** 
  25:Generated_Source\PSoC4/CyLFClk.h **** typedef enum
  26:Generated_Source\PSoC4/CyLFClk.h **** {
  27:Generated_Source\PSoC4/CyLFClk.h ****     CY_SYS_TIMER_WAIT = 0u,
  28:Generated_Source\PSoC4/CyLFClk.h ****     CY_SYS_TIMER_INTERRUPT = 1u
  29:Generated_Source\PSoC4/CyLFClk.h **** } cy_sys_timer_delaytype_enum;
  30:Generated_Source\PSoC4/CyLFClk.h **** 
  31:Generated_Source\PSoC4/CyLFClk.h **** 
  32:Generated_Source\PSoC4/CyLFClk.h **** /***************************************
  33:Generated_Source\PSoC4/CyLFClk.h **** *    Function Prototypes
  34:Generated_Source\PSoC4/CyLFClk.h **** ***************************************/
  35:Generated_Source\PSoC4/CyLFClk.h **** /**
  36:Generated_Source\PSoC4/CyLFClk.h **** * \addtogroup group_general
  37:Generated_Source\PSoC4/CyLFClk.h **** * @{
  38:Generated_Source\PSoC4/CyLFClk.h **** */
  39:Generated_Source\PSoC4/CyLFClk.h **** /* Clocks API */
  40:Generated_Source\PSoC4/CyLFClk.h **** void CySysClkIloStart(void);
  41:Generated_Source\PSoC4/CyLFClk.h **** void CySysClkIloStop(void);
  42:Generated_Source\PSoC4/CyLFClk.h **** /** @} general */
  43:Generated_Source\PSoC4/CyLFClk.h **** 
  44:Generated_Source\PSoC4/CyLFClk.h **** /**
  45:Generated_Source\PSoC4/CyLFClk.h **** * \addtogroup group_compensate
  46:Generated_Source\PSoC4/CyLFClk.h **** * @{
  47:Generated_Source\PSoC4/CyLFClk.h **** */
  48:Generated_Source\PSoC4/CyLFClk.h **** cystatus CySysClkIloCompensate(uint32 desiredDelay, uint32 *compensatedCycles);
  49:Generated_Source\PSoC4/CyLFClk.h **** void CySysClkIloStartMeasurement(void);
ARM GAS  C:\Users\JamesN4\AppData\Local\Temp\ccOIY297.s 			page 36


  50:Generated_Source\PSoC4/CyLFClk.h **** void CySysClkIloStopMeasurement(void);
  51:Generated_Source\PSoC4/CyLFClk.h **** /** @} compensate */
  52:Generated_Source\PSoC4/CyLFClk.h **** 
  53:Generated_Source\PSoC4/CyLFClk.h **** #if(CY_IP_SRSSV2 && (!CY_IP_CPUSS))
  54:Generated_Source\PSoC4/CyLFClk.h ****     /**
  55:Generated_Source\PSoC4/CyLFClk.h ****     * \addtogroup group_compensate
  56:Generated_Source\PSoC4/CyLFClk.h ****     * @{
  57:Generated_Source\PSoC4/CyLFClk.h ****     */
  58:Generated_Source\PSoC4/CyLFClk.h ****     cystatus CySysClkIloTrim(uint32 mode, int32 *iloAccuracyInPPT);
  59:Generated_Source\PSoC4/CyLFClk.h ****     cystatus CySysClkIloRestoreFactoryTrim(void);
  60:Generated_Source\PSoC4/CyLFClk.h ****     /** @} compensate */
  61:Generated_Source\PSoC4/CyLFClk.h ****     cystatus CySysClkIloUpdateTrimReg(int32* iloAccuracyInPPT);
  62:Generated_Source\PSoC4/CyLFClk.h **** #endif /* (CY_IP_SRSSV2 && (!CY_IP_CPUSS)) */
  63:Generated_Source\PSoC4/CyLFClk.h **** 
  64:Generated_Source\PSoC4/CyLFClk.h **** #if(CY_IP_SRSSV2 && CY_IP_WCO)
  65:Generated_Source\PSoC4/CyLFClk.h ****     /**
  66:Generated_Source\PSoC4/CyLFClk.h ****     * \addtogroup group_general
  67:Generated_Source\PSoC4/CyLFClk.h ****     * @{
  68:Generated_Source\PSoC4/CyLFClk.h ****     */
  69:Generated_Source\PSoC4/CyLFClk.h ****     void CySysClkSetLfclkSource(uint32 source);
  70:Generated_Source\PSoC4/CyLFClk.h ****     /** @} group_general */
  71:Generated_Source\PSoC4/CyLFClk.h **** #endif /* (CY_IP_SRSSV2 && CY_IP_WCO) */
  72:Generated_Source\PSoC4/CyLFClk.h **** 
  73:Generated_Source\PSoC4/CyLFClk.h **** #if (CY_IP_WCO)
  74:Generated_Source\PSoC4/CyLFClk.h ****     /**
  75:Generated_Source\PSoC4/CyLFClk.h ****     * \addtogroup group_wco
  76:Generated_Source\PSoC4/CyLFClk.h ****     * @{
  77:Generated_Source\PSoC4/CyLFClk.h ****     */
  78:Generated_Source\PSoC4/CyLFClk.h ****     void   CySysClkWcoStart(void);
  79:Generated_Source\PSoC4/CyLFClk.h ****     void   CySysClkWcoStop(void);
  80:Generated_Source\PSoC4/CyLFClk.h ****     uint32 CySysClkWcoSetPowerMode(uint32 mode);
  81:Generated_Source\PSoC4/CyLFClk.h ****     void CySysClkWcoClockOutSelect(uint32 clockSel);
  82:Generated_Source\PSoC4/CyLFClk.h ****     /** @} wco */
  83:Generated_Source\PSoC4/CyLFClk.h **** 
  84:Generated_Source\PSoC4/CyLFClk.h ****     uint32 CySysClkWcoEnabled(void);
  85:Generated_Source\PSoC4/CyLFClk.h **** 
  86:Generated_Source\PSoC4/CyLFClk.h **** #endif /* (CY_IP_WCO) */
  87:Generated_Source\PSoC4/CyLFClk.h **** 
  88:Generated_Source\PSoC4/CyLFClk.h **** typedef void (*cyWdtCallback)(void);
  89:Generated_Source\PSoC4/CyLFClk.h **** 
  90:Generated_Source\PSoC4/CyLFClk.h **** #if (CY_IP_SRSSLT && CY_IP_WCO && CY_IP_WCO_WDT_EN)
  91:Generated_Source\PSoC4/CyLFClk.h **** 
  92:Generated_Source\PSoC4/CyLFClk.h ****     typedef void (*cyTimerCallback)(void);
  93:Generated_Source\PSoC4/CyLFClk.h **** #endif /* (CY_IP_SRSSLT && CY_IP_WCO && CY_IP_WCO_WDT_EN) */
  94:Generated_Source\PSoC4/CyLFClk.h **** 
  95:Generated_Source\PSoC4/CyLFClk.h **** #if(CY_IP_SRSSV2)
  96:Generated_Source\PSoC4/CyLFClk.h ****     /**
  97:Generated_Source\PSoC4/CyLFClk.h ****     * \addtogroup group_wdtsrssv2
  98:Generated_Source\PSoC4/CyLFClk.h ****     * @{
  99:Generated_Source\PSoC4/CyLFClk.h ****     */
 100:Generated_Source\PSoC4/CyLFClk.h ****     /* WDT API */
 101:Generated_Source\PSoC4/CyLFClk.h ****     void   CySysWdtLock(void);
 102:Generated_Source\PSoC4/CyLFClk.h ****     void   CySysWdtUnlock(void);
 103:Generated_Source\PSoC4/CyLFClk.h ****     void   CySysWdtSetMode(uint32 counterNum, uint32 mode);
 104:Generated_Source\PSoC4/CyLFClk.h ****     uint32 CySysWdtGetMode(uint32 counterNum);
 105:Generated_Source\PSoC4/CyLFClk.h ****     uint32 CySysWdtGetEnabledStatus(uint32 counterNum);
 106:Generated_Source\PSoC4/CyLFClk.h ****     void   CySysWdtSetClearOnMatch(uint32 counterNum, uint32 enable);
ARM GAS  C:\Users\JamesN4\AppData\Local\Temp\ccOIY297.s 			page 37


 107:Generated_Source\PSoC4/CyLFClk.h ****     uint32 CySysWdtGetClearOnMatch(uint32 counterNum);
 108:Generated_Source\PSoC4/CyLFClk.h ****     void   CySysWdtEnable(uint32 counterMask);
 109:Generated_Source\PSoC4/CyLFClk.h ****     void   CySysWdtDisable(uint32 counterMask);
 110:Generated_Source\PSoC4/CyLFClk.h ****     void   CySysWdtSetCascade(uint32 cascadeMask);
 111:Generated_Source\PSoC4/CyLFClk.h ****     uint32 CySysWdtGetCascade(void);
 112:Generated_Source\PSoC4/CyLFClk.h ****     void   CySysWdtSetMatch(uint32 counterNum, uint32 match);
 113:Generated_Source\PSoC4/CyLFClk.h ****     void   CySysWdtSetToggleBit(uint32 bits);
 114:Generated_Source\PSoC4/CyLFClk.h ****     uint32 CySysWdtGetToggleBit(void);
 115:Generated_Source\PSoC4/CyLFClk.h ****     uint32 CySysWdtGetMatch(uint32 counterNum);
 116:Generated_Source\PSoC4/CyLFClk.h ****     uint32 CySysWdtGetCount(uint32 counterNum);
 117:Generated_Source\PSoC4/CyLFClk.h ****     uint32 CySysWdtGetInterruptSource(void);
 118:Generated_Source\PSoC4/CyLFClk.h ****     void   CySysWdtClearInterrupt(uint32 counterMask);
 119:Generated_Source\PSoC4/CyLFClk.h ****     void   CySysWdtResetCounters(uint32 countersMask);
 120:Generated_Source\PSoC4/CyLFClk.h ****     cyWdtCallback  CySysWdtSetInterruptCallback(uint32 counterNum, cyWdtCallback function);
 121:Generated_Source\PSoC4/CyLFClk.h ****     cyWdtCallback  CySysWdtGetInterruptCallback(uint32 counterNum);
 122:Generated_Source\PSoC4/CyLFClk.h ****     void   CySysTimerDelay(uint32 counterNum, cy_sys_timer_delaytype_enum delayType, uint32 delay);
 123:Generated_Source\PSoC4/CyLFClk.h ****     void   CySysTimerDelayUntilMatch(uint32 counterNum, cy_sys_timer_delaytype_enum delayType, uint
 124:Generated_Source\PSoC4/CyLFClk.h ****     void   CySysWatchdogFeed(uint32 counterNum);
 125:Generated_Source\PSoC4/CyLFClk.h ****     void   CySysWdtEnableCounterIsr(uint32 counterNum);
 126:Generated_Source\PSoC4/CyLFClk.h ****     void   CySysWdtDisableCounterIsr(uint32 counterNum);
 127:Generated_Source\PSoC4/CyLFClk.h ****     void   CySysWdtIsr(void);
 128:Generated_Source\PSoC4/CyLFClk.h ****     /** @} wdtsrssv2 */
 129:Generated_Source\PSoC4/CyLFClk.h **** #else
 130:Generated_Source\PSoC4/CyLFClk.h ****     /**
 131:Generated_Source\PSoC4/CyLFClk.h ****     * \addtogroup group_wdtsrsslite
 132:Generated_Source\PSoC4/CyLFClk.h ****     * @{
 133:Generated_Source\PSoC4/CyLFClk.h ****     */
 134:Generated_Source\PSoC4/CyLFClk.h ****     /* WDT API */
 135:Generated_Source\PSoC4/CyLFClk.h ****     uint32 CySysWdtGetEnabledStatus(void);
 136:Generated_Source\PSoC4/CyLFClk.h ****     void   CySysWdtEnable(void);
 137:Generated_Source\PSoC4/CyLFClk.h ****     void   CySysWdtDisable(void);
 138:Generated_Source\PSoC4/CyLFClk.h ****     void   CySysWdtSetMatch(uint32 match);
 139:Generated_Source\PSoC4/CyLFClk.h ****     uint32 CySysWdtGetMatch(void);
 140:Generated_Source\PSoC4/CyLFClk.h ****     uint32 CySysWdtGetCount(void);
 141:Generated_Source\PSoC4/CyLFClk.h ****     void   CySysWdtSetIgnoreBits(uint32 bitsNum);
 142:Generated_Source\PSoC4/CyLFClk.h ****     uint32 CySysWdtGetIgnoreBits(void);
 143:Generated_Source\PSoC4/CyLFClk.h ****     void   CySysWdtClearInterrupt(void);
 144:Generated_Source\PSoC4/CyLFClk.h ****     void   CySysWdtMaskInterrupt(void);
 145:Generated_Source\PSoC4/CyLFClk.h ****     void   CySysWdtUnmaskInterrupt(void);
 146:Generated_Source\PSoC4/CyLFClk.h ****     cyWdtCallback CySysWdtSetInterruptCallback(cyWdtCallback function);
 147:Generated_Source\PSoC4/CyLFClk.h ****     cyWdtCallback CySysWdtGetInterruptCallback(void);
 148:Generated_Source\PSoC4/CyLFClk.h ****     void   CySysWdtIsr(void);
 149:Generated_Source\PSoC4/CyLFClk.h ****     /** @} wdtsrsslite*/
 150:Generated_Source\PSoC4/CyLFClk.h **** #endif  /* (CY_IP_SRSSV2) */
 151:Generated_Source\PSoC4/CyLFClk.h **** 
 152:Generated_Source\PSoC4/CyLFClk.h **** 
 153:Generated_Source\PSoC4/CyLFClk.h **** #if(CY_IP_SRSSLT && CY_IP_WCO && CY_IP_WCO_WDT_EN)
 154:Generated_Source\PSoC4/CyLFClk.h ****     /**
 155:Generated_Source\PSoC4/CyLFClk.h ****     * \addtogroup group_deepsleepwdt
 156:Generated_Source\PSoC4/CyLFClk.h ****     * @{
 157:Generated_Source\PSoC4/CyLFClk.h ****     */
 158:Generated_Source\PSoC4/CyLFClk.h ****     /* WCO WDT APIs */
 159:Generated_Source\PSoC4/CyLFClk.h ****     void   CySysClkSetTimerSource(uint32 source);
 160:Generated_Source\PSoC4/CyLFClk.h ****     void   CySysTimerSetMode(uint32 counterNum, uint32 mode);
 161:Generated_Source\PSoC4/CyLFClk.h ****     uint32 CySysTimerGetMode(uint32 counterNum);
 162:Generated_Source\PSoC4/CyLFClk.h ****     uint32 CySysTimerGetEnabledStatus(uint32 counterNum);
 163:Generated_Source\PSoC4/CyLFClk.h ****     void   CySysTimerSetClearOnMatch(uint32 counterNum, uint32 enable);
ARM GAS  C:\Users\JamesN4\AppData\Local\Temp\ccOIY297.s 			page 38


 164:Generated_Source\PSoC4/CyLFClk.h ****     uint32 CySysTimerGetClearOnMatch(uint32 counterNum);
 165:Generated_Source\PSoC4/CyLFClk.h ****     void   CySysTimerEnable(uint32 counterMask);
 166:Generated_Source\PSoC4/CyLFClk.h ****     void   CySysTimerDisable(uint32 counterMask);
 167:Generated_Source\PSoC4/CyLFClk.h ****     void   CySysTimerSetCascade(uint32 cascadeMask);
 168:Generated_Source\PSoC4/CyLFClk.h ****     uint32 CySysTimerGetCascade(void);
 169:Generated_Source\PSoC4/CyLFClk.h ****     void   CySysTimerSetMatch(uint32 counterNum, uint32 match);
 170:Generated_Source\PSoC4/CyLFClk.h ****     void   CySysTimerSetToggleBit(uint32 bits);
 171:Generated_Source\PSoC4/CyLFClk.h ****     uint32 CySysTimerGetToggleBit(void);
 172:Generated_Source\PSoC4/CyLFClk.h ****     uint32 CySysTimerGetMatch(uint32 counterNum);
 173:Generated_Source\PSoC4/CyLFClk.h ****     uint32 CySysTimerGetCount(uint32 counterNum);
 174:Generated_Source\PSoC4/CyLFClk.h ****     uint32 CySysTimerGetInterruptSource(void);
 175:Generated_Source\PSoC4/CyLFClk.h ****     void   CySysTimerClearInterrupt(uint32 counterMask);
 176:Generated_Source\PSoC4/CyLFClk.h ****     cyTimerCallback CySysTimerSetInterruptCallback(uint32 counterNum, cyTimerCallback function);
 177:Generated_Source\PSoC4/CyLFClk.h ****     cyTimerCallback CySysTimerGetInterruptCallback(uint32 counterNum);
 178:Generated_Source\PSoC4/CyLFClk.h ****     void   CySysTimerDelay(uint32 counterNum, cy_sys_timer_delaytype_enum delayType, uint32 delay);
 179:Generated_Source\PSoC4/CyLFClk.h ****     void   CySysTimerDelayUntilMatch(uint32 counterNum, cy_sys_timer_delaytype_enum delayType, uint
 180:Generated_Source\PSoC4/CyLFClk.h ****     void   CySysTimerResetCounters(uint32 countersMask);
 181:Generated_Source\PSoC4/CyLFClk.h ****     void   CySysTimerEnableIsr(uint32 counterNum);
 182:Generated_Source\PSoC4/CyLFClk.h ****     void   CySysTimerDisableIsr(uint32 counterNum);
 183:Generated_Source\PSoC4/CyLFClk.h ****     void   CySysTimerIsr(void);
 184:Generated_Source\PSoC4/CyLFClk.h ****     /** @} deepsleepwdt */
 185:Generated_Source\PSoC4/CyLFClk.h **** #endif /* (CY_IP_SRSSLT && CY_IP_WCO && CY_IP_WCO_WDT_EN) */
 186:Generated_Source\PSoC4/CyLFClk.h **** 
 187:Generated_Source\PSoC4/CyLFClk.h **** 
 188:Generated_Source\PSoC4/CyLFClk.h **** /*******************************************************************************
 189:Generated_Source\PSoC4/CyLFClk.h **** * API Constants
 190:Generated_Source\PSoC4/CyLFClk.h **** *******************************************************************************/
 191:Generated_Source\PSoC4/CyLFClk.h **** #define CY_SYS_UINT16_MAX_VAL    (0xFFFFu)
 192:Generated_Source\PSoC4/CyLFClk.h **** 
 193:Generated_Source\PSoC4/CyLFClk.h **** 
 194:Generated_Source\PSoC4/CyLFClk.h **** /*******************************************************************************
 195:Generated_Source\PSoC4/CyLFClk.h **** * Clock API Constants
 196:Generated_Source\PSoC4/CyLFClk.h **** *******************************************************************************/
 197:Generated_Source\PSoC4/CyLFClk.h **** 
 198:Generated_Source\PSoC4/CyLFClk.h **** /* CySysClkIloStart()/CySysClkIloStop() - implementation definitions */
 199:Generated_Source\PSoC4/CyLFClk.h **** #define CY_SYS_CLK_ILO_CONFIG_ENABLE                    ((uint32)(( uint32 )0x01u << 31u))
 200:Generated_Source\PSoC4/CyLFClk.h **** #define CY_SYS_CLK_DFT_SELECT_DEFAULT_MASK              ((uint32)(( uint32 )0x0fu << 8u ))
 201:Generated_Source\PSoC4/CyLFClk.h **** 
 202:Generated_Source\PSoC4/CyLFClk.h **** /* CySysClkIloCompensate() - one ILO clock in uS multiplied on thousand */
 203:Generated_Source\PSoC4/CyLFClk.h **** #if (CY_IP_SRSSV2)
 204:Generated_Source\PSoC4/CyLFClk.h ****     #define CY_SYS_CLK_ILO_PERIOD_PPH                   ((uint32) (0x0C35u))
 205:Generated_Source\PSoC4/CyLFClk.h **** #else
 206:Generated_Source\PSoC4/CyLFClk.h ****     #define CY_SYS_CLK_ILO_PERIOD_PPH                   ((uint32) (0x09C4u))
 207:Generated_Source\PSoC4/CyLFClk.h **** #endif /* (CY_IP_SRSSV2) */
 208:Generated_Source\PSoC4/CyLFClk.h **** 
 209:Generated_Source\PSoC4/CyLFClk.h **** /* CySysClkIloCompensate() - implementation definitions */
 210:Generated_Source\PSoC4/CyLFClk.h **** #define CY_SYS_CLK_ILO_CALIBR_COMPLETE_MASK             ((uint32)(( uint32 )0x01u << 31u))
 211:Generated_Source\PSoC4/CyLFClk.h **** #define CY_SYS_CLK_ILO_DFT_LSB_MASK                     ((uint32)(0x00000FFFu))
 212:Generated_Source\PSoC4/CyLFClk.h **** #define CY_SYS_CLK_TRIM_OR_COMP_STARTED                 (1u)
 213:Generated_Source\PSoC4/CyLFClk.h **** #define CY_SYS_CLK_TRIM_OR_COMP_FINISHED                (0u)
 214:Generated_Source\PSoC4/CyLFClk.h **** #define CY_SYS_CLK_COEF_PHUNDRED                        ((uint32) (0x64u))
 215:Generated_Source\PSoC4/CyLFClk.h **** #define CY_SYS_CLK_HALF_OF_CLOCK                        ((uint32) ((uint32) CY_SYS_CLK_ILO_PERIOD_P
 216:Generated_Source\PSoC4/CyLFClk.h **** 
 217:Generated_Source\PSoC4/CyLFClk.h **** /* CySysClkIloCompensate() - maximum value of desiredDelay argument */
 218:Generated_Source\PSoC4/CyLFClk.h **** #if (CY_IP_SRSSV2)
 219:Generated_Source\PSoC4/CyLFClk.h ****     #define CY_SYS_CLK_MAX_DELAY_US                     ((uint32) (0xEE6B2800u))
 220:Generated_Source\PSoC4/CyLFClk.h ****     #define CY_SYS_CLK_ILO_PERIOD                       ((uint32) (0x1Fu))
ARM GAS  C:\Users\JamesN4\AppData\Local\Temp\ccOIY297.s 			page 39


 221:Generated_Source\PSoC4/CyLFClk.h ****     #define CY_SYS_CLK_ILO_FREQ_2MSB                    ((uint32) 5u)
 222:Generated_Source\PSoC4/CyLFClk.h **** #else
 223:Generated_Source\PSoC4/CyLFClk.h ****     #define CY_SYS_CLK_MAX_DELAY_US                     ((uint32) (0x1E8480u))
 224:Generated_Source\PSoC4/CyLFClk.h ****     #define CY_SYS_CLK_ILO_FREQ_2MSB                    ((uint32) (0x28u ))
 225:Generated_Source\PSoC4/CyLFClk.h **** 
 226:Generated_Source\PSoC4/CyLFClk.h ****     /**********************************************************************************
 227:Generated_Source\PSoC4/CyLFClk.h ****     * CySysClkIloCompensate() - value to walk over oversamling in calculations with 
 228:Generated_Source\PSoC4/CyLFClk.h ****     * srsslite. The oversample can be obtained when ilo frequency in equal 80 KHz and
 229:Generated_Source\PSoC4/CyLFClk.h ****     * desired clocks are 80 000 clocks.
 230:Generated_Source\PSoC4/CyLFClk.h ****     **********************************************************************************/
 231:Generated_Source\PSoC4/CyLFClk.h ****     #define CY_SYS_CLK_MAX_LITE_NUMBER                     ((uint32) 53600u)
 232:Generated_Source\PSoC4/CyLFClk.h **** #endif /* (CY_IP_SRSSV2) */
 233:Generated_Source\PSoC4/CyLFClk.h **** 
 234:Generated_Source\PSoC4/CyLFClk.h **** #define CY_SYS_CLK_ILO_FREQ_3LSB                       ((uint32) (0x3E8u))
 235:Generated_Source\PSoC4/CyLFClk.h **** #define CY_SYS_CLK_DELAY_COUNTS_LIMIT                  ((uint32) (0xD160u))
 236:Generated_Source\PSoC4/CyLFClk.h **** #define CY_SYS_CLK_MIN_DELAY_US                        ((uint32) (0x64u))
 237:Generated_Source\PSoC4/CyLFClk.h **** 
 238:Generated_Source\PSoC4/CyLFClk.h **** /* CySysClkSetLfclkSource() - parameter definitions */
 239:Generated_Source\PSoC4/CyLFClk.h **** #if (CY_IP_SRSSV2 && CY_IP_WCO)
 240:Generated_Source\PSoC4/CyLFClk.h **** 
 241:Generated_Source\PSoC4/CyLFClk.h ****     /** Internal Low Frequency (32 kHz) Oscillator (ILO) */
 242:Generated_Source\PSoC4/CyLFClk.h ****     #define CY_SYS_CLK_LFCLK_SRC_ILO                    (0u)
 243:Generated_Source\PSoC4/CyLFClk.h **** 
 244:Generated_Source\PSoC4/CyLFClk.h ****     /** Low Frequency Watch Crystal Oscillator (WCO) */
 245:Generated_Source\PSoC4/CyLFClk.h ****     #define CY_SYS_CLK_LFCLK_SRC_WCO                    ((uint32)(( uint32 )0x01u << 30u))
 246:Generated_Source\PSoC4/CyLFClk.h **** #endif /* (CY_IP_SRSSV2 && CY_IP_WCO) */
 247:Generated_Source\PSoC4/CyLFClk.h **** 
 248:Generated_Source\PSoC4/CyLFClk.h **** 
 249:Generated_Source\PSoC4/CyLFClk.h **** #if (CY_IP_WCO)
 250:Generated_Source\PSoC4/CyLFClk.h **** 
 251:Generated_Source\PSoC4/CyLFClk.h ****     /* CySysClkSetLfclkSource() - implementation definitions */
 252:Generated_Source\PSoC4/CyLFClk.h ****     #define CY_SYS_CLK_LFCLK_SEL_MASK                   ((uint32)(( uint32 )0x03u << 30u))
 253:Generated_Source\PSoC4/CyLFClk.h **** #endif /* (CY_IP_WCO) */
 254:Generated_Source\PSoC4/CyLFClk.h **** 
 255:Generated_Source\PSoC4/CyLFClk.h **** /* CySysClkSetTimerSource() - implementation definitions */
 256:Generated_Source\PSoC4/CyLFClk.h **** #if (CY_IP_SRSSLT && CY_IP_WCO && CY_IP_WCO_WDT_EN)
 257:Generated_Source\PSoC4/CyLFClk.h ****     #define CY_SYS_CLK_TIMER_SEL_MASK                   ((uint32)(( uint32 )0x03u << 30u))
 258:Generated_Source\PSoC4/CyLFClk.h **** #endif /* (CY_IP_SRSSLT && CY_IP_WCO && CY_IP_WCO_WDT_EN) */
 259:Generated_Source\PSoC4/CyLFClk.h **** 
 260:Generated_Source\PSoC4/CyLFClk.h **** /* CySysClkSetTimerSource() - parameter definitions */
 261:Generated_Source\PSoC4/CyLFClk.h **** #if (CY_IP_SRSSLT && CY_IP_WCO && CY_IP_WCO_WDT_EN)
 262:Generated_Source\PSoC4/CyLFClk.h **** 
 263:Generated_Source\PSoC4/CyLFClk.h ****     /** Internal Low Frequency (32 kHz) Oscillator (ILO) */
 264:Generated_Source\PSoC4/CyLFClk.h ****     #define CY_SYS_CLK_TIMER_SRC_ILO                (0u)
 265:Generated_Source\PSoC4/CyLFClk.h **** 
 266:Generated_Source\PSoC4/CyLFClk.h ****     /** Low Frequency Watch Crystal Oscillator (WCO) */
 267:Generated_Source\PSoC4/CyLFClk.h ****     #define CY_SYS_CLK_TIMER_SRC_WCO                ((uint32)(( uint32 )0x01u << 30u))
 268:Generated_Source\PSoC4/CyLFClk.h **** #endif /* (CY_IP_SRSSLT && CY_IP_WCO && CY_IP_WCO_WDT_EN) */
 269:Generated_Source\PSoC4/CyLFClk.h **** 
 270:Generated_Source\PSoC4/CyLFClk.h **** /* CySysClkWcoClockOutSelect() - parameter definitions */
 271:Generated_Source\PSoC4/CyLFClk.h **** #if (CY_IP_WCO)
 272:Generated_Source\PSoC4/CyLFClk.h **** 
 273:Generated_Source\PSoC4/CyLFClk.h ****     /** Selects External crystal as WCOs clock source */
 274:Generated_Source\PSoC4/CyLFClk.h ****     #define CY_SYS_CLK_WCO_SEL_CRYSTAL                  (1u)
 275:Generated_Source\PSoC4/CyLFClk.h **** 
 276:Generated_Source\PSoC4/CyLFClk.h ****     /** Selects External clock input on wco_in pin as WCOs clock source */
 277:Generated_Source\PSoC4/CyLFClk.h ****     #define CY_SYS_CLK_WCO_SEL_PIN                      (0u)
ARM GAS  C:\Users\JamesN4\AppData\Local\Temp\ccOIY297.s 			page 40


 278:Generated_Source\PSoC4/CyLFClk.h **** #endif /* (CY_IP_WCO) */
 279:Generated_Source\PSoC4/CyLFClk.h **** 
 280:Generated_Source\PSoC4/CyLFClk.h **** /* CySysClkWcoClockOutSelect() - implementation definitions */
 281:Generated_Source\PSoC4/CyLFClk.h **** #if (CY_IP_WCO)
 282:Generated_Source\PSoC4/CyLFClk.h ****     #define CY_SYS_CLK_WCO_SELECT_PIN_MASK              ((uint32)(( uint32 )0x01u << 2u))
 283:Generated_Source\PSoC4/CyLFClk.h ****     #define CY_SYS_CLK_WCO_SELECT_PIN_OFFSET            ((uint32) 0x02u)
 284:Generated_Source\PSoC4/CyLFClk.h **** #endif /* (CY_IP_WCO) */
 285:Generated_Source\PSoC4/CyLFClk.h **** 
 286:Generated_Source\PSoC4/CyLFClk.h **** /* CySysClkIloRestoreFactoryTrim() - implementation definitions */
 287:Generated_Source\PSoC4/CyLFClk.h **** #if (CY_IP_SRSSV2 && CY_IP_WCO && (!CY_IP_CPUSS))
 288:Generated_Source\PSoC4/CyLFClk.h ****     #define CY_SYS_CLK_ILO_TRIM_DEFAULT_VALUE           ((uint8 )(0xF0u))
 289:Generated_Source\PSoC4/CyLFClk.h ****     #define CY_SYS_CLK_ILO_TRIM_DEFAULT_MASK            ((uint32)((uint32)0x01u << 3u))
 290:Generated_Source\PSoC4/CyLFClk.h ****     #define CY_SYS_CLK_ILO_TRIM_MASK                    ((uint32)(0x0Fu))
 291:Generated_Source\PSoC4/CyLFClk.h **** #endif /* (CY_IP_SRSSV2 && CY_IP_WCO && (!CY_IP_CPUSS)) */
 292:Generated_Source\PSoC4/CyLFClk.h **** 
 293:Generated_Source\PSoC4/CyLFClk.h **** /* CySysIloTrim() - parameter definitions and macros*/
 294:Generated_Source\PSoC4/CyLFClk.h **** #if (CY_IP_SRSSV2 && CY_IP_WCO && (!CY_IP_CPUSS))
 295:Generated_Source\PSoC4/CyLFClk.h ****     #define CY_SYS_CLK_BLOCKING                         (0u)
 296:Generated_Source\PSoC4/CyLFClk.h ****     #define CY_SYS_CLK_NON_BLOCKING                     (1u)
 297:Generated_Source\PSoC4/CyLFClk.h ****     #define CY_SYS_CLK_PERTHOUSAND                      ((uint32) 0x000003E8u )
 298:Generated_Source\PSoC4/CyLFClk.h ****     #define CY_SYS_CLK_ABS_MACRO(x)                     ((0 > (x)) ? (-(x)) : (x))
 299:Generated_Source\PSoC4/CyLFClk.h ****     #define CY_SYS_CLK_ERROR_RANGE                      ((uint32) 0x38u)
 300:Generated_Source\PSoC4/CyLFClk.h ****     #define CY_SYS_CLK_TIMEOUT                          ((uint8 ) 0x05u)
 301:Generated_Source\PSoC4/CyLFClk.h **** 
 302:Generated_Source\PSoC4/CyLFClk.h ****     /* ILO error step is 7,37 % error range */
 303:Generated_Source\PSoC4/CyLFClk.h ****     #define CY_SYS_CLK_ERROR_STEP                       (( int32) 0x02E1u)
 304:Generated_Source\PSoC4/CyLFClk.h ****     #define CY_SYS_CLK_ERROR_COEF                       ((uint32) 0x0Au)
 305:Generated_Source\PSoC4/CyLFClk.h **** #endif /* (CY_IP_SRSSV2 && CY_IP_WCO && (!CY_IP_CPUSS)) */
 306:Generated_Source\PSoC4/CyLFClk.h **** 
 307:Generated_Source\PSoC4/CyLFClk.h **** #if (CY_IP_WCO)
 308:Generated_Source\PSoC4/CyLFClk.h **** 
 309:Generated_Source\PSoC4/CyLFClk.h ****     /* WCO Configuration Register */
 310:Generated_Source\PSoC4/CyLFClk.h ****     #define CY_SYS_CLK_WCO_CONFIG_LPM_EN                (( uint32 )(( uint32 )0x01u <<  0u))
 311:Generated_Source\PSoC4/CyLFClk.h ****     #define CY_SYS_CLK_WCO_CONFIG_LPM_AUTO              (( uint32 )(( uint32 )0x01u <<  1u))
 312:Generated_Source\PSoC4/CyLFClk.h ****     #define CY_SYS_CLK_WCO_CONFIG_LPM_ENABLE            (( uint32 )(( uint32 )0x01u << 31u))
 313:Generated_Source\PSoC4/CyLFClk.h **** 
 314:Generated_Source\PSoC4/CyLFClk.h ****     /* WCO Status Register */
 315:Generated_Source\PSoC4/CyLFClk.h ****     #define CY_SYS_CLK_WCO_STATUS_OUT_BLNK_A            (( uint32 )(( uint32 )0x01u <<  0u))
 316:Generated_Source\PSoC4/CyLFClk.h **** 
 317:Generated_Source\PSoC4/CyLFClk.h ****     /* WCO Trim Register */
 318:Generated_Source\PSoC4/CyLFClk.h ****     #define CY_SYS_CLK_WCO_TRIM_XGM_MASK                (( uint32 ) 0x07u)
 319:Generated_Source\PSoC4/CyLFClk.h ****     #define CY_SYS_CLK_WCO_TRIM_XGM_SHIFT               (( uint32 ) 0x00u)
 320:Generated_Source\PSoC4/CyLFClk.h **** 
 321:Generated_Source\PSoC4/CyLFClk.h ****     #define CY_SYS_CLK_WCO_TRIM_XGM_3370NA              (( uint32 ) 0x00u)
 322:Generated_Source\PSoC4/CyLFClk.h ****     #define CY_SYS_CLK_WCO_TRIM_XGM_2620NA              (( uint32 ) 0x01u)
 323:Generated_Source\PSoC4/CyLFClk.h ****     #define CY_SYS_CLK_WCO_TRIM_XGM_2250NA              (( uint32 ) 0x02u)
 324:Generated_Source\PSoC4/CyLFClk.h ****     #define CY_SYS_CLK_WCO_TRIM_XGM_1500NA              (( uint32 ) 0x03u)
 325:Generated_Source\PSoC4/CyLFClk.h ****     #define CY_SYS_CLK_WCO_TRIM_XGM_1870NA              (( uint32 ) 0x04u)
 326:Generated_Source\PSoC4/CyLFClk.h ****     #define CY_SYS_CLK_WCO_TRIM_XGM_1120NA              (( uint32 ) 0x05u)
 327:Generated_Source\PSoC4/CyLFClk.h ****     #define CY_SYS_CLK_WCO_TRIM_XGM_750NA               (( uint32 ) 0x06u)
 328:Generated_Source\PSoC4/CyLFClk.h ****     #define CY_SYS_CLK_WCO_TRIM_XGM_0NA                 (( uint32 ) 0x07u)
 329:Generated_Source\PSoC4/CyLFClk.h **** 
 330:Generated_Source\PSoC4/CyLFClk.h ****     #define CY_SYS_CLK_WCO_TRIM_GM_MASK                 (( uint32 )(( uint32 )0x03u << 4u))
 331:Generated_Source\PSoC4/CyLFClk.h ****     #define CY_SYS_CLK_WCO_TRIM_GM_SHIFT                (( uint32 ) 0x04u)
 332:Generated_Source\PSoC4/CyLFClk.h ****     #define CY_SYS_CLK_WCO_TRIM_GM_HPM                  (( uint32 ) 0x01u)
 333:Generated_Source\PSoC4/CyLFClk.h ****     #define CY_SYS_CLK_WCO_TRIM_GM_LPM                  (( uint32 ) 0x02u)
 334:Generated_Source\PSoC4/CyLFClk.h **** #endif  /* (CY_IP_WCO) */
ARM GAS  C:\Users\JamesN4\AppData\Local\Temp\ccOIY297.s 			page 41


 335:Generated_Source\PSoC4/CyLFClk.h **** 
 336:Generated_Source\PSoC4/CyLFClk.h **** 
 337:Generated_Source\PSoC4/CyLFClk.h **** /*******************************************************************************
 338:Generated_Source\PSoC4/CyLFClk.h **** * WDT API Constants
 339:Generated_Source\PSoC4/CyLFClk.h **** *******************************************************************************/
 340:Generated_Source\PSoC4/CyLFClk.h **** #if(CY_IP_SRSSV2)
 341:Generated_Source\PSoC4/CyLFClk.h **** 
 342:Generated_Source\PSoC4/CyLFClk.h ****     #define CY_SYS_WDT_MODE_NONE                (0u)
 343:Generated_Source\PSoC4/CyLFClk.h ****     #define CY_SYS_WDT_MODE_INT                 (1u)
 344:Generated_Source\PSoC4/CyLFClk.h ****     #define CY_SYS_WDT_MODE_RESET               (2u)
 345:Generated_Source\PSoC4/CyLFClk.h ****     #define CY_SYS_WDT_MODE_INT_RESET           (3u)
 346:Generated_Source\PSoC4/CyLFClk.h **** 
 347:Generated_Source\PSoC4/CyLFClk.h ****     #define CY_SYS_WDT_COUNTER0_MASK            ((uint32)((uint32)0x01u))           /**< Counter 0 
 348:Generated_Source\PSoC4/CyLFClk.h ****     #define CY_SYS_WDT_COUNTER1_MASK            ((uint32)((uint32)0x01u << 8u))     /**< Counter 1 
 349:Generated_Source\PSoC4/CyLFClk.h ****     #define CY_SYS_WDT_COUNTER2_MASK            ((uint32)((uint32)0x01u << 16u))    /**< Counter 2 
 350:Generated_Source\PSoC4/CyLFClk.h **** 
 351:Generated_Source\PSoC4/CyLFClk.h ****     #define CY_SYS_WDT_CASCADE_NONE             ((uint32)0x00u)             /**< Neither */
 352:Generated_Source\PSoC4/CyLFClk.h ****     #define CY_SYS_WDT_CASCADE_01               ((uint32)0x01u << 3u)       /**< Cascade 01 */
 353:Generated_Source\PSoC4/CyLFClk.h ****     #define CY_SYS_WDT_CASCADE_12               ((uint32)0x01u << 11u)      /**< Cascade 12 */
 354:Generated_Source\PSoC4/CyLFClk.h **** 
 355:Generated_Source\PSoC4/CyLFClk.h ****     #define CY_SYS_WDT_COUNTER0_INT             ((uint32)0x01u << 2u)
 356:Generated_Source\PSoC4/CyLFClk.h ****     #define CY_SYS_WDT_COUNTER1_INT             ((uint32)0x01u << 10u)
 357:Generated_Source\PSoC4/CyLFClk.h ****     #define CY_SYS_WDT_COUNTER2_INT             ((uint32)0x01u << 18u)
 358:Generated_Source\PSoC4/CyLFClk.h **** 
 359:Generated_Source\PSoC4/CyLFClk.h ****     #define CY_SYS_WDT_COUNTER0_RESET           ((uint32)0x01u << 3u)       /**< Counter 0 */
 360:Generated_Source\PSoC4/CyLFClk.h ****     #define CY_SYS_WDT_COUNTER1_RESET           ((uint32)0x01u << 11u)      /**< Counter 1 */
 361:Generated_Source\PSoC4/CyLFClk.h ****     #define CY_SYS_WDT_COUNTER2_RESET           ((uint32)0x01u << 19u)      /**< Counter 2 */
 362:Generated_Source\PSoC4/CyLFClk.h **** 
 363:Generated_Source\PSoC4/CyLFClk.h ****     #define CY_SYS_WDT_COUNTERS_RESET           (CY_SYS_WDT_COUNTER0_RESET |\
 364:Generated_Source\PSoC4/CyLFClk.h ****                                                  CY_SYS_WDT_COUNTER1_RESET |\
 365:Generated_Source\PSoC4/CyLFClk.h ****                                                  CY_SYS_WDT_COUNTER2_RESET)
 366:Generated_Source\PSoC4/CyLFClk.h **** 
 367:Generated_Source\PSoC4/CyLFClk.h ****     #define CY_SYS_WDT_COUNTER0                 (0x00u)
 368:Generated_Source\PSoC4/CyLFClk.h ****     #define CY_SYS_WDT_COUNTER1                 (0x01u)
 369:Generated_Source\PSoC4/CyLFClk.h ****     #define CY_SYS_WDT_COUNTER2                 (0x02u)
 370:Generated_Source\PSoC4/CyLFClk.h **** 
 371:Generated_Source\PSoC4/CyLFClk.h ****     #define CY_SYS_WDT_COUNTER0_OFFSET          (0x00u)
 372:Generated_Source\PSoC4/CyLFClk.h ****     #define CY_SYS_WDT_COUNTER1_OFFSET          (0x02u)
 373:Generated_Source\PSoC4/CyLFClk.h ****     #define CY_SYS_WDT_COUNTER2_OFFSET          (0x04u)
 374:Generated_Source\PSoC4/CyLFClk.h **** 
 375:Generated_Source\PSoC4/CyLFClk.h ****     #define CY_SYS_WDT_MODE_MASK                ((uint32)(0x03u))
 376:Generated_Source\PSoC4/CyLFClk.h **** 
 377:Generated_Source\PSoC4/CyLFClk.h ****     #define CY_SYS_WDT_CONFIG_BITS2_MASK        (uint32)(0x1Fu)
 378:Generated_Source\PSoC4/CyLFClk.h ****     #define CY_SYS_WDT_CONFIG_BITS2_POS         (uint32)(24u)
 379:Generated_Source\PSoC4/CyLFClk.h ****     #define CY_SYS_WDT_LOWER_16BITS_MASK        (uint32)(0x0000FFFFu)
 380:Generated_Source\PSoC4/CyLFClk.h ****     #define CY_SYS_WDT_HIGHER_16BITS_MASK       (uint32)(0xFFFF0000u)
 381:Generated_Source\PSoC4/CyLFClk.h ****     #define CY_SYS_WDT_COUNTERS_MAX             (0x03u)
 382:Generated_Source\PSoC4/CyLFClk.h ****     #define CY_SYS_WDT_CNT_SHIFT                (0x08u)
 383:Generated_Source\PSoC4/CyLFClk.h ****     #define CY_SYS_WDT_CNT_MATCH_CLR_SHIFT      (0x02u)
 384:Generated_Source\PSoC4/CyLFClk.h ****     #define CY_SYS_WDT_CNT_STTS_SHIFT           (0x01u)
 385:Generated_Source\PSoC4/CyLFClk.h ****     #define CY_SYS_WDT_CNT_MATCH_SHIFT          (0x10u)
 386:Generated_Source\PSoC4/CyLFClk.h **** 
 387:Generated_Source\PSoC4/CyLFClk.h ****     #define CY_SYS_WDT_CLK_LOCK_BITS_MASK       ((uint32)0x03u << 14u)
 388:Generated_Source\PSoC4/CyLFClk.h ****     #define CY_SYS_WDT_CLK_LOCK_BIT0            ((uint32)0x01u << 14u)
 389:Generated_Source\PSoC4/CyLFClk.h ****     #define CY_SYS_WDT_CLK_LOCK_BIT1            ((uint32)0x01u << 15u)
 390:Generated_Source\PSoC4/CyLFClk.h **** 
 391:Generated_Source\PSoC4/CyLFClk.h ****     #define CY_WDT_NUM_OF_WDT                   (3u)
ARM GAS  C:\Users\JamesN4\AppData\Local\Temp\ccOIY297.s 			page 42


 392:Generated_Source\PSoC4/CyLFClk.h ****     #define CY_WDT_NUM_OF_CALLBACKS             (3u)
 393:Generated_Source\PSoC4/CyLFClk.h **** 
 394:Generated_Source\PSoC4/CyLFClk.h ****     #else
 395:Generated_Source\PSoC4/CyLFClk.h ****         #define CY_WDT_NUM_OF_WDT               (1u)
 396:Generated_Source\PSoC4/CyLFClk.h ****         #define CY_WDT_NUM_OF_CALLBACKS         (3u)
 397:Generated_Source\PSoC4/CyLFClk.h ****         #define CY_SYS_WDT_KEY                  ((uint32)(0xACED8865u))
 398:Generated_Source\PSoC4/CyLFClk.h ****         #define CY_SYS_WDT_MATCH_MASK           ((uint32)(0x0000FFFFu))
 399:Generated_Source\PSoC4/CyLFClk.h ****         #define CY_SYS_WDT_IGNORE_BITS_MASK     ((uint32)(0x000F0000u))
 400:Generated_Source\PSoC4/CyLFClk.h ****         #define CY_SYS_WDT_IGNORE_BITS_SHIFT    ((uint32)(16u))
 401:Generated_Source\PSoC4/CyLFClk.h ****         #define CY_SYS_WDT_LOWER_BIT_MASK       ((uint32)(0x00000001u))
 402:Generated_Source\PSoC4/CyLFClk.h **** 
 403:Generated_Source\PSoC4/CyLFClk.h ****         #define CY_SYS_WDT_COUNTER0             (0x00u)
 404:Generated_Source\PSoC4/CyLFClk.h **** 
 405:Generated_Source\PSoC4/CyLFClk.h **** #endif /* (CY_IP_SRSSV2) */
 406:Generated_Source\PSoC4/CyLFClk.h **** 
 407:Generated_Source\PSoC4/CyLFClk.h **** #if (CY_IP_SRSSV2 && CY_IP_WCO)
 408:Generated_Source\PSoC4/CyLFClk.h ****     #define CY_SYS_WDT_1LFCLK_ILO_DELAY_US    ((uint16)( 67u))
 409:Generated_Source\PSoC4/CyLFClk.h ****     #define CY_SYS_WDT_3LFCLK_ILO_DELAY_US    ((uint16)(201u))
 410:Generated_Source\PSoC4/CyLFClk.h ****     #define CY_SYS_WDT_1LFCLK_WCO_DELAY_US    ((uint16)( 31u))
 411:Generated_Source\PSoC4/CyLFClk.h ****     #define CY_SYS_WDT_3LFCLK_WCO_DELAY_US    ((uint16)( 93u))
 412:Generated_Source\PSoC4/CyLFClk.h **** 
 413:Generated_Source\PSoC4/CyLFClk.h ****     #define CY_SYS_WDT_1LFCLK_DELAY_US      \
 414:Generated_Source\PSoC4/CyLFClk.h ****         ((CY_SYS_CLK_LFCLK_SRC_ILO == (CY_SYS_WDT_CONFIG_REG & CY_SYS_CLK_LFCLK_SEL_MASK)) ? \
 415:Generated_Source\PSoC4/CyLFClk.h ****                                             (CY_SYS_WDT_1LFCLK_ILO_DELAY_US) : \
 416:Generated_Source\PSoC4/CyLFClk.h ****                                             (CY_SYS_WDT_1LFCLK_WCO_DELAY_US))
 417:Generated_Source\PSoC4/CyLFClk.h **** 
 418:Generated_Source\PSoC4/CyLFClk.h ****     #define CY_SYS_WDT_3LFCLK_DELAY_US      \
 419:Generated_Source\PSoC4/CyLFClk.h ****         ((CY_SYS_CLK_LFCLK_SRC_ILO == (CY_SYS_WDT_CONFIG_REG & CY_SYS_CLK_LFCLK_SEL_MASK)) ? \
 420:Generated_Source\PSoC4/CyLFClk.h ****                                             (CY_SYS_WDT_3LFCLK_ILO_DELAY_US) : \
 421:Generated_Source\PSoC4/CyLFClk.h ****                                             (CY_SYS_WDT_3LFCLK_WCO_DELAY_US))
 422:Generated_Source\PSoC4/CyLFClk.h ****     #else
 423:Generated_Source\PSoC4/CyLFClk.h ****         #define CY_SYS_WDT_1LFCLK_DELAY_US      ((uint16)  (67u))
 424:Generated_Source\PSoC4/CyLFClk.h ****         #define CY_SYS_WDT_3LFCLK_DELAY_US      ((uint16) (201u))
 425:Generated_Source\PSoC4/CyLFClk.h **** #endif /* (CY_IP_SRSSV2 && CY_IP_WCO) */
 426:Generated_Source\PSoC4/CyLFClk.h **** 
 427:Generated_Source\PSoC4/CyLFClk.h **** #if (CY_IP_SRSSLT && CY_IP_WCO && CY_IP_WCO_WDT_EN)
 428:Generated_Source\PSoC4/CyLFClk.h **** 
 429:Generated_Source\PSoC4/CyLFClk.h ****     #define CY_SYS_TIMER_MODE_NONE              (0u)
 430:Generated_Source\PSoC4/CyLFClk.h ****     #define CY_SYS_TIMER_MODE_INT               (1u)
 431:Generated_Source\PSoC4/CyLFClk.h **** 
 432:Generated_Source\PSoC4/CyLFClk.h ****     #define CY_SYS_TIMER0_MASK                  ((uint32)((uint32)0x01u))           /**< Counter 0 
 433:Generated_Source\PSoC4/CyLFClk.h ****     #define CY_SYS_TIMER1_MASK                  ((uint32)((uint32)0x01u << 8u))     /**< Counter 1 
 434:Generated_Source\PSoC4/CyLFClk.h ****     #define CY_SYS_TIMER2_MASK                  ((uint32)((uint32)0x01u << 16u))    /**< Counter 2 
 435:Generated_Source\PSoC4/CyLFClk.h **** 
 436:Generated_Source\PSoC4/CyLFClk.h ****     #define CY_SYS_TIMER0_RESET                 ((uint32)0x01u << 3u)       /**< Counter 0 */
 437:Generated_Source\PSoC4/CyLFClk.h ****     #define CY_SYS_TIMER1_RESET                 ((uint32)0x01u << 11u)      /**< Counter 1 */
 438:Generated_Source\PSoC4/CyLFClk.h ****     #define CY_SYS_TIMER2_RESET                 ((uint32)0x01u << 19u)      /**< Counter 2 */
 439:Generated_Source\PSoC4/CyLFClk.h **** 
 440:Generated_Source\PSoC4/CyLFClk.h ****     #define CY_SYS_TIMER_RESET                  (CY_SYS_TIMER0_RESET |\
 441:Generated_Source\PSoC4/CyLFClk.h ****                                                  CY_SYS_TIMER1_RESET |\
 442:Generated_Source\PSoC4/CyLFClk.h ****                                                  CY_SYS_TIMER2_RESET)
 443:Generated_Source\PSoC4/CyLFClk.h **** 
 444:Generated_Source\PSoC4/CyLFClk.h ****     #define CY_SYS_TIMER_CASCADE_NONE           ((uint32)0x00u)             /**< Neither */
 445:Generated_Source\PSoC4/CyLFClk.h ****     #define CY_SYS_TIMER_CASCADE_01             ((uint32)0x01u << 3u)       /**< Cascade 01 */
 446:Generated_Source\PSoC4/CyLFClk.h ****     #define CY_SYS_TIMER_CASCADE_12             ((uint32)0x01u << 11u)      /**< Cascade 12 */
 447:Generated_Source\PSoC4/CyLFClk.h **** 
 448:Generated_Source\PSoC4/CyLFClk.h ****     #define CY_SYS_TIMER0_INT                   ((uint32)0x01u << 2u)
ARM GAS  C:\Users\JamesN4\AppData\Local\Temp\ccOIY297.s 			page 43


 449:Generated_Source\PSoC4/CyLFClk.h ****     #define CY_SYS_TIMER1_INT                   ((uint32)0x01u << 10u)
 450:Generated_Source\PSoC4/CyLFClk.h ****     #define CY_SYS_TIMER2_INT                   ((uint32)0x01u << 18u)
 451:Generated_Source\PSoC4/CyLFClk.h **** 
 452:Generated_Source\PSoC4/CyLFClk.h ****     #define CY_SYS_TIMER0                       (0x00u)
 453:Generated_Source\PSoC4/CyLFClk.h ****     #define CY_SYS_TIMER1                       (0x01u)
 454:Generated_Source\PSoC4/CyLFClk.h ****     #define CY_SYS_TIMER2                       (0x02u)
 455:Generated_Source\PSoC4/CyLFClk.h **** 
 456:Generated_Source\PSoC4/CyLFClk.h ****     #define CY_SYS_TIMER_MODE_MASK              ((uint32)(0x01u))
 457:Generated_Source\PSoC4/CyLFClk.h **** 
 458:Generated_Source\PSoC4/CyLFClk.h ****     #define CY_SYS_TIMER_CONFIG_BITS2_MASK      (uint32)(0x1Fu)
 459:Generated_Source\PSoC4/CyLFClk.h ****     #define CY_SYS_TIMER_CONFIG_BITS2_POS       (uint32)(24u)
 460:Generated_Source\PSoC4/CyLFClk.h ****     #define CY_SYS_TIMER_LOWER_16BITS_MASK      (uint32)(0x0000FFFFu)
 461:Generated_Source\PSoC4/CyLFClk.h ****     #define CY_SYS_TIMER_HIGHER_16BITS_MASK     (uint32)(0xFFFF0000u)
 462:Generated_Source\PSoC4/CyLFClk.h ****     #define CY_SYS_TIMER_COUNTERS_MAX           (0x03u)
 463:Generated_Source\PSoC4/CyLFClk.h ****     #define CY_SYS_TIMER_CNT_SHIFT              (0x08u)
 464:Generated_Source\PSoC4/CyLFClk.h ****     #define CY_SYS_TIMER_CNT_MATCH_CLR_SHIFT    (0x02u)
 465:Generated_Source\PSoC4/CyLFClk.h ****     #define CY_SYS_TIMER_CNT_STTS_SHIFT         (0x01u)
 466:Generated_Source\PSoC4/CyLFClk.h ****     #define CY_SYS_TIMER_CNT_MATCH_SHIFT        (0x10u)
 467:Generated_Source\PSoC4/CyLFClk.h **** 
 468:Generated_Source\PSoC4/CyLFClk.h ****     #define CY_SYS_NUM_OF_TIMERS                (3u)
 469:Generated_Source\PSoC4/CyLFClk.h **** 
 470:Generated_Source\PSoC4/CyLFClk.h ****     #define CY_SYS_SET_NEW_TIMER_SOURCE_ILO     ((uint16)(0x02u))
 471:Generated_Source\PSoC4/CyLFClk.h ****     #define CY_SYS_SET_NEW_TIMER_SOURCE_WCO     ((uint16)(0x01u))
 472:Generated_Source\PSoC4/CyLFClk.h ****     #define CY_SYS_WCO_WDT_CLKEN_RESET_MASK     ((uint32)(0x03u))
 473:Generated_Source\PSoC4/CyLFClk.h **** 
 474:Generated_Source\PSoC4/CyLFClk.h ****     #define CY_SYS_TIMER_1ILO_DELAY_US          ((uint16)( 67u))
 475:Generated_Source\PSoC4/CyLFClk.h ****     #define CY_SYS_TIMER_4ILO_DELAY_US          ((uint16)(268u))
 476:Generated_Source\PSoC4/CyLFClk.h ****     #define CY_SYS_TIMER_3ILO_DELAY_US          ((uint16)(201u))
 477:Generated_Source\PSoC4/CyLFClk.h **** 
 478:Generated_Source\PSoC4/CyLFClk.h ****     #define CY_SYS_TIMER_1WCO_DELAY_US          ((uint16)( 31u))
 479:Generated_Source\PSoC4/CyLFClk.h ****     #define CY_SYS_TIMER_4WCO_DELAY_US          ((uint16)(124u))
 480:Generated_Source\PSoC4/CyLFClk.h ****     #define CY_SYS_TIMER_3WCO_DELAY_US          ((uint16)( 93u))
 481:Generated_Source\PSoC4/CyLFClk.h **** 
 482:Generated_Source\PSoC4/CyLFClk.h ****     #define CY_SYS_1TIMER_DELAY_US      \
 483:Generated_Source\PSoC4/CyLFClk.h ****         ((CY_SYS_CLK_TIMER_SRC_ILO == (CY_SYS_WCO_WDT_CONFIG_REG & CY_SYS_CLK_TIMER_SEL_MASK)) ? \
 484:Generated_Source\PSoC4/CyLFClk.h ****                                             (CY_SYS_TIMER_1ILO_DELAY_US) : \
 485:Generated_Source\PSoC4/CyLFClk.h ****                                             (CY_SYS_TIMER_1WCO_DELAY_US))
 486:Generated_Source\PSoC4/CyLFClk.h **** 
 487:Generated_Source\PSoC4/CyLFClk.h ****     #define CY_SYS_4TIMER_DELAY_US      \
 488:Generated_Source\PSoC4/CyLFClk.h ****         ((CY_SYS_CLK_TIMER_SRC_ILO == (CY_SYS_WCO_WDT_CONFIG_REG & CY_SYS_CLK_TIMER_SEL_MASK)) ? \
 489:Generated_Source\PSoC4/CyLFClk.h ****                                             (CY_SYS_TIMER_4WCO_DELAY_US) : \
 490:Generated_Source\PSoC4/CyLFClk.h ****                                             (CY_SYS_TIMER_4ILO_DELAY_US))
 491:Generated_Source\PSoC4/CyLFClk.h **** 
 492:Generated_Source\PSoC4/CyLFClk.h ****     #define CY_SYS_3TIMER_DELAY_US      \
 493:Generated_Source\PSoC4/CyLFClk.h ****         ((CY_SYS_CLK_TIMER_SRC_ILO == (CY_SYS_WCO_WDT_CONFIG_REG & CY_SYS_CLK_TIMER_SEL_MASK)) ? \
 494:Generated_Source\PSoC4/CyLFClk.h ****                                             (CY_SYS_TIMER_3ILO_DELAY_US) : \
 495:Generated_Source\PSoC4/CyLFClk.h ****                                             (CY_SYS_TIMER_3WCO_DELAY_US))
 496:Generated_Source\PSoC4/CyLFClk.h **** 
 497:Generated_Source\PSoC4/CyLFClk.h ****     #define CY_SYS_SET_CURRENT_TIMER_SOURCE_BIT      \
 498:Generated_Source\PSoC4/CyLFClk.h ****         ((CY_SYS_CLK_TIMER_SRC_ILO == (CY_SYS_WCO_WDT_CONFIG_REG & CY_SYS_CLK_TIMER_SEL_MASK)) ? \
 499:Generated_Source\PSoC4/CyLFClk.h ****                                             (CY_SYS_SET_NEW_TIMER_SOURCE_ILO) : \
 500:Generated_Source\PSoC4/CyLFClk.h ****                                             (CY_SYS_SET_NEW_TIMER_SOURCE_WCO))
 501:Generated_Source\PSoC4/CyLFClk.h **** 
 502:Generated_Source\PSoC4/CyLFClk.h **** #endif /* (CY_IP_SRSSLT && CY_IP_WCO && CY_IP_WCO_WDT_EN) */
 503:Generated_Source\PSoC4/CyLFClk.h **** 
 504:Generated_Source\PSoC4/CyLFClk.h **** /* CySysClkWcoSetPowerMode() */
 505:Generated_Source\PSoC4/CyLFClk.h **** #define CY_SYS_CLK_WCO_HPM                              (0x0u)     /**< WCO High power mode */
ARM GAS  C:\Users\JamesN4\AppData\Local\Temp\ccOIY297.s 			page 44


 506:Generated_Source\PSoC4/CyLFClk.h **** 
 507:Generated_Source\PSoC4/CyLFClk.h **** #if(CY_IP_BLESS)
 508:Generated_Source\PSoC4/CyLFClk.h ****     #define CY_SYS_CLK_WCO_LPM                          (0x1u)     /**< WCO Low power mode */
 509:Generated_Source\PSoC4/CyLFClk.h **** #endif /* (CY_IP_BLESS) */
 510:Generated_Source\PSoC4/CyLFClk.h **** 
 511:Generated_Source\PSoC4/CyLFClk.h **** 
 512:Generated_Source\PSoC4/CyLFClk.h **** /*******************************************************************************
 513:Generated_Source\PSoC4/CyLFClk.h **** *       Trim Registers Constants 
 514:Generated_Source\PSoC4/CyLFClk.h **** ********************************************************************************/
 515:Generated_Source\PSoC4/CyLFClk.h **** #define CY_SYS_CLK_SYS_CLK_DEVIDER                  ((uint32)0x0Au)
 516:Generated_Source\PSoC4/CyLFClk.h **** #define CY_SYS_CLK_SEL_ILO_DFT_SOURCE               ((uint32)0x00000100u)
 517:Generated_Source\PSoC4/CyLFClk.h **** #define CY_SYS_CLK_FOURBITS_MAX                     (( int32)0x0f)
 518:Generated_Source\PSoC4/CyLFClk.h **** #define CY_SYS_CLK_HALF_OF_STEP                     (( int32)((uint32) CY_SYS_CLK_ERROR_STEP >> 1u)
 519:Generated_Source\PSoC4/CyLFClk.h **** 
 520:Generated_Source\PSoC4/CyLFClk.h **** #if(CY_IP_SRSSV2)
 521:Generated_Source\PSoC4/CyLFClk.h ****     #define CY_SYS_CLK_ILO_DESIRED_FREQ_HZ          (32000u)
 522:Generated_Source\PSoC4/CyLFClk.h ****     #define CY_SYS_CLK_DFT_SELSIZE                  ((uint32) 0x3F)
 523:Generated_Source\PSoC4/CyLFClk.h **** #else
 524:Generated_Source\PSoC4/CyLFClk.h ****     #define CY_SYS_CLK_ILO_DESIRED_FREQ_HZ          (40000u)
 525:Generated_Source\PSoC4/CyLFClk.h ****     #define CY_SYS_CLK_DFT_SELSIZE                  ((uint32) 0x0F)
 526:Generated_Source\PSoC4/CyLFClk.h **** #endif /* (CY_IP_SRSSV2) */
 527:Generated_Source\PSoC4/CyLFClk.h **** 
 528:Generated_Source\PSoC4/CyLFClk.h **** #define CY_SYS_TST_DDFT_CTRL_REG_DEFAULT_MASK    ((uint32)((CY_SYS_CLK_DFT_SELSIZE << 8u) | (CY_SYS
 529:Generated_Source\PSoC4/CyLFClk.h **** #define CY_SYS_TST_DDFT_SELECT_CLK1              ((uint32) ((uint32) CYDEV_DFT_SELECT_CLK1 << 8u))
 530:Generated_Source\PSoC4/CyLFClk.h **** #define CY_SYS_TST_DDFT_CTRL_REG_SEL2_CLK1       ((uint32) (CY_SYS_TST_DDFT_SELECT_CLK1 | CYDEV_DFT
 531:Generated_Source\PSoC4/CyLFClk.h **** 
 532:Generated_Source\PSoC4/CyLFClk.h **** 
 533:Generated_Source\PSoC4/CyLFClk.h **** /*******************************************************************************
 534:Generated_Source\PSoC4/CyLFClk.h **** *       Trim Registers 
 535:Generated_Source\PSoC4/CyLFClk.h **** ********************************************************************************/
 536:Generated_Source\PSoC4/CyLFClk.h **** /* DFT TST Control Register*/
 537:Generated_Source\PSoC4/CyLFClk.h **** #define CY_SYS_TST_DDFT_CTRL_REG                         (*(reg32*) CYREG_TST_DDFT_CTRL)
 538:Generated_Source\PSoC4/CyLFClk.h **** #define CY_SYS_CNT_CTRL_PTR                              ( (reg32*) CYREG_TST_DDFT_CTRL)
 539:Generated_Source\PSoC4/CyLFClk.h **** 
 540:Generated_Source\PSoC4/CyLFClk.h **** /* DFT TST Counter 1 Register*/
 541:Generated_Source\PSoC4/CyLFClk.h **** #define CY_SYS_CNT_REG1_REG                              (*(reg32*) CYREG_TST_TRIM_CNTR1)
 542:Generated_Source\PSoC4/CyLFClk.h **** #define CY_SYS_CNT_REG1_PTR                              ( (reg32*) CYREG_TST_TRIM_CNTR1)
 543:Generated_Source\PSoC4/CyLFClk.h **** 
 544:Generated_Source\PSoC4/CyLFClk.h **** /* DFT TST Counter 2 Register*/
 545:Generated_Source\PSoC4/CyLFClk.h **** #define CY_SYS_CNT_REG2_REG                              (*(reg32*) CYREG_TST_TRIM_CNTR2)
 546:Generated_Source\PSoC4/CyLFClk.h **** #define CY_SYS_CNT_REG2_PTR                              ( (reg32*) CYREG_TST_TRIM_CNTR2)
 547:Generated_Source\PSoC4/CyLFClk.h **** 
 548:Generated_Source\PSoC4/CyLFClk.h **** /* DFT Muxes Configuration Register*/
 549:Generated_Source\PSoC4/CyLFClk.h **** #define CY_SYS_CLK_DFT_REG                               (*(reg32*) CYREG_CLK_DFT_SELECT)
 550:Generated_Source\PSoC4/CyLFClk.h **** #define CY_SYS_CLK_DFT_PTR                               ( (reg32*) CYREG_CLK_DFT_SELECT)
 551:Generated_Source\PSoC4/CyLFClk.h **** 
 552:Generated_Source\PSoC4/CyLFClk.h **** /* ILO Configuration Register*/
 553:Generated_Source\PSoC4/CyLFClk.h **** #define CY_SYS_CLK_ILO_CONFIG_REG                        (*(reg32 *) CYREG_CLK_ILO_CONFIG)
 554:Generated_Source\PSoC4/CyLFClk.h **** #define CY_SYS_CLK_ILO_CONFIG_PTR                        ( (reg32 *) CYREG_CLK_ILO_CONFIG)
 555:Generated_Source\PSoC4/CyLFClk.h **** 
 556:Generated_Source\PSoC4/CyLFClk.h **** /* ILO Trim Register*/
 557:Generated_Source\PSoC4/CyLFClk.h **** #if(CY_IP_SRSSV2 && CY_IP_WCO)
 558:Generated_Source\PSoC4/CyLFClk.h ****     #define CY_SYS_CLK_ILO_TRIM_REG                      (*(reg32 *) CYREG_CLK_ILO_TRIM)
 559:Generated_Source\PSoC4/CyLFClk.h ****     #define CY_SYS_CLK_ILO_TRIM_PTR                      ( (reg32 *) CYREG_CLK_ILO_TRIM)
 560:Generated_Source\PSoC4/CyLFClk.h **** #endif  /* (CY_IP_SRSSV2) && CY_IP_WCO*/
 561:Generated_Source\PSoC4/CyLFClk.h **** 
 562:Generated_Source\PSoC4/CyLFClk.h **** #if (CY_IP_WCO)
ARM GAS  C:\Users\JamesN4\AppData\Local\Temp\ccOIY297.s 			page 45


 563:Generated_Source\PSoC4/CyLFClk.h ****     #if (CY_IP_BLESS)
 564:Generated_Source\PSoC4/CyLFClk.h **** 
 565:Generated_Source\PSoC4/CyLFClk.h ****         /* WCO Status Register */
 566:Generated_Source\PSoC4/CyLFClk.h ****         #define CY_SYS_CLK_WCO_STATUS_REG               (*(reg32 *) CYREG_BLE_BLESS_WCO_STATUS)
 567:Generated_Source\PSoC4/CyLFClk.h ****         #define CY_SYS_CLK_WCO_STATUS_PTR               ( (reg32 *) CYREG_BLE_BLESS_WCO_STATUS)
 568:Generated_Source\PSoC4/CyLFClk.h **** 
 569:Generated_Source\PSoC4/CyLFClk.h ****         /* WCO Configuration Register */
 570:Generated_Source\PSoC4/CyLFClk.h ****         #define CY_SYS_CLK_WCO_CONFIG_REG               (*(reg32 *) CYREG_BLE_BLESS_WCO_CONFIG)
 571:Generated_Source\PSoC4/CyLFClk.h ****         #define CY_SYS_CLK_WCO_CONFIG_PTR               ( (reg32 *) CYREG_BLE_BLESS_WCO_CONFIG)
 572:Generated_Source\PSoC4/CyLFClk.h **** 
 573:Generated_Source\PSoC4/CyLFClk.h ****         /* WCO Trim Register */
 574:Generated_Source\PSoC4/CyLFClk.h ****         #define CY_SYS_CLK_WCO_TRIM_REG                 (*(reg32 *) CYREG_BLE_BLESS_WCO_TRIM)
 575:Generated_Source\PSoC4/CyLFClk.h ****         #define CY_SYS_CLK_WCO_TRIM_PTR                 ( (reg32 *) CYREG_BLE_BLESS_WCO_TRIM)
 576:Generated_Source\PSoC4/CyLFClk.h ****     #else
 577:Generated_Source\PSoC4/CyLFClk.h **** 
 578:Generated_Source\PSoC4/CyLFClk.h ****         /* WCO Status Register */
 579:Generated_Source\PSoC4/CyLFClk.h ****         #define CY_SYS_CLK_WCO_STATUS_REG               (*(reg32 *) CYREG_WCO_STATUS)
 580:Generated_Source\PSoC4/CyLFClk.h ****         #define CY_SYS_CLK_WCO_STATUS_PTR               ( (reg32 *) CYREG_WCO_STATUS)
 581:Generated_Source\PSoC4/CyLFClk.h **** 
 582:Generated_Source\PSoC4/CyLFClk.h ****         /* WCO Configuration Register */
 583:Generated_Source\PSoC4/CyLFClk.h ****         #define CY_SYS_CLK_WCO_CONFIG_REG               (*(reg32 *) CYREG_WCO_CONFIG)
 584:Generated_Source\PSoC4/CyLFClk.h ****         #define CY_SYS_CLK_WCO_CONFIG_PTR               ( (reg32 *) CYREG_WCO_CONFIG)
 585:Generated_Source\PSoC4/CyLFClk.h **** 
 586:Generated_Source\PSoC4/CyLFClk.h ****         /* WCO Trim Register */
 587:Generated_Source\PSoC4/CyLFClk.h ****         #define CY_SYS_CLK_WCO_TRIM_REG                 (*(reg32 *) CYREG_WCO_TRIM)
 588:Generated_Source\PSoC4/CyLFClk.h ****         #define CY_SYS_CLK_WCO_TRIM_PTR                 ( (reg32 *) CYREG_WCO_TRIM)
 589:Generated_Source\PSoC4/CyLFClk.h ****     #endif /* (CY_IP_BLESS) */
 590:Generated_Source\PSoC4/CyLFClk.h **** #endif  /* (CY_IP_WCO) */
 591:Generated_Source\PSoC4/CyLFClk.h **** 
 592:Generated_Source\PSoC4/CyLFClk.h **** 
 593:Generated_Source\PSoC4/CyLFClk.h **** /*******************************************************************************
 594:Generated_Source\PSoC4/CyLFClk.h **** * WDT API Registers
 595:Generated_Source\PSoC4/CyLFClk.h **** *******************************************************************************/
 596:Generated_Source\PSoC4/CyLFClk.h **** #if(CY_IP_SRSSV2)
 597:Generated_Source\PSoC4/CyLFClk.h ****     #define CY_SYS_WDT_CTRLOW_REG               (*(reg32 *) CYREG_WDT_CTRLOW)
 598:Generated_Source\PSoC4/CyLFClk.h ****     #define CY_SYS_WDT_CTRLOW_PTR               ( (reg32 *) CYREG_WDT_CTRLOW)
 599:Generated_Source\PSoC4/CyLFClk.h **** 
 600:Generated_Source\PSoC4/CyLFClk.h ****     #define CY_SYS_WDT_CTRHIGH_REG              (*(reg32 *) CYREG_WDT_CTRHIGH)
 601:Generated_Source\PSoC4/CyLFClk.h ****     #define CY_SYS_WDT_CTRHIGH_PTR              ( (reg32 *) CYREG_WDT_CTRHIGH)
 602:Generated_Source\PSoC4/CyLFClk.h **** 
 603:Generated_Source\PSoC4/CyLFClk.h ****     #define CY_SYS_WDT_MATCH_REG                (*(reg32 *) CYREG_WDT_MATCH)
 604:Generated_Source\PSoC4/CyLFClk.h ****     #define CY_SYS_WDT_MATCH_PTR                ( (reg32 *) CYREG_WDT_MATCH)
 605:Generated_Source\PSoC4/CyLFClk.h **** 
 606:Generated_Source\PSoC4/CyLFClk.h ****     #define CY_SYS_WDT_CONFIG_REG               (*(reg32 *) CYREG_WDT_CONFIG)
 607:Generated_Source\PSoC4/CyLFClk.h ****     #define CY_SYS_WDT_CONFIG_PTR               ( (reg32 *) CYREG_WDT_CONFIG)
 608:Generated_Source\PSoC4/CyLFClk.h **** 
 609:Generated_Source\PSoC4/CyLFClk.h ****     #define CY_SYS_WDT_CONTROL_REG              (*(reg32 *) CYREG_WDT_CONTROL)
 610:Generated_Source\PSoC4/CyLFClk.h ****     #define CY_SYS_WDT_CONTROL_PTR              ( (reg32 *) CYREG_WDT_CONTROL)
 611:Generated_Source\PSoC4/CyLFClk.h **** #else
 612:Generated_Source\PSoC4/CyLFClk.h ****     #define CY_SYS_WDT_DISABLE_KEY_REG          (*(reg32 *) CYREG_WDT_DISABLE_KEY)
 613:Generated_Source\PSoC4/CyLFClk.h ****     #define CY_SYS_WDT_DISABLE_KEY_PTR          ( (reg32 *) CYREG_WDT_DISABLE_KEY)
 614:Generated_Source\PSoC4/CyLFClk.h **** 
 615:Generated_Source\PSoC4/CyLFClk.h ****     #define CY_SYS_WDT_MATCH_REG                (*(reg32 *) CYREG_WDT_MATCH)
 616:Generated_Source\PSoC4/CyLFClk.h ****     #define CY_SYS_WDT_MATCH_PTR                ( (reg32 *) CYREG_WDT_MATCH)
 617:Generated_Source\PSoC4/CyLFClk.h **** 
 618:Generated_Source\PSoC4/CyLFClk.h ****     #define CY_SYS_WDT_COUNTER_REG              (*(reg32 *) CYREG_WDT_COUNTER)
 619:Generated_Source\PSoC4/CyLFClk.h ****     #define CY_SYS_WDT_COUNTER_PTR              ( (reg32 *) CYREG_WDT_COUNTER)
ARM GAS  C:\Users\JamesN4\AppData\Local\Temp\ccOIY297.s 			page 46


 620:Generated_Source\PSoC4/CyLFClk.h **** 
 621:Generated_Source\PSoC4/CyLFClk.h ****     #define CY_SYS_SRSS_INTR_REG                (*(reg32 *) CYREG_SRSS_INTR)
 622:Generated_Source\PSoC4/CyLFClk.h ****     #define CY_SYS_SRSS_INTR_PTR                ( (reg32 *) CYREG_SRSS_INTR)
 623:Generated_Source\PSoC4/CyLFClk.h **** 
 624:Generated_Source\PSoC4/CyLFClk.h ****     #define CY_SYS_SRSS_INTR_MASK_REG           (*(reg32 *) CYREG_SRSS_INTR_MASK)
 625:Generated_Source\PSoC4/CyLFClk.h ****     #define CY_SYS_SRSS_INTR_MASK_PTR           ( (reg32 *) CYREG_SRSS_INTR_MASK)
 626:Generated_Source\PSoC4/CyLFClk.h **** #endif  /* (CY_IP_SRSSV2) */
 627:Generated_Source\PSoC4/CyLFClk.h **** 
 628:Generated_Source\PSoC4/CyLFClk.h **** #if (CY_IP_SRSSLT && CY_IP_WCO && CY_IP_WCO_WDT_EN)
 629:Generated_Source\PSoC4/CyLFClk.h ****     #define CY_SYS_WCO_WDT_CTRLOW_REG           (*(reg32 *) CYREG_WCO_WDT_CTRLOW)
 630:Generated_Source\PSoC4/CyLFClk.h ****     #define CY_SYS_WCO_WDT_CTRLOW_PTR           ( (reg32 *) CYREG_WCO_WDT_CTRLOW)
 631:Generated_Source\PSoC4/CyLFClk.h **** 
 632:Generated_Source\PSoC4/CyLFClk.h ****     #define CY_SYS_WCO_WDT_CTRHIGH_REG          (*(reg32 *) CYREG_WCO_WDT_CTRHIGH)
 633:Generated_Source\PSoC4/CyLFClk.h ****     #define CY_SYS_WCO_WDT_CTRHIGH_PTR          ( (reg32 *) CYREG_WCO_WDT_CTRHIGH)
 634:Generated_Source\PSoC4/CyLFClk.h **** 
 635:Generated_Source\PSoC4/CyLFClk.h ****     #define CY_SYS_WCO_WDT_MATCH_REG            (*(reg32 *) CYREG_WCO_WDT_MATCH)
 636:Generated_Source\PSoC4/CyLFClk.h ****     #define CY_SYS_WCO_WDT_MATCH_PTR            ( (reg32 *) CYREG_WCO_WDT_MATCH)
 637:Generated_Source\PSoC4/CyLFClk.h **** 
 638:Generated_Source\PSoC4/CyLFClk.h ****     #define CY_SYS_WCO_WDT_CONFIG_REG           (*(reg32 *) CYREG_WCO_WDT_CONFIG)
 639:Generated_Source\PSoC4/CyLFClk.h ****     #define CY_SYS_WCO_WDT_CONFIG_PTR           ( (reg32 *) CYREG_WCO_WDT_CONFIG)
 640:Generated_Source\PSoC4/CyLFClk.h **** 
 641:Generated_Source\PSoC4/CyLFClk.h ****     #define CY_SYS_WCO_WDT_CONTROL_REG          (*(reg32 *) CYREG_WCO_WDT_CONTROL)
 642:Generated_Source\PSoC4/CyLFClk.h ****     #define CY_SYS_WCO_WDT_CONTROL_PTR          ( (reg32 *) CYREG_WCO_WDT_CONTROL)
 643:Generated_Source\PSoC4/CyLFClk.h **** 
 644:Generated_Source\PSoC4/CyLFClk.h ****     #define CY_SYS_WCO_WDT_CLKEN_REG            (*(reg32 *) CYREG_WCO_WDT_CLKEN)
 645:Generated_Source\PSoC4/CyLFClk.h ****     #define CY_SYS_WCO_WDT_CLKEN_PTR            ( (reg32 *) CYREG_WCO_WDT_CLKEN)
 646:Generated_Source\PSoC4/CyLFClk.h **** #endif /* (CY_IP_SRSSLT && CY_IP_WCO && CY_IP_WCO_WDT_EN) */
 647:Generated_Source\PSoC4/CyLFClk.h **** 
 648:Generated_Source\PSoC4/CyLFClk.h **** #if (CY_IP_WCO)
 649:Generated_Source\PSoC4/CyLFClk.h **** 
 650:Generated_Source\PSoC4/CyLFClk.h ****     /*******************************************************************************
 651:Generated_Source\PSoC4/CyLFClk.h ****     * Function Name: CySysClkWcoSetHighPowerMode
 652:Generated_Source\PSoC4/CyLFClk.h ****     ********************************************************************************
 653:Generated_Source\PSoC4/CyLFClk.h ****     *
 654:Generated_Source\PSoC4/CyLFClk.h ****     * Summary:
 655:Generated_Source\PSoC4/CyLFClk.h ****     *  Sets the high power mode for the 32 KHz WCO.
 656:Generated_Source\PSoC4/CyLFClk.h ****     *
 657:Generated_Source\PSoC4/CyLFClk.h ****     *******************************************************************************/
 658:Generated_Source\PSoC4/CyLFClk.h ****     static CY_INLINE void CySysClkWcoSetHighPowerMode(void)
 659:Generated_Source\PSoC4/CyLFClk.h ****     {
 660:Generated_Source\PSoC4/CyLFClk.h ****         /* Switch off low power mode for WCO */
 661:Generated_Source\PSoC4/CyLFClk.h ****         CY_SYS_CLK_WCO_CONFIG_REG &= (uint32) ~CY_SYS_CLK_WCO_CONFIG_LPM_EN;
 867              		.loc 2 661 0
 868 0002 0D4B     		ldr	r3, .L72
 869 0004 1A68     		ldr	r2, [r3]
 870 0006 0121     		movs	r1, #1
 871 0008 8A43     		bics	r2, r1
 872 000a 1A60     		str	r2, [r3]
 662:Generated_Source\PSoC4/CyLFClk.h **** 
 663:Generated_Source\PSoC4/CyLFClk.h ****         /* Switch off auto low power mode in WCO */
 664:Generated_Source\PSoC4/CyLFClk.h ****         CY_SYS_CLK_WCO_CONFIG_REG &= ((uint32)~CY_SYS_CLK_WCO_CONFIG_LPM_AUTO);
 873              		.loc 2 664 0
 874 000c 1A68     		ldr	r2, [r3]
 875 000e 0220     		movs	r0, #2
 876 0010 8243     		bics	r2, r0
 877 0012 1A60     		str	r2, [r3]
 665:Generated_Source\PSoC4/CyLFClk.h **** 
ARM GAS  C:\Users\JamesN4\AppData\Local\Temp\ccOIY297.s 			page 47


 666:Generated_Source\PSoC4/CyLFClk.h ****         /* Restore WCO trim register HPM settings */
 667:Generated_Source\PSoC4/CyLFClk.h ****         CY_SYS_CLK_WCO_TRIM_REG = (CY_SYS_CLK_WCO_TRIM_REG & (uint32)(~CY_SYS_CLK_WCO_TRIM_GM_MASK)
 878              		.loc 2 667 0
 879 0014 094A     		ldr	r2, .L72+4
 880 0016 1068     		ldr	r0, [r2]
 881 0018 3024     		movs	r4, #48
 882 001a A043     		bics	r0, r4
 668:Generated_Source\PSoC4/CyLFClk.h ****                     | (uint32)(CY_SYS_CLK_WCO_TRIM_GM_HPM << CY_SYS_CLK_WCO_TRIM_GM_SHIFT);
 883              		.loc 2 668 0
 884 001c 203C     		subs	r4, r4, #32
 885 001e 2043     		orrs	r0, r4
 667:Generated_Source\PSoC4/CyLFClk.h ****                     | (uint32)(CY_SYS_CLK_WCO_TRIM_GM_HPM << CY_SYS_CLK_WCO_TRIM_GM_SHIFT);
 886              		.loc 2 667 0
 887 0020 1060     		str	r0, [r2]
 669:Generated_Source\PSoC4/CyLFClk.h ****         CY_SYS_CLK_WCO_TRIM_REG = (CY_SYS_CLK_WCO_TRIM_REG & (uint32)(~CY_SYS_CLK_WCO_TRIM_XGM_MASK
 888              		.loc 2 669 0
 889 0022 1068     		ldr	r0, [r2]
 890 0024 093C     		subs	r4, r4, #9
 891 0026 A043     		bics	r0, r4
 670:Generated_Source\PSoC4/CyLFClk.h ****                     | (uint32)(CY_SYS_CLK_WCO_TRIM_XGM_2620NA << CY_SYS_CLK_WCO_TRIM_XGM_SHIFT);
 892              		.loc 2 670 0
 893 0028 0143     		orrs	r1, r0
 669:Generated_Source\PSoC4/CyLFClk.h ****         CY_SYS_CLK_WCO_TRIM_REG = (CY_SYS_CLK_WCO_TRIM_REG & (uint32)(~CY_SYS_CLK_WCO_TRIM_XGM_MASK
 894              		.loc 2 669 0
 895 002a 1160     		str	r1, [r2]
 896              	.LBE7:
 897              	.LBE6:
 774:Generated_Source\PSoC4/CyLFClk.c ****     }
 898              		.loc 1 774 0
 899 002c 1A68     		ldr	r2, [r3]
 900 002e 8021     		movs	r1, #128
 901 0030 0906     		lsls	r1, r1, #24
 902 0032 0A43     		orrs	r2, r1
 903 0034 1A60     		str	r2, [r3]
 775:Generated_Source\PSoC4/CyLFClk.c **** 
 904              		.loc 1 775 0
 905              		@ sp needed
 906 0036 10BD     		pop	{r4, pc}
 907              	.L73:
 908              		.align	2
 909              	.L72:
 910 0038 00002240 		.word	1075970048
 911 003c 000F2240 		.word	1075973888
 912              		.cfi_endproc
 913              	.LFE12:
 914              		.size	CySysClkWcoStart, .-CySysClkWcoStart
 915              		.section	.text.CySysClkWcoEnabled,"ax",%progbits
 916              		.align	2
 917              		.global	CySysClkWcoEnabled
 918              		.code	16
 919              		.thumb_func
 920              		.type	CySysClkWcoEnabled, %function
 921              	CySysClkWcoEnabled:
 922              	.LFB14:
 825:Generated_Source\PSoC4/CyLFClk.c ****         return ((0u != (CY_SYS_CLK_WCO_CONFIG_REG & (uint32)(CY_SYS_CLK_WCO_CONFIG_LPM_ENABLE))) ?
 923              		.loc 1 825 0
 924              		.cfi_startproc
ARM GAS  C:\Users\JamesN4\AppData\Local\Temp\ccOIY297.s 			page 48


 925              		@ args = 0, pretend = 0, frame = 0
 926              		@ frame_needed = 0, uses_anonymous_args = 0
 927              		@ link register save eliminated.
 826:Generated_Source\PSoC4/CyLFClk.c ****                 (uint32) 1u :
 928              		.loc 1 826 0
 929 0000 034B     		ldr	r3, .L77
 930 0002 1B68     		ldr	r3, [r3]
 827:Generated_Source\PSoC4/CyLFClk.c ****                 (uint32) 0u);
 931              		.loc 1 827 0
 932 0004 002B     		cmp	r3, #0
 933 0006 01DA     		bge	.L76
 934 0008 0120     		movs	r0, #1
 935 000a 00E0     		b	.L75
 936              	.L76:
 937 000c 0020     		movs	r0, #0
 938              	.L75:
 829:Generated_Source\PSoC4/CyLFClk.c **** 
 939              		.loc 1 829 0
 940              		@ sp needed
 941 000e 7047     		bx	lr
 942              	.L78:
 943              		.align	2
 944              	.L77:
 945 0010 00002240 		.word	1075970048
 946              		.cfi_endproc
 947              	.LFE14:
 948              		.size	CySysClkWcoEnabled, .-CySysClkWcoEnabled
 949              		.section	.text.CySysClkWcoSetPowerMode,"ax",%progbits
 950              		.align	2
 951              		.global	CySysClkWcoSetPowerMode
 952              		.code	16
 953              		.thumb_func
 954              		.type	CySysClkWcoSetPowerMode, %function
 955              	CySysClkWcoSetPowerMode:
 956              	.LFB15:
 852:Generated_Source\PSoC4/CyLFClk.c ****         uint32 powerModeStatus;
 957              		.loc 1 852 0
 958              		.cfi_startproc
 959              		@ args = 0, pretend = 0, frame = 0
 960              		@ frame_needed = 0, uses_anonymous_args = 0
 961              	.LVL90:
 962 0000 10B5     		push	{r4, lr}
 963              		.cfi_def_cfa_offset 8
 964              		.cfi_offset 4, -8
 965              		.cfi_offset 14, -4
 855:Generated_Source\PSoC4/CyLFClk.c **** 
 966              		.loc 1 855 0
 967 0002 104B     		ldr	r3, .L84
 968 0004 1B68     		ldr	r3, [r3]
 969 0006 0124     		movs	r4, #1
 970 0008 1C40     		ands	r4, r3
 971              	.LVL91:
 857:Generated_Source\PSoC4/CyLFClk.c ****         {
 972              		.loc 1 857 0
 973 000a 0028     		cmp	r0, #0
 974 000c 15D1     		bne	.L83
 975              	.LBB8:
ARM GAS  C:\Users\JamesN4\AppData\Local\Temp\ccOIY297.s 			page 49


 976              	.LBB9:
 661:Generated_Source\PSoC4/CyLFClk.h **** 
 977              		.loc 2 661 0
 978 000e 0D4B     		ldr	r3, .L84
 979 0010 1968     		ldr	r1, [r3]
 980 0012 0122     		movs	r2, #1
 981 0014 9143     		bics	r1, r2
 982 0016 1960     		str	r1, [r3]
 664:Generated_Source\PSoC4/CyLFClk.h **** 
 983              		.loc 2 664 0
 984 0018 1968     		ldr	r1, [r3]
 985 001a 0230     		adds	r0, r0, #2
 986              	.LVL92:
 987 001c 8143     		bics	r1, r0
 988 001e 1960     		str	r1, [r3]
 667:Generated_Source\PSoC4/CyLFClk.h ****                     | (uint32)(CY_SYS_CLK_WCO_TRIM_GM_HPM << CY_SYS_CLK_WCO_TRIM_GM_SHIFT);
 989              		.loc 2 667 0
 990 0020 094B     		ldr	r3, .L84+4
 991 0022 1968     		ldr	r1, [r3]
 992 0024 2E30     		adds	r0, r0, #46
 993              	.LVL93:
 994 0026 8143     		bics	r1, r0
 668:Generated_Source\PSoC4/CyLFClk.h ****         CY_SYS_CLK_WCO_TRIM_REG = (CY_SYS_CLK_WCO_TRIM_REG & (uint32)(~CY_SYS_CLK_WCO_TRIM_XGM_MASK
 995              		.loc 2 668 0
 996 0028 2038     		subs	r0, r0, #32
 997              	.LVL94:
 998 002a 0143     		orrs	r1, r0
 667:Generated_Source\PSoC4/CyLFClk.h ****                     | (uint32)(CY_SYS_CLK_WCO_TRIM_GM_HPM << CY_SYS_CLK_WCO_TRIM_GM_SHIFT);
 999              		.loc 2 667 0
 1000 002c 1960     		str	r1, [r3]
 669:Generated_Source\PSoC4/CyLFClk.h ****                     | (uint32)(CY_SYS_CLK_WCO_TRIM_XGM_2620NA << CY_SYS_CLK_WCO_TRIM_XGM_SHIFT);
 1001              		.loc 2 669 0
 1002 002e 1968     		ldr	r1, [r3]
 1003 0030 0938     		subs	r0, r0, #9
 1004              	.LVL95:
 1005 0032 8143     		bics	r1, r0
 1006              		.loc 2 670 0
 1007 0034 0A43     		orrs	r2, r1
 669:Generated_Source\PSoC4/CyLFClk.h ****                     | (uint32)(CY_SYS_CLK_WCO_TRIM_XGM_2620NA << CY_SYS_CLK_WCO_TRIM_XGM_SHIFT);
 1008              		.loc 2 669 0
 1009 0036 1A60     		str	r2, [r3]
 1010 0038 02E0     		b	.L82
 1011              	.LVL96:
 1012              	.L83:
 1013              	.LBE9:
 1014              	.LBE8:
 870:Generated_Source\PSoC4/CyLFClk.c ****             break;
 1015              		.loc 1 870 0 discriminator 1
 1016 003a 0020     		movs	r0, #0
 1017              	.LVL97:
 1018 003c FFF7FEFF 		bl	CyHalt
 1019              	.LVL98:
 1020              	.L82:
 875:Generated_Source\PSoC4/CyLFClk.c **** 
 1021              		.loc 1 875 0
 1022 0040 2000     		movs	r0, r4
 1023              		@ sp needed
ARM GAS  C:\Users\JamesN4\AppData\Local\Temp\ccOIY297.s 			page 50


 1024              	.LVL99:
 1025 0042 10BD     		pop	{r4, pc}
 1026              	.L85:
 1027              		.align	2
 1028              	.L84:
 1029 0044 00002240 		.word	1075970048
 1030 0048 000F2240 		.word	1075973888
 1031              		.cfi_endproc
 1032              	.LFE15:
 1033              		.size	CySysClkWcoSetPowerMode, .-CySysClkWcoSetPowerMode
 1034              		.section	.text.CySysClkWcoClockOutSelect,"ax",%progbits
 1035              		.align	2
 1036              		.global	CySysClkWcoClockOutSelect
 1037              		.code	16
 1038              		.thumb_func
 1039              		.type	CySysClkWcoClockOutSelect, %function
 1040              	CySysClkWcoClockOutSelect:
 1041              	.LFB16:
 919:Generated_Source\PSoC4/CyLFClk.c ****         if (0u != CySysClkWcoEnabled())
 1042              		.loc 1 919 0
 1043              		.cfi_startproc
 1044              		@ args = 0, pretend = 0, frame = 0
 1045              		@ frame_needed = 0, uses_anonymous_args = 0
 1046              	.LVL100:
 1047 0000 10B5     		push	{r4, lr}
 1048              		.cfi_def_cfa_offset 8
 1049              		.cfi_offset 4, -8
 1050              		.cfi_offset 14, -4
 1051 0002 0400     		movs	r4, r0
 920:Generated_Source\PSoC4/CyLFClk.c ****         {
 1052              		.loc 1 920 0
 1053 0004 FFF7FEFF 		bl	CySysClkWcoEnabled
 1054              	.LVL101:
 1055 0008 0028     		cmp	r0, #0
 1056 000a 0CD0     		beq	.L86
 922:Generated_Source\PSoC4/CyLFClk.c ****             {
 1057              		.loc 1 922 0
 1058 000c 012C     		cmp	r4, #1
 1059 000e 07D8     		bhi	.L88
 924:Generated_Source\PSoC4/CyLFClk.c ****                                         (clockSel << CY_SYS_CLK_WCO_SELECT_PIN_OFFSET);
 1060              		.loc 1 924 0
 1061 0010 054A     		ldr	r2, .L89
 1062 0012 1368     		ldr	r3, [r2]
 1063 0014 0421     		movs	r1, #4
 1064 0016 8B43     		bics	r3, r1
 925:Generated_Source\PSoC4/CyLFClk.c ****             }
 1065              		.loc 1 925 0
 1066 0018 A400     		lsls	r4, r4, #2
 1067              	.LVL102:
 924:Generated_Source\PSoC4/CyLFClk.c ****                                         (clockSel << CY_SYS_CLK_WCO_SELECT_PIN_OFFSET);
 1068              		.loc 1 924 0
 1069 001a 1C43     		orrs	r4, r3
 1070 001c 1460     		str	r4, [r2]
 1071 001e 02E0     		b	.L86
 1072              	.LVL103:
 1073              	.L88:
 929:Generated_Source\PSoC4/CyLFClk.c ****             }
ARM GAS  C:\Users\JamesN4\AppData\Local\Temp\ccOIY297.s 			page 51


 1074              		.loc 1 929 0 discriminator 1
 1075 0020 0020     		movs	r0, #0
 1076 0022 FFF7FEFF 		bl	CyHalt
 1077              	.LVL104:
 1078              	.L86:
 932:Generated_Source\PSoC4/CyLFClk.c **** #endif  /* (CY_IP_WCO) */
 1079              		.loc 1 932 0
 1080              		@ sp needed
 1081 0026 10BD     		pop	{r4, pc}
 1082              	.L90:
 1083              		.align	2
 1084              	.L89:
 1085 0028 00002240 		.word	1075970048
 1086              		.cfi_endproc
 1087              	.LFE16:
 1088              		.size	CySysClkWcoClockOutSelect, .-CySysClkWcoClockOutSelect
 1089              		.section	.text.CySysWdtLock,"ax",%progbits
 1090              		.align	2
 1091              		.global	CySysWdtLock
 1092              		.code	16
 1093              		.thumb_func
 1094              		.type	CySysWdtLock, %function
 1095              	CySysWdtLock:
 1096              	.LFB17:
 949:Generated_Source\PSoC4/CyLFClk.c ****         uint8 interruptState;
 1097              		.loc 1 949 0
 1098              		.cfi_startproc
 1099              		@ args = 0, pretend = 0, frame = 0
 1100              		@ frame_needed = 0, uses_anonymous_args = 0
 1101 0000 10B5     		push	{r4, lr}
 1102              		.cfi_def_cfa_offset 8
 1103              		.cfi_offset 4, -8
 1104              		.cfi_offset 14, -4
 951:Generated_Source\PSoC4/CyLFClk.c **** 
 1105              		.loc 1 951 0
 1106 0002 FFF7FEFF 		bl	CyEnterCriticalSection
 1107              	.LVL105:
 953:Generated_Source\PSoC4/CyLFClk.c ****                  CY_SYS_WDT_CLK_LOCK_BITS_MASK;
 1108              		.loc 1 953 0
 1109 0006 044A     		ldr	r2, .L92
 1110 0008 1368     		ldr	r3, [r2]
 1111 000a C021     		movs	r1, #192
 1112 000c 0902     		lsls	r1, r1, #8
 1113 000e 0B43     		orrs	r3, r1
 1114 0010 1360     		str	r3, [r2]
 956:Generated_Source\PSoC4/CyLFClk.c ****     }
 1115              		.loc 1 956 0
 1116 0012 FFF7FEFF 		bl	CyExitCriticalSection
 1117              	.LVL106:
 957:Generated_Source\PSoC4/CyLFClk.c **** 
 1118              		.loc 1 957 0
 1119              		@ sp needed
 1120 0016 10BD     		pop	{r4, pc}
 1121              	.L93:
 1122              		.align	2
 1123              	.L92:
 1124 0018 00010B40 		.word	1074462976
ARM GAS  C:\Users\JamesN4\AppData\Local\Temp\ccOIY297.s 			page 52


 1125              		.cfi_endproc
 1126              	.LFE17:
 1127              		.size	CySysWdtLock, .-CySysWdtLock
 1128              		.section	.text.CySysWdtUnlock,"ax",%progbits
 1129              		.align	2
 1130              		.global	CySysWdtUnlock
 1131              		.code	16
 1132              		.thumb_func
 1133              		.type	CySysWdtUnlock, %function
 1134              	CySysWdtUnlock:
 1135              	.LFB19:
 974:Generated_Source\PSoC4/CyLFClk.c **** 
 975:Generated_Source\PSoC4/CyLFClk.c **** 
 976:Generated_Source\PSoC4/CyLFClk.c ****     /*******************************************************************************
 977:Generated_Source\PSoC4/CyLFClk.c ****     * Function Name: CySysWdtUnlock
 978:Generated_Source\PSoC4/CyLFClk.c ****     ****************************************************************************//**
 979:Generated_Source\PSoC4/CyLFClk.c ****     * \brief
 980:Generated_Source\PSoC4/CyLFClk.c ****     *  Unlocks the Watchdog Timer configuration register.
 981:Generated_Source\PSoC4/CyLFClk.c ****     *
 982:Generated_Source\PSoC4/CyLFClk.c ****     *******************************************************************************/
 983:Generated_Source\PSoC4/CyLFClk.c ****     void CySysWdtUnlock(void)
 984:Generated_Source\PSoC4/CyLFClk.c ****     {
 1136              		.loc 1 984 0
 1137              		.cfi_startproc
 1138              		@ args = 0, pretend = 0, frame = 0
 1139              		@ frame_needed = 0, uses_anonymous_args = 0
 1140 0000 10B5     		push	{r4, lr}
 1141              		.cfi_def_cfa_offset 8
 1142              		.cfi_offset 4, -8
 1143              		.cfi_offset 14, -4
 985:Generated_Source\PSoC4/CyLFClk.c ****         uint8 interruptState;
 986:Generated_Source\PSoC4/CyLFClk.c ****         interruptState = CyEnterCriticalSection();
 1144              		.loc 1 986 0
 1145 0002 FFF7FEFF 		bl	CyEnterCriticalSection
 1146              	.LVL107:
 987:Generated_Source\PSoC4/CyLFClk.c **** 
 988:Generated_Source\PSoC4/CyLFClk.c ****         /* Removing WDT lock requires two writes */
 989:Generated_Source\PSoC4/CyLFClk.c ****         CY_SYS_CLK_SELECT_REG = ((CY_SYS_CLK_SELECT_REG & (uint32)(~CY_SYS_WDT_CLK_LOCK_BITS_MASK))
 1147              		.loc 1 989 0
 1148 0006 0849     		ldr	r1, .L95
 1149 0008 0A68     		ldr	r2, [r1]
 1150 000a 084B     		ldr	r3, .L95+4
 1151 000c 1A40     		ands	r2, r3
 1152 000e 8024     		movs	r4, #128
 1153 0010 E401     		lsls	r4, r4, #7
 1154 0012 2243     		orrs	r2, r4
 1155 0014 0A60     		str	r2, [r1]
 990:Generated_Source\PSoC4/CyLFClk.c ****                 CY_SYS_WDT_CLK_LOCK_BIT0);
 991:Generated_Source\PSoC4/CyLFClk.c **** 
 992:Generated_Source\PSoC4/CyLFClk.c ****         CY_SYS_CLK_SELECT_REG = ((CY_SYS_CLK_SELECT_REG & (uint32)(~CY_SYS_WDT_CLK_LOCK_BITS_MASK))
 1156              		.loc 1 992 0
 1157 0016 0A68     		ldr	r2, [r1]
 1158 0018 1340     		ands	r3, r2
 1159 001a 8022     		movs	r2, #128
 1160 001c 1202     		lsls	r2, r2, #8
 1161 001e 1343     		orrs	r3, r2
 1162 0020 0B60     		str	r3, [r1]
ARM GAS  C:\Users\JamesN4\AppData\Local\Temp\ccOIY297.s 			page 53


 993:Generated_Source\PSoC4/CyLFClk.c ****                 CY_SYS_WDT_CLK_LOCK_BIT1);
 994:Generated_Source\PSoC4/CyLFClk.c **** 
 995:Generated_Source\PSoC4/CyLFClk.c ****         CyExitCriticalSection(interruptState);
 1163              		.loc 1 995 0
 1164 0022 FFF7FEFF 		bl	CyExitCriticalSection
 1165              	.LVL108:
 996:Generated_Source\PSoC4/CyLFClk.c ****     }
 1166              		.loc 1 996 0
 1167              		@ sp needed
 1168 0026 10BD     		pop	{r4, pc}
 1169              	.L96:
 1170              		.align	2
 1171              	.L95:
 1172 0028 00010B40 		.word	1074462976
 1173 002c FF3FFFFF 		.word	-49153
 1174              		.cfi_endproc
 1175              	.LFE19:
 1176              		.size	CySysWdtUnlock, .-CySysWdtUnlock
 1177              		.section	.text.CySysWdtGetEnabledStatus,"ax",%progbits
 1178              		.align	2
 1179              		.global	CySysWdtGetEnabledStatus
 1180              		.code	16
 1181              		.thumb_func
 1182              		.type	CySysWdtGetEnabledStatus, %function
 1183              	CySysWdtGetEnabledStatus:
 1184              	.LFB20:
 997:Generated_Source\PSoC4/CyLFClk.c **** 
 998:Generated_Source\PSoC4/CyLFClk.c **** 
 999:Generated_Source\PSoC4/CyLFClk.c ****     /*******************************************************************************
1000:Generated_Source\PSoC4/CyLFClk.c ****     * Function Name: CySysWdtGetEnabledStatus
1001:Generated_Source\PSoC4/CyLFClk.c ****     ****************************************************************************//**
1002:Generated_Source\PSoC4/CyLFClk.c ****     * \brief
1003:Generated_Source\PSoC4/CyLFClk.c ****     *  Reads the enabled status of one of the three WDT counters.
1004:Generated_Source\PSoC4/CyLFClk.c ****     *
1005:Generated_Source\PSoC4/CyLFClk.c ****     * \param counterNum: Valid range [0-2].  The number of the WDT counter.
1006:Generated_Source\PSoC4/CyLFClk.c ****     *
1007:Generated_Source\PSoC4/CyLFClk.c ****     * \return The status of the WDT counter:
1008:Generated_Source\PSoC4/CyLFClk.c ****     * \return 0 - If the counter is disabled.
1009:Generated_Source\PSoC4/CyLFClk.c ****     * \return 1 - If the counter is enabled.
1010:Generated_Source\PSoC4/CyLFClk.c ****     *
1011:Generated_Source\PSoC4/CyLFClk.c ****     * \details
1012:Generated_Source\PSoC4/CyLFClk.c ****     * This function returns an actual WDT counter status from the status register. It may
1013:Generated_Source\PSoC4/CyLFClk.c ****     * take up to 3 LFCLK cycles for the WDT status register to contain actual data
1014:Generated_Source\PSoC4/CyLFClk.c ****     * after the WDT counter is enabled.
1015:Generated_Source\PSoC4/CyLFClk.c ****     *
1016:Generated_Source\PSoC4/CyLFClk.c ****     *******************************************************************************/
1017:Generated_Source\PSoC4/CyLFClk.c ****     uint32 CySysWdtGetEnabledStatus(uint32 counterNum)
1018:Generated_Source\PSoC4/CyLFClk.c ****     {
 1185              		.loc 1 1018 0
 1186              		.cfi_startproc
 1187              		@ args = 0, pretend = 0, frame = 0
 1188              		@ frame_needed = 0, uses_anonymous_args = 0
 1189              	.LVL109:
 1190 0000 10B5     		push	{r4, lr}
 1191              		.cfi_def_cfa_offset 8
 1192              		.cfi_offset 4, -8
 1193              		.cfi_offset 14, -4
ARM GAS  C:\Users\JamesN4\AppData\Local\Temp\ccOIY297.s 			page 54


 1194 0002 0400     		movs	r4, r0
1019:Generated_Source\PSoC4/CyLFClk.c ****         CYASSERT(counterNum < CY_SYS_WDT_COUNTERS_MAX);
 1195              		.loc 1 1019 0
 1196 0004 0228     		cmp	r0, #2
 1197 0006 02D9     		bls	.L98
 1198              		.loc 1 1019 0 is_stmt 0 discriminator 1
 1199 0008 0020     		movs	r0, #0
 1200              	.LVL110:
 1201 000a FFF7FEFF 		bl	CyHalt
 1202              	.LVL111:
 1203              	.L98:
1020:Generated_Source\PSoC4/CyLFClk.c ****         return ((CY_SYS_WDT_CONTROL_REG >> ((CY_SYS_WDT_CNT_SHIFT * counterNum) + CY_SYS_WDT_CNT_ST
 1204              		.loc 1 1020 0 is_stmt 1
 1205 000e 044B     		ldr	r3, .L99
 1206 0010 1868     		ldr	r0, [r3]
 1207 0012 E400     		lsls	r4, r4, #3
 1208              	.LVL112:
 1209 0014 0134     		adds	r4, r4, #1
 1210 0016 E040     		lsrs	r0, r0, r4
 1211 0018 0123     		movs	r3, #1
 1212 001a 1840     		ands	r0, r3
1021:Generated_Source\PSoC4/CyLFClk.c ****     }
 1213              		.loc 1 1021 0
 1214              		@ sp needed
 1215 001c 10BD     		pop	{r4, pc}
 1216              	.L100:
 1217 001e C046     		.align	2
 1218              	.L99:
 1219 0020 10020B40 		.word	1074463248
 1220              		.cfi_endproc
 1221              	.LFE20:
 1222              		.size	CySysWdtGetEnabledStatus, .-CySysWdtGetEnabledStatus
 1223              		.section	.text.CySysWdtSetMode,"ax",%progbits
 1224              		.align	2
 1225              		.global	CySysWdtSetMode
 1226              		.code	16
 1227              		.thumb_func
 1228              		.type	CySysWdtSetMode, %function
 1229              	CySysWdtSetMode:
 1230              	.LFB21:
1022:Generated_Source\PSoC4/CyLFClk.c **** 
1023:Generated_Source\PSoC4/CyLFClk.c **** 
1024:Generated_Source\PSoC4/CyLFClk.c ****     /*******************************************************************************
1025:Generated_Source\PSoC4/CyLFClk.c ****     * Function Name: CySysWdtSetMode
1026:Generated_Source\PSoC4/CyLFClk.c ****     ****************************************************************************//**
1027:Generated_Source\PSoC4/CyLFClk.c ****     * \brief
1028:Generated_Source\PSoC4/CyLFClk.c ****     * Writes the mode of one of the three WDT counters.
1029:Generated_Source\PSoC4/CyLFClk.c ****     *
1030:Generated_Source\PSoC4/CyLFClk.c ****     * \param counterNum: Valid range [0-2].  The number of the WDT counter.
1031:Generated_Source\PSoC4/CyLFClk.c ****     *
1032:Generated_Source\PSoC4/CyLFClk.c ****     * \param mode
1033:Generated_Source\PSoC4/CyLFClk.c ****     *  CY_SYS_WDT_MODE_NONE - Free running.<br>
1034:Generated_Source\PSoC4/CyLFClk.c ****     * CY_SYS_WDT_MODE_INT - The interrupt generated on match for counter 0
1035:Generated_Source\PSoC4/CyLFClk.c ****     * and 1, and on bit toggle for counter 2.<br>
1036:Generated_Source\PSoC4/CyLFClk.c ****     * CY_SYS_WDT_MODE_RESET - Reset on match (valid for counter 0 and 1 only).<br>
1037:Generated_Source\PSoC4/CyLFClk.c ****     * CY_SYS_WDT_MODE_INT_RESET - Generate an interrupt.  Generate a reset on
1038:Generated_Source\PSoC4/CyLFClk.c ****     * the 3rd non-handled interrupt (valid for counter 0 and counter 1 only).
ARM GAS  C:\Users\JamesN4\AppData\Local\Temp\ccOIY297.s 			page 55


1039:Generated_Source\PSoC4/CyLFClk.c ****     *
1040:Generated_Source\PSoC4/CyLFClk.c ****     * \details
1041:Generated_Source\PSoC4/CyLFClk.c ****     * WDT counter counterNum should be disabled to set a mode. Otherwise, this
1042:Generated_Source\PSoC4/CyLFClk.c ****     * function call has no effect. If the specified counter is enabled,
1043:Generated_Source\PSoC4/CyLFClk.c ****     * call the CySysWdtDisable() function with the corresponding parameter to
1044:Generated_Source\PSoC4/CyLFClk.c ****     * disable the specified counter and wait for it to stop.
1045:Generated_Source\PSoC4/CyLFClk.c ****     *
1046:Generated_Source\PSoC4/CyLFClk.c ****     *******************************************************************************/
1047:Generated_Source\PSoC4/CyLFClk.c ****     void CySysWdtSetMode(uint32 counterNum, uint32 mode)
1048:Generated_Source\PSoC4/CyLFClk.c ****     {
 1231              		.loc 1 1048 0
 1232              		.cfi_startproc
 1233              		@ args = 0, pretend = 0, frame = 0
 1234              		@ frame_needed = 0, uses_anonymous_args = 0
 1235              	.LVL113:
 1236 0000 70B5     		push	{r4, r5, r6, lr}
 1237              		.cfi_def_cfa_offset 16
 1238              		.cfi_offset 4, -16
 1239              		.cfi_offset 5, -12
 1240              		.cfi_offset 6, -8
 1241              		.cfi_offset 14, -4
 1242 0002 0400     		movs	r4, r0
 1243 0004 0D00     		movs	r5, r1
1049:Generated_Source\PSoC4/CyLFClk.c ****         uint32 configRegValue;
1050:Generated_Source\PSoC4/CyLFClk.c **** 
1051:Generated_Source\PSoC4/CyLFClk.c ****         CYASSERT(counterNum < CY_SYS_WDT_COUNTERS_MAX);
 1244              		.loc 1 1051 0
 1245 0006 0228     		cmp	r0, #2
 1246 0008 02D9     		bls	.L102
 1247              		.loc 1 1051 0 is_stmt 0 discriminator 1
 1248 000a 0020     		movs	r0, #0
 1249              	.LVL114:
 1250 000c FFF7FEFF 		bl	CyHalt
 1251              	.LVL115:
 1252              	.L102:
1052:Generated_Source\PSoC4/CyLFClk.c **** 
1053:Generated_Source\PSoC4/CyLFClk.c ****         if(0u == CySysWdtGetEnabledStatus(counterNum))
 1253              		.loc 1 1053 0 is_stmt 1
 1254 0010 2000     		movs	r0, r4
 1255 0012 FFF7FEFF 		bl	CySysWdtGetEnabledStatus
 1256              	.LVL116:
 1257 0016 0028     		cmp	r0, #0
 1258 0018 0AD1     		bne	.L101
1054:Generated_Source\PSoC4/CyLFClk.c ****         {
1055:Generated_Source\PSoC4/CyLFClk.c ****             configRegValue = CY_SYS_WDT_CONFIG_REG &
 1259              		.loc 1 1055 0
 1260 001a 064A     		ldr	r2, .L104
 1261 001c 1368     		ldr	r3, [r2]
1056:Generated_Source\PSoC4/CyLFClk.c ****                                 (uint32)~((uint32)(CY_SYS_WDT_MODE_MASK << (counterNum * CY_SYS_WDT
 1262              		.loc 1 1056 0
 1263 001e E400     		lsls	r4, r4, #3
 1264              	.LVL117:
 1265 0020 0321     		movs	r1, #3
 1266 0022 0800     		movs	r0, r1
 1267 0024 A040     		lsls	r0, r0, r4
1055:Generated_Source\PSoC4/CyLFClk.c ****                                 (uint32)~((uint32)(CY_SYS_WDT_MODE_MASK << (counterNum * CY_SYS_WDT
 1268              		.loc 1 1055 0
ARM GAS  C:\Users\JamesN4\AppData\Local\Temp\ccOIY297.s 			page 56


 1269 0026 8343     		bics	r3, r0
 1270              	.LVL118:
1057:Generated_Source\PSoC4/CyLFClk.c ****             configRegValue |= (uint32)((mode & CY_SYS_WDT_MODE_MASK) << (counterNum * CY_SYS_WDT_CN
 1271              		.loc 1 1057 0
 1272 0028 0D40     		ands	r5, r1
 1273              	.LVL119:
 1274 002a A540     		lsls	r5, r5, r4
 1275 002c 1D43     		orrs	r5, r3
 1276              	.LVL120:
1058:Generated_Source\PSoC4/CyLFClk.c ****             CY_SYS_WDT_CONFIG_REG = configRegValue;
 1277              		.loc 1 1058 0
 1278 002e 1560     		str	r5, [r2]
 1279              	.LVL121:
 1280              	.L101:
1059:Generated_Source\PSoC4/CyLFClk.c ****         }
1060:Generated_Source\PSoC4/CyLFClk.c ****     }
 1281              		.loc 1 1060 0
 1282              		@ sp needed
 1283 0030 70BD     		pop	{r4, r5, r6, pc}
 1284              	.L105:
 1285 0032 C046     		.align	2
 1286              	.L104:
 1287 0034 0C020B40 		.word	1074463244
 1288              		.cfi_endproc
 1289              	.LFE21:
 1290              		.size	CySysWdtSetMode, .-CySysWdtSetMode
 1291              		.section	.text.CySysClkLfclkPosedgeRestore,"ax",%progbits
 1292              		.align	2
 1293              		.code	16
 1294              		.thumb_func
 1295              		.type	CySysClkLfclkPosedgeRestore, %function
 1296              	CySysClkLfclkPosedgeRestore:
 1297              	.LFB44:
1061:Generated_Source\PSoC4/CyLFClk.c **** 
1062:Generated_Source\PSoC4/CyLFClk.c **** 
1063:Generated_Source\PSoC4/CyLFClk.c ****     /*******************************************************************************
1064:Generated_Source\PSoC4/CyLFClk.c ****     * Function Name: CySysWdtGetMode
1065:Generated_Source\PSoC4/CyLFClk.c ****     ****************************************************************************//**
1066:Generated_Source\PSoC4/CyLFClk.c ****     * 
1067:Generated_Source\PSoC4/CyLFClk.c ****     * \brief Reads the mode of one of the three WDT counters.
1068:Generated_Source\PSoC4/CyLFClk.c ****     *
1069:Generated_Source\PSoC4/CyLFClk.c ****     * \param counterNum Valid range [0-2]. The number of the WDT counter.
1070:Generated_Source\PSoC4/CyLFClk.c ****     *
1071:Generated_Source\PSoC4/CyLFClk.c ****     * \return The mode of the counter. The same enumerated values as the mode 
1072:Generated_Source\PSoC4/CyLFClk.c ****     * parameter used in CySysWdtSetMode().
1073:Generated_Source\PSoC4/CyLFClk.c ****     *
1074:Generated_Source\PSoC4/CyLFClk.c ****     *******************************************************************************/
1075:Generated_Source\PSoC4/CyLFClk.c ****     uint32 CySysWdtGetMode(uint32 counterNum)
1076:Generated_Source\PSoC4/CyLFClk.c ****     {
1077:Generated_Source\PSoC4/CyLFClk.c ****         return ((CY_SYS_WDT_CONFIG_REG >> (counterNum * CY_SYS_WDT_CNT_SHIFT)) & CY_SYS_WDT_MODE_MA
1078:Generated_Source\PSoC4/CyLFClk.c ****     }
1079:Generated_Source\PSoC4/CyLFClk.c **** 
1080:Generated_Source\PSoC4/CyLFClk.c **** 
1081:Generated_Source\PSoC4/CyLFClk.c ****     /*******************************************************************************
1082:Generated_Source\PSoC4/CyLFClk.c ****     * Function Name: CySysWdtSetClearOnMatch
1083:Generated_Source\PSoC4/CyLFClk.c ****     ****************************************************************************//**
1084:Generated_Source\PSoC4/CyLFClk.c ****     * 
ARM GAS  C:\Users\JamesN4\AppData\Local\Temp\ccOIY297.s 			page 57


1085:Generated_Source\PSoC4/CyLFClk.c ****     * \brief Configures the WDT counter "clear on match" setting.
1086:Generated_Source\PSoC4/CyLFClk.c ****     *
1087:Generated_Source\PSoC4/CyLFClk.c ****     * If configured to "clear on match", the counter counts from 0 to MatchValue
1088:Generated_Source\PSoC4/CyLFClk.c ****     * giving it a period of (MatchValue + 1).
1089:Generated_Source\PSoC4/CyLFClk.c ****     *
1090:Generated_Source\PSoC4/CyLFClk.c ****     * \param counterNum
1091:Generated_Source\PSoC4/CyLFClk.c ****     * Valid range [0-1]. The number of the WDT counter. The match values are not
1092:Generated_Source\PSoC4/CyLFClk.c ****     * supported by counter 2.
1093:Generated_Source\PSoC4/CyLFClk.c ****     *
1094:Generated_Source\PSoC4/CyLFClk.c ****     * \param enable 0 to disable appropriate counter <br>
1095:Generated_Source\PSoC4/CyLFClk.c ****     *  1 to enable appropriate counter
1096:Generated_Source\PSoC4/CyLFClk.c ****     *
1097:Generated_Source\PSoC4/CyLFClk.c ****     * \details
1098:Generated_Source\PSoC4/CyLFClk.c ****     * WDT counter counterNum should be disabled. Otherwise this function call
1099:Generated_Source\PSoC4/CyLFClk.c ****     * has no effect. If the specified counter is enabled, call the CySysWdtDisable()
1100:Generated_Source\PSoC4/CyLFClk.c ****     * function with the corresponding parameter to disable the specified counter and
1101:Generated_Source\PSoC4/CyLFClk.c ****     * wait for it to stop. This may take up to three LFCLK cycles.
1102:Generated_Source\PSoC4/CyLFClk.c ****     *
1103:Generated_Source\PSoC4/CyLFClk.c ****     *******************************************************************************/
1104:Generated_Source\PSoC4/CyLFClk.c ****     void CySysWdtSetClearOnMatch(uint32 counterNum, uint32 enable)
1105:Generated_Source\PSoC4/CyLFClk.c ****     {
1106:Generated_Source\PSoC4/CyLFClk.c ****         uint32 configRegValue;
1107:Generated_Source\PSoC4/CyLFClk.c **** 
1108:Generated_Source\PSoC4/CyLFClk.c ****         CYASSERT((counterNum == CY_SYS_WDT_COUNTER0) ||
1109:Generated_Source\PSoC4/CyLFClk.c ****                  (counterNum == CY_SYS_WDT_COUNTER1));
1110:Generated_Source\PSoC4/CyLFClk.c **** 
1111:Generated_Source\PSoC4/CyLFClk.c ****         if(0u == CySysWdtGetEnabledStatus(counterNum))
1112:Generated_Source\PSoC4/CyLFClk.c ****         {
1113:Generated_Source\PSoC4/CyLFClk.c ****             configRegValue = CY_SYS_WDT_CONFIG_REG & (uint32)~((uint32)((uint32)1u << 
1114:Generated_Source\PSoC4/CyLFClk.c ****                                      ((counterNum * CY_SYS_WDT_CNT_SHIFT) + CY_SYS_WDT_CNT_MATCH_CL
1115:Generated_Source\PSoC4/CyLFClk.c **** 
1116:Generated_Source\PSoC4/CyLFClk.c ****             configRegValue
1117:Generated_Source\PSoC4/CyLFClk.c ****                 |= (uint32)(enable << ((counterNum * CY_SYS_WDT_CNT_SHIFT) + CY_SYS_WDT_CNT_MATCH_C
1118:Generated_Source\PSoC4/CyLFClk.c **** 
1119:Generated_Source\PSoC4/CyLFClk.c ****             CY_SYS_WDT_CONFIG_REG = configRegValue;
1120:Generated_Source\PSoC4/CyLFClk.c ****         }
1121:Generated_Source\PSoC4/CyLFClk.c ****     }
1122:Generated_Source\PSoC4/CyLFClk.c **** 
1123:Generated_Source\PSoC4/CyLFClk.c **** 
1124:Generated_Source\PSoC4/CyLFClk.c ****     /*******************************************************************************
1125:Generated_Source\PSoC4/CyLFClk.c ****     * Function Name: CySysWdtGetClearOnMatch
1126:Generated_Source\PSoC4/CyLFClk.c ****     ****************************************************************************//**
1127:Generated_Source\PSoC4/CyLFClk.c ****     * \brief
1128:Generated_Source\PSoC4/CyLFClk.c ****     * Reads the "clear on match" setting for the specified counter.
1129:Generated_Source\PSoC4/CyLFClk.c ****     *
1130:Generated_Source\PSoC4/CyLFClk.c ****     * \param
1131:Generated_Source\PSoC4/CyLFClk.c ****     * counterNum Valid range [0-1]. The number of the WDT counter. The match values
1132:Generated_Source\PSoC4/CyLFClk.c ****     * are not supported by counter 2.
1133:Generated_Source\PSoC4/CyLFClk.c ****     *
1134:Generated_Source\PSoC4/CyLFClk.c ****     * \return The "clear on match" status: <br>1 if enabled <br>0 if disabled
1135:Generated_Source\PSoC4/CyLFClk.c ****     *
1136:Generated_Source\PSoC4/CyLFClk.c ****     *******************************************************************************/
1137:Generated_Source\PSoC4/CyLFClk.c ****     uint32 CySysWdtGetClearOnMatch(uint32 counterNum)
1138:Generated_Source\PSoC4/CyLFClk.c ****     {
1139:Generated_Source\PSoC4/CyLFClk.c ****         CYASSERT((counterNum == CY_SYS_WDT_COUNTER0) ||
1140:Generated_Source\PSoC4/CyLFClk.c ****                  (counterNum == CY_SYS_WDT_COUNTER1));
1141:Generated_Source\PSoC4/CyLFClk.c **** 
ARM GAS  C:\Users\JamesN4\AppData\Local\Temp\ccOIY297.s 			page 58


1142:Generated_Source\PSoC4/CyLFClk.c ****         return (uint32)((CY_SYS_WDT_CONFIG_REG >>
1143:Generated_Source\PSoC4/CyLFClk.c ****                         ((counterNum * CY_SYS_WDT_CNT_SHIFT) + CY_SYS_WDT_CNT_MATCH_CLR_SHIFT)) & 0
1144:Generated_Source\PSoC4/CyLFClk.c ****     }
1145:Generated_Source\PSoC4/CyLFClk.c **** 
1146:Generated_Source\PSoC4/CyLFClk.c **** 
1147:Generated_Source\PSoC4/CyLFClk.c ****     /*******************************************************************************
1148:Generated_Source\PSoC4/CyLFClk.c ****     * Function Name: CySysWdtEnable
1149:Generated_Source\PSoC4/CyLFClk.c ****     ****************************************************************************//**
1150:Generated_Source\PSoC4/CyLFClk.c ****     *
1151:Generated_Source\PSoC4/CyLFClk.c ****     * \brief Enables the specified WDT counters.
1152:Generated_Source\PSoC4/CyLFClk.c ****     *
1153:Generated_Source\PSoC4/CyLFClk.c ****     * All the counters specified in the mask are enabled.
1154:Generated_Source\PSoC4/CyLFClk.c ****     *
1155:Generated_Source\PSoC4/CyLFClk.c ****     * \param counterMask
1156:Generated_Source\PSoC4/CyLFClk.c ****     *  CY_SYS_WDT_COUNTER0_MASK - The mask for counter 0 to enable.<br>
1157:Generated_Source\PSoC4/CyLFClk.c ****     * CY_SYS_WDT_COUNTER1_MASK - The mask for counter 1 to enable.<br>
1158:Generated_Source\PSoC4/CyLFClk.c ****     * CY_SYS_WDT_COUNTER2_MASK - The mask for counter 2 to enable.
1159:Generated_Source\PSoC4/CyLFClk.c ****     *
1160:Generated_Source\PSoC4/CyLFClk.c ****     * \details
1161:Generated_Source\PSoC4/CyLFClk.c ****     * Enabling or disabling WDT requires 3 LFCLK cycles to come into effect.
1162:Generated_Source\PSoC4/CyLFClk.c ****     * Therefore, the WDT enable state must not be changed more than once in
1163:Generated_Source\PSoC4/CyLFClk.c ****     * that period.
1164:Generated_Source\PSoC4/CyLFClk.c ****     *
1165:Generated_Source\PSoC4/CyLFClk.c ****     * After WDT is enabled, it is illegal to write WDT configuration (WDT_CONFIG)
1166:Generated_Source\PSoC4/CyLFClk.c ****     * and control (WDT_CONTROL) registers. This means that all WDT functions that
1167:Generated_Source\PSoC4/CyLFClk.c ****     * contain 'write' in the name (with the exception of CySysWdtSetMatch()
1168:Generated_Source\PSoC4/CyLFClk.c ****     * function) are illegal to call if WDT is enabled.
1169:Generated_Source\PSoC4/CyLFClk.c ****     *
1170:Generated_Source\PSoC4/CyLFClk.c ****     * PSoC 4100 / PSoC 4200: This function enables ILO.
1171:Generated_Source\PSoC4/CyLFClk.c ****     *
1172:Generated_Source\PSoC4/CyLFClk.c ****     * PSoC 4100 BLE / PSoC 4200 BLE / PSoC4200L / PSoC 4100M 
1173:Generated_Source\PSoC4/CyLFClk.c ****     * / PSoC 4200M:
1174:Generated_Source\PSoC4/CyLFClk.c ****     * LFLCK should be configured before calling this function. The desired
1175:Generated_Source\PSoC4/CyLFClk.c ****     * source should be enabled and configured to be the source for LFCLK.
1176:Generated_Source\PSoC4/CyLFClk.c ****     *
1177:Generated_Source\PSoC4/CyLFClk.c ****     *******************************************************************************/
1178:Generated_Source\PSoC4/CyLFClk.c ****     void CySysWdtEnable(uint32 counterMask)
1179:Generated_Source\PSoC4/CyLFClk.c ****     {
1180:Generated_Source\PSoC4/CyLFClk.c ****         #if (!CY_IP_WCO)
1181:Generated_Source\PSoC4/CyLFClk.c ****             CySysClkIloStart();
1182:Generated_Source\PSoC4/CyLFClk.c ****         #endif /* (!CY_IP_WCO) */
1183:Generated_Source\PSoC4/CyLFClk.c **** 
1184:Generated_Source\PSoC4/CyLFClk.c ****         CY_SYS_WDT_CONTROL_REG |= counterMask;
1185:Generated_Source\PSoC4/CyLFClk.c **** 
1186:Generated_Source\PSoC4/CyLFClk.c ****         if(0u != (counterMask & CY_SYS_WDT_COUNTER0_MASK))
1187:Generated_Source\PSoC4/CyLFClk.c ****         {
1188:Generated_Source\PSoC4/CyLFClk.c ****             while (0u == CySysWdtGetEnabledStatus(CY_SYS_WDT_COUNTER0))
1189:Generated_Source\PSoC4/CyLFClk.c ****             {
1190:Generated_Source\PSoC4/CyLFClk.c ****                 /* Wait for changes to come into effect */
1191:Generated_Source\PSoC4/CyLFClk.c ****             }
1192:Generated_Source\PSoC4/CyLFClk.c ****         }
1193:Generated_Source\PSoC4/CyLFClk.c **** 
1194:Generated_Source\PSoC4/CyLFClk.c ****         if(0u != (counterMask & CY_SYS_WDT_COUNTER1_MASK))
1195:Generated_Source\PSoC4/CyLFClk.c ****         {
1196:Generated_Source\PSoC4/CyLFClk.c ****             while (0u == CySysWdtGetEnabledStatus(CY_SYS_WDT_COUNTER1))
1197:Generated_Source\PSoC4/CyLFClk.c ****             {
1198:Generated_Source\PSoC4/CyLFClk.c ****                 /* Wait for changes to come into effect */
ARM GAS  C:\Users\JamesN4\AppData\Local\Temp\ccOIY297.s 			page 59


1199:Generated_Source\PSoC4/CyLFClk.c ****             }
1200:Generated_Source\PSoC4/CyLFClk.c ****         }
1201:Generated_Source\PSoC4/CyLFClk.c **** 
1202:Generated_Source\PSoC4/CyLFClk.c ****         if(0u != (counterMask & CY_SYS_WDT_COUNTER2_MASK))
1203:Generated_Source\PSoC4/CyLFClk.c ****         {
1204:Generated_Source\PSoC4/CyLFClk.c ****             while (0u == CySysWdtGetEnabledStatus(CY_SYS_WDT_COUNTER2))
1205:Generated_Source\PSoC4/CyLFClk.c ****             {
1206:Generated_Source\PSoC4/CyLFClk.c ****                 /* Wait for changes to come into effect */
1207:Generated_Source\PSoC4/CyLFClk.c ****             }
1208:Generated_Source\PSoC4/CyLFClk.c ****         }
1209:Generated_Source\PSoC4/CyLFClk.c ****     }
1210:Generated_Source\PSoC4/CyLFClk.c **** 
1211:Generated_Source\PSoC4/CyLFClk.c **** 
1212:Generated_Source\PSoC4/CyLFClk.c ****     /*******************************************************************************
1213:Generated_Source\PSoC4/CyLFClk.c ****     * Function Name: CySysWdtDisable
1214:Generated_Source\PSoC4/CyLFClk.c ****     ****************************************************************************//**
1215:Generated_Source\PSoC4/CyLFClk.c ****     *
1216:Generated_Source\PSoC4/CyLFClk.c ****     * \brief Disables the specified WDT counters.
1217:Generated_Source\PSoC4/CyLFClk.c ****     * All the counters specified in the mask are disabled. The function waits for 
1218:Generated_Source\PSoC4/CyLFClk.c ****     * the changes to come into effect.
1219:Generated_Source\PSoC4/CyLFClk.c ****     *
1220:Generated_Source\PSoC4/CyLFClk.c ****     * \param counterMask
1221:Generated_Source\PSoC4/CyLFClk.c ****     * CY_SYS_WDT_COUNTER0_MASK - The mask for counter 0 to disable. <br>
1222:Generated_Source\PSoC4/CyLFClk.c ****     * CY_SYS_WDT_COUNTER1_MASK - The mask for counter 1 to disable. <br>
1223:Generated_Source\PSoC4/CyLFClk.c ****     * CY_SYS_WDT_COUNTER2_MASK - The mask for counter 2 to disable.
1224:Generated_Source\PSoC4/CyLFClk.c ****     *
1225:Generated_Source\PSoC4/CyLFClk.c ****     *******************************************************************************/
1226:Generated_Source\PSoC4/CyLFClk.c ****     void CySysWdtDisable(uint32 counterMask)
1227:Generated_Source\PSoC4/CyLFClk.c ****     {
1228:Generated_Source\PSoC4/CyLFClk.c ****         if (0uL == CySysWdtLocked())
1229:Generated_Source\PSoC4/CyLFClk.c ****         {
1230:Generated_Source\PSoC4/CyLFClk.c ****             CY_SYS_WDT_CONTROL_REG &= ~counterMask;
1231:Generated_Source\PSoC4/CyLFClk.c **** 
1232:Generated_Source\PSoC4/CyLFClk.c ****             if(0u != (counterMask & CY_SYS_WDT_COUNTER0_MASK))
1233:Generated_Source\PSoC4/CyLFClk.c ****             {
1234:Generated_Source\PSoC4/CyLFClk.c ****                 while (0u != CySysWdtGetEnabledStatus(CY_SYS_WDT_COUNTER0))
1235:Generated_Source\PSoC4/CyLFClk.c ****                 {
1236:Generated_Source\PSoC4/CyLFClk.c ****                     /* Wait for changes to come into effect */
1237:Generated_Source\PSoC4/CyLFClk.c ****                 }
1238:Generated_Source\PSoC4/CyLFClk.c ****             }
1239:Generated_Source\PSoC4/CyLFClk.c **** 
1240:Generated_Source\PSoC4/CyLFClk.c ****             if(0u != (counterMask & CY_SYS_WDT_COUNTER1_MASK))
1241:Generated_Source\PSoC4/CyLFClk.c ****             {
1242:Generated_Source\PSoC4/CyLFClk.c ****                 while (0u != CySysWdtGetEnabledStatus(CY_SYS_WDT_COUNTER1))
1243:Generated_Source\PSoC4/CyLFClk.c ****                 {
1244:Generated_Source\PSoC4/CyLFClk.c ****                     /* Wait for changes to come into effect */
1245:Generated_Source\PSoC4/CyLFClk.c ****                 }
1246:Generated_Source\PSoC4/CyLFClk.c ****             }
1247:Generated_Source\PSoC4/CyLFClk.c **** 
1248:Generated_Source\PSoC4/CyLFClk.c ****             if(0u != (counterMask & CY_SYS_WDT_COUNTER2_MASK))
1249:Generated_Source\PSoC4/CyLFClk.c ****             {
1250:Generated_Source\PSoC4/CyLFClk.c ****                 while (0u != CySysWdtGetEnabledStatus(CY_SYS_WDT_COUNTER2))
1251:Generated_Source\PSoC4/CyLFClk.c ****                 {
1252:Generated_Source\PSoC4/CyLFClk.c ****                     /* Wait for changes to come into effect */
1253:Generated_Source\PSoC4/CyLFClk.c ****                 }
1254:Generated_Source\PSoC4/CyLFClk.c ****             }
1255:Generated_Source\PSoC4/CyLFClk.c ****         }
ARM GAS  C:\Users\JamesN4\AppData\Local\Temp\ccOIY297.s 			page 60


1256:Generated_Source\PSoC4/CyLFClk.c ****     }
1257:Generated_Source\PSoC4/CyLFClk.c **** 
1258:Generated_Source\PSoC4/CyLFClk.c **** 
1259:Generated_Source\PSoC4/CyLFClk.c ****     /*******************************************************************************
1260:Generated_Source\PSoC4/CyLFClk.c ****     * Function Name: CySysWdtSetCascade
1261:Generated_Source\PSoC4/CyLFClk.c ****     ****************************************************************************//**
1262:Generated_Source\PSoC4/CyLFClk.c ****     * \brief
1263:Generated_Source\PSoC4/CyLFClk.c ****     * Writes the two WDT cascade values based on the combination of mask values
1264:Generated_Source\PSoC4/CyLFClk.c ****     * specified.
1265:Generated_Source\PSoC4/CyLFClk.c ****     *
1266:Generated_Source\PSoC4/CyLFClk.c ****     * \param cascadeMask The mask value used to set or clear the cascade values:
1267:Generated_Source\PSoC4/CyLFClk.c ****     * CY_SYS_WDT_CASCADE_NONE - Neither <br>
1268:Generated_Source\PSoC4/CyLFClk.c ****     * CY_SYS_WDT_CASCADE_01 - Cascade 01 <br>
1269:Generated_Source\PSoC4/CyLFClk.c ****     * CY_SYS_WDT_CASCADE_12 - Cascade 12
1270:Generated_Source\PSoC4/CyLFClk.c ****     *
1271:Generated_Source\PSoC4/CyLFClk.c ****     * If only one cascade mask is specified, the second cascade is disabled.
1272:Generated_Source\PSoC4/CyLFClk.c ****     * To set both cascade modes, two defines should be ORed:
1273:Generated_Source\PSoC4/CyLFClk.c ****     * (CY_SYS_TIMER_CASCADE_01 | CY_SYS_TIMER_CASCADE_12).
1274:Generated_Source\PSoC4/CyLFClk.c ****     * \note If CySysWdtSetCascade() was called with ORed defines it is necessary 
1275:Generated_Source\PSoC4/CyLFClk.c ****     * to call CySysWdtSetClearOnMatch(1,1). It is needed to make sure that 
1276:Generated_Source\PSoC4/CyLFClk.c ****     * Counter 2 will be updated in the expected way.
1277:Generated_Source\PSoC4/CyLFClk.c ****     *
1278:Generated_Source\PSoC4/CyLFClk.c ****     * WDT counters that are part of the specified cascade should be disabled.
1279:Generated_Source\PSoC4/CyLFClk.c ****     * Otherwise this function call has no effect. If the specified
1280:Generated_Source\PSoC4/CyLFClk.c ****     * counter is enabled, call CySysWdtDisable() function with the corresponding
1281:Generated_Source\PSoC4/CyLFClk.c ****     * parameter to disable the specified counter and wait for it to stop. This may
1282:Generated_Source\PSoC4/CyLFClk.c ****     * take up to 3 LFCLK cycles.
1283:Generated_Source\PSoC4/CyLFClk.c ****     *
1284:Generated_Source\PSoC4/CyLFClk.c ****     *******************************************************************************/
1285:Generated_Source\PSoC4/CyLFClk.c ****     void CySysWdtSetCascade(uint32 cascadeMask)
1286:Generated_Source\PSoC4/CyLFClk.c ****     {
1287:Generated_Source\PSoC4/CyLFClk.c ****         uint32 configRegValue;
1288:Generated_Source\PSoC4/CyLFClk.c ****         uint32 countersEnableStatus;
1289:Generated_Source\PSoC4/CyLFClk.c **** 
1290:Generated_Source\PSoC4/CyLFClk.c ****         countersEnableStatus = CySysWdtGetEnabledStatus(CY_SYS_WDT_COUNTER0) |
1291:Generated_Source\PSoC4/CyLFClk.c ****                             CySysWdtGetEnabledStatus(CY_SYS_WDT_COUNTER1) |
1292:Generated_Source\PSoC4/CyLFClk.c ****                             CySysWdtGetEnabledStatus(CY_SYS_WDT_COUNTER2);
1293:Generated_Source\PSoC4/CyLFClk.c **** 
1294:Generated_Source\PSoC4/CyLFClk.c ****         if (0u == countersEnableStatus)
1295:Generated_Source\PSoC4/CyLFClk.c ****         {
1296:Generated_Source\PSoC4/CyLFClk.c ****             configRegValue = CY_SYS_WDT_CONFIG_REG;
1297:Generated_Source\PSoC4/CyLFClk.c ****             configRegValue &= ((uint32)(~(CY_SYS_WDT_CASCADE_01|CY_SYS_WDT_CASCADE_12)));
1298:Generated_Source\PSoC4/CyLFClk.c ****             configRegValue |= cascadeMask;
1299:Generated_Source\PSoC4/CyLFClk.c ****             CY_SYS_WDT_CONFIG_REG = configRegValue;
1300:Generated_Source\PSoC4/CyLFClk.c ****         }
1301:Generated_Source\PSoC4/CyLFClk.c ****     }
1302:Generated_Source\PSoC4/CyLFClk.c **** 
1303:Generated_Source\PSoC4/CyLFClk.c **** 
1304:Generated_Source\PSoC4/CyLFClk.c ****     /*******************************************************************************
1305:Generated_Source\PSoC4/CyLFClk.c ****     * Function Name: CySysWdtGetCascade
1306:Generated_Source\PSoC4/CyLFClk.c ****     ****************************************************************************//**
1307:Generated_Source\PSoC4/CyLFClk.c ****     *
1308:Generated_Source\PSoC4/CyLFClk.c ****     * \brief Reads the two WDT cascade values returning a mask of the bits set.
1309:Generated_Source\PSoC4/CyLFClk.c ****     *
1310:Generated_Source\PSoC4/CyLFClk.c ****     * \return The mask of the cascade values set.
1311:Generated_Source\PSoC4/CyLFClk.c ****     * \return CY_SYS_WDT_CASCADE_NONE - Neither
1312:Generated_Source\PSoC4/CyLFClk.c ****     * \return CY_SYS_WDT_CASCADE_01 - Cascade 01
ARM GAS  C:\Users\JamesN4\AppData\Local\Temp\ccOIY297.s 			page 61


1313:Generated_Source\PSoC4/CyLFClk.c ****     * \return CY_SYS_WDT_CASCADE_12 - Cascade 12
1314:Generated_Source\PSoC4/CyLFClk.c ****     *
1315:Generated_Source\PSoC4/CyLFClk.c ****     *******************************************************************************/
1316:Generated_Source\PSoC4/CyLFClk.c ****     uint32 CySysWdtGetCascade(void)
1317:Generated_Source\PSoC4/CyLFClk.c ****     {
1318:Generated_Source\PSoC4/CyLFClk.c ****         return (CY_SYS_WDT_CONFIG_REG & (CY_SYS_WDT_CASCADE_01 | CY_SYS_WDT_CASCADE_12));
1319:Generated_Source\PSoC4/CyLFClk.c ****     }
1320:Generated_Source\PSoC4/CyLFClk.c **** 
1321:Generated_Source\PSoC4/CyLFClk.c **** 
1322:Generated_Source\PSoC4/CyLFClk.c ****     /*******************************************************************************
1323:Generated_Source\PSoC4/CyLFClk.c ****     * Function Name: CySysWdtSetMatch
1324:Generated_Source\PSoC4/CyLFClk.c ****     ****************************************************************************//**
1325:Generated_Source\PSoC4/CyLFClk.c ****     *
1326:Generated_Source\PSoC4/CyLFClk.c ****     * \brief Configures the WDT counter match comparison value.
1327:Generated_Source\PSoC4/CyLFClk.c ****     *
1328:Generated_Source\PSoC4/CyLFClk.c ****     * \param counterNum
1329:Generated_Source\PSoC4/CyLFClk.c ****     * Valid range [0-1]. The number of the WDT counter. The match values are not
1330:Generated_Source\PSoC4/CyLFClk.c ****     * supported by counter 2.
1331:Generated_Source\PSoC4/CyLFClk.c ****     *
1332:Generated_Source\PSoC4/CyLFClk.c ****     * \param match
1333:Generated_Source\PSoC4/CyLFClk.c ****     * Valid range [0-65535]. The value to be used to match against the counter.
1334:Generated_Source\PSoC4/CyLFClk.c ****     *
1335:Generated_Source\PSoC4/CyLFClk.c ****     *******************************************************************************/
1336:Generated_Source\PSoC4/CyLFClk.c ****     void CySysWdtSetMatch(uint32 counterNum, uint32 match)
1337:Generated_Source\PSoC4/CyLFClk.c ****     {
1338:Generated_Source\PSoC4/CyLFClk.c ****         uint32 regValue;
1339:Generated_Source\PSoC4/CyLFClk.c **** 
1340:Generated_Source\PSoC4/CyLFClk.c ****         CYASSERT((counterNum == CY_SYS_WDT_COUNTER0) ||
1341:Generated_Source\PSoC4/CyLFClk.c ****                  (counterNum == CY_SYS_WDT_COUNTER1));
1342:Generated_Source\PSoC4/CyLFClk.c **** 
1343:Generated_Source\PSoC4/CyLFClk.c ****         /* Wait for previous changes to come into effect */
1344:Generated_Source\PSoC4/CyLFClk.c ****         CyDelayUs(CY_SYS_WDT_3LFCLK_DELAY_US);
1345:Generated_Source\PSoC4/CyLFClk.c **** 
1346:Generated_Source\PSoC4/CyLFClk.c ****         regValue = CY_SYS_WDT_MATCH_REG;
1347:Generated_Source\PSoC4/CyLFClk.c ****         regValue &= (uint32)~((uint32)(CY_SYS_WDT_LOWER_16BITS_MASK << (counterNum * CY_SYS_WDT_CNT
1348:Generated_Source\PSoC4/CyLFClk.c ****         CY_SYS_WDT_MATCH_REG = (regValue | (match << (counterNum * CY_SYS_WDT_CNT_MATCH_SHIFT)));
1349:Generated_Source\PSoC4/CyLFClk.c **** 
1350:Generated_Source\PSoC4/CyLFClk.c ****         /* Make sure match synchronization has started */
1351:Generated_Source\PSoC4/CyLFClk.c ****         CyDelayUs(CY_SYS_WDT_1LFCLK_DELAY_US);
1352:Generated_Source\PSoC4/CyLFClk.c ****     }
1353:Generated_Source\PSoC4/CyLFClk.c **** 
1354:Generated_Source\PSoC4/CyLFClk.c **** 
1355:Generated_Source\PSoC4/CyLFClk.c ****     /*******************************************************************************
1356:Generated_Source\PSoC4/CyLFClk.c ****     * Function Name: CySysWdtSetToggleBit
1357:Generated_Source\PSoC4/CyLFClk.c ****     ****************************************************************************//**
1358:Generated_Source\PSoC4/CyLFClk.c ****     * \brief
1359:Generated_Source\PSoC4/CyLFClk.c ****     * Configures which bit in WDT counter 2 to monitor for a toggle.
1360:Generated_Source\PSoC4/CyLFClk.c ****     *
1361:Generated_Source\PSoC4/CyLFClk.c ****     * When that bit toggles, an interrupt is generated if the mode for counter 2 has
1362:Generated_Source\PSoC4/CyLFClk.c ****     * enabled interrupts.
1363:Generated_Source\PSoC4/CyLFClk.c ****     *
1364:Generated_Source\PSoC4/CyLFClk.c ****     * \param bits Valid range [0-31].  Counter 2 bit to monitor for a toggle.
1365:Generated_Source\PSoC4/CyLFClk.c ****     *
1366:Generated_Source\PSoC4/CyLFClk.c ****     * \details
1367:Generated_Source\PSoC4/CyLFClk.c ****     * WDT Counter 2 should be disabled. Otherwise this function call has no
1368:Generated_Source\PSoC4/CyLFClk.c ****     * effect.
1369:Generated_Source\PSoC4/CyLFClk.c ****     *
ARM GAS  C:\Users\JamesN4\AppData\Local\Temp\ccOIY297.s 			page 62


1370:Generated_Source\PSoC4/CyLFClk.c ****     * If the specified counter is enabled, call the CySysWdtDisable() function with
1371:Generated_Source\PSoC4/CyLFClk.c ****     * the corresponding parameter to disable the specified counter and wait for it to
1372:Generated_Source\PSoC4/CyLFClk.c ****     * stop. This may take up to 3 LFCLK cycles.
1373:Generated_Source\PSoC4/CyLFClk.c ****     *
1374:Generated_Source\PSoC4/CyLFClk.c ****     *******************************************************************************/
1375:Generated_Source\PSoC4/CyLFClk.c ****     void CySysWdtSetToggleBit(uint32 bits)
1376:Generated_Source\PSoC4/CyLFClk.c ****     {
1377:Generated_Source\PSoC4/CyLFClk.c ****         uint32 configRegValue;
1378:Generated_Source\PSoC4/CyLFClk.c **** 
1379:Generated_Source\PSoC4/CyLFClk.c ****         if (0u == CySysWdtGetEnabledStatus(CY_SYS_WDT_COUNTER2))
1380:Generated_Source\PSoC4/CyLFClk.c ****         {
1381:Generated_Source\PSoC4/CyLFClk.c ****             configRegValue = CY_SYS_WDT_CONFIG_REG;
1382:Generated_Source\PSoC4/CyLFClk.c ****             configRegValue &= (uint32)(~((uint32)(CY_SYS_WDT_CONFIG_BITS2_MASK << CY_SYS_WDT_CONFIG
1383:Generated_Source\PSoC4/CyLFClk.c ****             configRegValue |= ((bits & CY_SYS_WDT_CONFIG_BITS2_MASK) << CY_SYS_WDT_CONFIG_BITS2_POS
1384:Generated_Source\PSoC4/CyLFClk.c ****             CY_SYS_WDT_CONFIG_REG = configRegValue;
1385:Generated_Source\PSoC4/CyLFClk.c ****         }
1386:Generated_Source\PSoC4/CyLFClk.c ****     }
1387:Generated_Source\PSoC4/CyLFClk.c **** 
1388:Generated_Source\PSoC4/CyLFClk.c **** 
1389:Generated_Source\PSoC4/CyLFClk.c ****     /*******************************************************************************
1390:Generated_Source\PSoC4/CyLFClk.c ****     * Function Name: CySysWdtGetToggleBit
1391:Generated_Source\PSoC4/CyLFClk.c ****     ****************************************************************************//**
1392:Generated_Source\PSoC4/CyLFClk.c ****     * \brief
1393:Generated_Source\PSoC4/CyLFClk.c ****     * Reads which bit in WDT counter 2 is monitored for a toggle.
1394:Generated_Source\PSoC4/CyLFClk.c ****     *
1395:Generated_Source\PSoC4/CyLFClk.c ****     * \return The bit that is monitored (range of 0 to 31)
1396:Generated_Source\PSoC4/CyLFClk.c ****     *
1397:Generated_Source\PSoC4/CyLFClk.c ****     *******************************************************************************/
1398:Generated_Source\PSoC4/CyLFClk.c ****     uint32 CySysWdtGetToggleBit(void)
1399:Generated_Source\PSoC4/CyLFClk.c ****     {
1400:Generated_Source\PSoC4/CyLFClk.c ****         return ((CY_SYS_WDT_CONFIG_REG >> CY_SYS_WDT_CONFIG_BITS2_POS) & CY_SYS_WDT_CONFIG_BITS2_MA
1401:Generated_Source\PSoC4/CyLFClk.c ****     }
1402:Generated_Source\PSoC4/CyLFClk.c **** 
1403:Generated_Source\PSoC4/CyLFClk.c **** 
1404:Generated_Source\PSoC4/CyLFClk.c ****     /*******************************************************************************
1405:Generated_Source\PSoC4/CyLFClk.c ****     * Function Name: CySysWdtGetMatch
1406:Generated_Source\PSoC4/CyLFClk.c ****     ****************************************************************************//**
1407:Generated_Source\PSoC4/CyLFClk.c ****     *
1408:Generated_Source\PSoC4/CyLFClk.c ****     * \brief Reads the WDT counter match comparison value.
1409:Generated_Source\PSoC4/CyLFClk.c ****     *
1410:Generated_Source\PSoC4/CyLFClk.c ****     * \param counterNum Valid range [0-1].  The number of the WDT counter. The match
1411:Generated_Source\PSoC4/CyLFClk.c ****     * values are not supported by counter 2.
1412:Generated_Source\PSoC4/CyLFClk.c ****     *
1413:Generated_Source\PSoC4/CyLFClk.c ****     * \return A 16-bit match value.
1414:Generated_Source\PSoC4/CyLFClk.c ****     *
1415:Generated_Source\PSoC4/CyLFClk.c ****     *******************************************************************************/
1416:Generated_Source\PSoC4/CyLFClk.c ****     uint32 CySysWdtGetMatch(uint32 counterNum)
1417:Generated_Source\PSoC4/CyLFClk.c ****     {
1418:Generated_Source\PSoC4/CyLFClk.c ****         CYASSERT((counterNum == CY_SYS_WDT_COUNTER0) ||
1419:Generated_Source\PSoC4/CyLFClk.c ****                  (counterNum == CY_SYS_WDT_COUNTER1));
1420:Generated_Source\PSoC4/CyLFClk.c **** 
1421:Generated_Source\PSoC4/CyLFClk.c ****         return ((uint32)(CY_SYS_WDT_MATCH_REG >> 
1422:Generated_Source\PSoC4/CyLFClk.c ****                                             (counterNum * CY_SYS_WDT_CNT_MATCH_SHIFT)) & CY_SYS_WDT
1423:Generated_Source\PSoC4/CyLFClk.c ****     }
1424:Generated_Source\PSoC4/CyLFClk.c **** 
1425:Generated_Source\PSoC4/CyLFClk.c **** 
1426:Generated_Source\PSoC4/CyLFClk.c ****     /*******************************************************************************
ARM GAS  C:\Users\JamesN4\AppData\Local\Temp\ccOIY297.s 			page 63


1427:Generated_Source\PSoC4/CyLFClk.c ****     * Function Name: CySysWdtGetCount
1428:Generated_Source\PSoC4/CyLFClk.c ****     ****************************************************************************//**
1429:Generated_Source\PSoC4/CyLFClk.c ****     *
1430:Generated_Source\PSoC4/CyLFClk.c ****     * \brief Reads the current WDT counter value.
1431:Generated_Source\PSoC4/CyLFClk.c ****     *
1432:Generated_Source\PSoC4/CyLFClk.c ****     * \param counterNum: Valid range [0-2]. The number of the WDT counter.
1433:Generated_Source\PSoC4/CyLFClk.c ****     *
1434:Generated_Source\PSoC4/CyLFClk.c ****     * \return A live counter value.  Counter 0 and Counter 1 are 16 bit counters 
1435:Generated_Source\PSoC4/CyLFClk.c ****     * and counter 2 is a 32 bit counter.
1436:Generated_Source\PSoC4/CyLFClk.c ****     *
1437:Generated_Source\PSoC4/CyLFClk.c ****     *******************************************************************************/
1438:Generated_Source\PSoC4/CyLFClk.c ****     uint32 CySysWdtGetCount(uint32 counterNum)
1439:Generated_Source\PSoC4/CyLFClk.c ****     {
1440:Generated_Source\PSoC4/CyLFClk.c ****         uint32 regValue = 0u;
1441:Generated_Source\PSoC4/CyLFClk.c **** 
1442:Generated_Source\PSoC4/CyLFClk.c ****         switch(counterNum)
1443:Generated_Source\PSoC4/CyLFClk.c ****         {
1444:Generated_Source\PSoC4/CyLFClk.c ****             /* WDT Counter 0 */
1445:Generated_Source\PSoC4/CyLFClk.c ****             case 0u:
1446:Generated_Source\PSoC4/CyLFClk.c ****                 regValue = CY_SYS_WDT_CTRLOW_REG & CY_SYS_WDT_LOWER_16BITS_MASK;
1447:Generated_Source\PSoC4/CyLFClk.c ****             break;
1448:Generated_Source\PSoC4/CyLFClk.c **** 
1449:Generated_Source\PSoC4/CyLFClk.c ****             /* WDT Counter 1 */
1450:Generated_Source\PSoC4/CyLFClk.c ****             case 1u:
1451:Generated_Source\PSoC4/CyLFClk.c ****                 regValue = (CY_SYS_WDT_CTRLOW_REG >> CY_SYS_WDT_CNT_MATCH_SHIFT) & CY_SYS_WDT_LOWER
1452:Generated_Source\PSoC4/CyLFClk.c ****             break;
1453:Generated_Source\PSoC4/CyLFClk.c **** 
1454:Generated_Source\PSoC4/CyLFClk.c ****             /* WDT Counter 2 */
1455:Generated_Source\PSoC4/CyLFClk.c ****             case 2u:
1456:Generated_Source\PSoC4/CyLFClk.c ****                 regValue = CY_SYS_WDT_CTRHIGH_REG;
1457:Generated_Source\PSoC4/CyLFClk.c ****             break;
1458:Generated_Source\PSoC4/CyLFClk.c **** 
1459:Generated_Source\PSoC4/CyLFClk.c ****             default:
1460:Generated_Source\PSoC4/CyLFClk.c ****                 CYASSERT(0u != 0u);
1461:Generated_Source\PSoC4/CyLFClk.c ****             break;
1462:Generated_Source\PSoC4/CyLFClk.c ****         }
1463:Generated_Source\PSoC4/CyLFClk.c **** 
1464:Generated_Source\PSoC4/CyLFClk.c ****         return (regValue);
1465:Generated_Source\PSoC4/CyLFClk.c ****     }
1466:Generated_Source\PSoC4/CyLFClk.c **** 
1467:Generated_Source\PSoC4/CyLFClk.c **** 
1468:Generated_Source\PSoC4/CyLFClk.c ****     /*******************************************************************************
1469:Generated_Source\PSoC4/CyLFClk.c ****     * Function Name: CySysWdtGetInterruptSource
1470:Generated_Source\PSoC4/CyLFClk.c ****     ****************************************************************************//**
1471:Generated_Source\PSoC4/CyLFClk.c ****     * \brief
1472:Generated_Source\PSoC4/CyLFClk.c ****     * Reads a mask containing all the WDT counters interrupts that are currently
1473:Generated_Source\PSoC4/CyLFClk.c ****     * set by the hardware, if a corresponding mode is selected.
1474:Generated_Source\PSoC4/CyLFClk.c ****     *
1475:Generated_Source\PSoC4/CyLFClk.c ****     * \return The mask of interrupts set
1476:Generated_Source\PSoC4/CyLFClk.c ****     * \return CY_SYS_WDT_COUNTER0_INT - Counter 0
1477:Generated_Source\PSoC4/CyLFClk.c ****     * \return CY_SYS_WDT_COUNTER1_INT - Counter 1
1478:Generated_Source\PSoC4/CyLFClk.c ****     * \return CY_SYS_WDT_COUNTER2_INT - Counter 2
1479:Generated_Source\PSoC4/CyLFClk.c ****     *
1480:Generated_Source\PSoC4/CyLFClk.c ****     *******************************************************************************/
1481:Generated_Source\PSoC4/CyLFClk.c ****     uint32 CySysWdtGetInterruptSource(void)
1482:Generated_Source\PSoC4/CyLFClk.c ****     {
1483:Generated_Source\PSoC4/CyLFClk.c ****         return (CY_SYS_WDT_CONTROL_REG & (CY_SYS_WDT_COUNTER0_INT | CY_SYS_WDT_COUNTER1_INT | CY_SY
ARM GAS  C:\Users\JamesN4\AppData\Local\Temp\ccOIY297.s 			page 64


1484:Generated_Source\PSoC4/CyLFClk.c ****     }
1485:Generated_Source\PSoC4/CyLFClk.c **** 
1486:Generated_Source\PSoC4/CyLFClk.c **** 
1487:Generated_Source\PSoC4/CyLFClk.c ****     /*******************************************************************************
1488:Generated_Source\PSoC4/CyLFClk.c ****     * Function Name: CySysWdtClearInterrupt
1489:Generated_Source\PSoC4/CyLFClk.c ****     ****************************************************************************//**
1490:Generated_Source\PSoC4/CyLFClk.c ****     * \brief
1491:Generated_Source\PSoC4/CyLFClk.c ****     * Clears all the WDT counter interrupts set in the mask.
1492:Generated_Source\PSoC4/CyLFClk.c ****     *
1493:Generated_Source\PSoC4/CyLFClk.c ****     * Calling this function also prevents from Reset when the counter mode is set 
1494:Generated_Source\PSoC4/CyLFClk.c ****     * to generate 3 interrupts and then the device resets.
1495:Generated_Source\PSoC4/CyLFClk.c ****     *
1496:Generated_Source\PSoC4/CyLFClk.c ****     * All the WDT interrupts are to be cleared by the firmware, otherwise
1497:Generated_Source\PSoC4/CyLFClk.c ****     * interrupts are generated continuously.
1498:Generated_Source\PSoC4/CyLFClk.c ****     *
1499:Generated_Source\PSoC4/CyLFClk.c ****     * \param counterMask
1500:Generated_Source\PSoC4/CyLFClk.c ****     * CY_SYS_WDT_COUNTER0_INT - Clears counter 0 interrupts <br>
1501:Generated_Source\PSoC4/CyLFClk.c ****     * CY_SYS_WDT_COUNTER1_INT - Clears counter 1 interrupts <br>
1502:Generated_Source\PSoC4/CyLFClk.c ****     * CY_SYS_WDT_COUNTER2_INT - Clears counter 2 interrupts
1503:Generated_Source\PSoC4/CyLFClk.c ****     *
1504:Generated_Source\PSoC4/CyLFClk.c ****     * \details
1505:Generated_Source\PSoC4/CyLFClk.c ****     * This function temporary removes the watchdog lock, if it was set, and
1506:Generated_Source\PSoC4/CyLFClk.c ****     * restores the lock state after cleaning the WDT interrupts that are set in
1507:Generated_Source\PSoC4/CyLFClk.c ****     * a mask.
1508:Generated_Source\PSoC4/CyLFClk.c ****     *
1509:Generated_Source\PSoC4/CyLFClk.c ****     *******************************************************************************/
1510:Generated_Source\PSoC4/CyLFClk.c ****     void CySysWdtClearInterrupt(uint32 counterMask)
1511:Generated_Source\PSoC4/CyLFClk.c ****     {
1512:Generated_Source\PSoC4/CyLFClk.c ****         uint8 interruptState;
1513:Generated_Source\PSoC4/CyLFClk.c ****         uint32 wdtLockState;
1514:Generated_Source\PSoC4/CyLFClk.c **** 
1515:Generated_Source\PSoC4/CyLFClk.c ****         interruptState = CyEnterCriticalSection();
1516:Generated_Source\PSoC4/CyLFClk.c **** 
1517:Generated_Source\PSoC4/CyLFClk.c ****         if (0u != CySysWdtLocked())
1518:Generated_Source\PSoC4/CyLFClk.c ****         {
1519:Generated_Source\PSoC4/CyLFClk.c ****             wdtLockState = 1u;
1520:Generated_Source\PSoC4/CyLFClk.c ****             CySysWdtUnlock();
1521:Generated_Source\PSoC4/CyLFClk.c ****         }
1522:Generated_Source\PSoC4/CyLFClk.c ****         else
1523:Generated_Source\PSoC4/CyLFClk.c ****         {
1524:Generated_Source\PSoC4/CyLFClk.c ****             wdtLockState = 0u;
1525:Generated_Source\PSoC4/CyLFClk.c ****         }
1526:Generated_Source\PSoC4/CyLFClk.c **** 
1527:Generated_Source\PSoC4/CyLFClk.c ****         /* Set new WDT control register value */
1528:Generated_Source\PSoC4/CyLFClk.c ****         counterMask &= (CY_SYS_WDT_COUNTER0_INT |
1529:Generated_Source\PSoC4/CyLFClk.c ****                         CY_SYS_WDT_COUNTER1_INT |
1530:Generated_Source\PSoC4/CyLFClk.c ****                         CY_SYS_WDT_COUNTER2_INT);
1531:Generated_Source\PSoC4/CyLFClk.c **** 
1532:Generated_Source\PSoC4/CyLFClk.c ****         CY_SYS_WDT_CONTROL_REG = counterMask | (CY_SYS_WDT_CONTROL_REG & ~(CY_SYS_WDT_COUNTER0_INT 
1533:Generated_Source\PSoC4/CyLFClk.c ****                                                                            CY_SYS_WDT_COUNTER1_INT 
1534:Generated_Source\PSoC4/CyLFClk.c ****                                                                            CY_SYS_WDT_COUNTER2_INT)
1535:Generated_Source\PSoC4/CyLFClk.c **** 
1536:Generated_Source\PSoC4/CyLFClk.c ****         /* Read the CY_SYS_WDT_CONTROL_REG to clear the interrupt request.
1537:Generated_Source\PSoC4/CyLFClk.c ****          * Cypress ID #207093, #206231
1538:Generated_Source\PSoC4/CyLFClk.c ****         */
1539:Generated_Source\PSoC4/CyLFClk.c ****         (void)CY_SYS_WDT_CONTROL_REG;
1540:Generated_Source\PSoC4/CyLFClk.c **** 
ARM GAS  C:\Users\JamesN4\AppData\Local\Temp\ccOIY297.s 			page 65


1541:Generated_Source\PSoC4/CyLFClk.c ****         if (1u == wdtLockState)
1542:Generated_Source\PSoC4/CyLFClk.c ****         {
1543:Generated_Source\PSoC4/CyLFClk.c ****             CySysWdtLock();
1544:Generated_Source\PSoC4/CyLFClk.c ****         }
1545:Generated_Source\PSoC4/CyLFClk.c **** 
1546:Generated_Source\PSoC4/CyLFClk.c ****         CyExitCriticalSection(interruptState);
1547:Generated_Source\PSoC4/CyLFClk.c ****     }
1548:Generated_Source\PSoC4/CyLFClk.c **** 
1549:Generated_Source\PSoC4/CyLFClk.c **** 
1550:Generated_Source\PSoC4/CyLFClk.c ****     /*******************************************************************************
1551:Generated_Source\PSoC4/CyLFClk.c ****     * Function Name: CySysWdtResetCounters
1552:Generated_Source\PSoC4/CyLFClk.c ****     ****************************************************************************//**
1553:Generated_Source\PSoC4/CyLFClk.c ****     * \brief
1554:Generated_Source\PSoC4/CyLFClk.c ****     * Resets all the WDT counters set in the mask.
1555:Generated_Source\PSoC4/CyLFClk.c ****     *
1556:Generated_Source\PSoC4/CyLFClk.c ****     * \param countersMask
1557:Generated_Source\PSoC4/CyLFClk.c ****     * CY_SYS_WDT_COUNTER0_RESET - Reset counter 0 <br>
1558:Generated_Source\PSoC4/CyLFClk.c ****     * CY_SYS_WDT_COUNTER1_RESET - Reset counter 1 <br>
1559:Generated_Source\PSoC4/CyLFClk.c ****     * CY_SYS_WDT_COUNTER2_RESET - Reset counter 2
1560:Generated_Source\PSoC4/CyLFClk.c ****     *
1561:Generated_Source\PSoC4/CyLFClk.c ****     * \details
1562:Generated_Source\PSoC4/CyLFClk.c ****     * This function does not reset counter values if the Watchdog is locked.
1563:Generated_Source\PSoC4/CyLFClk.c ****     * This function waits while corresponding counters will be reset. This may
1564:Generated_Source\PSoC4/CyLFClk.c ****     * take up to 3 LFCLK cycles.
1565:Generated_Source\PSoC4/CyLFClk.c ****     * The LFCLK source must be enabled. Otherwise, the function will never exit.
1566:Generated_Source\PSoC4/CyLFClk.c ****     *
1567:Generated_Source\PSoC4/CyLFClk.c ****     *******************************************************************************/
1568:Generated_Source\PSoC4/CyLFClk.c ****     void CySysWdtResetCounters(uint32 countersMask)
1569:Generated_Source\PSoC4/CyLFClk.c ****     {
1570:Generated_Source\PSoC4/CyLFClk.c ****         /* Set new WDT reset value */
1571:Generated_Source\PSoC4/CyLFClk.c ****         CY_SYS_WDT_CONTROL_REG |= (countersMask & CY_SYS_WDT_COUNTERS_RESET);
1572:Generated_Source\PSoC4/CyLFClk.c **** 
1573:Generated_Source\PSoC4/CyLFClk.c ****         while (0uL != (CY_SYS_WDT_CONTROL_REG & CY_SYS_WDT_COUNTERS_RESET))
1574:Generated_Source\PSoC4/CyLFClk.c ****         {
1575:Generated_Source\PSoC4/CyLFClk.c ****             /* Wait for reset to come into effect */
1576:Generated_Source\PSoC4/CyLFClk.c ****         }
1577:Generated_Source\PSoC4/CyLFClk.c ****     }
1578:Generated_Source\PSoC4/CyLFClk.c **** 
1579:Generated_Source\PSoC4/CyLFClk.c **** 
1580:Generated_Source\PSoC4/CyLFClk.c ****     /*******************************************************************************
1581:Generated_Source\PSoC4/CyLFClk.c ****     * Function Name: CySysWdtSetInterruptCallback
1582:Generated_Source\PSoC4/CyLFClk.c ****     ****************************************************************************//**
1583:Generated_Source\PSoC4/CyLFClk.c ****     * \brief
1584:Generated_Source\PSoC4/CyLFClk.c ****     * Sets the ISR callback function for the particular WDT counter.
1585:Generated_Source\PSoC4/CyLFClk.c ****     * These functions are called on the WDT interrupt.
1586:Generated_Source\PSoC4/CyLFClk.c ****     *
1587:Generated_Source\PSoC4/CyLFClk.c ****     * \param counterNum The number of the WDT counter.
1588:Generated_Source\PSoC4/CyLFClk.c ****     * \param function The pointer to the callback function.
1589:Generated_Source\PSoC4/CyLFClk.c ****     *
1590:Generated_Source\PSoC4/CyLFClk.c ****     * \return The pointer to the previous callback function.
1591:Generated_Source\PSoC4/CyLFClk.c ****     * \return NULL is returned if the specified address is not set.
1592:Generated_Source\PSoC4/CyLFClk.c ****     *
1593:Generated_Source\PSoC4/CyLFClk.c ****     *******************************************************************************/
1594:Generated_Source\PSoC4/CyLFClk.c ****     cyWdtCallback CySysWdtSetInterruptCallback(uint32 counterNum, cyWdtCallback function)
1595:Generated_Source\PSoC4/CyLFClk.c ****     {
1596:Generated_Source\PSoC4/CyLFClk.c ****         cyWdtCallback prevCallback = (void *)0;
1597:Generated_Source\PSoC4/CyLFClk.c **** 
ARM GAS  C:\Users\JamesN4\AppData\Local\Temp\ccOIY297.s 			page 66


1598:Generated_Source\PSoC4/CyLFClk.c ****         if(counterNum < CY_WDT_NUM_OF_WDT)
1599:Generated_Source\PSoC4/CyLFClk.c ****         {
1600:Generated_Source\PSoC4/CyLFClk.c ****             prevCallback = cySysWdtCallback[counterNum];
1601:Generated_Source\PSoC4/CyLFClk.c ****             cySysWdtCallback[counterNum] = function;
1602:Generated_Source\PSoC4/CyLFClk.c ****         }
1603:Generated_Source\PSoC4/CyLFClk.c ****         else
1604:Generated_Source\PSoC4/CyLFClk.c ****         {
1605:Generated_Source\PSoC4/CyLFClk.c ****             CYASSERT(0u != 0u);
1606:Generated_Source\PSoC4/CyLFClk.c ****         }
1607:Generated_Source\PSoC4/CyLFClk.c **** 
1608:Generated_Source\PSoC4/CyLFClk.c ****         return((cyWdtCallback)prevCallback);
1609:Generated_Source\PSoC4/CyLFClk.c ****     }
1610:Generated_Source\PSoC4/CyLFClk.c **** 
1611:Generated_Source\PSoC4/CyLFClk.c **** 
1612:Generated_Source\PSoC4/CyLFClk.c ****     /*******************************************************************************
1613:Generated_Source\PSoC4/CyLFClk.c ****     * Function Name: CySysWdtGetInterruptCallback
1614:Generated_Source\PSoC4/CyLFClk.c ****     ****************************************************************************//**
1615:Generated_Source\PSoC4/CyLFClk.c ****     * \brief
1616:Generated_Source\PSoC4/CyLFClk.c ****     * Gets the ISR callback function for the particular WDT counter.
1617:Generated_Source\PSoC4/CyLFClk.c ****     *
1618:Generated_Source\PSoC4/CyLFClk.c ****     * \param counterNum The number of the WDT counter.
1619:Generated_Source\PSoC4/CyLFClk.c ****     *
1620:Generated_Source\PSoC4/CyLFClk.c ****     * \return The pointer to the callback function registered for a particular WDT by
1621:Generated_Source\PSoC4/CyLFClk.c ****     * a particular address that are passed through arguments.
1622:Generated_Source\PSoC4/CyLFClk.c ****     *
1623:Generated_Source\PSoC4/CyLFClk.c ****     *******************************************************************************/
1624:Generated_Source\PSoC4/CyLFClk.c ****     cyWdtCallback CySysWdtGetInterruptCallback(uint32 counterNum)
1625:Generated_Source\PSoC4/CyLFClk.c ****     {
1626:Generated_Source\PSoC4/CyLFClk.c ****         cyWdtCallback retCallback = (void *)0;
1627:Generated_Source\PSoC4/CyLFClk.c **** 
1628:Generated_Source\PSoC4/CyLFClk.c ****         if(counterNum < CY_WDT_NUM_OF_WDT)
1629:Generated_Source\PSoC4/CyLFClk.c ****         {
1630:Generated_Source\PSoC4/CyLFClk.c ****             retCallback = (cyWdtCallback)cySysWdtCallback[counterNum];
1631:Generated_Source\PSoC4/CyLFClk.c ****         }
1632:Generated_Source\PSoC4/CyLFClk.c ****         else
1633:Generated_Source\PSoC4/CyLFClk.c ****         {
1634:Generated_Source\PSoC4/CyLFClk.c ****             CYASSERT(0u != 0u);
1635:Generated_Source\PSoC4/CyLFClk.c ****         }
1636:Generated_Source\PSoC4/CyLFClk.c **** 
1637:Generated_Source\PSoC4/CyLFClk.c ****         return(retCallback);
1638:Generated_Source\PSoC4/CyLFClk.c ****     }
1639:Generated_Source\PSoC4/CyLFClk.c **** 
1640:Generated_Source\PSoC4/CyLFClk.c **** 
1641:Generated_Source\PSoC4/CyLFClk.c ****     /*******************************************************************************
1642:Generated_Source\PSoC4/CyLFClk.c ****     * Function Name: CySysWdtEnableCounterIsr
1643:Generated_Source\PSoC4/CyLFClk.c ****     ****************************************************************************//**
1644:Generated_Source\PSoC4/CyLFClk.c ****     * \brief
1645:Generated_Source\PSoC4/CyLFClk.c ****     * Enables the ISR callback servicing for the particular WDT counter
1646:Generated_Source\PSoC4/CyLFClk.c ****     *
1647:Generated_Source\PSoC4/CyLFClk.c ****     * \param counterNum Valid range [0-2]. The number of the WDT counter.
1648:Generated_Source\PSoC4/CyLFClk.c ****     *
1649:Generated_Source\PSoC4/CyLFClk.c ****     * Value corresponds to appropriate WDT counter. For example value 1 
1650:Generated_Source\PSoC4/CyLFClk.c ****     * corresponds to second WDT counter.
1651:Generated_Source\PSoC4/CyLFClk.c ****     *
1652:Generated_Source\PSoC4/CyLFClk.c ****     *******************************************************************************/
1653:Generated_Source\PSoC4/CyLFClk.c ****     void CySysWdtEnableCounterIsr(uint32 counterNum)
1654:Generated_Source\PSoC4/CyLFClk.c ****     {
ARM GAS  C:\Users\JamesN4\AppData\Local\Temp\ccOIY297.s 			page 67


1655:Generated_Source\PSoC4/CyLFClk.c ****         if(counterNum <= CY_SYS_WDT_COUNTER2)
1656:Generated_Source\PSoC4/CyLFClk.c ****         {
1657:Generated_Source\PSoC4/CyLFClk.c ****             disableServicedIsr &= ~counterIntMaskTbl[counterNum];
1658:Generated_Source\PSoC4/CyLFClk.c ****             wdtIsrMask |= counterIntMaskTbl[counterNum];
1659:Generated_Source\PSoC4/CyLFClk.c ****         }
1660:Generated_Source\PSoC4/CyLFClk.c ****         else
1661:Generated_Source\PSoC4/CyLFClk.c ****         {
1662:Generated_Source\PSoC4/CyLFClk.c ****             CYASSERT(0u != 0u);
1663:Generated_Source\PSoC4/CyLFClk.c ****         }
1664:Generated_Source\PSoC4/CyLFClk.c ****     }
1665:Generated_Source\PSoC4/CyLFClk.c **** 
1666:Generated_Source\PSoC4/CyLFClk.c **** 
1667:Generated_Source\PSoC4/CyLFClk.c ****     /*******************************************************************************
1668:Generated_Source\PSoC4/CyLFClk.c ****     * Function Name: CySysWdtDisableCounterIsr
1669:Generated_Source\PSoC4/CyLFClk.c ****     ****************************************************************************//**
1670:Generated_Source\PSoC4/CyLFClk.c ****     * \brief
1671:Generated_Source\PSoC4/CyLFClk.c ****     * Disables the ISR callback servicing for the particular WDT counter
1672:Generated_Source\PSoC4/CyLFClk.c ****     *
1673:Generated_Source\PSoC4/CyLFClk.c ****     * \param counterNum Valid range [0-2]. The number of the WDT counter.
1674:Generated_Source\PSoC4/CyLFClk.c ****     *
1675:Generated_Source\PSoC4/CyLFClk.c ****     *******************************************************************************/
1676:Generated_Source\PSoC4/CyLFClk.c ****     void CySysWdtDisableCounterIsr(uint32 counterNum)
1677:Generated_Source\PSoC4/CyLFClk.c ****     {
1678:Generated_Source\PSoC4/CyLFClk.c ****         if(counterNum <= CY_SYS_WDT_COUNTER2)
1679:Generated_Source\PSoC4/CyLFClk.c ****         {
1680:Generated_Source\PSoC4/CyLFClk.c ****             wdtIsrMask &= ~counterIntMaskTbl[counterNum];
1681:Generated_Source\PSoC4/CyLFClk.c ****         }
1682:Generated_Source\PSoC4/CyLFClk.c ****         else
1683:Generated_Source\PSoC4/CyLFClk.c ****         {
1684:Generated_Source\PSoC4/CyLFClk.c ****             CYASSERT(0u != 0u);
1685:Generated_Source\PSoC4/CyLFClk.c ****         }
1686:Generated_Source\PSoC4/CyLFClk.c ****     }
1687:Generated_Source\PSoC4/CyLFClk.c **** 
1688:Generated_Source\PSoC4/CyLFClk.c **** 
1689:Generated_Source\PSoC4/CyLFClk.c ****     /*******************************************************************************
1690:Generated_Source\PSoC4/CyLFClk.c ****     * Function Name: CySysWdtIsr
1691:Generated_Source\PSoC4/CyLFClk.c ****     ****************************************************************************//**
1692:Generated_Source\PSoC4/CyLFClk.c ****     * \brief
1693:Generated_Source\PSoC4/CyLFClk.c ****     * This is the handler of the WDT interrupt in CPU NVIC.
1694:Generated_Source\PSoC4/CyLFClk.c ****     *
1695:Generated_Source\PSoC4/CyLFClk.c ****     * The handler checks which WDT triggered in the interrupt and calls the 
1696:Generated_Source\PSoC4/CyLFClk.c ****     * respective callback functions configured by the user by using 
1697:Generated_Source\PSoC4/CyLFClk.c ****     * CySysWdtSetIsrCallback() API.
1698:Generated_Source\PSoC4/CyLFClk.c ****     *
1699:Generated_Source\PSoC4/CyLFClk.c ****     * The order of the callback execution is incremental. Callback-0 is
1700:Generated_Source\PSoC4/CyLFClk.c ****     * run as the first one and callback-2 is called as the last one.
1701:Generated_Source\PSoC4/CyLFClk.c ****     *
1702:Generated_Source\PSoC4/CyLFClk.c ****     * \details
1703:Generated_Source\PSoC4/CyLFClk.c ****     * This function clears the WDT interrupt every time when it is called.
1704:Generated_Source\PSoC4/CyLFClk.c ****     * Reset after the 3rd interrupt does not happen if this function is registered
1705:Generated_Source\PSoC4/CyLFClk.c ****     * as the interrupt handler even if the "Watchdog with Interrupt" mode is
1706:Generated_Source\PSoC4/CyLFClk.c ****     * selected on the "Low Frequency Clocks" tab.
1707:Generated_Source\PSoC4/CyLFClk.c ****     *
1708:Generated_Source\PSoC4/CyLFClk.c ****     *******************************************************************************/
1709:Generated_Source\PSoC4/CyLFClk.c ****     void CySysWdtIsr(void)
1710:Generated_Source\PSoC4/CyLFClk.c ****     {
1711:Generated_Source\PSoC4/CyLFClk.c ****         if(0u != (CY_SYS_WDT_COUNTER0_INT & CY_SYS_WDT_CONTROL_REG))
ARM GAS  C:\Users\JamesN4\AppData\Local\Temp\ccOIY297.s 			page 68


1712:Generated_Source\PSoC4/CyLFClk.c ****         {
1713:Generated_Source\PSoC4/CyLFClk.c ****             if(0u != (CY_SYS_WDT_COUNTER0_INT & wdtIsrMask))
1714:Generated_Source\PSoC4/CyLFClk.c ****             {
1715:Generated_Source\PSoC4/CyLFClk.c ****                 wdtIsrMask &= ~(disableServicedIsr & CY_SYS_WDT_COUNTER0_INT);
1716:Generated_Source\PSoC4/CyLFClk.c ****                 disableServicedIsr  &= ~CY_SYS_WDT_COUNTER0_INT;
1717:Generated_Source\PSoC4/CyLFClk.c ****                 if(cySysWdtCallback[CY_SYS_WDT_COUNTER0] != (void *) 0)
1718:Generated_Source\PSoC4/CyLFClk.c ****                 {
1719:Generated_Source\PSoC4/CyLFClk.c ****                     (void)(cySysWdtCallback[CY_SYS_WDT_COUNTER0])();
1720:Generated_Source\PSoC4/CyLFClk.c ****                 }
1721:Generated_Source\PSoC4/CyLFClk.c ****             }
1722:Generated_Source\PSoC4/CyLFClk.c ****             CySysWdtClearInterrupt(CY_SYS_WDT_COUNTER0_INT);
1723:Generated_Source\PSoC4/CyLFClk.c ****         }
1724:Generated_Source\PSoC4/CyLFClk.c **** 
1725:Generated_Source\PSoC4/CyLFClk.c ****         if(0u != (CY_SYS_WDT_COUNTER1_INT & CY_SYS_WDT_CONTROL_REG))
1726:Generated_Source\PSoC4/CyLFClk.c ****         {
1727:Generated_Source\PSoC4/CyLFClk.c ****             if(0u != (CY_SYS_WDT_COUNTER1_INT & wdtIsrMask))
1728:Generated_Source\PSoC4/CyLFClk.c ****             {
1729:Generated_Source\PSoC4/CyLFClk.c ****                 wdtIsrMask &= ~(disableServicedIsr & CY_SYS_WDT_COUNTER1_INT);
1730:Generated_Source\PSoC4/CyLFClk.c ****                 disableServicedIsr  &= ~CY_SYS_WDT_COUNTER1_INT;
1731:Generated_Source\PSoC4/CyLFClk.c ****                 if(cySysWdtCallback[CY_SYS_WDT_COUNTER1] != (void *) 0)
1732:Generated_Source\PSoC4/CyLFClk.c ****                 {
1733:Generated_Source\PSoC4/CyLFClk.c ****                     (void)(cySysWdtCallback[CY_SYS_WDT_COUNTER1])();
1734:Generated_Source\PSoC4/CyLFClk.c ****                 }
1735:Generated_Source\PSoC4/CyLFClk.c ****             }
1736:Generated_Source\PSoC4/CyLFClk.c ****             CySysWdtClearInterrupt(CY_SYS_WDT_COUNTER1_INT);
1737:Generated_Source\PSoC4/CyLFClk.c ****         }
1738:Generated_Source\PSoC4/CyLFClk.c **** 
1739:Generated_Source\PSoC4/CyLFClk.c ****         if(0u != (CY_SYS_WDT_COUNTER2_INT & CY_SYS_WDT_CONTROL_REG))
1740:Generated_Source\PSoC4/CyLFClk.c ****         {
1741:Generated_Source\PSoC4/CyLFClk.c ****             if(0u != (CY_SYS_WDT_COUNTER2_INT & wdtIsrMask))
1742:Generated_Source\PSoC4/CyLFClk.c ****             {
1743:Generated_Source\PSoC4/CyLFClk.c ****                 if(cySysWdtCallback[CY_SYS_WDT_COUNTER2] != (void *) 0)
1744:Generated_Source\PSoC4/CyLFClk.c ****                 {
1745:Generated_Source\PSoC4/CyLFClk.c ****                     (void)(cySysWdtCallback[CY_SYS_WDT_COUNTER2])();
1746:Generated_Source\PSoC4/CyLFClk.c ****                 }
1747:Generated_Source\PSoC4/CyLFClk.c ****             }
1748:Generated_Source\PSoC4/CyLFClk.c ****             CySysWdtClearInterrupt(CY_SYS_WDT_COUNTER2_INT);
1749:Generated_Source\PSoC4/CyLFClk.c ****         }
1750:Generated_Source\PSoC4/CyLFClk.c ****     }
1751:Generated_Source\PSoC4/CyLFClk.c **** 
1752:Generated_Source\PSoC4/CyLFClk.c **** 
1753:Generated_Source\PSoC4/CyLFClk.c ****     /*******************************************************************************
1754:Generated_Source\PSoC4/CyLFClk.c ****     * Function Name: CySysWatchdogFeed
1755:Generated_Source\PSoC4/CyLFClk.c ****     ****************************************************************************//**
1756:Generated_Source\PSoC4/CyLFClk.c ****     * \brief
1757:Generated_Source\PSoC4/CyLFClk.c ****     * Feeds the corresponded Watchdog Counter before it causes the device reset.
1758:Generated_Source\PSoC4/CyLFClk.c ****     *
1759:Generated_Source\PSoC4/CyLFClk.c ****     * Supported only for first WDT0 and second WDT1 counters in the "Watchdog" or 
1760:Generated_Source\PSoC4/CyLFClk.c ****     * "Watchdog w/ Interrupts" modes.
1761:Generated_Source\PSoC4/CyLFClk.c ****     *
1762:Generated_Source\PSoC4/CyLFClk.c ****     * \param counterNum
1763:Generated_Source\PSoC4/CyLFClk.c ****     * CY_SYS_WDT_COUNTER0 - Feeds the Counter 0 <br>
1764:Generated_Source\PSoC4/CyLFClk.c ****     * CY_SYS_WDT_COUNTER1 - Feeds the Counter 1
1765:Generated_Source\PSoC4/CyLFClk.c ****     *
1766:Generated_Source\PSoC4/CyLFClk.c ****     * Value of counterNum corresponds to appropriate counter. For example value 1 
1767:Generated_Source\PSoC4/CyLFClk.c ****     * corresponds to second WDT1 Counter.
1768:Generated_Source\PSoC4/CyLFClk.c ****     *
ARM GAS  C:\Users\JamesN4\AppData\Local\Temp\ccOIY297.s 			page 69


1769:Generated_Source\PSoC4/CyLFClk.c ****     * \details
1770:Generated_Source\PSoC4/CyLFClk.c ****     * Clears the WDT counter in the "Watchdog" mode or clears the WDT interrupt in
1771:Generated_Source\PSoC4/CyLFClk.c ****     * "Watchdog w/ Interrupts" mode. Does nothing in other modes.
1772:Generated_Source\PSoC4/CyLFClk.c ****     *
1773:Generated_Source\PSoC4/CyLFClk.c ****     *******************************************************************************/
1774:Generated_Source\PSoC4/CyLFClk.c ****     void CySysWatchdogFeed(uint32 counterNum)
1775:Generated_Source\PSoC4/CyLFClk.c ****     {
1776:Generated_Source\PSoC4/CyLFClk.c ****         if(counterNum == CY_SYS_WDT_COUNTER0)
1777:Generated_Source\PSoC4/CyLFClk.c ****         {
1778:Generated_Source\PSoC4/CyLFClk.c ****             if(CY_SYS_WDT_MODE_INT_RESET == CySysWdtGetMode(counterNum))
1779:Generated_Source\PSoC4/CyLFClk.c ****             {
1780:Generated_Source\PSoC4/CyLFClk.c ****                 CySysWdtClearInterrupt(CY_SYS_WDT_COUNTER0_INT);
1781:Generated_Source\PSoC4/CyLFClk.c ****             }
1782:Generated_Source\PSoC4/CyLFClk.c ****             else if(CY_SYS_WDT_MODE_RESET == CySysWdtGetMode(counterNum))
1783:Generated_Source\PSoC4/CyLFClk.c ****             {
1784:Generated_Source\PSoC4/CyLFClk.c ****                 CySysWdtResetCounters(CY_SYS_WDT_COUNTER0_RESET);
1785:Generated_Source\PSoC4/CyLFClk.c ****                 CySysWdtClearInterrupt(CY_SYS_WDT_COUNTER0_INT);
1786:Generated_Source\PSoC4/CyLFClk.c ****             }
1787:Generated_Source\PSoC4/CyLFClk.c ****             else
1788:Generated_Source\PSoC4/CyLFClk.c ****             {
1789:Generated_Source\PSoC4/CyLFClk.c ****                 /* Do nothing. */
1790:Generated_Source\PSoC4/CyLFClk.c ****             }
1791:Generated_Source\PSoC4/CyLFClk.c ****         }
1792:Generated_Source\PSoC4/CyLFClk.c ****         else if(counterNum == CY_SYS_WDT_COUNTER1)
1793:Generated_Source\PSoC4/CyLFClk.c ****         {
1794:Generated_Source\PSoC4/CyLFClk.c ****             if(CY_SYS_WDT_MODE_INT_RESET == CySysWdtGetMode(counterNum))
1795:Generated_Source\PSoC4/CyLFClk.c ****             {
1796:Generated_Source\PSoC4/CyLFClk.c ****                 CySysWdtClearInterrupt(CY_SYS_WDT_COUNTER1_INT);
1797:Generated_Source\PSoC4/CyLFClk.c ****             }
1798:Generated_Source\PSoC4/CyLFClk.c ****             else if(CY_SYS_WDT_MODE_RESET == CySysWdtGetMode(counterNum))
1799:Generated_Source\PSoC4/CyLFClk.c ****             {
1800:Generated_Source\PSoC4/CyLFClk.c ****                 CySysWdtResetCounters(CY_SYS_WDT_COUNTER1_RESET);
1801:Generated_Source\PSoC4/CyLFClk.c ****                 CySysWdtClearInterrupt(CY_SYS_WDT_COUNTER1_INT);
1802:Generated_Source\PSoC4/CyLFClk.c ****             }
1803:Generated_Source\PSoC4/CyLFClk.c ****             else
1804:Generated_Source\PSoC4/CyLFClk.c ****             {
1805:Generated_Source\PSoC4/CyLFClk.c ****                 /* Do nothing. */
1806:Generated_Source\PSoC4/CyLFClk.c ****             }
1807:Generated_Source\PSoC4/CyLFClk.c ****         }
1808:Generated_Source\PSoC4/CyLFClk.c ****         else
1809:Generated_Source\PSoC4/CyLFClk.c ****         {
1810:Generated_Source\PSoC4/CyLFClk.c ****             /* Do nothing. */
1811:Generated_Source\PSoC4/CyLFClk.c ****         }
1812:Generated_Source\PSoC4/CyLFClk.c ****     }
1813:Generated_Source\PSoC4/CyLFClk.c **** 
1814:Generated_Source\PSoC4/CyLFClk.c **** 
1815:Generated_Source\PSoC4/CyLFClk.c ****     /*******************************************************************************
1816:Generated_Source\PSoC4/CyLFClk.c ****     * Function Name: CySysClkLfclkPosedgeCatch
1817:Generated_Source\PSoC4/CyLFClk.c ****     ****************************************************************************//**
1818:Generated_Source\PSoC4/CyLFClk.c ****     * \internal
1819:Generated_Source\PSoC4/CyLFClk.c ****     * Returns once the LFCLK positive edge occurred.
1820:Generated_Source\PSoC4/CyLFClk.c ****     *
1821:Generated_Source\PSoC4/CyLFClk.c ****     * CySysClkLfclkPosedgeRestore() should be called after this function
1822:Generated_Source\PSoC4/CyLFClk.c ****     * to restore the WDT configuration.
1823:Generated_Source\PSoC4/CyLFClk.c ****     *
1824:Generated_Source\PSoC4/CyLFClk.c ****     * A pair of the CySysClkLfclkPosedgeCatch() and CySysClkLfclkPosedgeRestore()
1825:Generated_Source\PSoC4/CyLFClk.c ****     * functions is expected to be called inside a critical section.
ARM GAS  C:\Users\JamesN4\AppData\Local\Temp\ccOIY297.s 			page 70


1826:Generated_Source\PSoC4/CyLFClk.c ****     *
1827:Generated_Source\PSoC4/CyLFClk.c ****     * To ensure that the WDT counter value is read until it changes, the enabled
1828:Generated_Source\PSoC4/CyLFClk.c ****     * WDT counter is used. If no counter is enabled, counter 0 is enabled.
1829:Generated_Source\PSoC4/CyLFClk.c ****     * And after the LFCLK source is switched, the counter 0 configuration
1830:Generated_Source\PSoC4/CyLFClk.c ****     * is restored.
1831:Generated_Source\PSoC4/CyLFClk.c ****     *
1832:Generated_Source\PSoC4/CyLFClk.c ****     * Not applicable for the PSoC 4000 / PSoC 4000S / PSoC 4100S / PSoC Analog 
1833:Generated_Source\PSoC4/CyLFClk.c ****     * Coprocessor devices.
1834:Generated_Source\PSoC4/CyLFClk.c ****     *
1835:Generated_Source\PSoC4/CyLFClk.c ****     * \details
1836:Generated_Source\PSoC4/CyLFClk.c ****     * This function has no effect if WDT is locked (CySysWdtLock() is
1837:Generated_Source\PSoC4/CyLFClk.c ****     * called). Call CySysWdtUnlock() to unlock WDT.
1838:Generated_Source\PSoC4/CyLFClk.c ****     * \endinternal
1839:Generated_Source\PSoC4/CyLFClk.c ****     *******************************************************************************/
1840:Generated_Source\PSoC4/CyLFClk.c ****     static void CySysClkLfclkPosedgeCatch(void)
1841:Generated_Source\PSoC4/CyLFClk.c ****     {
1842:Generated_Source\PSoC4/CyLFClk.c ****         uint32 firstCount;
1843:Generated_Source\PSoC4/CyLFClk.c ****         static uint32 lfclkPosedgeEnabledWdtCounter = 0u;
1844:Generated_Source\PSoC4/CyLFClk.c **** 
1845:Generated_Source\PSoC4/CyLFClk.c ****         if (0u != CySysWdtGetEnabledStatus(CY_SYS_WDT_COUNTER0))
1846:Generated_Source\PSoC4/CyLFClk.c ****         {
1847:Generated_Source\PSoC4/CyLFClk.c ****             lfclkPosedgeEnabledWdtCounter = CY_SYS_WDT_COUNTER0;
1848:Generated_Source\PSoC4/CyLFClk.c ****         }
1849:Generated_Source\PSoC4/CyLFClk.c ****         else if (0u != CySysWdtGetEnabledStatus(CY_SYS_WDT_COUNTER1))
1850:Generated_Source\PSoC4/CyLFClk.c ****         {
1851:Generated_Source\PSoC4/CyLFClk.c ****             lfclkPosedgeEnabledWdtCounter = CY_SYS_WDT_COUNTER1;
1852:Generated_Source\PSoC4/CyLFClk.c ****         }
1853:Generated_Source\PSoC4/CyLFClk.c ****         else if (0u != CySysWdtGetEnabledStatus(CY_SYS_WDT_COUNTER2))
1854:Generated_Source\PSoC4/CyLFClk.c ****         {
1855:Generated_Source\PSoC4/CyLFClk.c ****             lfclkPosedgeEnabledWdtCounter = CY_SYS_WDT_COUNTER2;
1856:Generated_Source\PSoC4/CyLFClk.c ****         }
1857:Generated_Source\PSoC4/CyLFClk.c ****         else /* All WDT counters are disabled */
1858:Generated_Source\PSoC4/CyLFClk.c ****         {
1859:Generated_Source\PSoC4/CyLFClk.c ****             /* Configure WDT counter # 0 */
1860:Generated_Source\PSoC4/CyLFClk.c ****             lfclkPosedgeWdtCounter0Enabled = 1u;
1861:Generated_Source\PSoC4/CyLFClk.c ****             lfclkPosedgeEnabledWdtCounter = CY_SYS_WDT_COUNTER0;
1862:Generated_Source\PSoC4/CyLFClk.c **** 
1863:Generated_Source\PSoC4/CyLFClk.c ****             lfclkPosedgeWdtCounter0Mode = CySysWdtGetMode(CY_SYS_WDT_COUNTER0);
1864:Generated_Source\PSoC4/CyLFClk.c ****             CySysWdtSetMode(CY_SYS_WDT_COUNTER0, CY_SYS_WDT_MODE_NONE);
1865:Generated_Source\PSoC4/CyLFClk.c ****             CySysWdtEnable(CY_SYS_WDT_COUNTER0_MASK);
1866:Generated_Source\PSoC4/CyLFClk.c ****         }
1867:Generated_Source\PSoC4/CyLFClk.c **** 
1868:Generated_Source\PSoC4/CyLFClk.c ****         firstCount = CySysWdtGetCount(lfclkPosedgeEnabledWdtCounter);
1869:Generated_Source\PSoC4/CyLFClk.c ****         while (CySysWdtGetCount(lfclkPosedgeEnabledWdtCounter) == firstCount)
1870:Generated_Source\PSoC4/CyLFClk.c ****         {
1871:Generated_Source\PSoC4/CyLFClk.c ****             /* Wait for counter to increment */
1872:Generated_Source\PSoC4/CyLFClk.c ****         }
1873:Generated_Source\PSoC4/CyLFClk.c ****     }
1874:Generated_Source\PSoC4/CyLFClk.c **** 
1875:Generated_Source\PSoC4/CyLFClk.c **** 
1876:Generated_Source\PSoC4/CyLFClk.c ****     /*******************************************************************************
1877:Generated_Source\PSoC4/CyLFClk.c ****     * Function Name: CySysClkLfclkPosedgeRestore
1878:Generated_Source\PSoC4/CyLFClk.c ****     ****************************************************************************//**
1879:Generated_Source\PSoC4/CyLFClk.c ****     * \internal
1880:Generated_Source\PSoC4/CyLFClk.c ****     *  Restores the WDT configuration after a CySysClkLfclkPosedgeCatch() call.
1881:Generated_Source\PSoC4/CyLFClk.c ****     *
1882:Generated_Source\PSoC4/CyLFClk.c ****     *  A pair of the CySysClkLfclkPosedgeCatch() and CySysClkLfclkPosedgeRestore()
ARM GAS  C:\Users\JamesN4\AppData\Local\Temp\ccOIY297.s 			page 71


1883:Generated_Source\PSoC4/CyLFClk.c ****     *  functions is expected to be called inside a critical section.
1884:Generated_Source\PSoC4/CyLFClk.c ****     *
1885:Generated_Source\PSoC4/CyLFClk.c ****     * Not applicable for the PSoC 4000/PSoC 4000S / PSoC 4100S / PSoC Analog 
1886:Generated_Source\PSoC4/CyLFClk.c ****     * Coprocessor devices.
1887:Generated_Source\PSoC4/CyLFClk.c ****     *
1888:Generated_Source\PSoC4/CyLFClk.c ****     * \details
1889:Generated_Source\PSoC4/CyLFClk.c ****     *  This function has no effect if WDT is locked (CySysWdtLock() is
1890:Generated_Source\PSoC4/CyLFClk.c ****     *  called). Call CySysWdtUnlock() to unlock WDT.
1891:Generated_Source\PSoC4/CyLFClk.c ****     *
1892:Generated_Source\PSoC4/CyLFClk.c ****     * \endinternal
1893:Generated_Source\PSoC4/CyLFClk.c ****     *******************************************************************************/
1894:Generated_Source\PSoC4/CyLFClk.c ****     static void CySysClkLfclkPosedgeRestore(void)
1895:Generated_Source\PSoC4/CyLFClk.c ****     {
 1298              		.loc 1 1895 0
 1299              		.cfi_startproc
 1300              		@ args = 0, pretend = 0, frame = 0
 1301              		@ frame_needed = 0, uses_anonymous_args = 0
 1302 0000 10B5     		push	{r4, lr}
 1303              		.cfi_def_cfa_offset 8
 1304              		.cfi_offset 4, -8
 1305              		.cfi_offset 14, -4
1896:Generated_Source\PSoC4/CyLFClk.c ****         if (lfclkPosedgeWdtCounter0Enabled != 0u)
 1306              		.loc 1 1896 0
 1307 0002 084B     		ldr	r3, .L108
 1308 0004 DB68     		ldr	r3, [r3, #12]
 1309 0006 002B     		cmp	r3, #0
 1310 0008 0BD0     		beq	.L106
1897:Generated_Source\PSoC4/CyLFClk.c ****         {
1898:Generated_Source\PSoC4/CyLFClk.c ****             /* Restore counter # 0 configuration and force its shutdown */
1899:Generated_Source\PSoC4/CyLFClk.c ****             CY_SYS_WDT_CONTROL_REG &= (uint32)(~CY_SYS_WDT_COUNTER0_MASK);
 1311              		.loc 1 1899 0
 1312 000a 074A     		ldr	r2, .L108+4
 1313 000c 1368     		ldr	r3, [r2]
 1314 000e 0121     		movs	r1, #1
 1315 0010 8B43     		bics	r3, r1
 1316 0012 1360     		str	r3, [r2]
1900:Generated_Source\PSoC4/CyLFClk.c ****             CySysWdtSetMode(CY_SYS_WDT_COUNTER0, lfclkPosedgeWdtCounter0Mode);
 1317              		.loc 1 1900 0
 1318 0014 034C     		ldr	r4, .L108
 1319 0016 2169     		ldr	r1, [r4, #16]
 1320 0018 0020     		movs	r0, #0
 1321 001a FFF7FEFF 		bl	CySysWdtSetMode
 1322              	.LVL122:
1901:Generated_Source\PSoC4/CyLFClk.c ****             lfclkPosedgeWdtCounter0Enabled = 0u;
 1323              		.loc 1 1901 0
 1324 001e 0023     		movs	r3, #0
 1325 0020 E360     		str	r3, [r4, #12]
 1326              	.L106:
1902:Generated_Source\PSoC4/CyLFClk.c ****         }
1903:Generated_Source\PSoC4/CyLFClk.c ****     }
 1327              		.loc 1 1903 0
 1328              		@ sp needed
 1329 0022 10BD     		pop	{r4, pc}
 1330              	.L109:
 1331              		.align	2
 1332              	.L108:
 1333 0024 00000000 		.word	.LANCHOR0
ARM GAS  C:\Users\JamesN4\AppData\Local\Temp\ccOIY297.s 			page 72


 1334 0028 10020B40 		.word	1074463248
 1335              		.cfi_endproc
 1336              	.LFE44:
 1337              		.size	CySysClkLfclkPosedgeRestore, .-CySysClkLfclkPosedgeRestore
 1338              		.section	.text.CySysWdtGetMode,"ax",%progbits
 1339              		.align	2
 1340              		.global	CySysWdtGetMode
 1341              		.code	16
 1342              		.thumb_func
 1343              		.type	CySysWdtGetMode, %function
 1344              	CySysWdtGetMode:
 1345              	.LFB22:
1076:Generated_Source\PSoC4/CyLFClk.c ****         return ((CY_SYS_WDT_CONFIG_REG >> (counterNum * CY_SYS_WDT_CNT_SHIFT)) & CY_SYS_WDT_MODE_MA
 1346              		.loc 1 1076 0
 1347              		.cfi_startproc
 1348              		@ args = 0, pretend = 0, frame = 0
 1349              		@ frame_needed = 0, uses_anonymous_args = 0
 1350              		@ link register save eliminated.
 1351              	.LVL123:
 1352 0000 0300     		movs	r3, r0
1077:Generated_Source\PSoC4/CyLFClk.c ****     }
 1353              		.loc 1 1077 0
 1354 0002 034A     		ldr	r2, .L111
 1355 0004 1068     		ldr	r0, [r2]
 1356              	.LVL124:
 1357 0006 DB00     		lsls	r3, r3, #3
 1358              	.LVL125:
 1359 0008 D840     		lsrs	r0, r0, r3
 1360 000a 0323     		movs	r3, #3
 1361 000c 1840     		ands	r0, r3
1078:Generated_Source\PSoC4/CyLFClk.c **** 
 1362              		.loc 1 1078 0
 1363              		@ sp needed
 1364 000e 7047     		bx	lr
 1365              	.L112:
 1366              		.align	2
 1367              	.L111:
 1368 0010 0C020B40 		.word	1074463244
 1369              		.cfi_endproc
 1370              	.LFE22:
 1371              		.size	CySysWdtGetMode, .-CySysWdtGetMode
 1372              		.section	.text.CySysWdtSetClearOnMatch,"ax",%progbits
 1373              		.align	2
 1374              		.global	CySysWdtSetClearOnMatch
 1375              		.code	16
 1376              		.thumb_func
 1377              		.type	CySysWdtSetClearOnMatch, %function
 1378              	CySysWdtSetClearOnMatch:
 1379              	.LFB23:
1105:Generated_Source\PSoC4/CyLFClk.c ****         uint32 configRegValue;
 1380              		.loc 1 1105 0
 1381              		.cfi_startproc
 1382              		@ args = 0, pretend = 0, frame = 0
 1383              		@ frame_needed = 0, uses_anonymous_args = 0
 1384              	.LVL126:
 1385 0000 70B5     		push	{r4, r5, r6, lr}
 1386              		.cfi_def_cfa_offset 16
ARM GAS  C:\Users\JamesN4\AppData\Local\Temp\ccOIY297.s 			page 73


 1387              		.cfi_offset 4, -16
 1388              		.cfi_offset 5, -12
 1389              		.cfi_offset 6, -8
 1390              		.cfi_offset 14, -4
 1391 0002 0400     		movs	r4, r0
 1392 0004 0D00     		movs	r5, r1
1108:Generated_Source\PSoC4/CyLFClk.c ****                  (counterNum == CY_SYS_WDT_COUNTER1));
 1393              		.loc 1 1108 0
 1394 0006 0128     		cmp	r0, #1
 1395 0008 02D9     		bls	.L114
1108:Generated_Source\PSoC4/CyLFClk.c ****                  (counterNum == CY_SYS_WDT_COUNTER1));
 1396              		.loc 1 1108 0 is_stmt 0 discriminator 1
 1397 000a 0020     		movs	r0, #0
 1398              	.LVL127:
 1399 000c FFF7FEFF 		bl	CyHalt
 1400              	.LVL128:
 1401              	.L114:
1111:Generated_Source\PSoC4/CyLFClk.c ****         {
 1402              		.loc 1 1111 0 is_stmt 1
 1403 0010 2000     		movs	r0, r4
 1404 0012 FFF7FEFF 		bl	CySysWdtGetEnabledStatus
 1405              	.LVL129:
 1406 0016 0028     		cmp	r0, #0
 1407 0018 09D1     		bne	.L113
1113:Generated_Source\PSoC4/CyLFClk.c ****                                      ((counterNum * CY_SYS_WDT_CNT_SHIFT) + CY_SYS_WDT_CNT_MATCH_CL
 1408              		.loc 1 1113 0
 1409 001a 0549     		ldr	r1, .L116
 1410 001c 0B68     		ldr	r3, [r1]
1114:Generated_Source\PSoC4/CyLFClk.c **** 
 1411              		.loc 1 1114 0
 1412 001e E400     		lsls	r4, r4, #3
 1413              	.LVL130:
 1414 0020 0234     		adds	r4, r4, #2
1113:Generated_Source\PSoC4/CyLFClk.c ****                                      ((counterNum * CY_SYS_WDT_CNT_SHIFT) + CY_SYS_WDT_CNT_MATCH_CL
 1415              		.loc 1 1113 0
 1416 0022 0122     		movs	r2, #1
 1417 0024 A240     		lsls	r2, r2, r4
 1418 0026 9343     		bics	r3, r2
 1419              	.LVL131:
1117:Generated_Source\PSoC4/CyLFClk.c **** 
 1420              		.loc 1 1117 0
 1421 0028 A540     		lsls	r5, r5, r4
 1422              	.LVL132:
 1423 002a 1D43     		orrs	r5, r3
 1424              	.LVL133:
1119:Generated_Source\PSoC4/CyLFClk.c ****         }
 1425              		.loc 1 1119 0
 1426 002c 0D60     		str	r5, [r1]
 1427              	.LVL134:
 1428              	.L113:
1121:Generated_Source\PSoC4/CyLFClk.c **** 
 1429              		.loc 1 1121 0
 1430              		@ sp needed
 1431 002e 70BD     		pop	{r4, r5, r6, pc}
 1432              	.L117:
 1433              		.align	2
 1434              	.L116:
ARM GAS  C:\Users\JamesN4\AppData\Local\Temp\ccOIY297.s 			page 74


 1435 0030 0C020B40 		.word	1074463244
 1436              		.cfi_endproc
 1437              	.LFE23:
 1438              		.size	CySysWdtSetClearOnMatch, .-CySysWdtSetClearOnMatch
 1439              		.section	.text.CySysWdtGetClearOnMatch,"ax",%progbits
 1440              		.align	2
 1441              		.global	CySysWdtGetClearOnMatch
 1442              		.code	16
 1443              		.thumb_func
 1444              		.type	CySysWdtGetClearOnMatch, %function
 1445              	CySysWdtGetClearOnMatch:
 1446              	.LFB24:
1138:Generated_Source\PSoC4/CyLFClk.c ****         CYASSERT((counterNum == CY_SYS_WDT_COUNTER0) ||
 1447              		.loc 1 1138 0
 1448              		.cfi_startproc
 1449              		@ args = 0, pretend = 0, frame = 0
 1450              		@ frame_needed = 0, uses_anonymous_args = 0
 1451              	.LVL135:
 1452 0000 10B5     		push	{r4, lr}
 1453              		.cfi_def_cfa_offset 8
 1454              		.cfi_offset 4, -8
 1455              		.cfi_offset 14, -4
 1456 0002 0400     		movs	r4, r0
1139:Generated_Source\PSoC4/CyLFClk.c ****                  (counterNum == CY_SYS_WDT_COUNTER1));
 1457              		.loc 1 1139 0
 1458 0004 0128     		cmp	r0, #1
 1459 0006 02D9     		bls	.L119
1139:Generated_Source\PSoC4/CyLFClk.c ****                  (counterNum == CY_SYS_WDT_COUNTER1));
 1460              		.loc 1 1139 0 is_stmt 0 discriminator 1
 1461 0008 0020     		movs	r0, #0
 1462              	.LVL136:
 1463 000a FFF7FEFF 		bl	CyHalt
 1464              	.LVL137:
 1465              	.L119:
1142:Generated_Source\PSoC4/CyLFClk.c ****                         ((counterNum * CY_SYS_WDT_CNT_SHIFT) + CY_SYS_WDT_CNT_MATCH_CLR_SHIFT)) & 0
 1466              		.loc 1 1142 0 is_stmt 1
 1467 000e 044B     		ldr	r3, .L120
 1468 0010 1868     		ldr	r0, [r3]
1143:Generated_Source\PSoC4/CyLFClk.c ****     }
 1469              		.loc 1 1143 0
 1470 0012 E400     		lsls	r4, r4, #3
 1471              	.LVL138:
 1472 0014 0234     		adds	r4, r4, #2
1142:Generated_Source\PSoC4/CyLFClk.c ****                         ((counterNum * CY_SYS_WDT_CNT_SHIFT) + CY_SYS_WDT_CNT_MATCH_CLR_SHIFT)) & 0
 1473              		.loc 1 1142 0
 1474 0016 E040     		lsrs	r0, r0, r4
 1475 0018 0123     		movs	r3, #1
 1476 001a 1840     		ands	r0, r3
1144:Generated_Source\PSoC4/CyLFClk.c **** 
 1477              		.loc 1 1144 0
 1478              		@ sp needed
 1479 001c 10BD     		pop	{r4, pc}
 1480              	.L121:
 1481 001e C046     		.align	2
 1482              	.L120:
 1483 0020 0C020B40 		.word	1074463244
 1484              		.cfi_endproc
ARM GAS  C:\Users\JamesN4\AppData\Local\Temp\ccOIY297.s 			page 75


 1485              	.LFE24:
 1486              		.size	CySysWdtGetClearOnMatch, .-CySysWdtGetClearOnMatch
 1487              		.section	.text.CySysWdtEnable,"ax",%progbits
 1488              		.align	2
 1489              		.global	CySysWdtEnable
 1490              		.code	16
 1491              		.thumb_func
 1492              		.type	CySysWdtEnable, %function
 1493              	CySysWdtEnable:
 1494              	.LFB25:
1179:Generated_Source\PSoC4/CyLFClk.c ****         #if (!CY_IP_WCO)
 1495              		.loc 1 1179 0
 1496              		.cfi_startproc
 1497              		@ args = 0, pretend = 0, frame = 0
 1498              		@ frame_needed = 0, uses_anonymous_args = 0
 1499              	.LVL139:
 1500 0000 10B5     		push	{r4, lr}
 1501              		.cfi_def_cfa_offset 8
 1502              		.cfi_offset 4, -8
 1503              		.cfi_offset 14, -4
 1504 0002 0400     		movs	r4, r0
1184:Generated_Source\PSoC4/CyLFClk.c **** 
 1505              		.loc 1 1184 0
 1506 0004 0C4A     		ldr	r2, .L129
 1507 0006 1368     		ldr	r3, [r2]
 1508 0008 0343     		orrs	r3, r0
 1509 000a 1360     		str	r3, [r2]
1186:Generated_Source\PSoC4/CyLFClk.c ****         {
 1510              		.loc 1 1186 0
 1511 000c C307     		lsls	r3, r0, #31
 1512 000e 04D5     		bpl	.L123
 1513              	.LVL140:
 1514              	.L124:
1188:Generated_Source\PSoC4/CyLFClk.c ****             {
 1515              		.loc 1 1188 0 discriminator 1
 1516 0010 0020     		movs	r0, #0
 1517 0012 FFF7FEFF 		bl	CySysWdtGetEnabledStatus
 1518              	.LVL141:
 1519 0016 0028     		cmp	r0, #0
 1520 0018 FAD0     		beq	.L124
 1521              	.L123:
1194:Generated_Source\PSoC4/CyLFClk.c ****         {
 1522              		.loc 1 1194 0
 1523 001a E305     		lsls	r3, r4, #23
 1524 001c 04D5     		bpl	.L125
 1525              	.L126:
1196:Generated_Source\PSoC4/CyLFClk.c ****             {
 1526              		.loc 1 1196 0 discriminator 1
 1527 001e 0120     		movs	r0, #1
 1528 0020 FFF7FEFF 		bl	CySysWdtGetEnabledStatus
 1529              	.LVL142:
 1530 0024 0028     		cmp	r0, #0
 1531 0026 FAD0     		beq	.L126
 1532              	.L125:
1202:Generated_Source\PSoC4/CyLFClk.c ****         {
 1533              		.loc 1 1202 0
 1534 0028 E303     		lsls	r3, r4, #15
ARM GAS  C:\Users\JamesN4\AppData\Local\Temp\ccOIY297.s 			page 76


 1535 002a 04D5     		bpl	.L122
 1536              	.L128:
1204:Generated_Source\PSoC4/CyLFClk.c ****             {
 1537              		.loc 1 1204 0 discriminator 1
 1538 002c 0220     		movs	r0, #2
 1539 002e FFF7FEFF 		bl	CySysWdtGetEnabledStatus
 1540              	.LVL143:
 1541 0032 0028     		cmp	r0, #0
 1542 0034 FAD0     		beq	.L128
 1543              	.L122:
1209:Generated_Source\PSoC4/CyLFClk.c **** 
 1544              		.loc 1 1209 0
 1545              		@ sp needed
 1546              	.LVL144:
 1547 0036 10BD     		pop	{r4, pc}
 1548              	.L130:
 1549              		.align	2
 1550              	.L129:
 1551 0038 10020B40 		.word	1074463248
 1552              		.cfi_endproc
 1553              	.LFE25:
 1554              		.size	CySysWdtEnable, .-CySysWdtEnable
 1555              		.section	.text.CySysWdtDisable,"ax",%progbits
 1556              		.align	2
 1557              		.global	CySysWdtDisable
 1558              		.code	16
 1559              		.thumb_func
 1560              		.type	CySysWdtDisable, %function
 1561              	CySysWdtDisable:
 1562              	.LFB26:
1227:Generated_Source\PSoC4/CyLFClk.c ****         if (0uL == CySysWdtLocked())
 1563              		.loc 1 1227 0
 1564              		.cfi_startproc
 1565              		@ args = 0, pretend = 0, frame = 0
 1566              		@ frame_needed = 0, uses_anonymous_args = 0
 1567              	.LVL145:
 1568 0000 10B5     		push	{r4, lr}
 1569              		.cfi_def_cfa_offset 8
 1570              		.cfi_offset 4, -8
 1571              		.cfi_offset 14, -4
 1572 0002 0400     		movs	r4, r0
1228:Generated_Source\PSoC4/CyLFClk.c ****         {
 1573              		.loc 1 1228 0
 1574 0004 FFF7FEFF 		bl	CySysWdtLocked
 1575              	.LVL146:
 1576 0008 0028     		cmp	r0, #0
 1577 000a 18D1     		bne	.L131
1230:Generated_Source\PSoC4/CyLFClk.c **** 
 1578              		.loc 1 1230 0
 1579 000c 0C4A     		ldr	r2, .L138
 1580 000e 1368     		ldr	r3, [r2]
 1581 0010 A343     		bics	r3, r4
 1582 0012 1360     		str	r3, [r2]
1232:Generated_Source\PSoC4/CyLFClk.c ****             {
 1583              		.loc 1 1232 0
 1584 0014 E307     		lsls	r3, r4, #31
 1585 0016 04D5     		bpl	.L133
ARM GAS  C:\Users\JamesN4\AppData\Local\Temp\ccOIY297.s 			page 77


 1586              	.L134:
1234:Generated_Source\PSoC4/CyLFClk.c ****                 {
 1587              		.loc 1 1234 0 discriminator 1
 1588 0018 0020     		movs	r0, #0
 1589 001a FFF7FEFF 		bl	CySysWdtGetEnabledStatus
 1590              	.LVL147:
 1591 001e 0028     		cmp	r0, #0
 1592 0020 FAD1     		bne	.L134
 1593              	.L133:
1240:Generated_Source\PSoC4/CyLFClk.c ****             {
 1594              		.loc 1 1240 0
 1595 0022 E305     		lsls	r3, r4, #23
 1596 0024 04D5     		bpl	.L135
 1597              	.L136:
1242:Generated_Source\PSoC4/CyLFClk.c ****                 {
 1598              		.loc 1 1242 0 discriminator 1
 1599 0026 0120     		movs	r0, #1
 1600 0028 FFF7FEFF 		bl	CySysWdtGetEnabledStatus
 1601              	.LVL148:
 1602 002c 0028     		cmp	r0, #0
 1603 002e FAD1     		bne	.L136
 1604              	.L135:
1248:Generated_Source\PSoC4/CyLFClk.c ****             {
 1605              		.loc 1 1248 0
 1606 0030 E303     		lsls	r3, r4, #15
 1607 0032 04D5     		bpl	.L131
 1608              	.L137:
1250:Generated_Source\PSoC4/CyLFClk.c ****                 {
 1609              		.loc 1 1250 0 discriminator 1
 1610 0034 0220     		movs	r0, #2
 1611 0036 FFF7FEFF 		bl	CySysWdtGetEnabledStatus
 1612              	.LVL149:
 1613 003a 0028     		cmp	r0, #0
 1614 003c FAD1     		bne	.L137
 1615              	.L131:
1256:Generated_Source\PSoC4/CyLFClk.c **** 
 1616              		.loc 1 1256 0
 1617              		@ sp needed
 1618              	.LVL150:
 1619 003e 10BD     		pop	{r4, pc}
 1620              	.L139:
 1621              		.align	2
 1622              	.L138:
 1623 0040 10020B40 		.word	1074463248
 1624              		.cfi_endproc
 1625              	.LFE26:
 1626              		.size	CySysWdtDisable, .-CySysWdtDisable
 1627              		.section	.text.CySysWdtSetCascade,"ax",%progbits
 1628              		.align	2
 1629              		.global	CySysWdtSetCascade
 1630              		.code	16
 1631              		.thumb_func
 1632              		.type	CySysWdtSetCascade, %function
 1633              	CySysWdtSetCascade:
 1634              	.LFB27:
1286:Generated_Source\PSoC4/CyLFClk.c ****         uint32 configRegValue;
 1635              		.loc 1 1286 0
ARM GAS  C:\Users\JamesN4\AppData\Local\Temp\ccOIY297.s 			page 78


 1636              		.cfi_startproc
 1637              		@ args = 0, pretend = 0, frame = 0
 1638              		@ frame_needed = 0, uses_anonymous_args = 0
 1639              	.LVL151:
 1640 0000 70B5     		push	{r4, r5, r6, lr}
 1641              		.cfi_def_cfa_offset 16
 1642              		.cfi_offset 4, -16
 1643              		.cfi_offset 5, -12
 1644              		.cfi_offset 6, -8
 1645              		.cfi_offset 14, -4
 1646 0002 0500     		movs	r5, r0
1290:Generated_Source\PSoC4/CyLFClk.c ****                             CySysWdtGetEnabledStatus(CY_SYS_WDT_COUNTER1) |
 1647              		.loc 1 1290 0
 1648 0004 0020     		movs	r0, #0
 1649              	.LVL152:
 1650 0006 FFF7FEFF 		bl	CySysWdtGetEnabledStatus
 1651              	.LVL153:
 1652 000a 0400     		movs	r4, r0
1291:Generated_Source\PSoC4/CyLFClk.c ****                             CySysWdtGetEnabledStatus(CY_SYS_WDT_COUNTER2);
 1653              		.loc 1 1291 0
 1654 000c 0120     		movs	r0, #1
 1655 000e FFF7FEFF 		bl	CySysWdtGetEnabledStatus
 1656              	.LVL154:
1290:Generated_Source\PSoC4/CyLFClk.c ****                             CySysWdtGetEnabledStatus(CY_SYS_WDT_COUNTER1) |
 1657              		.loc 1 1290 0
 1658 0012 0443     		orrs	r4, r0
1292:Generated_Source\PSoC4/CyLFClk.c **** 
 1659              		.loc 1 1292 0
 1660 0014 0220     		movs	r0, #2
 1661 0016 FFF7FEFF 		bl	CySysWdtGetEnabledStatus
 1662              	.LVL155:
1290:Generated_Source\PSoC4/CyLFClk.c ****                             CySysWdtGetEnabledStatus(CY_SYS_WDT_COUNTER1) |
 1663              		.loc 1 1290 0
 1664 001a 2043     		orrs	r0, r4
 1665              	.LVL156:
1294:Generated_Source\PSoC4/CyLFClk.c ****         {
 1666              		.loc 1 1294 0
 1667 001c 05D1     		bne	.L140
1296:Generated_Source\PSoC4/CyLFClk.c ****             configRegValue &= ((uint32)(~(CY_SYS_WDT_CASCADE_01|CY_SYS_WDT_CASCADE_12)));
 1668              		.loc 1 1296 0
 1669 001e 034A     		ldr	r2, .L142
 1670 0020 1168     		ldr	r1, [r2]
 1671              	.LVL157:
1297:Generated_Source\PSoC4/CyLFClk.c ****             configRegValue |= cascadeMask;
 1672              		.loc 1 1297 0
 1673 0022 034B     		ldr	r3, .L142+4
 1674 0024 0B40     		ands	r3, r1
 1675              	.LVL158:
1298:Generated_Source\PSoC4/CyLFClk.c ****             CY_SYS_WDT_CONFIG_REG = configRegValue;
 1676              		.loc 1 1298 0
 1677 0026 1D43     		orrs	r5, r3
 1678              	.LVL159:
1299:Generated_Source\PSoC4/CyLFClk.c ****         }
 1679              		.loc 1 1299 0
 1680 0028 1560     		str	r5, [r2]
 1681              	.LVL160:
 1682              	.L140:
ARM GAS  C:\Users\JamesN4\AppData\Local\Temp\ccOIY297.s 			page 79


1301:Generated_Source\PSoC4/CyLFClk.c **** 
 1683              		.loc 1 1301 0
 1684              		@ sp needed
 1685 002a 70BD     		pop	{r4, r5, r6, pc}
 1686              	.L143:
 1687              		.align	2
 1688              	.L142:
 1689 002c 0C020B40 		.word	1074463244
 1690 0030 F7F7FFFF 		.word	-2057
 1691              		.cfi_endproc
 1692              	.LFE27:
 1693              		.size	CySysWdtSetCascade, .-CySysWdtSetCascade
 1694              		.section	.text.CySysWdtGetCascade,"ax",%progbits
 1695              		.align	2
 1696              		.global	CySysWdtGetCascade
 1697              		.code	16
 1698              		.thumb_func
 1699              		.type	CySysWdtGetCascade, %function
 1700              	CySysWdtGetCascade:
 1701              	.LFB28:
1317:Generated_Source\PSoC4/CyLFClk.c ****         return (CY_SYS_WDT_CONFIG_REG & (CY_SYS_WDT_CASCADE_01 | CY_SYS_WDT_CASCADE_12));
 1702              		.loc 1 1317 0
 1703              		.cfi_startproc
 1704              		@ args = 0, pretend = 0, frame = 0
 1705              		@ frame_needed = 0, uses_anonymous_args = 0
 1706              		@ link register save eliminated.
1318:Generated_Source\PSoC4/CyLFClk.c ****     }
 1707              		.loc 1 1318 0
 1708 0000 024B     		ldr	r3, .L145
 1709 0002 1868     		ldr	r0, [r3]
 1710 0004 024B     		ldr	r3, .L145+4
 1711 0006 1840     		ands	r0, r3
1319:Generated_Source\PSoC4/CyLFClk.c **** 
 1712              		.loc 1 1319 0
 1713              		@ sp needed
 1714 0008 7047     		bx	lr
 1715              	.L146:
 1716 000a C046     		.align	2
 1717              	.L145:
 1718 000c 0C020B40 		.word	1074463244
 1719 0010 08080000 		.word	2056
 1720              		.cfi_endproc
 1721              	.LFE28:
 1722              		.size	CySysWdtGetCascade, .-CySysWdtGetCascade
 1723              		.section	.text.CySysWdtSetMatch,"ax",%progbits
 1724              		.align	2
 1725              		.global	CySysWdtSetMatch
 1726              		.code	16
 1727              		.thumb_func
 1728              		.type	CySysWdtSetMatch, %function
 1729              	CySysWdtSetMatch:
 1730              	.LFB29:
1337:Generated_Source\PSoC4/CyLFClk.c ****         uint32 regValue;
 1731              		.loc 1 1337 0
 1732              		.cfi_startproc
 1733              		@ args = 0, pretend = 0, frame = 0
 1734              		@ frame_needed = 0, uses_anonymous_args = 0
ARM GAS  C:\Users\JamesN4\AppData\Local\Temp\ccOIY297.s 			page 80


 1735              	.LVL161:
 1736 0000 70B5     		push	{r4, r5, r6, lr}
 1737              		.cfi_def_cfa_offset 16
 1738              		.cfi_offset 4, -16
 1739              		.cfi_offset 5, -12
 1740              		.cfi_offset 6, -8
 1741              		.cfi_offset 14, -4
 1742 0002 0500     		movs	r5, r0
 1743 0004 0C00     		movs	r4, r1
1340:Generated_Source\PSoC4/CyLFClk.c ****                  (counterNum == CY_SYS_WDT_COUNTER1));
 1744              		.loc 1 1340 0
 1745 0006 0128     		cmp	r0, #1
 1746 0008 02D9     		bls	.L148
1340:Generated_Source\PSoC4/CyLFClk.c ****                  (counterNum == CY_SYS_WDT_COUNTER1));
 1747              		.loc 1 1340 0 is_stmt 0 discriminator 1
 1748 000a 0020     		movs	r0, #0
 1749              	.LVL162:
 1750 000c FFF7FEFF 		bl	CyHalt
 1751              	.LVL163:
 1752              	.L148:
1344:Generated_Source\PSoC4/CyLFClk.c **** 
 1753              		.loc 1 1344 0 is_stmt 1
 1754 0010 0D4B     		ldr	r3, .L153
 1755 0012 1B68     		ldr	r3, [r3]
 1756 0014 9B0F     		lsrs	r3, r3, #30
 1757 0016 01D1     		bne	.L151
 1758 0018 C920     		movs	r0, #201
 1759 001a 00E0     		b	.L149
 1760              	.L151:
 1761 001c 5D20     		movs	r0, #93
 1762              	.L149:
1344:Generated_Source\PSoC4/CyLFClk.c **** 
 1763              		.loc 1 1344 0 is_stmt 0 discriminator 4
 1764 001e FFF7FEFF 		bl	CyDelayUs
 1765              	.LVL164:
1346:Generated_Source\PSoC4/CyLFClk.c ****         regValue &= (uint32)~((uint32)(CY_SYS_WDT_LOWER_16BITS_MASK << (counterNum * CY_SYS_WDT_CNT
 1766              		.loc 1 1346 0 is_stmt 1 discriminator 4
 1767 0022 0A49     		ldr	r1, .L153+4
 1768 0024 0B68     		ldr	r3, [r1]
 1769              	.LVL165:
1347:Generated_Source\PSoC4/CyLFClk.c ****         CY_SYS_WDT_MATCH_REG = (regValue | (match << (counterNum * CY_SYS_WDT_CNT_MATCH_SHIFT)));
 1770              		.loc 1 1347 0 discriminator 4
 1771 0026 2D01     		lsls	r5, r5, #4
 1772              	.LVL166:
 1773 0028 094A     		ldr	r2, .L153+8
 1774 002a AA40     		lsls	r2, r2, r5
 1775 002c 9343     		bics	r3, r2
 1776              	.LVL167:
1348:Generated_Source\PSoC4/CyLFClk.c **** 
 1777              		.loc 1 1348 0 discriminator 4
 1778 002e AC40     		lsls	r4, r4, r5
 1779              	.LVL168:
 1780 0030 1C43     		orrs	r4, r3
 1781 0032 0C60     		str	r4, [r1]
1351:Generated_Source\PSoC4/CyLFClk.c ****     }
 1782              		.loc 1 1351 0 discriminator 4
 1783 0034 044B     		ldr	r3, .L153
ARM GAS  C:\Users\JamesN4\AppData\Local\Temp\ccOIY297.s 			page 81


 1784              	.LVL169:
 1785 0036 1B68     		ldr	r3, [r3]
 1786 0038 9B0F     		lsrs	r3, r3, #30
 1787 003a 01D1     		bne	.L152
1351:Generated_Source\PSoC4/CyLFClk.c ****     }
 1788              		.loc 1 1351 0 is_stmt 0
 1789 003c 4320     		movs	r0, #67
 1790 003e 00E0     		b	.L150
 1791              	.L152:
 1792 0040 1F20     		movs	r0, #31
 1793              	.L150:
1351:Generated_Source\PSoC4/CyLFClk.c ****     }
 1794              		.loc 1 1351 0 discriminator 4
 1795 0042 FFF7FEFF 		bl	CyDelayUs
 1796              	.LVL170:
1352:Generated_Source\PSoC4/CyLFClk.c **** 
 1797              		.loc 1 1352 0 is_stmt 1 discriminator 4
 1798              		@ sp needed
 1799 0046 70BD     		pop	{r4, r5, r6, pc}
 1800              	.L154:
 1801              		.align	2
 1802              	.L153:
 1803 0048 0C020B40 		.word	1074463244
 1804 004c 08020B40 		.word	1074463240
 1805 0050 FFFF0000 		.word	65535
 1806              		.cfi_endproc
 1807              	.LFE29:
 1808              		.size	CySysWdtSetMatch, .-CySysWdtSetMatch
 1809              		.section	.text.CySysWdtSetToggleBit,"ax",%progbits
 1810              		.align	2
 1811              		.global	CySysWdtSetToggleBit
 1812              		.code	16
 1813              		.thumb_func
 1814              		.type	CySysWdtSetToggleBit, %function
 1815              	CySysWdtSetToggleBit:
 1816              	.LFB30:
1376:Generated_Source\PSoC4/CyLFClk.c ****         uint32 configRegValue;
 1817              		.loc 1 1376 0
 1818              		.cfi_startproc
 1819              		@ args = 0, pretend = 0, frame = 0
 1820              		@ frame_needed = 0, uses_anonymous_args = 0
 1821              	.LVL171:
 1822 0000 10B5     		push	{r4, lr}
 1823              		.cfi_def_cfa_offset 8
 1824              		.cfi_offset 4, -8
 1825              		.cfi_offset 14, -4
 1826 0002 0400     		movs	r4, r0
1379:Generated_Source\PSoC4/CyLFClk.c ****         {
 1827              		.loc 1 1379 0
 1828 0004 0220     		movs	r0, #2
 1829              	.LVL172:
 1830 0006 FFF7FEFF 		bl	CySysWdtGetEnabledStatus
 1831              	.LVL173:
 1832 000a 0028     		cmp	r0, #0
 1833 000c 0AD1     		bne	.L155
1381:Generated_Source\PSoC4/CyLFClk.c ****             configRegValue &= (uint32)(~((uint32)(CY_SYS_WDT_CONFIG_BITS2_MASK << CY_SYS_WDT_CONFIG
 1834              		.loc 1 1381 0
ARM GAS  C:\Users\JamesN4\AppData\Local\Temp\ccOIY297.s 			page 82


 1835 000e 0649     		ldr	r1, .L157
 1836 0010 0868     		ldr	r0, [r1]
 1837              	.LVL174:
1382:Generated_Source\PSoC4/CyLFClk.c ****             configRegValue |= ((bits & CY_SYS_WDT_CONFIG_BITS2_MASK) << CY_SYS_WDT_CONFIG_BITS2_POS
 1838              		.loc 1 1382 0
 1839 0012 064B     		ldr	r3, .L157+4
 1840 0014 0200     		movs	r2, r0
 1841 0016 1A40     		ands	r2, r3
 1842              	.LVL175:
1383:Generated_Source\PSoC4/CyLFClk.c ****             CY_SYS_WDT_CONFIG_REG = configRegValue;
 1843              		.loc 1 1383 0
 1844 0018 2006     		lsls	r0, r4, #24
 1845 001a F823     		movs	r3, #248
 1846 001c 5B05     		lsls	r3, r3, #21
 1847 001e 1840     		ands	r0, r3
 1848 0020 1043     		orrs	r0, r2
 1849              	.LVL176:
1384:Generated_Source\PSoC4/CyLFClk.c ****         }
 1850              		.loc 1 1384 0
 1851 0022 0860     		str	r0, [r1]
 1852              	.LVL177:
 1853              	.L155:
1386:Generated_Source\PSoC4/CyLFClk.c **** 
 1854              		.loc 1 1386 0
 1855              		@ sp needed
 1856              	.LVL178:
 1857 0024 10BD     		pop	{r4, pc}
 1858              	.L158:
 1859 0026 C046     		.align	2
 1860              	.L157:
 1861 0028 0C020B40 		.word	1074463244
 1862 002c FFFFFFE0 		.word	-520093697
 1863              		.cfi_endproc
 1864              	.LFE30:
 1865              		.size	CySysWdtSetToggleBit, .-CySysWdtSetToggleBit
 1866              		.section	.text.CySysWdtGetToggleBit,"ax",%progbits
 1867              		.align	2
 1868              		.global	CySysWdtGetToggleBit
 1869              		.code	16
 1870              		.thumb_func
 1871              		.type	CySysWdtGetToggleBit, %function
 1872              	CySysWdtGetToggleBit:
 1873              	.LFB31:
1399:Generated_Source\PSoC4/CyLFClk.c ****         return ((CY_SYS_WDT_CONFIG_REG >> CY_SYS_WDT_CONFIG_BITS2_POS) & CY_SYS_WDT_CONFIG_BITS2_MA
 1874              		.loc 1 1399 0
 1875              		.cfi_startproc
 1876              		@ args = 0, pretend = 0, frame = 0
 1877              		@ frame_needed = 0, uses_anonymous_args = 0
 1878              		@ link register save eliminated.
1400:Generated_Source\PSoC4/CyLFClk.c ****     }
 1879              		.loc 1 1400 0
 1880 0000 024B     		ldr	r3, .L160
 1881 0002 1868     		ldr	r0, [r3]
 1882 0004 000E     		lsrs	r0, r0, #24
 1883 0006 1F23     		movs	r3, #31
 1884 0008 1840     		ands	r0, r3
1401:Generated_Source\PSoC4/CyLFClk.c **** 
ARM GAS  C:\Users\JamesN4\AppData\Local\Temp\ccOIY297.s 			page 83


 1885              		.loc 1 1401 0
 1886              		@ sp needed
 1887 000a 7047     		bx	lr
 1888              	.L161:
 1889              		.align	2
 1890              	.L160:
 1891 000c 0C020B40 		.word	1074463244
 1892              		.cfi_endproc
 1893              	.LFE31:
 1894              		.size	CySysWdtGetToggleBit, .-CySysWdtGetToggleBit
 1895              		.section	.text.CySysWdtGetMatch,"ax",%progbits
 1896              		.align	2
 1897              		.global	CySysWdtGetMatch
 1898              		.code	16
 1899              		.thumb_func
 1900              		.type	CySysWdtGetMatch, %function
 1901              	CySysWdtGetMatch:
 1902              	.LFB32:
1417:Generated_Source\PSoC4/CyLFClk.c ****         CYASSERT((counterNum == CY_SYS_WDT_COUNTER0) ||
 1903              		.loc 1 1417 0
 1904              		.cfi_startproc
 1905              		@ args = 0, pretend = 0, frame = 0
 1906              		@ frame_needed = 0, uses_anonymous_args = 0
 1907              	.LVL179:
 1908 0000 10B5     		push	{r4, lr}
 1909              		.cfi_def_cfa_offset 8
 1910              		.cfi_offset 4, -8
 1911              		.cfi_offset 14, -4
 1912 0002 0400     		movs	r4, r0
1418:Generated_Source\PSoC4/CyLFClk.c ****                  (counterNum == CY_SYS_WDT_COUNTER1));
 1913              		.loc 1 1418 0
 1914 0004 0128     		cmp	r0, #1
 1915 0006 02D9     		bls	.L163
1418:Generated_Source\PSoC4/CyLFClk.c ****                  (counterNum == CY_SYS_WDT_COUNTER1));
 1916              		.loc 1 1418 0 is_stmt 0 discriminator 1
 1917 0008 0020     		movs	r0, #0
 1918              	.LVL180:
 1919 000a FFF7FEFF 		bl	CyHalt
 1920              	.LVL181:
 1921              	.L163:
1421:Generated_Source\PSoC4/CyLFClk.c ****                                             (counterNum * CY_SYS_WDT_CNT_MATCH_SHIFT)) & CY_SYS_WDT
 1922              		.loc 1 1421 0 is_stmt 1
 1923 000e 034B     		ldr	r3, .L164
 1924 0010 1868     		ldr	r0, [r3]
1422:Generated_Source\PSoC4/CyLFClk.c ****     }
 1925              		.loc 1 1422 0
 1926 0012 2401     		lsls	r4, r4, #4
 1927              	.LVL182:
1421:Generated_Source\PSoC4/CyLFClk.c ****                                             (counterNum * CY_SYS_WDT_CNT_MATCH_SHIFT)) & CY_SYS_WDT
 1928              		.loc 1 1421 0
 1929 0014 E040     		lsrs	r0, r0, r4
 1930 0016 0004     		lsls	r0, r0, #16
 1931 0018 000C     		lsrs	r0, r0, #16
1423:Generated_Source\PSoC4/CyLFClk.c **** 
 1932              		.loc 1 1423 0
 1933              		@ sp needed
 1934 001a 10BD     		pop	{r4, pc}
ARM GAS  C:\Users\JamesN4\AppData\Local\Temp\ccOIY297.s 			page 84


 1935              	.L165:
 1936              		.align	2
 1937              	.L164:
 1938 001c 08020B40 		.word	1074463240
 1939              		.cfi_endproc
 1940              	.LFE32:
 1941              		.size	CySysWdtGetMatch, .-CySysWdtGetMatch
 1942              		.section	.text.CySysWdtGetCount,"ax",%progbits
 1943              		.align	2
 1944              		.global	CySysWdtGetCount
 1945              		.code	16
 1946              		.thumb_func
 1947              		.type	CySysWdtGetCount, %function
 1948              	CySysWdtGetCount:
 1949              	.LFB33:
1439:Generated_Source\PSoC4/CyLFClk.c ****         uint32 regValue = 0u;
 1950              		.loc 1 1439 0
 1951              		.cfi_startproc
 1952              		@ args = 0, pretend = 0, frame = 0
 1953              		@ frame_needed = 0, uses_anonymous_args = 0
 1954              	.LVL183:
 1955 0000 10B5     		push	{r4, lr}
 1956              		.cfi_def_cfa_offset 8
 1957              		.cfi_offset 4, -8
 1958              		.cfi_offset 14, -4
 1959              	.LVL184:
1442:Generated_Source\PSoC4/CyLFClk.c ****         {
 1960              		.loc 1 1442 0
 1961 0002 0128     		cmp	r0, #1
 1962 0004 09D0     		beq	.L168
 1963 0006 0028     		cmp	r0, #0
 1964 0008 02D0     		beq	.L169
 1965 000a 0228     		cmp	r0, #2
 1966 000c 09D0     		beq	.L170
 1967 000e 0BE0     		b	.L172
 1968              	.L169:
1446:Generated_Source\PSoC4/CyLFClk.c ****             break;
 1969              		.loc 1 1446 0
 1970 0010 084B     		ldr	r3, .L173
 1971 0012 1868     		ldr	r0, [r3]
 1972              	.LVL185:
 1973 0014 0004     		lsls	r0, r0, #16
 1974 0016 000C     		lsrs	r0, r0, #16
 1975              	.LVL186:
1447:Generated_Source\PSoC4/CyLFClk.c **** 
 1976              		.loc 1 1447 0
 1977 0018 0AE0     		b	.L171
 1978              	.LVL187:
 1979              	.L168:
1451:Generated_Source\PSoC4/CyLFClk.c ****             break;
 1980              		.loc 1 1451 0
 1981 001a 064B     		ldr	r3, .L173
 1982 001c 1868     		ldr	r0, [r3]
 1983              	.LVL188:
 1984 001e 000C     		lsrs	r0, r0, #16
 1985              	.LVL189:
1452:Generated_Source\PSoC4/CyLFClk.c **** 
ARM GAS  C:\Users\JamesN4\AppData\Local\Temp\ccOIY297.s 			page 85


 1986              		.loc 1 1452 0
 1987 0020 06E0     		b	.L171
 1988              	.LVL190:
 1989              	.L170:
1456:Generated_Source\PSoC4/CyLFClk.c ****             break;
 1990              		.loc 1 1456 0
 1991 0022 054B     		ldr	r3, .L173+4
 1992 0024 1868     		ldr	r0, [r3]
 1993              	.LVL191:
1457:Generated_Source\PSoC4/CyLFClk.c **** 
 1994              		.loc 1 1457 0
 1995 0026 03E0     		b	.L171
 1996              	.LVL192:
 1997              	.L172:
1460:Generated_Source\PSoC4/CyLFClk.c ****             break;
 1998              		.loc 1 1460 0 discriminator 1
 1999 0028 0020     		movs	r0, #0
 2000              	.LVL193:
 2001 002a FFF7FEFF 		bl	CyHalt
 2002              	.LVL194:
1440:Generated_Source\PSoC4/CyLFClk.c **** 
 2003              		.loc 1 1440 0 discriminator 1
 2004 002e 0020     		movs	r0, #0
 2005              	.LVL195:
 2006              	.L171:
1465:Generated_Source\PSoC4/CyLFClk.c **** 
 2007              		.loc 1 1465 0
 2008              		@ sp needed
 2009 0030 10BD     		pop	{r4, pc}
 2010              	.L174:
 2011 0032 C046     		.align	2
 2012              	.L173:
 2013 0034 00020B40 		.word	1074463232
 2014 0038 04020B40 		.word	1074463236
 2015              		.cfi_endproc
 2016              	.LFE33:
 2017              		.size	CySysWdtGetCount, .-CySysWdtGetCount
 2018              		.section	.text.CySysClkLfclkPosedgeCatch,"ax",%progbits
 2019              		.align	2
 2020              		.code	16
 2021              		.thumb_func
 2022              		.type	CySysClkLfclkPosedgeCatch, %function
 2023              	CySysClkLfclkPosedgeCatch:
 2024              	.LFB43:
1841:Generated_Source\PSoC4/CyLFClk.c ****         uint32 firstCount;
 2025              		.loc 1 1841 0
 2026              		.cfi_startproc
 2027              		@ args = 0, pretend = 0, frame = 0
 2028              		@ frame_needed = 0, uses_anonymous_args = 0
 2029 0000 10B5     		push	{r4, lr}
 2030              		.cfi_def_cfa_offset 8
 2031              		.cfi_offset 4, -8
 2032              		.cfi_offset 14, -4
1845:Generated_Source\PSoC4/CyLFClk.c ****         {
 2033              		.loc 1 1845 0
 2034 0002 0020     		movs	r0, #0
 2035 0004 FFF7FEFF 		bl	CySysWdtGetEnabledStatus
ARM GAS  C:\Users\JamesN4\AppData\Local\Temp\ccOIY297.s 			page 86


 2036              	.LVL196:
 2037 0008 0028     		cmp	r0, #0
 2038 000a 03D0     		beq	.L176
1847:Generated_Source\PSoC4/CyLFClk.c ****         }
 2039              		.loc 1 1847 0
 2040 000c 0022     		movs	r2, #0
 2041 000e 184B     		ldr	r3, .L181
 2042 0010 5A61     		str	r2, [r3, #20]
 2043 0012 21E0     		b	.L177
 2044              	.L176:
1849:Generated_Source\PSoC4/CyLFClk.c ****         {
 2045              		.loc 1 1849 0
 2046 0014 0120     		movs	r0, #1
 2047 0016 FFF7FEFF 		bl	CySysWdtGetEnabledStatus
 2048              	.LVL197:
 2049 001a 0028     		cmp	r0, #0
 2050 001c 03D0     		beq	.L178
1851:Generated_Source\PSoC4/CyLFClk.c ****         }
 2051              		.loc 1 1851 0
 2052 001e 0122     		movs	r2, #1
 2053 0020 134B     		ldr	r3, .L181
 2054 0022 5A61     		str	r2, [r3, #20]
 2055 0024 18E0     		b	.L177
 2056              	.L178:
1853:Generated_Source\PSoC4/CyLFClk.c ****         {
 2057              		.loc 1 1853 0
 2058 0026 0220     		movs	r0, #2
 2059 0028 FFF7FEFF 		bl	CySysWdtGetEnabledStatus
 2060              	.LVL198:
 2061 002c 0028     		cmp	r0, #0
 2062 002e 03D0     		beq	.L179
1855:Generated_Source\PSoC4/CyLFClk.c ****         }
 2063              		.loc 1 1855 0
 2064 0030 0222     		movs	r2, #2
 2065 0032 0F4B     		ldr	r3, .L181
 2066 0034 5A61     		str	r2, [r3, #20]
 2067 0036 0FE0     		b	.L177
 2068              	.L179:
1860:Generated_Source\PSoC4/CyLFClk.c ****             lfclkPosedgeEnabledWdtCounter = CY_SYS_WDT_COUNTER0;
 2069              		.loc 1 1860 0
 2070 0038 0D4C     		ldr	r4, .L181
 2071 003a 0123     		movs	r3, #1
 2072 003c E360     		str	r3, [r4, #12]
1861:Generated_Source\PSoC4/CyLFClk.c **** 
 2073              		.loc 1 1861 0
 2074 003e 0023     		movs	r3, #0
 2075 0040 6361     		str	r3, [r4, #20]
1863:Generated_Source\PSoC4/CyLFClk.c ****             CySysWdtSetMode(CY_SYS_WDT_COUNTER0, CY_SYS_WDT_MODE_NONE);
 2076              		.loc 1 1863 0
 2077 0042 0020     		movs	r0, #0
 2078 0044 FFF7FEFF 		bl	CySysWdtGetMode
 2079              	.LVL199:
 2080 0048 2061     		str	r0, [r4, #16]
1864:Generated_Source\PSoC4/CyLFClk.c ****             CySysWdtEnable(CY_SYS_WDT_COUNTER0_MASK);
 2081              		.loc 1 1864 0
 2082 004a 0021     		movs	r1, #0
 2083 004c 0020     		movs	r0, #0
ARM GAS  C:\Users\JamesN4\AppData\Local\Temp\ccOIY297.s 			page 87


 2084 004e FFF7FEFF 		bl	CySysWdtSetMode
 2085              	.LVL200:
1865:Generated_Source\PSoC4/CyLFClk.c ****         }
 2086              		.loc 1 1865 0
 2087 0052 0120     		movs	r0, #1
 2088 0054 FFF7FEFF 		bl	CySysWdtEnable
 2089              	.LVL201:
 2090              	.L177:
1868:Generated_Source\PSoC4/CyLFClk.c ****         while (CySysWdtGetCount(lfclkPosedgeEnabledWdtCounter) == firstCount)
 2091              		.loc 1 1868 0
 2092 0058 054B     		ldr	r3, .L181
 2093 005a 5869     		ldr	r0, [r3, #20]
 2094 005c FFF7FEFF 		bl	CySysWdtGetCount
 2095              	.LVL202:
 2096 0060 0400     		movs	r4, r0
 2097              	.LVL203:
 2098              	.L180:
1869:Generated_Source\PSoC4/CyLFClk.c ****         {
 2099              		.loc 1 1869 0 discriminator 1
 2100 0062 034B     		ldr	r3, .L181
 2101 0064 5869     		ldr	r0, [r3, #20]
 2102 0066 FFF7FEFF 		bl	CySysWdtGetCount
 2103              	.LVL204:
 2104 006a 8442     		cmp	r4, r0
 2105 006c F9D0     		beq	.L180
1873:Generated_Source\PSoC4/CyLFClk.c **** 
 2106              		.loc 1 1873 0
 2107              		@ sp needed
 2108              	.LVL205:
 2109 006e 10BD     		pop	{r4, pc}
 2110              	.L182:
 2111              		.align	2
 2112              	.L181:
 2113 0070 00000000 		.word	.LANCHOR0
 2114              		.cfi_endproc
 2115              	.LFE43:
 2116              		.size	CySysClkLfclkPosedgeCatch, .-CySysClkLfclkPosedgeCatch
 2117              		.section	.text.CySysClkIloStop,"ax",%progbits
 2118              		.align	2
 2119              		.global	CySysClkIloStop
 2120              		.code	16
 2121              		.thumb_func
 2122              		.type	CySysClkIloStop, %function
 2123              	CySysClkIloStop:
 2124              	.LFB2:
 109:Generated_Source\PSoC4/CyLFClk.c ****     #if(CY_IP_SRSSV2)
 2125              		.loc 1 109 0
 2126              		.cfi_startproc
 2127              		@ args = 0, pretend = 0, frame = 0
 2128              		@ frame_needed = 0, uses_anonymous_args = 0
 2129 0000 10B5     		push	{r4, lr}
 2130              		.cfi_def_cfa_offset 8
 2131              		.cfi_offset 4, -8
 2132              		.cfi_offset 14, -4
 114:Generated_Source\PSoC4/CyLFClk.c ****         {
 2133              		.loc 1 114 0
 2134 0002 FFF7FEFF 		bl	CySysWdtLocked
ARM GAS  C:\Users\JamesN4\AppData\Local\Temp\ccOIY297.s 			page 88


 2135              	.LVL206:
 2136 0006 0028     		cmp	r0, #0
 2137 0008 1CD1     		bne	.L183
 116:Generated_Source\PSoC4/CyLFClk.c ****             {
 2138              		.loc 1 116 0
 2139 000a FFF7FEFF 		bl	CySysClkIloEnabled
 2140              	.LVL207:
 2141 000e 0028     		cmp	r0, #0
 2142 0010 18D0     		beq	.L183
 120:Generated_Source\PSoC4/CyLFClk.c ****                 {
 2143              		.loc 1 120 0
 2144 0012 FFF7FEFF 		bl	CySysClkGetLfclkSource
 2145              	.LVL208:
 2146 0016 0028     		cmp	r0, #0
 2147 0018 0FD1     		bne	.L185
 124:Generated_Source\PSoC4/CyLFClk.c ****                 CySysClkLfclkPosedgeCatch();
 2148              		.loc 1 124 0
 2149 001a FFF7FEFF 		bl	CyEnterCriticalSection
 2150              	.LVL209:
 2151 001e 0400     		movs	r4, r0
 2152              	.LVL210:
 125:Generated_Source\PSoC4/CyLFClk.c ****                 CY_SYS_CLK_ILO_CONFIG_REG &= (uint32) ( ~(uint32)CY_SYS_CLK_ILO_CONFIG_ENABLE);
 2153              		.loc 1 125 0
 2154 0020 FFF7FEFF 		bl	CySysClkLfclkPosedgeCatch
 2155              	.LVL211:
 126:Generated_Source\PSoC4/CyLFClk.c ****                 CySysClkLfclkPosedgeRestore();
 2156              		.loc 1 126 0
 2157 0024 084A     		ldr	r2, .L186
 2158 0026 1368     		ldr	r3, [r2]
 2159 0028 5B00     		lsls	r3, r3, #1
 2160 002a 5B08     		lsrs	r3, r3, #1
 2161 002c 1360     		str	r3, [r2]
 127:Generated_Source\PSoC4/CyLFClk.c ****                 CyExitCriticalSection(interruptState);
 2162              		.loc 1 127 0
 2163 002e FFF7FEFF 		bl	CySysClkLfclkPosedgeRestore
 2164              	.LVL212:
 128:Generated_Source\PSoC4/CyLFClk.c **** 
 2165              		.loc 1 128 0
 2166 0032 2000     		movs	r0, r4
 2167 0034 FFF7FEFF 		bl	CyExitCriticalSection
 2168              	.LVL213:
 2169 0038 04E0     		b	.L183
 2170              	.LVL214:
 2171              	.L185:
 134:Generated_Source\PSoC4/CyLFClk.c ****                 }
 2172              		.loc 1 134 0
 2173 003a 034A     		ldr	r2, .L186
 2174 003c 1368     		ldr	r3, [r2]
 2175 003e 5B00     		lsls	r3, r3, #1
 2176 0040 5B08     		lsrs	r3, r3, #1
 2177 0042 1360     		str	r3, [r2]
 2178              	.L183:
 143:Generated_Source\PSoC4/CyLFClk.c **** 
 2179              		.loc 1 143 0
 2180              		@ sp needed
 2181 0044 10BD     		pop	{r4, pc}
 2182              	.L187:
ARM GAS  C:\Users\JamesN4\AppData\Local\Temp\ccOIY297.s 			page 89


 2183 0046 C046     		.align	2
 2184              	.L186:
 2185 0048 04010B40 		.word	1074462980
 2186              		.cfi_endproc
 2187              	.LFE2:
 2188              		.size	CySysClkIloStop, .-CySysClkIloStop
 2189              		.section	.text.CySysClkSetLfclkSource,"ax",%progbits
 2190              		.align	2
 2191              		.global	CySysClkSetLfclkSource
 2192              		.code	16
 2193              		.thumb_func
 2194              		.type	CySysClkSetLfclkSource, %function
 2195              	CySysClkSetLfclkSource:
 2196              	.LFB11:
 735:Generated_Source\PSoC4/CyLFClk.c ****         uint8  interruptState;
 2197              		.loc 1 735 0
 2198              		.cfi_startproc
 2199              		@ args = 0, pretend = 0, frame = 0
 2200              		@ frame_needed = 0, uses_anonymous_args = 0
 2201              	.LVL215:
 2202 0000 70B5     		push	{r4, r5, r6, lr}
 2203              		.cfi_def_cfa_offset 16
 2204              		.cfi_offset 4, -16
 2205              		.cfi_offset 5, -12
 2206              		.cfi_offset 6, -8
 2207              		.cfi_offset 14, -4
 2208 0002 0400     		movs	r4, r0
 738:Generated_Source\PSoC4/CyLFClk.c ****         {
 2209              		.loc 1 738 0
 2210 0004 FFF7FEFF 		bl	CySysClkGetLfclkSource
 2211              	.LVL216:
 2212 0008 A042     		cmp	r0, r4
 2213 000a 11D0     		beq	.L188
 740:Generated_Source\PSoC4/CyLFClk.c ****             CySysClkLfclkPosedgeCatch();
 2214              		.loc 1 740 0
 2215 000c FFF7FEFF 		bl	CyEnterCriticalSection
 2216              	.LVL217:
 2217 0010 0500     		movs	r5, r0
 2218              	.LVL218:
 741:Generated_Source\PSoC4/CyLFClk.c ****             CY_SYS_WDT_CONFIG_REG = (CY_SYS_WDT_CONFIG_REG & (uint32)(~CY_SYS_CLK_LFCLK_SEL_MASK)) 
 2219              		.loc 1 741 0
 2220 0012 FFF7FEFF 		bl	CySysClkLfclkPosedgeCatch
 2221              	.LVL219:
 742:Generated_Source\PSoC4/CyLFClk.c ****                                     (source & CY_SYS_CLK_LFCLK_SEL_MASK);
 2222              		.loc 1 742 0
 2223 0016 074A     		ldr	r2, .L190
 2224 0018 1368     		ldr	r3, [r2]
 2225 001a 9B00     		lsls	r3, r3, #2
 2226 001c 9B08     		lsrs	r3, r3, #2
 743:Generated_Source\PSoC4/CyLFClk.c ****             CySysClkLfclkPosedgeRestore();
 2227              		.loc 1 743 0
 2228 001e A40F     		lsrs	r4, r4, #30
 2229              	.LVL220:
 2230 0020 A407     		lsls	r4, r4, #30
 742:Generated_Source\PSoC4/CyLFClk.c ****                                     (source & CY_SYS_CLK_LFCLK_SEL_MASK);
 2231              		.loc 1 742 0
 2232 0022 1C43     		orrs	r4, r3
ARM GAS  C:\Users\JamesN4\AppData\Local\Temp\ccOIY297.s 			page 90


 2233 0024 1460     		str	r4, [r2]
 744:Generated_Source\PSoC4/CyLFClk.c ****             CyExitCriticalSection(interruptState);
 2234              		.loc 1 744 0
 2235 0026 FFF7FEFF 		bl	CySysClkLfclkPosedgeRestore
 2236              	.LVL221:
 745:Generated_Source\PSoC4/CyLFClk.c ****         }
 2237              		.loc 1 745 0
 2238 002a 2800     		movs	r0, r5
 2239 002c FFF7FEFF 		bl	CyExitCriticalSection
 2240              	.LVL222:
 2241              	.L188:
 747:Generated_Source\PSoC4/CyLFClk.c **** #endif /* (CY_IP_WCO && CY_IP_SRSSV2) */
 2242              		.loc 1 747 0
 2243              		@ sp needed
 2244 0030 70BD     		pop	{r4, r5, r6, pc}
 2245              	.L191:
 2246 0032 C046     		.align	2
 2247              	.L190:
 2248 0034 0C020B40 		.word	1074463244
 2249              		.cfi_endproc
 2250              	.LFE11:
 2251              		.size	CySysClkSetLfclkSource, .-CySysClkSetLfclkSource
 2252              		.section	.text.CySysClkWcoStop,"ax",%progbits
 2253              		.align	2
 2254              		.global	CySysClkWcoStop
 2255              		.code	16
 2256              		.thumb_func
 2257              		.type	CySysClkWcoStop, %function
 2258              	CySysClkWcoStop:
 2259              	.LFB13:
 790:Generated_Source\PSoC4/CyLFClk.c ****         #if (CY_IP_SRSSV2)
 2260              		.loc 1 790 0
 2261              		.cfi_startproc
 2262              		@ args = 0, pretend = 0, frame = 0
 2263              		@ frame_needed = 0, uses_anonymous_args = 0
 2264 0000 10B5     		push	{r4, lr}
 2265              		.cfi_def_cfa_offset 8
 2266              		.cfi_offset 4, -8
 2267              		.cfi_offset 14, -4
 795:Generated_Source\PSoC4/CyLFClk.c ****         {
 2268              		.loc 1 795 0
 2269 0002 FFF7FEFF 		bl	CySysClkWcoEnabled
 2270              	.LVL223:
 2271 0006 0028     		cmp	r0, #0
 2272 0008 1AD0     		beq	.L192
 798:Generated_Source\PSoC4/CyLFClk.c ****                 {
 2273              		.loc 1 798 0
 2274 000a FFF7FEFF 		bl	CySysClkGetLfclkSource
 2275              	.LVL224:
 2276 000e 8023     		movs	r3, #128
 2277 0010 DB05     		lsls	r3, r3, #23
 2278 0012 9842     		cmp	r0, r3
 2279 0014 0FD1     		bne	.L194
 800:Generated_Source\PSoC4/CyLFClk.c ****                     CySysClkLfclkPosedgeCatch();
 2280              		.loc 1 800 0
 2281 0016 FFF7FEFF 		bl	CyEnterCriticalSection
 2282              	.LVL225:
ARM GAS  C:\Users\JamesN4\AppData\Local\Temp\ccOIY297.s 			page 91


 2283 001a 0400     		movs	r4, r0
 2284              	.LVL226:
 801:Generated_Source\PSoC4/CyLFClk.c ****                     CY_SYS_CLK_WCO_CONFIG_REG &= (uint32) ~CY_SYS_CLK_WCO_CONFIG_LPM_ENABLE;
 2285              		.loc 1 801 0
 2286 001c FFF7FEFF 		bl	CySysClkLfclkPosedgeCatch
 2287              	.LVL227:
 802:Generated_Source\PSoC4/CyLFClk.c ****                     CySysClkLfclkPosedgeRestore();
 2288              		.loc 1 802 0
 2289 0020 084A     		ldr	r2, .L195
 2290 0022 1368     		ldr	r3, [r2]
 2291 0024 5B00     		lsls	r3, r3, #1
 2292 0026 5B08     		lsrs	r3, r3, #1
 2293 0028 1360     		str	r3, [r2]
 803:Generated_Source\PSoC4/CyLFClk.c ****                     CyExitCriticalSection(interruptState);
 2294              		.loc 1 803 0
 2295 002a FFF7FEFF 		bl	CySysClkLfclkPosedgeRestore
 2296              	.LVL228:
 804:Generated_Source\PSoC4/CyLFClk.c ****                 }
 2297              		.loc 1 804 0
 2298 002e 2000     		movs	r0, r4
 2299 0030 FFF7FEFF 		bl	CyExitCriticalSection
 2300              	.LVL229:
 2301 0034 04E0     		b	.L192
 2302              	.LVL230:
 2303              	.L194:
 809:Generated_Source\PSoC4/CyLFClk.c ****             }
 2304              		.loc 1 809 0
 2305 0036 034A     		ldr	r2, .L195
 2306 0038 1368     		ldr	r3, [r2]
 2307 003a 5B00     		lsls	r3, r3, #1
 2308 003c 5B08     		lsrs	r3, r3, #1
 2309 003e 1360     		str	r3, [r2]
 2310              	.L192:
 812:Generated_Source\PSoC4/CyLFClk.c **** 
 2311              		.loc 1 812 0
 2312              		@ sp needed
 2313 0040 10BD     		pop	{r4, pc}
 2314              	.L196:
 2315 0042 C046     		.align	2
 2316              	.L195:
 2317 0044 00002240 		.word	1075970048
 2318              		.cfi_endproc
 2319              	.LFE13:
 2320              		.size	CySysClkWcoStop, .-CySysClkWcoStop
 2321              		.section	.text.CySysWdtGetInterruptSource,"ax",%progbits
 2322              		.align	2
 2323              		.global	CySysWdtGetInterruptSource
 2324              		.code	16
 2325              		.thumb_func
 2326              		.type	CySysWdtGetInterruptSource, %function
 2327              	CySysWdtGetInterruptSource:
 2328              	.LFB34:
1482:Generated_Source\PSoC4/CyLFClk.c ****         return (CY_SYS_WDT_CONTROL_REG & (CY_SYS_WDT_COUNTER0_INT | CY_SYS_WDT_COUNTER1_INT | CY_SY
 2329              		.loc 1 1482 0
 2330              		.cfi_startproc
 2331              		@ args = 0, pretend = 0, frame = 0
 2332              		@ frame_needed = 0, uses_anonymous_args = 0
ARM GAS  C:\Users\JamesN4\AppData\Local\Temp\ccOIY297.s 			page 92


 2333              		@ link register save eliminated.
1483:Generated_Source\PSoC4/CyLFClk.c ****     }
 2334              		.loc 1 1483 0
 2335 0000 024B     		ldr	r3, .L198
 2336 0002 1868     		ldr	r0, [r3]
 2337 0004 024B     		ldr	r3, .L198+4
 2338 0006 1840     		ands	r0, r3
1484:Generated_Source\PSoC4/CyLFClk.c **** 
 2339              		.loc 1 1484 0
 2340              		@ sp needed
 2341 0008 7047     		bx	lr
 2342              	.L199:
 2343 000a C046     		.align	2
 2344              	.L198:
 2345 000c 10020B40 		.word	1074463248
 2346 0010 04040400 		.word	263172
 2347              		.cfi_endproc
 2348              	.LFE34:
 2349              		.size	CySysWdtGetInterruptSource, .-CySysWdtGetInterruptSource
 2350              		.section	.text.CySysWdtClearInterrupt,"ax",%progbits
 2351              		.align	2
 2352              		.global	CySysWdtClearInterrupt
 2353              		.code	16
 2354              		.thumb_func
 2355              		.type	CySysWdtClearInterrupt, %function
 2356              	CySysWdtClearInterrupt:
 2357              	.LFB35:
1511:Generated_Source\PSoC4/CyLFClk.c ****         uint8 interruptState;
 2358              		.loc 1 1511 0
 2359              		.cfi_startproc
 2360              		@ args = 0, pretend = 0, frame = 0
 2361              		@ frame_needed = 0, uses_anonymous_args = 0
 2362              	.LVL231:
 2363 0000 70B5     		push	{r4, r5, r6, lr}
 2364              		.cfi_def_cfa_offset 16
 2365              		.cfi_offset 4, -16
 2366              		.cfi_offset 5, -12
 2367              		.cfi_offset 6, -8
 2368              		.cfi_offset 14, -4
 2369 0002 0500     		movs	r5, r0
1515:Generated_Source\PSoC4/CyLFClk.c **** 
 2370              		.loc 1 1515 0
 2371 0004 FFF7FEFF 		bl	CyEnterCriticalSection
 2372              	.LVL232:
 2373 0008 0400     		movs	r4, r0
 2374              	.LVL233:
1517:Generated_Source\PSoC4/CyLFClk.c ****         {
 2375              		.loc 1 1517 0
 2376 000a FFF7FEFF 		bl	CySysWdtLocked
 2377              	.LVL234:
 2378 000e 0028     		cmp	r0, #0
 2379 0010 03D0     		beq	.L203
 2380              	.LVL235:
1520:Generated_Source\PSoC4/CyLFClk.c ****         }
 2381              		.loc 1 1520 0
 2382 0012 FFF7FEFF 		bl	CySysWdtUnlock
 2383              	.LVL236:
ARM GAS  C:\Users\JamesN4\AppData\Local\Temp\ccOIY297.s 			page 93


1519:Generated_Source\PSoC4/CyLFClk.c ****             CySysWdtUnlock();
 2384              		.loc 1 1519 0
 2385 0016 0121     		movs	r1, #1
 2386 0018 00E0     		b	.L201
 2387              	.LVL237:
 2388              	.L203:
1524:Generated_Source\PSoC4/CyLFClk.c ****         }
 2389              		.loc 1 1524 0
 2390 001a 0021     		movs	r1, #0
 2391              	.L201:
 2392              	.LVL238:
1528:Generated_Source\PSoC4/CyLFClk.c ****                         CY_SYS_WDT_COUNTER1_INT |
 2393              		.loc 1 1528 0
 2394 001c 0848     		ldr	r0, .L204
 2395 001e 2840     		ands	r0, r5
 2396              	.LVL239:
1532:Generated_Source\PSoC4/CyLFClk.c ****                                                                            CY_SYS_WDT_COUNTER1_INT 
 2397              		.loc 1 1532 0
 2398 0020 084A     		ldr	r2, .L204+4
 2399 0022 1568     		ldr	r5, [r2]
 2400 0024 084B     		ldr	r3, .L204+8
 2401 0026 2B40     		ands	r3, r5
 2402 0028 1843     		orrs	r0, r3
 2403              	.LVL240:
 2404 002a 1060     		str	r0, [r2]
1539:Generated_Source\PSoC4/CyLFClk.c **** 
 2405              		.loc 1 1539 0
 2406 002c 1368     		ldr	r3, [r2]
1541:Generated_Source\PSoC4/CyLFClk.c ****         {
 2407              		.loc 1 1541 0
 2408 002e 0129     		cmp	r1, #1
 2409 0030 01D1     		bne	.L202
1543:Generated_Source\PSoC4/CyLFClk.c ****         }
 2410              		.loc 1 1543 0
 2411 0032 FFF7FEFF 		bl	CySysWdtLock
 2412              	.LVL241:
 2413              	.L202:
1546:Generated_Source\PSoC4/CyLFClk.c ****     }
 2414              		.loc 1 1546 0
 2415 0036 2000     		movs	r0, r4
 2416 0038 FFF7FEFF 		bl	CyExitCriticalSection
 2417              	.LVL242:
1547:Generated_Source\PSoC4/CyLFClk.c **** 
 2418              		.loc 1 1547 0
 2419              		@ sp needed
 2420              	.LVL243:
 2421 003c 70BD     		pop	{r4, r5, r6, pc}
 2422              	.L205:
 2423 003e C046     		.align	2
 2424              	.L204:
 2425 0040 04040400 		.word	263172
 2426 0044 10020B40 		.word	1074463248
 2427 0048 FBFBFBFF 		.word	-263173
 2428              		.cfi_endproc
 2429              	.LFE35:
 2430              		.size	CySysWdtClearInterrupt, .-CySysWdtClearInterrupt
 2431              		.section	.text.CySysWdtResetCounters,"ax",%progbits
ARM GAS  C:\Users\JamesN4\AppData\Local\Temp\ccOIY297.s 			page 94


 2432              		.align	2
 2433              		.global	CySysWdtResetCounters
 2434              		.code	16
 2435              		.thumb_func
 2436              		.type	CySysWdtResetCounters, %function
 2437              	CySysWdtResetCounters:
 2438              	.LFB36:
1569:Generated_Source\PSoC4/CyLFClk.c ****         /* Set new WDT reset value */
 2439              		.loc 1 1569 0
 2440              		.cfi_startproc
 2441              		@ args = 0, pretend = 0, frame = 0
 2442              		@ frame_needed = 0, uses_anonymous_args = 0
 2443              		@ link register save eliminated.
 2444              	.LVL244:
1571:Generated_Source\PSoC4/CyLFClk.c **** 
 2445              		.loc 1 1571 0
 2446 0000 054A     		ldr	r2, .L208
 2447 0002 1168     		ldr	r1, [r2]
 2448 0004 054B     		ldr	r3, .L208+4
 2449 0006 1840     		ands	r0, r3
 2450              	.LVL245:
 2451 0008 0843     		orrs	r0, r1
 2452 000a 1060     		str	r0, [r2]
 2453              	.L207:
1573:Generated_Source\PSoC4/CyLFClk.c ****         {
 2454              		.loc 1 1573 0 discriminator 1
 2455 000c 024B     		ldr	r3, .L208
 2456 000e 1A68     		ldr	r2, [r3]
 2457 0010 024B     		ldr	r3, .L208+4
 2458 0012 1A42     		tst	r2, r3
 2459 0014 FAD1     		bne	.L207
1577:Generated_Source\PSoC4/CyLFClk.c **** 
 2460              		.loc 1 1577 0
 2461              		@ sp needed
 2462 0016 7047     		bx	lr
 2463              	.L209:
 2464              		.align	2
 2465              	.L208:
 2466 0018 10020B40 		.word	1074463248
 2467 001c 08080800 		.word	526344
 2468              		.cfi_endproc
 2469              	.LFE36:
 2470              		.size	CySysWdtResetCounters, .-CySysWdtResetCounters
 2471              		.section	.text.CySysWdtSetInterruptCallback,"ax",%progbits
 2472              		.align	2
 2473              		.global	CySysWdtSetInterruptCallback
 2474              		.code	16
 2475              		.thumb_func
 2476              		.type	CySysWdtSetInterruptCallback, %function
 2477              	CySysWdtSetInterruptCallback:
 2478              	.LFB37:
1595:Generated_Source\PSoC4/CyLFClk.c ****         cyWdtCallback prevCallback = (void *)0;
 2479              		.loc 1 1595 0
 2480              		.cfi_startproc
 2481              		@ args = 0, pretend = 0, frame = 0
 2482              		@ frame_needed = 0, uses_anonymous_args = 0
 2483              	.LVL246:
ARM GAS  C:\Users\JamesN4\AppData\Local\Temp\ccOIY297.s 			page 95


 2484 0000 10B5     		push	{r4, lr}
 2485              		.cfi_def_cfa_offset 8
 2486              		.cfi_offset 4, -8
 2487              		.cfi_offset 14, -4
 2488              	.LVL247:
1598:Generated_Source\PSoC4/CyLFClk.c ****         {
 2489              		.loc 1 1598 0
 2490 0002 0228     		cmp	r0, #2
 2491 0004 05D8     		bhi	.L211
1600:Generated_Source\PSoC4/CyLFClk.c ****             cySysWdtCallback[counterNum] = function;
 2492              		.loc 1 1600 0
 2493 0006 8000     		lsls	r0, r0, #2
 2494              	.LVL248:
 2495 0008 044B     		ldr	r3, .L213
 2496 000a 1B18     		adds	r3, r3, r0
 2497 000c 9869     		ldr	r0, [r3, #24]
 2498              	.LVL249:
1601:Generated_Source\PSoC4/CyLFClk.c ****         }
 2499              		.loc 1 1601 0
 2500 000e 9961     		str	r1, [r3, #24]
 2501 0010 03E0     		b	.L212
 2502              	.LVL250:
 2503              	.L211:
1605:Generated_Source\PSoC4/CyLFClk.c ****         }
 2504              		.loc 1 1605 0 discriminator 1
 2505 0012 0020     		movs	r0, #0
 2506              	.LVL251:
 2507 0014 FFF7FEFF 		bl	CyHalt
 2508              	.LVL252:
1596:Generated_Source\PSoC4/CyLFClk.c **** 
 2509              		.loc 1 1596 0 discriminator 1
 2510 0018 0020     		movs	r0, #0
 2511              	.LVL253:
 2512              	.L212:
1609:Generated_Source\PSoC4/CyLFClk.c **** 
 2513              		.loc 1 1609 0
 2514              		@ sp needed
 2515 001a 10BD     		pop	{r4, pc}
 2516              	.L214:
 2517              		.align	2
 2518              	.L213:
 2519 001c 00000000 		.word	.LANCHOR0
 2520              		.cfi_endproc
 2521              	.LFE37:
 2522              		.size	CySysWdtSetInterruptCallback, .-CySysWdtSetInterruptCallback
 2523              		.section	.text.CySysWdtGetInterruptCallback,"ax",%progbits
 2524              		.align	2
 2525              		.global	CySysWdtGetInterruptCallback
 2526              		.code	16
 2527              		.thumb_func
 2528              		.type	CySysWdtGetInterruptCallback, %function
 2529              	CySysWdtGetInterruptCallback:
 2530              	.LFB38:
1625:Generated_Source\PSoC4/CyLFClk.c ****         cyWdtCallback retCallback = (void *)0;
 2531              		.loc 1 1625 0
 2532              		.cfi_startproc
 2533              		@ args = 0, pretend = 0, frame = 0
ARM GAS  C:\Users\JamesN4\AppData\Local\Temp\ccOIY297.s 			page 96


 2534              		@ frame_needed = 0, uses_anonymous_args = 0
 2535              	.LVL254:
 2536 0000 10B5     		push	{r4, lr}
 2537              		.cfi_def_cfa_offset 8
 2538              		.cfi_offset 4, -8
 2539              		.cfi_offset 14, -4
 2540              	.LVL255:
1628:Generated_Source\PSoC4/CyLFClk.c ****         {
 2541              		.loc 1 1628 0
 2542 0002 0228     		cmp	r0, #2
 2543 0004 04D8     		bhi	.L216
1630:Generated_Source\PSoC4/CyLFClk.c ****         }
 2544              		.loc 1 1630 0
 2545 0006 8000     		lsls	r0, r0, #2
 2546              	.LVL256:
 2547 0008 044B     		ldr	r3, .L218
 2548 000a 1818     		adds	r0, r3, r0
 2549 000c 8069     		ldr	r0, [r0, #24]
 2550              	.LVL257:
 2551 000e 03E0     		b	.L217
 2552              	.LVL258:
 2553              	.L216:
1634:Generated_Source\PSoC4/CyLFClk.c ****         }
 2554              		.loc 1 1634 0 discriminator 1
 2555 0010 0020     		movs	r0, #0
 2556              	.LVL259:
 2557 0012 FFF7FEFF 		bl	CyHalt
 2558              	.LVL260:
1626:Generated_Source\PSoC4/CyLFClk.c **** 
 2559              		.loc 1 1626 0 discriminator 1
 2560 0016 0020     		movs	r0, #0
 2561              	.LVL261:
 2562              	.L217:
1638:Generated_Source\PSoC4/CyLFClk.c **** 
 2563              		.loc 1 1638 0
 2564              		@ sp needed
 2565 0018 10BD     		pop	{r4, pc}
 2566              	.L219:
 2567 001a C046     		.align	2
 2568              	.L218:
 2569 001c 00000000 		.word	.LANCHOR0
 2570              		.cfi_endproc
 2571              	.LFE38:
 2572              		.size	CySysWdtGetInterruptCallback, .-CySysWdtGetInterruptCallback
 2573              		.section	.text.CySysWdtEnableCounterIsr,"ax",%progbits
 2574              		.align	2
 2575              		.global	CySysWdtEnableCounterIsr
 2576              		.code	16
 2577              		.thumb_func
 2578              		.type	CySysWdtEnableCounterIsr, %function
 2579              	CySysWdtEnableCounterIsr:
 2580              	.LFB39:
1654:Generated_Source\PSoC4/CyLFClk.c ****         if(counterNum <= CY_SYS_WDT_COUNTER2)
 2581              		.loc 1 1654 0
 2582              		.cfi_startproc
 2583              		@ args = 0, pretend = 0, frame = 0
 2584              		@ frame_needed = 0, uses_anonymous_args = 0
ARM GAS  C:\Users\JamesN4\AppData\Local\Temp\ccOIY297.s 			page 97


 2585              	.LVL262:
 2586 0000 10B5     		push	{r4, lr}
 2587              		.cfi_def_cfa_offset 8
 2588              		.cfi_offset 4, -8
 2589              		.cfi_offset 14, -4
1655:Generated_Source\PSoC4/CyLFClk.c ****         {
 2590              		.loc 1 1655 0
 2591 0002 0228     		cmp	r0, #2
 2592 0004 0BD8     		bhi	.L221
1657:Generated_Source\PSoC4/CyLFClk.c ****             wdtIsrMask |= counterIntMaskTbl[counterNum];
 2593              		.loc 1 1657 0
 2594 0006 8000     		lsls	r0, r0, #2
 2595              	.LVL263:
 2596 0008 074B     		ldr	r3, .L223
 2597 000a C158     		ldr	r1, [r0, r3]
 2598 000c 074B     		ldr	r3, .L223+4
 2599 000e 5A6A     		ldr	r2, [r3, #36]
 2600 0010 8A43     		bics	r2, r1
 2601 0012 5A62     		str	r2, [r3, #36]
1658:Generated_Source\PSoC4/CyLFClk.c ****         }
 2602              		.loc 1 1658 0
 2603 0014 064A     		ldr	r2, .L223+8
 2604 0016 5368     		ldr	r3, [r2, #4]
 2605 0018 0B43     		orrs	r3, r1
 2606 001a 5360     		str	r3, [r2, #4]
 2607 001c 02E0     		b	.L220
 2608              	.LVL264:
 2609              	.L221:
1662:Generated_Source\PSoC4/CyLFClk.c ****         }
 2610              		.loc 1 1662 0 discriminator 1
 2611 001e 0020     		movs	r0, #0
 2612              	.LVL265:
 2613 0020 FFF7FEFF 		bl	CyHalt
 2614              	.LVL266:
 2615              	.L220:
1664:Generated_Source\PSoC4/CyLFClk.c **** 
 2616              		.loc 1 1664 0
 2617              		@ sp needed
 2618 0024 10BD     		pop	{r4, pc}
 2619              	.L224:
 2620 0026 C046     		.align	2
 2621              	.L223:
 2622 0028 00000000 		.word	.LANCHOR2
 2623 002c 00000000 		.word	.LANCHOR0
 2624 0030 00000000 		.word	.LANCHOR1
 2625              		.cfi_endproc
 2626              	.LFE39:
 2627              		.size	CySysWdtEnableCounterIsr, .-CySysWdtEnableCounterIsr
 2628              		.section	.text.CySysWdtDisableCounterIsr,"ax",%progbits
 2629              		.align	2
 2630              		.global	CySysWdtDisableCounterIsr
 2631              		.code	16
 2632              		.thumb_func
 2633              		.type	CySysWdtDisableCounterIsr, %function
 2634              	CySysWdtDisableCounterIsr:
 2635              	.LFB40:
1677:Generated_Source\PSoC4/CyLFClk.c ****         if(counterNum <= CY_SYS_WDT_COUNTER2)
ARM GAS  C:\Users\JamesN4\AppData\Local\Temp\ccOIY297.s 			page 98


 2636              		.loc 1 1677 0
 2637              		.cfi_startproc
 2638              		@ args = 0, pretend = 0, frame = 0
 2639              		@ frame_needed = 0, uses_anonymous_args = 0
 2640              	.LVL267:
 2641 0000 10B5     		push	{r4, lr}
 2642              		.cfi_def_cfa_offset 8
 2643              		.cfi_offset 4, -8
 2644              		.cfi_offset 14, -4
1678:Generated_Source\PSoC4/CyLFClk.c ****         {
 2645              		.loc 1 1678 0
 2646 0002 0228     		cmp	r0, #2
 2647 0004 07D8     		bhi	.L226
1680:Generated_Source\PSoC4/CyLFClk.c ****         }
 2648              		.loc 1 1680 0
 2649 0006 8000     		lsls	r0, r0, #2
 2650              	.LVL268:
 2651 0008 054B     		ldr	r3, .L228
 2652 000a C158     		ldr	r1, [r0, r3]
 2653 000c 054A     		ldr	r2, .L228+4
 2654 000e 5368     		ldr	r3, [r2, #4]
 2655 0010 8B43     		bics	r3, r1
 2656 0012 5360     		str	r3, [r2, #4]
 2657 0014 02E0     		b	.L225
 2658              	.LVL269:
 2659              	.L226:
1684:Generated_Source\PSoC4/CyLFClk.c ****         }
 2660              		.loc 1 1684 0 discriminator 1
 2661 0016 0020     		movs	r0, #0
 2662              	.LVL270:
 2663 0018 FFF7FEFF 		bl	CyHalt
 2664              	.LVL271:
 2665              	.L225:
1686:Generated_Source\PSoC4/CyLFClk.c **** 
 2666              		.loc 1 1686 0
 2667              		@ sp needed
 2668 001c 10BD     		pop	{r4, pc}
 2669              	.L229:
 2670 001e C046     		.align	2
 2671              	.L228:
 2672 0020 00000000 		.word	.LANCHOR2
 2673 0024 00000000 		.word	.LANCHOR1
 2674              		.cfi_endproc
 2675              	.LFE40:
 2676              		.size	CySysWdtDisableCounterIsr, .-CySysWdtDisableCounterIsr
 2677              		.section	.text.CySysWdtIsr,"ax",%progbits
 2678              		.align	2
 2679              		.global	CySysWdtIsr
 2680              		.code	16
 2681              		.thumb_func
 2682              		.type	CySysWdtIsr, %function
 2683              	CySysWdtIsr:
 2684              	.LFB41:
1710:Generated_Source\PSoC4/CyLFClk.c ****         if(0u != (CY_SYS_WDT_COUNTER0_INT & CY_SYS_WDT_CONTROL_REG))
 2685              		.loc 1 1710 0
 2686              		.cfi_startproc
 2687              		@ args = 0, pretend = 0, frame = 0
ARM GAS  C:\Users\JamesN4\AppData\Local\Temp\ccOIY297.s 			page 99


 2688              		@ frame_needed = 0, uses_anonymous_args = 0
 2689 0000 10B5     		push	{r4, lr}
 2690              		.cfi_def_cfa_offset 8
 2691              		.cfi_offset 4, -8
 2692              		.cfi_offset 14, -4
1711:Generated_Source\PSoC4/CyLFClk.c ****         {
 2693              		.loc 1 1711 0
 2694 0002 244B     		ldr	r3, .L237
 2695 0004 1B68     		ldr	r3, [r3]
 2696 0006 5B07     		lsls	r3, r3, #29
 2697 0008 15D5     		bpl	.L231
1713:Generated_Source\PSoC4/CyLFClk.c ****             {
 2698              		.loc 1 1713 0
 2699 000a 234B     		ldr	r3, .L237+4
 2700 000c 5B68     		ldr	r3, [r3, #4]
 2701 000e 5B07     		lsls	r3, r3, #29
 2702 0010 0ED5     		bpl	.L232
1715:Generated_Source\PSoC4/CyLFClk.c ****                 disableServicedIsr  &= ~CY_SYS_WDT_COUNTER0_INT;
 2703              		.loc 1 1715 0
 2704 0012 224B     		ldr	r3, .L237+8
 2705 0014 596A     		ldr	r1, [r3, #36]
 2706 0016 0420     		movs	r0, #4
 2707 0018 0140     		ands	r1, r0
 2708 001a 1F4C     		ldr	r4, .L237+4
 2709 001c 6268     		ldr	r2, [r4, #4]
 2710 001e 8A43     		bics	r2, r1
 2711 0020 6260     		str	r2, [r4, #4]
1716:Generated_Source\PSoC4/CyLFClk.c ****                 if(cySysWdtCallback[CY_SYS_WDT_COUNTER0] != (void *) 0)
 2712              		.loc 1 1716 0
 2713 0022 5A6A     		ldr	r2, [r3, #36]
 2714 0024 8243     		bics	r2, r0
 2715 0026 5A62     		str	r2, [r3, #36]
1717:Generated_Source\PSoC4/CyLFClk.c ****                 {
 2716              		.loc 1 1717 0
 2717 0028 9B69     		ldr	r3, [r3, #24]
 2718 002a 002B     		cmp	r3, #0
 2719 002c 00D0     		beq	.L232
1719:Generated_Source\PSoC4/CyLFClk.c ****                 }
 2720              		.loc 1 1719 0
 2721 002e 9847     		blx	r3
 2722              	.LVL272:
 2723              	.L232:
1722:Generated_Source\PSoC4/CyLFClk.c ****         }
 2724              		.loc 1 1722 0
 2725 0030 0420     		movs	r0, #4
 2726 0032 FFF7FEFF 		bl	CySysWdtClearInterrupt
 2727              	.LVL273:
 2728              	.L231:
1725:Generated_Source\PSoC4/CyLFClk.c ****         {
 2729              		.loc 1 1725 0
 2730 0036 174B     		ldr	r3, .L237
 2731 0038 1B68     		ldr	r3, [r3]
 2732 003a 5B05     		lsls	r3, r3, #21
 2733 003c 18D5     		bpl	.L233
1727:Generated_Source\PSoC4/CyLFClk.c ****             {
 2734              		.loc 1 1727 0
 2735 003e 164B     		ldr	r3, .L237+4
ARM GAS  C:\Users\JamesN4\AppData\Local\Temp\ccOIY297.s 			page 100


 2736 0040 5B68     		ldr	r3, [r3, #4]
 2737 0042 5B05     		lsls	r3, r3, #21
 2738 0044 10D5     		bpl	.L234
1729:Generated_Source\PSoC4/CyLFClk.c ****                 disableServicedIsr  &= ~CY_SYS_WDT_COUNTER1_INT;
 2739              		.loc 1 1729 0
 2740 0046 154B     		ldr	r3, .L237+8
 2741 0048 596A     		ldr	r1, [r3, #36]
 2742 004a 8022     		movs	r2, #128
 2743 004c D200     		lsls	r2, r2, #3
 2744 004e 1140     		ands	r1, r2
 2745 0050 1148     		ldr	r0, .L237+4
 2746 0052 4268     		ldr	r2, [r0, #4]
 2747 0054 8A43     		bics	r2, r1
 2748 0056 4260     		str	r2, [r0, #4]
1730:Generated_Source\PSoC4/CyLFClk.c ****                 if(cySysWdtCallback[CY_SYS_WDT_COUNTER1] != (void *) 0)
 2749              		.loc 1 1730 0
 2750 0058 596A     		ldr	r1, [r3, #36]
 2751 005a 114A     		ldr	r2, .L237+12
 2752 005c 0A40     		ands	r2, r1
 2753 005e 5A62     		str	r2, [r3, #36]
1731:Generated_Source\PSoC4/CyLFClk.c ****                 {
 2754              		.loc 1 1731 0
 2755 0060 DB69     		ldr	r3, [r3, #28]
 2756 0062 002B     		cmp	r3, #0
 2757 0064 00D0     		beq	.L234
1733:Generated_Source\PSoC4/CyLFClk.c ****                 }
 2758              		.loc 1 1733 0
 2759 0066 9847     		blx	r3
 2760              	.LVL274:
 2761              	.L234:
1736:Generated_Source\PSoC4/CyLFClk.c ****         }
 2762              		.loc 1 1736 0
 2763 0068 8020     		movs	r0, #128
 2764 006a C000     		lsls	r0, r0, #3
 2765 006c FFF7FEFF 		bl	CySysWdtClearInterrupt
 2766              	.LVL275:
 2767              	.L233:
1739:Generated_Source\PSoC4/CyLFClk.c ****         {
 2768              		.loc 1 1739 0
 2769 0070 084B     		ldr	r3, .L237
 2770 0072 1B68     		ldr	r3, [r3]
 2771 0074 5B03     		lsls	r3, r3, #13
 2772 0076 0CD5     		bpl	.L230
1741:Generated_Source\PSoC4/CyLFClk.c ****             {
 2773              		.loc 1 1741 0
 2774 0078 074B     		ldr	r3, .L237+4
 2775 007a 5B68     		ldr	r3, [r3, #4]
 2776 007c 5B03     		lsls	r3, r3, #13
 2777 007e 04D5     		bpl	.L236
1743:Generated_Source\PSoC4/CyLFClk.c ****                 {
 2778              		.loc 1 1743 0
 2779 0080 064B     		ldr	r3, .L237+8
 2780 0082 1B6A     		ldr	r3, [r3, #32]
 2781 0084 002B     		cmp	r3, #0
 2782 0086 00D0     		beq	.L236
1745:Generated_Source\PSoC4/CyLFClk.c ****                 }
 2783              		.loc 1 1745 0
ARM GAS  C:\Users\JamesN4\AppData\Local\Temp\ccOIY297.s 			page 101


 2784 0088 9847     		blx	r3
 2785              	.LVL276:
 2786              	.L236:
1748:Generated_Source\PSoC4/CyLFClk.c ****         }
 2787              		.loc 1 1748 0
 2788 008a 8020     		movs	r0, #128
 2789 008c C002     		lsls	r0, r0, #11
 2790 008e FFF7FEFF 		bl	CySysWdtClearInterrupt
 2791              	.LVL277:
 2792              	.L230:
1750:Generated_Source\PSoC4/CyLFClk.c **** 
 2793              		.loc 1 1750 0
 2794              		@ sp needed
 2795 0092 10BD     		pop	{r4, pc}
 2796              	.L238:
 2797              		.align	2
 2798              	.L237:
 2799 0094 10020B40 		.word	1074463248
 2800 0098 00000000 		.word	.LANCHOR1
 2801 009c 00000000 		.word	.LANCHOR0
 2802 00a0 FFFBFFFF 		.word	-1025
 2803              		.cfi_endproc
 2804              	.LFE41:
 2805              		.size	CySysWdtIsr, .-CySysWdtIsr
 2806              		.section	.text.CySysWatchdogFeed,"ax",%progbits
 2807              		.align	2
 2808              		.global	CySysWatchdogFeed
 2809              		.code	16
 2810              		.thumb_func
 2811              		.type	CySysWatchdogFeed, %function
 2812              	CySysWatchdogFeed:
 2813              	.LFB42:
1775:Generated_Source\PSoC4/CyLFClk.c ****         if(counterNum == CY_SYS_WDT_COUNTER0)
 2814              		.loc 1 1775 0
 2815              		.cfi_startproc
 2816              		@ args = 0, pretend = 0, frame = 0
 2817              		@ frame_needed = 0, uses_anonymous_args = 0
 2818              	.LVL278:
 2819 0000 10B5     		push	{r4, lr}
 2820              		.cfi_def_cfa_offset 8
 2821              		.cfi_offset 4, -8
 2822              		.cfi_offset 14, -4
 2823 0002 041E     		subs	r4, r0, #0
1776:Generated_Source\PSoC4/CyLFClk.c ****         {
 2824              		.loc 1 1776 0
 2825 0004 13D1     		bne	.L240
1778:Generated_Source\PSoC4/CyLFClk.c ****             {
 2826              		.loc 1 1778 0
 2827 0006 FFF7FEFF 		bl	CySysWdtGetMode
 2828              	.LVL279:
 2829 000a 0328     		cmp	r0, #3
 2830 000c 03D1     		bne	.L241
1780:Generated_Source\PSoC4/CyLFClk.c ****             }
 2831              		.loc 1 1780 0
 2832 000e 0130     		adds	r0, r0, #1
 2833 0010 FFF7FEFF 		bl	CySysWdtClearInterrupt
 2834              	.LVL280:
ARM GAS  C:\Users\JamesN4\AppData\Local\Temp\ccOIY297.s 			page 102


 2835 0014 23E0     		b	.L239
 2836              	.L241:
1782:Generated_Source\PSoC4/CyLFClk.c ****             {
 2837              		.loc 1 1782 0
 2838 0016 2000     		movs	r0, r4
 2839 0018 FFF7FEFF 		bl	CySysWdtGetMode
 2840              	.LVL281:
 2841 001c 0228     		cmp	r0, #2
 2842 001e 1ED1     		bne	.L239
1784:Generated_Source\PSoC4/CyLFClk.c ****                 CySysWdtClearInterrupt(CY_SYS_WDT_COUNTER0_INT);
 2843              		.loc 1 1784 0
 2844 0020 0630     		adds	r0, r0, #6
 2845 0022 FFF7FEFF 		bl	CySysWdtResetCounters
 2846              	.LVL282:
1785:Generated_Source\PSoC4/CyLFClk.c ****             }
 2847              		.loc 1 1785 0
 2848 0026 0420     		movs	r0, #4
 2849 0028 FFF7FEFF 		bl	CySysWdtClearInterrupt
 2850              	.LVL283:
 2851 002c 17E0     		b	.L239
 2852              	.LVL284:
 2853              	.L240:
1792:Generated_Source\PSoC4/CyLFClk.c ****         {
 2854              		.loc 1 1792 0
 2855 002e 0128     		cmp	r0, #1
 2856 0030 15D1     		bne	.L239
1794:Generated_Source\PSoC4/CyLFClk.c ****             {
 2857              		.loc 1 1794 0
 2858 0032 FFF7FEFF 		bl	CySysWdtGetMode
 2859              	.LVL285:
 2860 0036 0328     		cmp	r0, #3
 2861 0038 04D1     		bne	.L243
1796:Generated_Source\PSoC4/CyLFClk.c ****             }
 2862              		.loc 1 1796 0
 2863 003a 8020     		movs	r0, #128
 2864 003c C000     		lsls	r0, r0, #3
 2865 003e FFF7FEFF 		bl	CySysWdtClearInterrupt
 2866              	.LVL286:
 2867 0042 0CE0     		b	.L239
 2868              	.L243:
1798:Generated_Source\PSoC4/CyLFClk.c ****             {
 2869              		.loc 1 1798 0
 2870 0044 2000     		movs	r0, r4
 2871 0046 FFF7FEFF 		bl	CySysWdtGetMode
 2872              	.LVL287:
 2873 004a 0228     		cmp	r0, #2
 2874 004c 07D1     		bne	.L239
1800:Generated_Source\PSoC4/CyLFClk.c ****                 CySysWdtClearInterrupt(CY_SYS_WDT_COUNTER1_INT);
 2875              		.loc 1 1800 0
 2876 004e 8020     		movs	r0, #128
 2877 0050 0001     		lsls	r0, r0, #4
 2878 0052 FFF7FEFF 		bl	CySysWdtResetCounters
 2879              	.LVL288:
1801:Generated_Source\PSoC4/CyLFClk.c ****             }
 2880              		.loc 1 1801 0
 2881 0056 8020     		movs	r0, #128
 2882 0058 C000     		lsls	r0, r0, #3
ARM GAS  C:\Users\JamesN4\AppData\Local\Temp\ccOIY297.s 			page 103


 2883 005a FFF7FEFF 		bl	CySysWdtClearInterrupt
 2884              	.LVL289:
 2885              	.L239:
1812:Generated_Source\PSoC4/CyLFClk.c **** 
 2886              		.loc 1 1812 0
 2887              		@ sp needed
 2888              	.LVL290:
 2889 005e 10BD     		pop	{r4, pc}
 2890              		.cfi_endproc
 2891              	.LFE42:
 2892              		.size	CySysWatchdogFeed, .-CySysWatchdogFeed
 2893              		.section	.text.CySysTimerDelayUntilMatch,"ax",%progbits
 2894              		.align	2
 2895              		.global	CySysTimerDelayUntilMatch
 2896              		.code	16
 2897              		.thumb_func
 2898              		.type	CySysTimerDelayUntilMatch, %function
 2899              	CySysTimerDelayUntilMatch:
 2900              	.LFB46:
1904:Generated_Source\PSoC4/CyLFClk.c **** 
1905:Generated_Source\PSoC4/CyLFClk.c **** #else
1906:Generated_Source\PSoC4/CyLFClk.c **** 
1907:Generated_Source\PSoC4/CyLFClk.c ****     /*******************************************************************************
1908:Generated_Source\PSoC4/CyLFClk.c ****     * Function Name: CySysWdtGetEnabledStatus
1909:Generated_Source\PSoC4/CyLFClk.c ****     ****************************************************************************//**
1910:Generated_Source\PSoC4/CyLFClk.c ****     *
1911:Generated_Source\PSoC4/CyLFClk.c ****     * \brief Reads the enabled status of the WDT counter.
1912:Generated_Source\PSoC4/CyLFClk.c ****     *
1913:Generated_Source\PSoC4/CyLFClk.c ****     * \return The status of the WDT counter:
1914:Generated_Source\PSoC4/CyLFClk.c ****     * \return 0 - Counter is disabled
1915:Generated_Source\PSoC4/CyLFClk.c ****     * \return 1 - Counter is enabled
1916:Generated_Source\PSoC4/CyLFClk.c ****     *
1917:Generated_Source\PSoC4/CyLFClk.c ****     *******************************************************************************/
1918:Generated_Source\PSoC4/CyLFClk.c ****     uint32 CySysWdtGetEnabledStatus(void)
1919:Generated_Source\PSoC4/CyLFClk.c ****     {
1920:Generated_Source\PSoC4/CyLFClk.c ****         return ((CY_SYS_WDT_DISABLE_KEY_REG == CY_SYS_WDT_KEY) ? (uint32) 0u : (uint32) 1u);
1921:Generated_Source\PSoC4/CyLFClk.c ****     }
1922:Generated_Source\PSoC4/CyLFClk.c **** 
1923:Generated_Source\PSoC4/CyLFClk.c **** 
1924:Generated_Source\PSoC4/CyLFClk.c ****     /*******************************************************************************
1925:Generated_Source\PSoC4/CyLFClk.c ****     * Function Name: CySysWdtEnable
1926:Generated_Source\PSoC4/CyLFClk.c ****     ****************************************************************************//**
1927:Generated_Source\PSoC4/CyLFClk.c ****     *
1928:Generated_Source\PSoC4/CyLFClk.c ****     * \brief
1929:Generated_Source\PSoC4/CyLFClk.c ****     * Enables watchdog timer reset generation.
1930:Generated_Source\PSoC4/CyLFClk.c ****     *
1931:Generated_Source\PSoC4/CyLFClk.c ****     * CySysWdtClearInterrupt() feeds the watchdog. Two unserviced interrupts lead 
1932:Generated_Source\PSoC4/CyLFClk.c ****     * to a system reset (i.e. at the third match).
1933:Generated_Source\PSoC4/CyLFClk.c ****     *
1934:Generated_Source\PSoC4/CyLFClk.c ****     * ILO is enabled by the hardware once WDT is started.
1935:Generated_Source\PSoC4/CyLFClk.c ****     *
1936:Generated_Source\PSoC4/CyLFClk.c ****     *******************************************************************************/
1937:Generated_Source\PSoC4/CyLFClk.c ****     void CySysWdtEnable(void)
1938:Generated_Source\PSoC4/CyLFClk.c ****     {
1939:Generated_Source\PSoC4/CyLFClk.c ****         CY_SYS_WDT_DISABLE_KEY_REG = 0u;
1940:Generated_Source\PSoC4/CyLFClk.c ****     }
1941:Generated_Source\PSoC4/CyLFClk.c **** 
ARM GAS  C:\Users\JamesN4\AppData\Local\Temp\ccOIY297.s 			page 104


1942:Generated_Source\PSoC4/CyLFClk.c **** 
1943:Generated_Source\PSoC4/CyLFClk.c ****     /*******************************************************************************
1944:Generated_Source\PSoC4/CyLFClk.c ****     * Function Name: CySysWdtDisable
1945:Generated_Source\PSoC4/CyLFClk.c ****     ****************************************************************************//**
1946:Generated_Source\PSoC4/CyLFClk.c ****     *
1947:Generated_Source\PSoC4/CyLFClk.c ****     * \brief Disables the WDT reset generation.
1948:Generated_Source\PSoC4/CyLFClk.c ****     *
1949:Generated_Source\PSoC4/CyLFClk.c ****     * This function unlocks the ENABLE bit in the CLK_ILO_CONFIG registers and
1950:Generated_Source\PSoC4/CyLFClk.c ****     * enables the user to disable ILO.
1951:Generated_Source\PSoC4/CyLFClk.c ****     *
1952:Generated_Source\PSoC4/CyLFClk.c ****     *******************************************************************************/
1953:Generated_Source\PSoC4/CyLFClk.c ****     void CySysWdtDisable(void)
1954:Generated_Source\PSoC4/CyLFClk.c ****     {
1955:Generated_Source\PSoC4/CyLFClk.c ****         CY_SYS_WDT_DISABLE_KEY_REG = CY_SYS_WDT_KEY;
1956:Generated_Source\PSoC4/CyLFClk.c ****     }
1957:Generated_Source\PSoC4/CyLFClk.c **** 
1958:Generated_Source\PSoC4/CyLFClk.c **** 
1959:Generated_Source\PSoC4/CyLFClk.c ****     /*******************************************************************************
1960:Generated_Source\PSoC4/CyLFClk.c ****     * Function Name: CySysWdtSetMatch
1961:Generated_Source\PSoC4/CyLFClk.c ****     ****************************************************************************//**
1962:Generated_Source\PSoC4/CyLFClk.c ****     *
1963:Generated_Source\PSoC4/CyLFClk.c ****     * \brief Configures the WDT counter match comparison value.
1964:Generated_Source\PSoC4/CyLFClk.c ****     *
1965:Generated_Source\PSoC4/CyLFClk.c ****     * \param match Valid range [0-65535]. The value to be used to match against 
1966:Generated_Source\PSoC4/CyLFClk.c ****     * the counter.
1967:Generated_Source\PSoC4/CyLFClk.c ****     *
1968:Generated_Source\PSoC4/CyLFClk.c ****     *******************************************************************************/
1969:Generated_Source\PSoC4/CyLFClk.c ****     void CySysWdtSetMatch(uint32 match)
1970:Generated_Source\PSoC4/CyLFClk.c ****     {
1971:Generated_Source\PSoC4/CyLFClk.c ****         match &= CY_SYS_WDT_MATCH_MASK;
1972:Generated_Source\PSoC4/CyLFClk.c ****         CY_SYS_WDT_MATCH_REG = (CY_SYS_WDT_MATCH_REG & (uint32)(~CY_SYS_WDT_MATCH_MASK)) | match;
1973:Generated_Source\PSoC4/CyLFClk.c ****     }
1974:Generated_Source\PSoC4/CyLFClk.c **** 
1975:Generated_Source\PSoC4/CyLFClk.c **** 
1976:Generated_Source\PSoC4/CyLFClk.c ****     /*******************************************************************************
1977:Generated_Source\PSoC4/CyLFClk.c ****     * Function Name: CySysWdtGetMatch
1978:Generated_Source\PSoC4/CyLFClk.c ****     ****************************************************************************//**
1979:Generated_Source\PSoC4/CyLFClk.c ****     *
1980:Generated_Source\PSoC4/CyLFClk.c ****     * \brief Reads the WDT counter match comparison value.
1981:Generated_Source\PSoC4/CyLFClk.c ****     *
1982:Generated_Source\PSoC4/CyLFClk.c ****     * \return The counter match value.
1983:Generated_Source\PSoC4/CyLFClk.c ****     *
1984:Generated_Source\PSoC4/CyLFClk.c ****     *******************************************************************************/
1985:Generated_Source\PSoC4/CyLFClk.c ****     uint32 CySysWdtGetMatch(void)
1986:Generated_Source\PSoC4/CyLFClk.c ****     {
1987:Generated_Source\PSoC4/CyLFClk.c ****         return (CY_SYS_WDT_MATCH_REG & CY_SYS_WDT_MATCH_MASK);
1988:Generated_Source\PSoC4/CyLFClk.c ****     }
1989:Generated_Source\PSoC4/CyLFClk.c **** 
1990:Generated_Source\PSoC4/CyLFClk.c **** 
1991:Generated_Source\PSoC4/CyLFClk.c ****     /*******************************************************************************
1992:Generated_Source\PSoC4/CyLFClk.c ****     * Function Name: CySysWdtGetCount
1993:Generated_Source\PSoC4/CyLFClk.c ****     ****************************************************************************//**
1994:Generated_Source\PSoC4/CyLFClk.c ****     *
1995:Generated_Source\PSoC4/CyLFClk.c ****     * \brief Reads the current WDT counter value.
1996:Generated_Source\PSoC4/CyLFClk.c ****     *
1997:Generated_Source\PSoC4/CyLFClk.c ****     * \return A live counter value.
1998:Generated_Source\PSoC4/CyLFClk.c ****     *
ARM GAS  C:\Users\JamesN4\AppData\Local\Temp\ccOIY297.s 			page 105


1999:Generated_Source\PSoC4/CyLFClk.c ****     *******************************************************************************/
2000:Generated_Source\PSoC4/CyLFClk.c ****     uint32 CySysWdtGetCount(void)
2001:Generated_Source\PSoC4/CyLFClk.c ****     {
2002:Generated_Source\PSoC4/CyLFClk.c ****         return ((uint32)CY_SYS_WDT_COUNTER_REG);
2003:Generated_Source\PSoC4/CyLFClk.c ****     }
2004:Generated_Source\PSoC4/CyLFClk.c **** 
2005:Generated_Source\PSoC4/CyLFClk.c **** 
2006:Generated_Source\PSoC4/CyLFClk.c ****     /*******************************************************************************
2007:Generated_Source\PSoC4/CyLFClk.c ****     * Function Name: CySysWdtSetIgnoreBits
2008:Generated_Source\PSoC4/CyLFClk.c ****     ****************************************************************************//**
2009:Generated_Source\PSoC4/CyLFClk.c ****     *
2010:Generated_Source\PSoC4/CyLFClk.c ****     * \brief
2011:Generated_Source\PSoC4/CyLFClk.c ****     * Configures the number of the MSB bits of the watchdog timer that are not
2012:Generated_Source\PSoC4/CyLFClk.c ****     * checked against the match.
2013:Generated_Source\PSoC4/CyLFClk.c ****     *
2014:Generated_Source\PSoC4/CyLFClk.c ****     * \param bitsNum Valid range [0-15]. The number of the MSB bits.
2015:Generated_Source\PSoC4/CyLFClk.c ****     *
2016:Generated_Source\PSoC4/CyLFClk.c ****     * \details The value of bitsNum controls the time-to-reset of the watchdog
2017:Generated_Source\PSoC4/CyLFClk.c ****     * (which happens after 3 successive matches).
2018:Generated_Source\PSoC4/CyLFClk.c ****     *
2019:Generated_Source\PSoC4/CyLFClk.c ****     *******************************************************************************/
2020:Generated_Source\PSoC4/CyLFClk.c ****     void CySysWdtSetIgnoreBits(uint32 bitsNum)
2021:Generated_Source\PSoC4/CyLFClk.c ****     {
2022:Generated_Source\PSoC4/CyLFClk.c ****         bitsNum = ((uint32)(bitsNum << CY_SYS_WDT_IGNORE_BITS_SHIFT) & CY_SYS_WDT_IGNORE_BITS_MASK)
2023:Generated_Source\PSoC4/CyLFClk.c ****         CY_SYS_WDT_MATCH_REG = (CY_SYS_WDT_MATCH_REG & (uint32)(~CY_SYS_WDT_IGNORE_BITS_MASK)) | bi
2024:Generated_Source\PSoC4/CyLFClk.c ****     }
2025:Generated_Source\PSoC4/CyLFClk.c **** 
2026:Generated_Source\PSoC4/CyLFClk.c **** 
2027:Generated_Source\PSoC4/CyLFClk.c ****     /*******************************************************************************
2028:Generated_Source\PSoC4/CyLFClk.c ****     * Function Name: CySysWdtGetIgnoreBits
2029:Generated_Source\PSoC4/CyLFClk.c ****     ****************************************************************************//**
2030:Generated_Source\PSoC4/CyLFClk.c ****     *
2031:Generated_Source\PSoC4/CyLFClk.c ****     * \brief
2032:Generated_Source\PSoC4/CyLFClk.c ****     * Reads the number of the  MSB bits of the watchdog timer that are not
2033:Generated_Source\PSoC4/CyLFClk.c ****     * checked against the match.
2034:Generated_Source\PSoC4/CyLFClk.c ****     *
2035:Generated_Source\PSoC4/CyLFClk.c ****     * \return The number of the MSB bits.
2036:Generated_Source\PSoC4/CyLFClk.c ****     *
2037:Generated_Source\PSoC4/CyLFClk.c ****     *******************************************************************************/
2038:Generated_Source\PSoC4/CyLFClk.c ****     uint32 CySysWdtGetIgnoreBits(void)
2039:Generated_Source\PSoC4/CyLFClk.c ****     {
2040:Generated_Source\PSoC4/CyLFClk.c ****         return((uint32)((CY_SYS_WDT_MATCH_REG & CY_SYS_WDT_IGNORE_BITS_MASK) >> CY_SYS_WDT_IGNORE_B
2041:Generated_Source\PSoC4/CyLFClk.c ****     }
2042:Generated_Source\PSoC4/CyLFClk.c **** 
2043:Generated_Source\PSoC4/CyLFClk.c **** 
2044:Generated_Source\PSoC4/CyLFClk.c ****     /*******************************************************************************
2045:Generated_Source\PSoC4/CyLFClk.c ****     * Function Name: CySysWdtClearInterrupt
2046:Generated_Source\PSoC4/CyLFClk.c ****     ****************************************************************************//**
2047:Generated_Source\PSoC4/CyLFClk.c ****     *
2048:Generated_Source\PSoC4/CyLFClk.c ****     * \brief
2049:Generated_Source\PSoC4/CyLFClk.c ****     * Feeds the watchdog.
2050:Generated_Source\PSoC4/CyLFClk.c ****     * Cleans the WDT match flag which is set every time the WDT counter reaches a 
2051:Generated_Source\PSoC4/CyLFClk.c ****     * WDT match value. Two unserviced interrupts lead to a system reset 
2052:Generated_Source\PSoC4/CyLFClk.c ****     * (i.e. at the third match).
2053:Generated_Source\PSoC4/CyLFClk.c ****     *
2054:Generated_Source\PSoC4/CyLFClk.c ****     *******************************************************************************/
2055:Generated_Source\PSoC4/CyLFClk.c ****     void CySysWdtClearInterrupt(void)
ARM GAS  C:\Users\JamesN4\AppData\Local\Temp\ccOIY297.s 			page 106


2056:Generated_Source\PSoC4/CyLFClk.c ****     {
2057:Generated_Source\PSoC4/CyLFClk.c ****         CY_SYS_SRSS_INTR_REG |= CY_SYS_WDT_LOWER_BIT_MASK;
2058:Generated_Source\PSoC4/CyLFClk.c ****     }
2059:Generated_Source\PSoC4/CyLFClk.c **** 
2060:Generated_Source\PSoC4/CyLFClk.c **** 
2061:Generated_Source\PSoC4/CyLFClk.c ****     /*******************************************************************************
2062:Generated_Source\PSoC4/CyLFClk.c ****     * Function Name: CySysWdtMaskInterrupt
2063:Generated_Source\PSoC4/CyLFClk.c ****     ****************************************************************************//**
2064:Generated_Source\PSoC4/CyLFClk.c ****     *
2065:Generated_Source\PSoC4/CyLFClk.c ****     * \brief
2066:Generated_Source\PSoC4/CyLFClk.c ****     * After masking interrupts from WDT, they are not passed to CPU.
2067:Generated_Source\PSoC4/CyLFClk.c ****     * This function does not disable WDT reset generation.
2068:Generated_Source\PSoC4/CyLFClk.c ****     *
2069:Generated_Source\PSoC4/CyLFClk.c ****     *******************************************************************************/
2070:Generated_Source\PSoC4/CyLFClk.c ****     void CySysWdtMaskInterrupt(void)
2071:Generated_Source\PSoC4/CyLFClk.c ****     {
2072:Generated_Source\PSoC4/CyLFClk.c ****         CY_SYS_SRSS_INTR_MASK_REG &= (uint32)(~ (uint32)CY_SYS_WDT_LOWER_BIT_MASK);
2073:Generated_Source\PSoC4/CyLFClk.c ****     }
2074:Generated_Source\PSoC4/CyLFClk.c **** 
2075:Generated_Source\PSoC4/CyLFClk.c **** 
2076:Generated_Source\PSoC4/CyLFClk.c ****     /*******************************************************************************
2077:Generated_Source\PSoC4/CyLFClk.c ****     * Function Name: CySysWdtUnmaskInterrupt
2078:Generated_Source\PSoC4/CyLFClk.c ****     ****************************************************************************//**
2079:Generated_Source\PSoC4/CyLFClk.c ****     *
2080:Generated_Source\PSoC4/CyLFClk.c ****     * \brief
2081:Generated_Source\PSoC4/CyLFClk.c ****     * After unmasking interrupts from WDT, they are passed to CPU.
2082:Generated_Source\PSoC4/CyLFClk.c ****     * This function does not impact the reset generation.
2083:Generated_Source\PSoC4/CyLFClk.c ****     *
2084:Generated_Source\PSoC4/CyLFClk.c ****     *******************************************************************************/
2085:Generated_Source\PSoC4/CyLFClk.c ****     void CySysWdtUnmaskInterrupt(void)
2086:Generated_Source\PSoC4/CyLFClk.c ****     {
2087:Generated_Source\PSoC4/CyLFClk.c ****         CY_SYS_SRSS_INTR_MASK_REG |= CY_SYS_WDT_LOWER_BIT_MASK;
2088:Generated_Source\PSoC4/CyLFClk.c ****     }
2089:Generated_Source\PSoC4/CyLFClk.c **** 
2090:Generated_Source\PSoC4/CyLFClk.c **** 
2091:Generated_Source\PSoC4/CyLFClk.c ****     /*******************************************************************************
2092:Generated_Source\PSoC4/CyLFClk.c ****     * Function Name: CySysWdtSetIsrCallback
2093:Generated_Source\PSoC4/CyLFClk.c ****     ****************************************************************************//**
2094:Generated_Source\PSoC4/CyLFClk.c ****     *
2095:Generated_Source\PSoC4/CyLFClk.c ****     * \brief
2096:Generated_Source\PSoC4/CyLFClk.c ****     * Sets the ISR callback function for the WDT counter
2097:Generated_Source\PSoC4/CyLFClk.c ****     *
2098:Generated_Source\PSoC4/CyLFClk.c ****     * \param function The pointer to the callback function.
2099:Generated_Source\PSoC4/CyLFClk.c ****     *
2100:Generated_Source\PSoC4/CyLFClk.c ****     * \return The pointer to a previous callback function.
2101:Generated_Source\PSoC4/CyLFClk.c ****     *
2102:Generated_Source\PSoC4/CyLFClk.c ****     *******************************************************************************/
2103:Generated_Source\PSoC4/CyLFClk.c ****     cyWdtCallback CySysWdtSetInterruptCallback(cyWdtCallback function)
2104:Generated_Source\PSoC4/CyLFClk.c ****     {
2105:Generated_Source\PSoC4/CyLFClk.c ****         cyWdtCallback prevCallback = (void *)0;
2106:Generated_Source\PSoC4/CyLFClk.c **** 
2107:Generated_Source\PSoC4/CyLFClk.c ****         prevCallback = cySysWdtCallback;
2108:Generated_Source\PSoC4/CyLFClk.c ****         cySysWdtCallback = function;
2109:Generated_Source\PSoC4/CyLFClk.c **** 
2110:Generated_Source\PSoC4/CyLFClk.c ****         return(prevCallback);
2111:Generated_Source\PSoC4/CyLFClk.c ****     }
2112:Generated_Source\PSoC4/CyLFClk.c **** 
ARM GAS  C:\Users\JamesN4\AppData\Local\Temp\ccOIY297.s 			page 107


2113:Generated_Source\PSoC4/CyLFClk.c **** 
2114:Generated_Source\PSoC4/CyLFClk.c ****     /*******************************************************************************
2115:Generated_Source\PSoC4/CyLFClk.c ****     * Function Name: CySysWdtGetIsrCallback
2116:Generated_Source\PSoC4/CyLFClk.c ****     ****************************************************************************//**
2117:Generated_Source\PSoC4/CyLFClk.c ****     *
2118:Generated_Source\PSoC4/CyLFClk.c ****     * \brief
2119:Generated_Source\PSoC4/CyLFClk.c ****     * Gets the ISR callback function for the WDT counter
2120:Generated_Source\PSoC4/CyLFClk.c ****     *
2121:Generated_Source\PSoC4/CyLFClk.c ****     * \return The pointer to the callback function registered for WDT.
2122:Generated_Source\PSoC4/CyLFClk.c ****     *
2123:Generated_Source\PSoC4/CyLFClk.c ****     *******************************************************************************/
2124:Generated_Source\PSoC4/CyLFClk.c ****     cyWdtCallback CySysWdtGetInterruptCallback(void)
2125:Generated_Source\PSoC4/CyLFClk.c ****     {
2126:Generated_Source\PSoC4/CyLFClk.c ****         return(cySysWdtCallback);
2127:Generated_Source\PSoC4/CyLFClk.c ****     }
2128:Generated_Source\PSoC4/CyLFClk.c **** 
2129:Generated_Source\PSoC4/CyLFClk.c **** 
2130:Generated_Source\PSoC4/CyLFClk.c ****     /*******************************************************************************
2131:Generated_Source\PSoC4/CyLFClk.c ****     * Function Name: CySysWdtIsr
2132:Generated_Source\PSoC4/CyLFClk.c ****     ****************************************************************************//**
2133:Generated_Source\PSoC4/CyLFClk.c ****     *
2134:Generated_Source\PSoC4/CyLFClk.c ****     * \brief
2135:Generated_Source\PSoC4/CyLFClk.c ****     * This is the handler of the WDT interrupt in CPU NVIC.
2136:Generated_Source\PSoC4/CyLFClk.c ****     *
2137:Generated_Source\PSoC4/CyLFClk.c ****     * The handler calls the respective callback functions configured by the user 
2138:Generated_Source\PSoC4/CyLFClk.c ****     * by using CySysWdtSetIsrCallback() API.
2139:Generated_Source\PSoC4/CyLFClk.c ****     *
2140:Generated_Source\PSoC4/CyLFClk.c ****     *
2141:Generated_Source\PSoC4/CyLFClk.c ****     * \details
2142:Generated_Source\PSoC4/CyLFClk.c ****     * This function clears the WDT interrupt every time when it is called.
2143:Generated_Source\PSoC4/CyLFClk.c ****     * Reset after the 3rd interrupt does not happen if this function is registered
2144:Generated_Source\PSoC4/CyLFClk.c ****     * as the interrupt handler even if the "Watchdog with Interrupt" mode is
2145:Generated_Source\PSoC4/CyLFClk.c ****     * selected on the "Low Frequency Clocks" tab.
2146:Generated_Source\PSoC4/CyLFClk.c ****     *
2147:Generated_Source\PSoC4/CyLFClk.c ****     *******************************************************************************/
2148:Generated_Source\PSoC4/CyLFClk.c ****     void CySysWdtIsr(void)
2149:Generated_Source\PSoC4/CyLFClk.c ****     {
2150:Generated_Source\PSoC4/CyLFClk.c ****         if(cySysWdtCallback != (void *) 0)
2151:Generated_Source\PSoC4/CyLFClk.c ****         {
2152:Generated_Source\PSoC4/CyLFClk.c ****             (void)(cySysWdtCallback)();
2153:Generated_Source\PSoC4/CyLFClk.c ****         }
2154:Generated_Source\PSoC4/CyLFClk.c **** 
2155:Generated_Source\PSoC4/CyLFClk.c ****         CySysWdtClearInterrupt();
2156:Generated_Source\PSoC4/CyLFClk.c ****     }
2157:Generated_Source\PSoC4/CyLFClk.c **** 
2158:Generated_Source\PSoC4/CyLFClk.c **** #endif /* (CY_IP_SRSSV2) */
2159:Generated_Source\PSoC4/CyLFClk.c **** 
2160:Generated_Source\PSoC4/CyLFClk.c **** 
2161:Generated_Source\PSoC4/CyLFClk.c **** #if(CY_IP_SRSSLT && CY_IP_WCO && CY_IP_WCO_WDT_EN)
2162:Generated_Source\PSoC4/CyLFClk.c **** 
2163:Generated_Source\PSoC4/CyLFClk.c **** /*******************************************************************************
2164:Generated_Source\PSoC4/CyLFClk.c **** * Function Name: CySysClkGetTimerSource
2165:Generated_Source\PSoC4/CyLFClk.c **** ********************************************************************************
2166:Generated_Source\PSoC4/CyLFClk.c **** *
2167:Generated_Source\PSoC4/CyLFClk.c **** * \brief Gets the clock source for the DeepSleep Timers.
2168:Generated_Source\PSoC4/CyLFClk.c **** *
2169:Generated_Source\PSoC4/CyLFClk.c **** * The function is applicable only for PSoC 4100S / PSoC Analog Coprocessor.
ARM GAS  C:\Users\JamesN4\AppData\Local\Temp\ccOIY297.s 			page 108


2170:Generated_Source\PSoC4/CyLFClk.c **** *
2171:Generated_Source\PSoC4/CyLFClk.c **** * \return The DeepSleep Timer source
2172:Generated_Source\PSoC4/CyLFClk.c **** * CY_SYS_CLK_TIMER_SRC_ILO Internal Low Frequency (32 kHz) Oscillator (ILO)
2173:Generated_Source\PSoC4/CyLFClk.c **** * CY_SYS_CLK_TIMER_SRC_WCO Low Frequency Watch Crystal Oscillator (WCO)
2174:Generated_Source\PSoC4/CyLFClk.c **** *
2175:Generated_Source\PSoC4/CyLFClk.c **** *******************************************************************************/
2176:Generated_Source\PSoC4/CyLFClk.c ****     static uint32 CySysClkGetTimerSource(void)
2177:Generated_Source\PSoC4/CyLFClk.c ****     {
2178:Generated_Source\PSoC4/CyLFClk.c ****         uint32 timerSource;
2179:Generated_Source\PSoC4/CyLFClk.c ****         timerSource = CY_SYS_WCO_WDT_CONFIG_REG & CY_SYS_CLK_TIMER_SEL_MASK;
2180:Generated_Source\PSoC4/CyLFClk.c ****         return (timerSource);
2181:Generated_Source\PSoC4/CyLFClk.c ****     }    
2182:Generated_Source\PSoC4/CyLFClk.c **** 
2183:Generated_Source\PSoC4/CyLFClk.c **** 
2184:Generated_Source\PSoC4/CyLFClk.c **** /*******************************************************************************
2185:Generated_Source\PSoC4/CyLFClk.c **** * Function Name: CySysClkSetTimerSource
2186:Generated_Source\PSoC4/CyLFClk.c **** ****************************************************************************//**
2187:Generated_Source\PSoC4/CyLFClk.c **** *
2188:Generated_Source\PSoC4/CyLFClk.c **** * \brief Sets the clock source for the DeepSleep Timers.
2189:Generated_Source\PSoC4/CyLFClk.c **** *
2190:Generated_Source\PSoC4/CyLFClk.c **** * The function is applicable only for PSoC 4100S / PSoC Analog Coprocessor 
2191:Generated_Source\PSoC4/CyLFClk.c **** * devices.
2192:Generated_Source\PSoC4/CyLFClk.c **** *
2193:Generated_Source\PSoC4/CyLFClk.c **** * \param source
2194:Generated_Source\PSoC4/CyLFClk.c **** *  CY_SYS_CLK_TIMER_SRC_ILO - Internal Low Frequency (32 kHz) Oscillator 
2195:Generated_Source\PSoC4/CyLFClk.c **** * (ILO).<br>
2196:Generated_Source\PSoC4/CyLFClk.c **** * CY_SYS_CLK_TIMER_SRC_WCO - Low Frequency Watch Crystal Oscillator 
2197:Generated_Source\PSoC4/CyLFClk.c **** * (WCO).
2198:Generated_Source\PSoC4/CyLFClk.c **** *
2199:Generated_Source\PSoC4/CyLFClk.c **** * \details Both the current source and the new source must be running and stable 
2200:Generated_Source\PSoC4/CyLFClk.c **** * before calling this function.
2201:Generated_Source\PSoC4/CyLFClk.c **** *
2202:Generated_Source\PSoC4/CyLFClk.c **** * \warning DeepSleep Timer reset is required if Timer source was switched while 
2203:Generated_Source\PSoC4/CyLFClk.c **** * DeepSleep Timers were running. Call CySysTimerResetCounters() API after 
2204:Generated_Source\PSoC4/CyLFClk.c **** * Timer source switching.
2205:Generated_Source\PSoC4/CyLFClk.c **** * It is highly recommended to disable DeepSleep Timers before Timer source 
2206:Generated_Source\PSoC4/CyLFClk.c **** * switching. Changing the Timer source may change the functionality that uses 
2207:Generated_Source\PSoC4/CyLFClk.c **** * this Timers as clock source.
2208:Generated_Source\PSoC4/CyLFClk.c **** *******************************************************************************/
2209:Generated_Source\PSoC4/CyLFClk.c ****     void CySysClkSetTimerSource(uint32 source)
2210:Generated_Source\PSoC4/CyLFClk.c ****     {
2211:Generated_Source\PSoC4/CyLFClk.c ****         uint8  interruptState;
2212:Generated_Source\PSoC4/CyLFClk.c **** 
2213:Generated_Source\PSoC4/CyLFClk.c ****         if (CySysClkGetTimerSource() != source)
2214:Generated_Source\PSoC4/CyLFClk.c ****         {
2215:Generated_Source\PSoC4/CyLFClk.c **** 
2216:Generated_Source\PSoC4/CyLFClk.c ****             /* Reset both _EN bits in WCO_WDT_CLKEN register */
2217:Generated_Source\PSoC4/CyLFClk.c ****             CY_SYS_WCO_WDT_CLKEN_REG &= ~CY_SYS_WCO_WDT_CLKEN_RESET_MASK;
2218:Generated_Source\PSoC4/CyLFClk.c ****             
2219:Generated_Source\PSoC4/CyLFClk.c ****             /* Wait 4 new clock source-cycles for change to come into effect */
2220:Generated_Source\PSoC4/CyLFClk.c ****             CyDelayUs(CY_SYS_4TIMER_DELAY_US);
2221:Generated_Source\PSoC4/CyLFClk.c **** 
2222:Generated_Source\PSoC4/CyLFClk.c ****             interruptState = CyEnterCriticalSection();
2223:Generated_Source\PSoC4/CyLFClk.c ****             CY_SYS_WCO_WDT_CONFIG_REG = (CY_SYS_WCO_WDT_CONFIG_REG & (uint32)(~CY_SYS_CLK_TIMER_SEL
2224:Generated_Source\PSoC4/CyLFClk.c ****                                     (source & CY_SYS_CLK_TIMER_SEL_MASK);
2225:Generated_Source\PSoC4/CyLFClk.c ****             CyExitCriticalSection(interruptState);
2226:Generated_Source\PSoC4/CyLFClk.c ****         }
ARM GAS  C:\Users\JamesN4\AppData\Local\Temp\ccOIY297.s 			page 109


2227:Generated_Source\PSoC4/CyLFClk.c **** 
2228:Generated_Source\PSoC4/CyLFClk.c ****         CY_SYS_WCO_WDT_CLKEN_REG = (CY_SYS_WCO_WDT_CLKEN_REG & (uint32)(~CY_SYS_WCO_WDT_CLKEN_RESET
2229:Generated_Source\PSoC4/CyLFClk.c ****                                     CY_SYS_SET_CURRENT_TIMER_SOURCE_BIT;
2230:Generated_Source\PSoC4/CyLFClk.c ****     }
2231:Generated_Source\PSoC4/CyLFClk.c **** 
2232:Generated_Source\PSoC4/CyLFClk.c **** 
2233:Generated_Source\PSoC4/CyLFClk.c ****     /*******************************************************************************
2234:Generated_Source\PSoC4/CyLFClk.c ****     * Function Name: CySysTimerGetEnabledStatus
2235:Generated_Source\PSoC4/CyLFClk.c ****     ****************************************************************************//**
2236:Generated_Source\PSoC4/CyLFClk.c ****     *
2237:Generated_Source\PSoC4/CyLFClk.c ****     * \brief Reads the enabled status of one of the three DeepSleep Timer 
2238:Generated_Source\PSoC4/CyLFClk.c ****     * counters.
2239:Generated_Source\PSoC4/CyLFClk.c ****     *
2240:Generated_Source\PSoC4/CyLFClk.c ****     * \param counterNum: Valid range [0-2]. The number of the DeepSleep Timer 
2241:Generated_Source\PSoC4/CyLFClk.c ****     * counter.
2242:Generated_Source\PSoC4/CyLFClk.c ****     *
2243:Generated_Source\PSoC4/CyLFClk.c ****     * \return The status of the Timers counter:
2244:Generated_Source\PSoC4/CyLFClk.c ****     * \return 0 - If the Counter is disabled.
2245:Generated_Source\PSoC4/CyLFClk.c ****     * \return 1 - If the Counter is enabled.
2246:Generated_Source\PSoC4/CyLFClk.c ****     *
2247:Generated_Source\PSoC4/CyLFClk.c ****     * \details
2248:Generated_Source\PSoC4/CyLFClk.c ****     * This function returns an actual DeepSleep Timer counter status from the 
2249:Generated_Source\PSoC4/CyLFClk.c ****     * status register. It may take up to 3 LFCLK cycles for the Timer status 
2250:Generated_Source\PSoC4/CyLFClk.c ****     * register to contain actual data after the Timer counter is enabled.
2251:Generated_Source\PSoC4/CyLFClk.c ****     *
2252:Generated_Source\PSoC4/CyLFClk.c ****     *******************************************************************************/
2253:Generated_Source\PSoC4/CyLFClk.c ****     uint32 CySysTimerGetEnabledStatus(uint32 counterNum)
2254:Generated_Source\PSoC4/CyLFClk.c ****     {
2255:Generated_Source\PSoC4/CyLFClk.c ****         CYASSERT(counterNum < CY_SYS_TIMER_COUNTERS_MAX);
2256:Generated_Source\PSoC4/CyLFClk.c ****         return ((CY_SYS_WCO_WDT_CONTROL_REG >> ((CY_SYS_TIMER_CNT_SHIFT * counterNum) + 
2257:Generated_Source\PSoC4/CyLFClk.c ****                                                  CY_SYS_TIMER_CNT_STTS_SHIFT)) & 0x01u);
2258:Generated_Source\PSoC4/CyLFClk.c ****     }
2259:Generated_Source\PSoC4/CyLFClk.c **** 
2260:Generated_Source\PSoC4/CyLFClk.c **** 
2261:Generated_Source\PSoC4/CyLFClk.c ****     /*******************************************************************************
2262:Generated_Source\PSoC4/CyLFClk.c ****     * Function Name: CySysTimerSetMode
2263:Generated_Source\PSoC4/CyLFClk.c ****     ****************************************************************************//**
2264:Generated_Source\PSoC4/CyLFClk.c ****     *
2265:Generated_Source\PSoC4/CyLFClk.c ****     * \brief Writes the mode of one of the three DeepSleep Timer counters.
2266:Generated_Source\PSoC4/CyLFClk.c ****     *
2267:Generated_Source\PSoC4/CyLFClk.c ****     * \param counterNum: Valid range [0-2]. The number of the DeepSleep Timer 
2268:Generated_Source\PSoC4/CyLFClk.c ****     * counter.
2269:Generated_Source\PSoC4/CyLFClk.c ****     *
2270:Generated_Source\PSoC4/CyLFClk.c ****     * \param mode
2271:Generated_Source\PSoC4/CyLFClk.c ****     *  CY_SYS_TIMER_MODE_NONE - Free running.<br>
2272:Generated_Source\PSoC4/CyLFClk.c ****     * CY_SYS_TIMER_MODE_INT - The interrupt generated on match for counter 0
2273:Generated_Source\PSoC4/CyLFClk.c ****     * and 1, and on bit toggle for counter 2.
2274:Generated_Source\PSoC4/CyLFClk.c ****     *
2275:Generated_Source\PSoC4/CyLFClk.c ****     * \details
2276:Generated_Source\PSoC4/CyLFClk.c ****     * DeepSleep Timer counter counterNum should be disabled to set a mode. 
2277:Generated_Source\PSoC4/CyLFClk.c ****     * Otherwise, this function call has no effect. If the specified counter is 
2278:Generated_Source\PSoC4/CyLFClk.c ****     * enabled, call the CySysTimerDisable() function with the corresponding 
2279:Generated_Source\PSoC4/CyLFClk.c ****     * parameter to disable the specified counter and wait for it to stop.
2280:Generated_Source\PSoC4/CyLFClk.c ****     *
2281:Generated_Source\PSoC4/CyLFClk.c ****     *******************************************************************************/
2282:Generated_Source\PSoC4/CyLFClk.c ****     void CySysTimerSetMode(uint32 counterNum, uint32 mode)
2283:Generated_Source\PSoC4/CyLFClk.c ****     {
ARM GAS  C:\Users\JamesN4\AppData\Local\Temp\ccOIY297.s 			page 110


2284:Generated_Source\PSoC4/CyLFClk.c ****         uint32 configRegValue;
2285:Generated_Source\PSoC4/CyLFClk.c **** 
2286:Generated_Source\PSoC4/CyLFClk.c ****         CYASSERT(counterNum < CY_SYS_TIMER_COUNTERS_MAX);
2287:Generated_Source\PSoC4/CyLFClk.c **** 
2288:Generated_Source\PSoC4/CyLFClk.c ****         CYASSERT(mode <= CY_SYS_TIMER_MODE_MASK);
2289:Generated_Source\PSoC4/CyLFClk.c **** 
2290:Generated_Source\PSoC4/CyLFClk.c ****         if(0u == CySysTimerGetEnabledStatus(counterNum))
2291:Generated_Source\PSoC4/CyLFClk.c ****         {
2292:Generated_Source\PSoC4/CyLFClk.c ****             configRegValue = CY_SYS_WCO_WDT_CONFIG_REG &
2293:Generated_Source\PSoC4/CyLFClk.c ****                                 (uint32)~((uint32)(CY_SYS_TIMER_MODE_MASK << (counterNum * CY_SYS_T
2294:Generated_Source\PSoC4/CyLFClk.c ****             configRegValue |= (uint32)((mode & CY_SYS_TIMER_MODE_MASK) << (counterNum * CY_SYS_TIME
2295:Generated_Source\PSoC4/CyLFClk.c ****             CY_SYS_WCO_WDT_CONFIG_REG = configRegValue;
2296:Generated_Source\PSoC4/CyLFClk.c ****         }
2297:Generated_Source\PSoC4/CyLFClk.c ****     }
2298:Generated_Source\PSoC4/CyLFClk.c **** 
2299:Generated_Source\PSoC4/CyLFClk.c **** 
2300:Generated_Source\PSoC4/CyLFClk.c ****     /*******************************************************************************
2301:Generated_Source\PSoC4/CyLFClk.c ****     * Function Name: CySysTimerGetMode
2302:Generated_Source\PSoC4/CyLFClk.c ****     ****************************************************************************//**
2303:Generated_Source\PSoC4/CyLFClk.c ****     *
2304:Generated_Source\PSoC4/CyLFClk.c ****     * \brief Reads the mode of one of the three DeepSleep Timer counters.
2305:Generated_Source\PSoC4/CyLFClk.c ****     *
2306:Generated_Source\PSoC4/CyLFClk.c ****     * \param counterNum Valid range [0-2]. The number of the Timer counter.
2307:Generated_Source\PSoC4/CyLFClk.c ****     *
2308:Generated_Source\PSoC4/CyLFClk.c ****     * \return The mode of the counter. The same enumerated values as the mode 
2309:Generated_Source\PSoC4/CyLFClk.c ****     * parameter used in CySysTimerSetMode().
2310:Generated_Source\PSoC4/CyLFClk.c ****     *
2311:Generated_Source\PSoC4/CyLFClk.c ****     *******************************************************************************/
2312:Generated_Source\PSoC4/CyLFClk.c ****     uint32 CySysTimerGetMode(uint32 counterNum)
2313:Generated_Source\PSoC4/CyLFClk.c ****     {
2314:Generated_Source\PSoC4/CyLFClk.c ****         return ((CY_SYS_WCO_WDT_CONFIG_REG >> (counterNum * CY_SYS_TIMER_CNT_SHIFT)) & CY_SYS_TIMER
2315:Generated_Source\PSoC4/CyLFClk.c ****     }
2316:Generated_Source\PSoC4/CyLFClk.c **** 
2317:Generated_Source\PSoC4/CyLFClk.c **** 
2318:Generated_Source\PSoC4/CyLFClk.c ****     /*******************************************************************************
2319:Generated_Source\PSoC4/CyLFClk.c ****     * Function Name: CySysTimerSetClearOnMatch
2320:Generated_Source\PSoC4/CyLFClk.c ****     ****************************************************************************//**
2321:Generated_Source\PSoC4/CyLFClk.c ****     *
2322:Generated_Source\PSoC4/CyLFClk.c ****     * \brief Configures the DeepSleep Timer counter "clear on match" setting.
2323:Generated_Source\PSoC4/CyLFClk.c ****     *
2324:Generated_Source\PSoC4/CyLFClk.c ****     * If configured to "clear on match", the counter counts from 0 to MatchValue 
2325:Generated_Source\PSoC4/CyLFClk.c ****     * giving it a period of (MatchValue + 1).
2326:Generated_Source\PSoC4/CyLFClk.c ****     *
2327:Generated_Source\PSoC4/CyLFClk.c ****     * \param counterNum
2328:Generated_Source\PSoC4/CyLFClk.c ****     * Valid range [0-1]. The number of the Timer counter. The match values are not
2329:Generated_Source\PSoC4/CyLFClk.c ****     * supported by counter 2.
2330:Generated_Source\PSoC4/CyLFClk.c ****     * \param enable 0 to disable appropriate counter <br>
2331:Generated_Source\PSoC4/CyLFClk.c ****     * 1 to enable appropriate counter
2332:Generated_Source\PSoC4/CyLFClk.c ****     *
2333:Generated_Source\PSoC4/CyLFClk.c ****     * \details
2334:Generated_Source\PSoC4/CyLFClk.c ****     * Timer counter counterNum should be disabled. Otherwise this function call
2335:Generated_Source\PSoC4/CyLFClk.c ****     * has no effect. If the specified counter is enabled, call the CySysTimerDisable()
2336:Generated_Source\PSoC4/CyLFClk.c ****     * function with the corresponding parameter to disable the specified counter and
2337:Generated_Source\PSoC4/CyLFClk.c ****     * wait for it to stop. This may take up to three Timer source-cycles.
2338:Generated_Source\PSoC4/CyLFClk.c ****     *
2339:Generated_Source\PSoC4/CyLFClk.c ****     *******************************************************************************/
2340:Generated_Source\PSoC4/CyLFClk.c ****     void CySysTimerSetClearOnMatch(uint32 counterNum, uint32 enable)
ARM GAS  C:\Users\JamesN4\AppData\Local\Temp\ccOIY297.s 			page 111


2341:Generated_Source\PSoC4/CyLFClk.c ****     {
2342:Generated_Source\PSoC4/CyLFClk.c ****         uint32 configRegValue;
2343:Generated_Source\PSoC4/CyLFClk.c **** 
2344:Generated_Source\PSoC4/CyLFClk.c ****         CYASSERT((counterNum == CY_SYS_TIMER0) ||
2345:Generated_Source\PSoC4/CyLFClk.c ****                  (counterNum == CY_SYS_TIMER1));
2346:Generated_Source\PSoC4/CyLFClk.c **** 
2347:Generated_Source\PSoC4/CyLFClk.c ****         if(0u == CySysTimerGetEnabledStatus(counterNum))
2348:Generated_Source\PSoC4/CyLFClk.c ****         {
2349:Generated_Source\PSoC4/CyLFClk.c ****             configRegValue = CY_SYS_WCO_WDT_CONFIG_REG & (uint32)~((uint32)((uint32)1u << 
2350:Generated_Source\PSoC4/CyLFClk.c ****              ((counterNum * CY_SYS_TIMER_CNT_SHIFT) + CY_SYS_TIMER_CNT_MATCH_CLR_SHIFT)));
2351:Generated_Source\PSoC4/CyLFClk.c **** 
2352:Generated_Source\PSoC4/CyLFClk.c ****             configRegValue
2353:Generated_Source\PSoC4/CyLFClk.c ****                 |= (uint32)(enable << ((counterNum * CY_SYS_TIMER_CNT_SHIFT) + CY_SYS_TIMER_CNT_MAT
2354:Generated_Source\PSoC4/CyLFClk.c **** 
2355:Generated_Source\PSoC4/CyLFClk.c ****             CY_SYS_WCO_WDT_CONFIG_REG = configRegValue;
2356:Generated_Source\PSoC4/CyLFClk.c ****         }
2357:Generated_Source\PSoC4/CyLFClk.c ****     }
2358:Generated_Source\PSoC4/CyLFClk.c **** 
2359:Generated_Source\PSoC4/CyLFClk.c **** 
2360:Generated_Source\PSoC4/CyLFClk.c ****     /*******************************************************************************
2361:Generated_Source\PSoC4/CyLFClk.c ****     * Function Name: CySysTimerGetClearOnMatch
2362:Generated_Source\PSoC4/CyLFClk.c ****     ****************************************************************************//**
2363:Generated_Source\PSoC4/CyLFClk.c ****     *
2364:Generated_Source\PSoC4/CyLFClk.c ****     * \brief Reads the "clear on match" setting for the specified DeepSleep Timer 
2365:Generated_Source\PSoC4/CyLFClk.c ****     * counter.
2366:Generated_Source\PSoC4/CyLFClk.c ****     *
2367:Generated_Source\PSoC4/CyLFClk.c ****     * \param counterNum Valid range [0-1].  The number of the Timer counter. The 
2368:Generated_Source\PSoC4/CyLFClk.c ****     * match values are not supported by counter 2.
2369:Generated_Source\PSoC4/CyLFClk.c ****     *
2370:Generated_Source\PSoC4/CyLFClk.c ****     * \return The "clear on match" status: <br>1 if enabled <br>0 if disabled
2371:Generated_Source\PSoC4/CyLFClk.c ****     *
2372:Generated_Source\PSoC4/CyLFClk.c ****     *******************************************************************************/
2373:Generated_Source\PSoC4/CyLFClk.c ****     uint32 CySysTimerGetClearOnMatch(uint32 counterNum)
2374:Generated_Source\PSoC4/CyLFClk.c ****     {
2375:Generated_Source\PSoC4/CyLFClk.c ****         CYASSERT((counterNum == CY_SYS_TIMER0) ||
2376:Generated_Source\PSoC4/CyLFClk.c ****                  (counterNum == CY_SYS_TIMER1));
2377:Generated_Source\PSoC4/CyLFClk.c **** 
2378:Generated_Source\PSoC4/CyLFClk.c ****         return (uint32)((CY_SYS_WCO_WDT_CONFIG_REG >>
2379:Generated_Source\PSoC4/CyLFClk.c ****                         ((counterNum * CY_SYS_TIMER_CNT_SHIFT) + CY_SYS_TIMER_CNT_MATCH_CLR_SHIFT))
2380:Generated_Source\PSoC4/CyLFClk.c ****     }
2381:Generated_Source\PSoC4/CyLFClk.c **** 
2382:Generated_Source\PSoC4/CyLFClk.c **** 
2383:Generated_Source\PSoC4/CyLFClk.c ****     /*******************************************************************************
2384:Generated_Source\PSoC4/CyLFClk.c ****     * Function Name: CySysTimerEnable
2385:Generated_Source\PSoC4/CyLFClk.c ****     ****************************************************************************//**
2386:Generated_Source\PSoC4/CyLFClk.c ****     *
2387:Generated_Source\PSoC4/CyLFClk.c ****     * \brief Enables the specified DeepSleep Timer counters. All the counters 
2388:Generated_Source\PSoC4/CyLFClk.c ****     * specified in the mask are enabled.
2389:Generated_Source\PSoC4/CyLFClk.c ****     *
2390:Generated_Source\PSoC4/CyLFClk.c ****     * \param counterMask  CY_SYS_TIMER0_MASK - The mask for counter 0 to enable.<br>
2391:Generated_Source\PSoC4/CyLFClk.c ****     * CY_SYS_TIMER1_MASK - The mask for counter 1 to enable.<br>
2392:Generated_Source\PSoC4/CyLFClk.c ****     * CY_SYS_TIMER2_MASK - The mask for counter 2 to enable.
2393:Generated_Source\PSoC4/CyLFClk.c ****     *
2394:Generated_Source\PSoC4/CyLFClk.c ****     * \details
2395:Generated_Source\PSoC4/CyLFClk.c ****     * Enabling or disabling Timer requires 3 Timer source-cycles to come into effect.
2396:Generated_Source\PSoC4/CyLFClk.c ****     * Therefore, the Timer enable state must not be changed more than once in
2397:Generated_Source\PSoC4/CyLFClk.c ****     * that period.
ARM GAS  C:\Users\JamesN4\AppData\Local\Temp\ccOIY297.s 			page 112


2398:Generated_Source\PSoC4/CyLFClk.c ****     *
2399:Generated_Source\PSoC4/CyLFClk.c ****     * After Timer is enabled, it is illegal to write Timer configuration 
2400:Generated_Source\PSoC4/CyLFClk.c ****     * (WCO_WDT_CONFIG) and control (WCO_WDT_CONTROL) registers. This means that all
2401:Generated_Source\PSoC4/CyLFClk.c ****     * Timer functions that contain 'write' in the name (with the exception of 
2402:Generated_Source\PSoC4/CyLFClk.c ****     * CySysTimerSetMatch() function) are illegal to call once Timer enabled.
2403:Generated_Source\PSoC4/CyLFClk.c ****     *
2404:Generated_Source\PSoC4/CyLFClk.c ****     * Timer current source must be running and stable before calling this 
2405:Generated_Source\PSoC4/CyLFClk.c ****     * function.
2406:Generated_Source\PSoC4/CyLFClk.c ****     *
2407:Generated_Source\PSoC4/CyLFClk.c ****     *******************************************************************************/
2408:Generated_Source\PSoC4/CyLFClk.c ****     void CySysTimerEnable(uint32 counterMask)
2409:Generated_Source\PSoC4/CyLFClk.c ****     {
2410:Generated_Source\PSoC4/CyLFClk.c ****         CY_SYS_WCO_WDT_CONTROL_REG |= counterMask;
2411:Generated_Source\PSoC4/CyLFClk.c **** 
2412:Generated_Source\PSoC4/CyLFClk.c ****         if(0u != (counterMask & CY_SYS_TIMER0_MASK))
2413:Generated_Source\PSoC4/CyLFClk.c ****         {
2414:Generated_Source\PSoC4/CyLFClk.c ****             while (0u == CySysTimerGetEnabledStatus(CY_SYS_TIMER0))
2415:Generated_Source\PSoC4/CyLFClk.c ****             {
2416:Generated_Source\PSoC4/CyLFClk.c ****                 /* Wait for changes to come into effect */
2417:Generated_Source\PSoC4/CyLFClk.c ****             }
2418:Generated_Source\PSoC4/CyLFClk.c ****         }
2419:Generated_Source\PSoC4/CyLFClk.c **** 
2420:Generated_Source\PSoC4/CyLFClk.c ****         if(0u != (counterMask & CY_SYS_TIMER1_MASK))
2421:Generated_Source\PSoC4/CyLFClk.c ****         {
2422:Generated_Source\PSoC4/CyLFClk.c ****             while (0u == CySysTimerGetEnabledStatus(CY_SYS_TIMER1))
2423:Generated_Source\PSoC4/CyLFClk.c ****             {
2424:Generated_Source\PSoC4/CyLFClk.c ****                 /* Wait for changes to come into effect */
2425:Generated_Source\PSoC4/CyLFClk.c ****             }
2426:Generated_Source\PSoC4/CyLFClk.c ****         }
2427:Generated_Source\PSoC4/CyLFClk.c **** 
2428:Generated_Source\PSoC4/CyLFClk.c ****         if(0u != (counterMask & CY_SYS_TIMER2_MASK))
2429:Generated_Source\PSoC4/CyLFClk.c ****         {
2430:Generated_Source\PSoC4/CyLFClk.c ****             while (0u == CySysTimerGetEnabledStatus(CY_SYS_TIMER2))
2431:Generated_Source\PSoC4/CyLFClk.c ****             {
2432:Generated_Source\PSoC4/CyLFClk.c ****                 /* Wait for changes to come into effect */
2433:Generated_Source\PSoC4/CyLFClk.c ****             }
2434:Generated_Source\PSoC4/CyLFClk.c ****         }
2435:Generated_Source\PSoC4/CyLFClk.c ****     }
2436:Generated_Source\PSoC4/CyLFClk.c **** 
2437:Generated_Source\PSoC4/CyLFClk.c **** 
2438:Generated_Source\PSoC4/CyLFClk.c ****     /*******************************************************************************
2439:Generated_Source\PSoC4/CyLFClk.c ****     * Function Name: CySysTimerDisable
2440:Generated_Source\PSoC4/CyLFClk.c ****     ****************************************************************************//**
2441:Generated_Source\PSoC4/CyLFClk.c ****     *
2442:Generated_Source\PSoC4/CyLFClk.c ****     * \brief Disables the specified DeepSleep Timer counters.
2443:Generated_Source\PSoC4/CyLFClk.c ****     *
2444:Generated_Source\PSoC4/CyLFClk.c ****     * All the counters specified in the mask are disabled. The function waits for 
2445:Generated_Source\PSoC4/CyLFClk.c ****     * the changes to come into effect.
2446:Generated_Source\PSoC4/CyLFClk.c ****     *
2447:Generated_Source\PSoC4/CyLFClk.c ****     * \param counterMask
2448:Generated_Source\PSoC4/CyLFClk.c ****     *  CY_SYS_TIMER0_MASK - The mask for Counter 0 to disable.<br>
2449:Generated_Source\PSoC4/CyLFClk.c ****     * CY_SYS_TIMER1_MASK - The mask for Counter 1 to disable.<br>
2450:Generated_Source\PSoC4/CyLFClk.c ****     * CY_SYS_TIMER2_MASK - The mask for Counter 2 to disable.
2451:Generated_Source\PSoC4/CyLFClk.c ****     *
2452:Generated_Source\PSoC4/CyLFClk.c ****     *******************************************************************************/
2453:Generated_Source\PSoC4/CyLFClk.c ****     void CySysTimerDisable(uint32 counterMask)
2454:Generated_Source\PSoC4/CyLFClk.c ****     {
ARM GAS  C:\Users\JamesN4\AppData\Local\Temp\ccOIY297.s 			page 113


2455:Generated_Source\PSoC4/CyLFClk.c **** 
2456:Generated_Source\PSoC4/CyLFClk.c ****         CY_SYS_WCO_WDT_CONTROL_REG &= ~counterMask;
2457:Generated_Source\PSoC4/CyLFClk.c **** 
2458:Generated_Source\PSoC4/CyLFClk.c ****         if(0u != (counterMask & CY_SYS_TIMER0_MASK))
2459:Generated_Source\PSoC4/CyLFClk.c ****         {
2460:Generated_Source\PSoC4/CyLFClk.c ****             while (0u != CySysTimerGetEnabledStatus(CY_SYS_TIMER0))
2461:Generated_Source\PSoC4/CyLFClk.c ****             {
2462:Generated_Source\PSoC4/CyLFClk.c ****                 /* Wait for changes to come into effect */
2463:Generated_Source\PSoC4/CyLFClk.c ****             }
2464:Generated_Source\PSoC4/CyLFClk.c ****         }
2465:Generated_Source\PSoC4/CyLFClk.c **** 
2466:Generated_Source\PSoC4/CyLFClk.c ****         if(0u != (counterMask & CY_SYS_TIMER1_MASK))
2467:Generated_Source\PSoC4/CyLFClk.c ****         {
2468:Generated_Source\PSoC4/CyLFClk.c ****             while (0u != CySysTimerGetEnabledStatus(CY_SYS_TIMER1))
2469:Generated_Source\PSoC4/CyLFClk.c ****             {
2470:Generated_Source\PSoC4/CyLFClk.c ****                 /* Wait for changes to come into effect */
2471:Generated_Source\PSoC4/CyLFClk.c ****             }
2472:Generated_Source\PSoC4/CyLFClk.c ****         }
2473:Generated_Source\PSoC4/CyLFClk.c **** 
2474:Generated_Source\PSoC4/CyLFClk.c ****         if(0u != (counterMask & CY_SYS_TIMER2_MASK))
2475:Generated_Source\PSoC4/CyLFClk.c ****         {
2476:Generated_Source\PSoC4/CyLFClk.c ****             while (0u != CySysTimerGetEnabledStatus(CY_SYS_TIMER2))
2477:Generated_Source\PSoC4/CyLFClk.c ****             {
2478:Generated_Source\PSoC4/CyLFClk.c ****                 /* Wait for changes to come into effect */
2479:Generated_Source\PSoC4/CyLFClk.c ****             }
2480:Generated_Source\PSoC4/CyLFClk.c ****         }
2481:Generated_Source\PSoC4/CyLFClk.c **** 
2482:Generated_Source\PSoC4/CyLFClk.c ****     }
2483:Generated_Source\PSoC4/CyLFClk.c **** 
2484:Generated_Source\PSoC4/CyLFClk.c **** 
2485:Generated_Source\PSoC4/CyLFClk.c ****     /*******************************************************************************
2486:Generated_Source\PSoC4/CyLFClk.c ****     * Function Name: CySysTimerSetCascade
2487:Generated_Source\PSoC4/CyLFClk.c ****     ****************************************************************************//**
2488:Generated_Source\PSoC4/CyLFClk.c ****     *
2489:Generated_Source\PSoC4/CyLFClk.c ****     * \brief
2490:Generated_Source\PSoC4/CyLFClk.c ****     * Writes the two DeepSleep Timers cascade values based on the combination of 
2491:Generated_Source\PSoC4/CyLFClk.c ****     * mask values specified.
2492:Generated_Source\PSoC4/CyLFClk.c ****     *
2493:Generated_Source\PSoC4/CyLFClk.c ****     * \param cascadeMask The mask value used to set or clear the cascade values:
2494:Generated_Source\PSoC4/CyLFClk.c ****     * CY_SYS_TIMER_CASCADE_NONE - Neither<br>
2495:Generated_Source\PSoC4/CyLFClk.c ****     * CY_SYS_TIMER_CASCADE_01 - Cascade 01<br>
2496:Generated_Source\PSoC4/CyLFClk.c ****     * CY_SYS_TIMER_CASCADE_12 - Cascade 12
2497:Generated_Source\PSoC4/CyLFClk.c ****     *
2498:Generated_Source\PSoC4/CyLFClk.c ****     * If only one cascade mask is specified, the second cascade is disabled.
2499:Generated_Source\PSoC4/CyLFClk.c ****     * To set both cascade modes, two defines should be ORed:
2500:Generated_Source\PSoC4/CyLFClk.c ****     * (CY_SYS_TIMER_CASCADE_01 | CY_SYS_TIMER_CASCADE_12).
2501:Generated_Source\PSoC4/CyLFClk.c ****     * \note If CySysTimerSetCascade() was called with ORed defines it is necessary 
2502:Generated_Source\PSoC4/CyLFClk.c ****     * to call CySysTimeSetClearOnMatch(1,1). It is needed to make sure that 
2503:Generated_Source\PSoC4/CyLFClk.c ****     * Counter 2 will be updated in the expected way.
2504:Generated_Source\PSoC4/CyLFClk.c ****     *
2505:Generated_Source\PSoC4/CyLFClk.c ****     * Timer counters that are part of the specified cascade should be disabled.
2506:Generated_Source\PSoC4/CyLFClk.c ****     * Otherwise this function call has no effect. If the specified
2507:Generated_Source\PSoC4/CyLFClk.c ****     * counter is enabled, call CySysTimerDisable() function with the corresponding
2508:Generated_Source\PSoC4/CyLFClk.c ****     * parameter to disable the specified counter and wait for it to stop. This may
2509:Generated_Source\PSoC4/CyLFClk.c ****     * take up to 3 Timers source-cycles.
2510:Generated_Source\PSoC4/CyLFClk.c ****     *
2511:Generated_Source\PSoC4/CyLFClk.c ****     *******************************************************************************/
ARM GAS  C:\Users\JamesN4\AppData\Local\Temp\ccOIY297.s 			page 114


2512:Generated_Source\PSoC4/CyLFClk.c ****     void CySysTimerSetCascade(uint32 cascadeMask)
2513:Generated_Source\PSoC4/CyLFClk.c ****     {
2514:Generated_Source\PSoC4/CyLFClk.c ****         uint32 configRegValue;
2515:Generated_Source\PSoC4/CyLFClk.c ****         uint32 countersEnableStatus;
2516:Generated_Source\PSoC4/CyLFClk.c **** 
2517:Generated_Source\PSoC4/CyLFClk.c ****         countersEnableStatus = CySysTimerGetEnabledStatus(CY_SYS_TIMER0) |
2518:Generated_Source\PSoC4/CyLFClk.c ****                             CySysTimerGetEnabledStatus(CY_SYS_TIMER1) |
2519:Generated_Source\PSoC4/CyLFClk.c ****                             CySysTimerGetEnabledStatus(CY_SYS_TIMER2);
2520:Generated_Source\PSoC4/CyLFClk.c **** 
2521:Generated_Source\PSoC4/CyLFClk.c ****         if (0u == countersEnableStatus)
2522:Generated_Source\PSoC4/CyLFClk.c ****         {
2523:Generated_Source\PSoC4/CyLFClk.c ****             configRegValue = CY_SYS_WCO_WDT_CONFIG_REG;
2524:Generated_Source\PSoC4/CyLFClk.c ****             configRegValue &= ((uint32)(~(CY_SYS_TIMER_CASCADE_01|CY_SYS_TIMER_CASCADE_12)));
2525:Generated_Source\PSoC4/CyLFClk.c ****             configRegValue |= cascadeMask;
2526:Generated_Source\PSoC4/CyLFClk.c ****             CY_SYS_WCO_WDT_CONFIG_REG = configRegValue;
2527:Generated_Source\PSoC4/CyLFClk.c ****         }
2528:Generated_Source\PSoC4/CyLFClk.c ****     }
2529:Generated_Source\PSoC4/CyLFClk.c **** 
2530:Generated_Source\PSoC4/CyLFClk.c **** 
2531:Generated_Source\PSoC4/CyLFClk.c ****     /*******************************************************************************
2532:Generated_Source\PSoC4/CyLFClk.c ****     * Function Name: CySysTimerGetCascade
2533:Generated_Source\PSoC4/CyLFClk.c ****     ****************************************************************************//**
2534:Generated_Source\PSoC4/CyLFClk.c ****     *
2535:Generated_Source\PSoC4/CyLFClk.c ****     * \brief Reads the two DeepSleep Timer cascade values returning a mask of the 
2536:Generated_Source\PSoC4/CyLFClk.c ****     * bits set.
2537:Generated_Source\PSoC4/CyLFClk.c ****     *
2538:Generated_Source\PSoC4/CyLFClk.c ****     * \return The mask of the cascade values set.
2539:Generated_Source\PSoC4/CyLFClk.c ****     * \return CY_SYS_TIMER_CASCADE_NONE - Neither
2540:Generated_Source\PSoC4/CyLFClk.c ****     * \return CY_SYS_TIMER_CASCADE_01 - Cascade 01
2541:Generated_Source\PSoC4/CyLFClk.c ****     * \return CY_SYS_TIMER_CASCADE_12 - Cascade 12
2542:Generated_Source\PSoC4/CyLFClk.c ****     *
2543:Generated_Source\PSoC4/CyLFClk.c ****     *******************************************************************************/
2544:Generated_Source\PSoC4/CyLFClk.c ****     uint32 CySysTimerGetCascade(void)
2545:Generated_Source\PSoC4/CyLFClk.c ****     {
2546:Generated_Source\PSoC4/CyLFClk.c ****         return (CY_SYS_WCO_WDT_CONFIG_REG & (CY_SYS_TIMER_CASCADE_01 | CY_SYS_TIMER_CASCADE_12));
2547:Generated_Source\PSoC4/CyLFClk.c ****     }
2548:Generated_Source\PSoC4/CyLFClk.c **** 
2549:Generated_Source\PSoC4/CyLFClk.c **** 
2550:Generated_Source\PSoC4/CyLFClk.c ****     /*******************************************************************************
2551:Generated_Source\PSoC4/CyLFClk.c ****     * Function Name: CySysTimerSetMatch
2552:Generated_Source\PSoC4/CyLFClk.c ****     ****************************************************************************//**
2553:Generated_Source\PSoC4/CyLFClk.c ****     *
2554:Generated_Source\PSoC4/CyLFClk.c ****     * \brief Configures the Timer counter match comparison value.
2555:Generated_Source\PSoC4/CyLFClk.c ****     *
2556:Generated_Source\PSoC4/CyLFClk.c ****     * \param counterNum Valid range [0-1]. The number of the Timer counter. The 
2557:Generated_Source\PSoC4/CyLFClk.c ****     * match values are not supported by counter 2.
2558:Generated_Source\PSoC4/CyLFClk.c ****     *
2559:Generated_Source\PSoC4/CyLFClk.c ****     * \param match Valid range [0-65535]. The value to be used to match against 
2560:Generated_Source\PSoC4/CyLFClk.c ****     * the counter.
2561:Generated_Source\PSoC4/CyLFClk.c ****     *
2562:Generated_Source\PSoC4/CyLFClk.c ****     *******************************************************************************/
2563:Generated_Source\PSoC4/CyLFClk.c ****     void CySysTimerSetMatch(uint32 counterNum, uint32 match)
2564:Generated_Source\PSoC4/CyLFClk.c ****     {
2565:Generated_Source\PSoC4/CyLFClk.c ****         uint32 regValue;
2566:Generated_Source\PSoC4/CyLFClk.c **** 
2567:Generated_Source\PSoC4/CyLFClk.c ****         CYASSERT((counterNum == CY_SYS_TIMER0) ||
2568:Generated_Source\PSoC4/CyLFClk.c ****                  (counterNum == CY_SYS_TIMER1));
ARM GAS  C:\Users\JamesN4\AppData\Local\Temp\ccOIY297.s 			page 115


2569:Generated_Source\PSoC4/CyLFClk.c **** 
2570:Generated_Source\PSoC4/CyLFClk.c ****         /* Wait for previous changes to come into effect */
2571:Generated_Source\PSoC4/CyLFClk.c ****         CyDelayUs(CY_SYS_3TIMER_DELAY_US);
2572:Generated_Source\PSoC4/CyLFClk.c **** 
2573:Generated_Source\PSoC4/CyLFClk.c ****         regValue = CY_SYS_WCO_WDT_MATCH_REG;
2574:Generated_Source\PSoC4/CyLFClk.c ****         regValue &= (uint32)~((uint32)(CY_SYS_TIMER_LOWER_16BITS_MASK << (counterNum * CY_SYS_TIMER
2575:Generated_Source\PSoC4/CyLFClk.c ****         CY_SYS_WCO_WDT_MATCH_REG = (regValue | (match << (counterNum * CY_SYS_TIMER_CNT_MATCH_SHIFT
2576:Generated_Source\PSoC4/CyLFClk.c **** 
2577:Generated_Source\PSoC4/CyLFClk.c ****         /* Make sure match synchronization has started */
2578:Generated_Source\PSoC4/CyLFClk.c ****         CyDelayUs(CY_SYS_1TIMER_DELAY_US);
2579:Generated_Source\PSoC4/CyLFClk.c ****     }
2580:Generated_Source\PSoC4/CyLFClk.c **** 
2581:Generated_Source\PSoC4/CyLFClk.c **** 
2582:Generated_Source\PSoC4/CyLFClk.c ****     /*******************************************************************************
2583:Generated_Source\PSoC4/CyLFClk.c ****     * Function Name: CySysTimerSetToggleBit
2584:Generated_Source\PSoC4/CyLFClk.c ****     ****************************************************************************//**
2585:Generated_Source\PSoC4/CyLFClk.c ****     *
2586:Generated_Source\PSoC4/CyLFClk.c ****     * \brief Configures which bit in Timer counter 2 to monitor for a toggle.
2587:Generated_Source\PSoC4/CyLFClk.c ****     *
2588:Generated_Source\PSoC4/CyLFClk.c ****     * When that bit toggles, an interrupt is generated if mode for counter 2 has
2589:Generated_Source\PSoC4/CyLFClk.c ****     * enabled interrupts.
2590:Generated_Source\PSoC4/CyLFClk.c ****     *
2591:Generated_Source\PSoC4/CyLFClk.c ****     * \param bits Valid range [0-31]. Counter 2 bit to monitor for a toggle.
2592:Generated_Source\PSoC4/CyLFClk.c ****     *
2593:Generated_Source\PSoC4/CyLFClk.c ****     * \details Timer counter 2 should be disabled. Otherwise this function call has
2594:Generated_Source\PSoC4/CyLFClk.c ****     * no effect.
2595:Generated_Source\PSoC4/CyLFClk.c ****     *
2596:Generated_Source\PSoC4/CyLFClk.c ****     * If the specified counter is enabled, call the CySysTimerDisable() function with
2597:Generated_Source\PSoC4/CyLFClk.c ****     * the corresponding parameter to disable the specified counter and wait for it to
2598:Generated_Source\PSoC4/CyLFClk.c ****     * stop. This may take up to three Timer source-cycles.
2599:Generated_Source\PSoC4/CyLFClk.c ****     *
2600:Generated_Source\PSoC4/CyLFClk.c ****     *******************************************************************************/
2601:Generated_Source\PSoC4/CyLFClk.c ****     void CySysTimerSetToggleBit(uint32 bits)
2602:Generated_Source\PSoC4/CyLFClk.c ****     {
2603:Generated_Source\PSoC4/CyLFClk.c ****         uint32 configRegValue;
2604:Generated_Source\PSoC4/CyLFClk.c **** 
2605:Generated_Source\PSoC4/CyLFClk.c ****         if (0u == CySysTimerGetEnabledStatus(CY_SYS_TIMER2))
2606:Generated_Source\PSoC4/CyLFClk.c ****         {
2607:Generated_Source\PSoC4/CyLFClk.c ****             configRegValue = CY_SYS_WCO_WDT_CONFIG_REG;
2608:Generated_Source\PSoC4/CyLFClk.c ****             configRegValue &= (uint32)(~((uint32)(CY_SYS_TIMER_CONFIG_BITS2_MASK << CY_SYS_TIMER_CO
2609:Generated_Source\PSoC4/CyLFClk.c ****             configRegValue |= ((bits & CY_SYS_TIMER_CONFIG_BITS2_MASK) << CY_SYS_TIMER_CONFIG_BITS2
2610:Generated_Source\PSoC4/CyLFClk.c ****             CY_SYS_WCO_WDT_CONFIG_REG = configRegValue;
2611:Generated_Source\PSoC4/CyLFClk.c ****         }
2612:Generated_Source\PSoC4/CyLFClk.c ****     }
2613:Generated_Source\PSoC4/CyLFClk.c **** 
2614:Generated_Source\PSoC4/CyLFClk.c **** 
2615:Generated_Source\PSoC4/CyLFClk.c ****     /*******************************************************************************
2616:Generated_Source\PSoC4/CyLFClk.c ****     * Function Name: CySysTimerGetToggleBit
2617:Generated_Source\PSoC4/CyLFClk.c ****     ****************************************************************************//**
2618:Generated_Source\PSoC4/CyLFClk.c ****     *
2619:Generated_Source\PSoC4/CyLFClk.c ****     * \brief Reads which bit in Timer counter 2 is monitored for a toggle.
2620:Generated_Source\PSoC4/CyLFClk.c ****     *
2621:Generated_Source\PSoC4/CyLFClk.c ****     * \return The bit that is monitored (range of 0 to 31)
2622:Generated_Source\PSoC4/CyLFClk.c ****     *
2623:Generated_Source\PSoC4/CyLFClk.c ****     *******************************************************************************/
2624:Generated_Source\PSoC4/CyLFClk.c ****     uint32 CySysTimerGetToggleBit(void)
2625:Generated_Source\PSoC4/CyLFClk.c ****     {
ARM GAS  C:\Users\JamesN4\AppData\Local\Temp\ccOIY297.s 			page 116


2626:Generated_Source\PSoC4/CyLFClk.c ****         return ((CY_SYS_WCO_WDT_CONFIG_REG >> CY_SYS_TIMER_CONFIG_BITS2_POS) & CY_SYS_TIMER_CONFIG_
2627:Generated_Source\PSoC4/CyLFClk.c ****     }
2628:Generated_Source\PSoC4/CyLFClk.c **** 
2629:Generated_Source\PSoC4/CyLFClk.c **** 
2630:Generated_Source\PSoC4/CyLFClk.c ****     /*******************************************************************************
2631:Generated_Source\PSoC4/CyLFClk.c ****     * Function Name: CySysTimerGetMatch
2632:Generated_Source\PSoC4/CyLFClk.c ****     ****************************************************************************//**
2633:Generated_Source\PSoC4/CyLFClk.c ****     *
2634:Generated_Source\PSoC4/CyLFClk.c ****     * \brief Reads the Timer counter match comparison value.
2635:Generated_Source\PSoC4/CyLFClk.c ****     *
2636:Generated_Source\PSoC4/CyLFClk.c ****     * \param counterNum Valid range [0-1]. The number of the DeepSleep Timer 
2637:Generated_Source\PSoC4/CyLFClk.c ****     * counter. The match values are not supported by counter 2.
2638:Generated_Source\PSoC4/CyLFClk.c ****     *
2639:Generated_Source\PSoC4/CyLFClk.c ****     * \return A 16-bit match value.
2640:Generated_Source\PSoC4/CyLFClk.c ****     *
2641:Generated_Source\PSoC4/CyLFClk.c ****     *******************************************************************************/
2642:Generated_Source\PSoC4/CyLFClk.c ****     uint32 CySysTimerGetMatch(uint32 counterNum)
2643:Generated_Source\PSoC4/CyLFClk.c ****     {
2644:Generated_Source\PSoC4/CyLFClk.c ****         CYASSERT((counterNum == CY_SYS_TIMER0) ||
2645:Generated_Source\PSoC4/CyLFClk.c ****                  (counterNum == CY_SYS_TIMER1));
2646:Generated_Source\PSoC4/CyLFClk.c **** 
2647:Generated_Source\PSoC4/CyLFClk.c ****         return ((uint32)(CY_SYS_WCO_WDT_MATCH_REG >> (counterNum * CY_SYS_TIMER_CNT_MATCH_SHIFT)) &
2648:Generated_Source\PSoC4/CyLFClk.c ****                                                                   CY_SYS_TIMER_LOWER_16BITS_MASK);
2649:Generated_Source\PSoC4/CyLFClk.c ****     }
2650:Generated_Source\PSoC4/CyLFClk.c **** 
2651:Generated_Source\PSoC4/CyLFClk.c **** 
2652:Generated_Source\PSoC4/CyLFClk.c ****     /*******************************************************************************
2653:Generated_Source\PSoC4/CyLFClk.c ****     * Function Name: CySysTimerGetCount
2654:Generated_Source\PSoC4/CyLFClk.c ****     ****************************************************************************//**
2655:Generated_Source\PSoC4/CyLFClk.c ****     *
2656:Generated_Source\PSoC4/CyLFClk.c ****     * \brief Reads the current DeepSleep Timer counter value.
2657:Generated_Source\PSoC4/CyLFClk.c ****     *
2658:Generated_Source\PSoC4/CyLFClk.c ****     * \param counterNum Valid range [0-2]. The number of the Timer counter.
2659:Generated_Source\PSoC4/CyLFClk.c ****     *
2660:Generated_Source\PSoC4/CyLFClk.c ****     * \return A live counter value. Counter 0 and Counter 1 are 16 bit counters 
2661:Generated_Source\PSoC4/CyLFClk.c ****     * and counter 2 is a 32 bit counter.
2662:Generated_Source\PSoC4/CyLFClk.c ****     *
2663:Generated_Source\PSoC4/CyLFClk.c ****     *******************************************************************************/
2664:Generated_Source\PSoC4/CyLFClk.c ****     uint32 CySysTimerGetCount(uint32 counterNum)
2665:Generated_Source\PSoC4/CyLFClk.c ****     {
2666:Generated_Source\PSoC4/CyLFClk.c ****         uint32 regValue = 0u;
2667:Generated_Source\PSoC4/CyLFClk.c **** 
2668:Generated_Source\PSoC4/CyLFClk.c ****         switch(counterNum)
2669:Generated_Source\PSoC4/CyLFClk.c ****         {
2670:Generated_Source\PSoC4/CyLFClk.c ****             /* Timer Counter 0 */
2671:Generated_Source\PSoC4/CyLFClk.c ****             case 0u:
2672:Generated_Source\PSoC4/CyLFClk.c ****                 regValue = CY_SYS_WCO_WDT_CTRLOW_REG & CY_SYS_TIMER_LOWER_16BITS_MASK;
2673:Generated_Source\PSoC4/CyLFClk.c ****             break;
2674:Generated_Source\PSoC4/CyLFClk.c **** 
2675:Generated_Source\PSoC4/CyLFClk.c ****             /* Timer Counter 1 */
2676:Generated_Source\PSoC4/CyLFClk.c ****             case 1u:
2677:Generated_Source\PSoC4/CyLFClk.c ****                 regValue = (CY_SYS_WCO_WDT_CTRLOW_REG >> CY_SYS_TIMER_CNT_MATCH_SHIFT) & CY_SYS_TIM
2678:Generated_Source\PSoC4/CyLFClk.c ****             break;
2679:Generated_Source\PSoC4/CyLFClk.c **** 
2680:Generated_Source\PSoC4/CyLFClk.c ****             /* Timer Counter 2 */
2681:Generated_Source\PSoC4/CyLFClk.c ****             case 2u:
2682:Generated_Source\PSoC4/CyLFClk.c ****                 regValue = CY_SYS_WCO_WDT_CTRHIGH_REG;
ARM GAS  C:\Users\JamesN4\AppData\Local\Temp\ccOIY297.s 			page 117


2683:Generated_Source\PSoC4/CyLFClk.c ****             break;
2684:Generated_Source\PSoC4/CyLFClk.c **** 
2685:Generated_Source\PSoC4/CyLFClk.c ****             default:
2686:Generated_Source\PSoC4/CyLFClk.c ****                 CYASSERT(0u != 0u);
2687:Generated_Source\PSoC4/CyLFClk.c ****             break;
2688:Generated_Source\PSoC4/CyLFClk.c ****         }
2689:Generated_Source\PSoC4/CyLFClk.c **** 
2690:Generated_Source\PSoC4/CyLFClk.c ****         return (regValue);
2691:Generated_Source\PSoC4/CyLFClk.c ****     }
2692:Generated_Source\PSoC4/CyLFClk.c **** 
2693:Generated_Source\PSoC4/CyLFClk.c **** 
2694:Generated_Source\PSoC4/CyLFClk.c ****     /*******************************************************************************
2695:Generated_Source\PSoC4/CyLFClk.c ****     * Function Name: CySysTimerGetInterruptSource
2696:Generated_Source\PSoC4/CyLFClk.c ****     ****************************************************************************//**
2697:Generated_Source\PSoC4/CyLFClk.c ****     *
2698:Generated_Source\PSoC4/CyLFClk.c ****     * \brief
2699:Generated_Source\PSoC4/CyLFClk.c ****     * Reads a mask containing all the DeepSleep Timer counters interrupts that are 
2700:Generated_Source\PSoC4/CyLFClk.c ****     * currently set by the hardware, if a corresponding mode is selected.
2701:Generated_Source\PSoC4/CyLFClk.c ****     *
2702:Generated_Source\PSoC4/CyLFClk.c ****     * \return The mask of interrupts set
2703:Generated_Source\PSoC4/CyLFClk.c ****     * \return CY_SYS_TIMER0_INT - Set interrupt for Counter 0
2704:Generated_Source\PSoC4/CyLFClk.c ****     * \return CY_SYS_TIMER1_INT - Set interrupt for Counter 1
2705:Generated_Source\PSoC4/CyLFClk.c ****     * \return CY_SYS_TIMER2_INT - Set interrupt for Counter 2
2706:Generated_Source\PSoC4/CyLFClk.c ****     *
2707:Generated_Source\PSoC4/CyLFClk.c ****     *******************************************************************************/
2708:Generated_Source\PSoC4/CyLFClk.c ****     uint32 CySysTimerGetInterruptSource(void)
2709:Generated_Source\PSoC4/CyLFClk.c ****     {
2710:Generated_Source\PSoC4/CyLFClk.c ****         return (CY_SYS_WCO_WDT_CONTROL_REG & (CY_SYS_TIMER0_INT | CY_SYS_TIMER1_INT | CY_SYS_TIMER2
2711:Generated_Source\PSoC4/CyLFClk.c ****     }
2712:Generated_Source\PSoC4/CyLFClk.c **** 
2713:Generated_Source\PSoC4/CyLFClk.c **** 
2714:Generated_Source\PSoC4/CyLFClk.c ****     /*******************************************************************************
2715:Generated_Source\PSoC4/CyLFClk.c ****     * Function Name: CySysTimerClearInterrupt
2716:Generated_Source\PSoC4/CyLFClk.c ****     ****************************************************************************//**
2717:Generated_Source\PSoC4/CyLFClk.c ****     *
2718:Generated_Source\PSoC4/CyLFClk.c ****     * \brief Clears all the DeepSleep Timer counter interrupts set in the mask.
2719:Generated_Source\PSoC4/CyLFClk.c ****     *
2720:Generated_Source\PSoC4/CyLFClk.c ****     * All the Timer interrupts are to be cleared by the firmware, otherwise
2721:Generated_Source\PSoC4/CyLFClk.c ****     * interrupts are generated continuously.
2722:Generated_Source\PSoC4/CyLFClk.c ****     *
2723:Generated_Source\PSoC4/CyLFClk.c ****     * \param counterMask
2724:Generated_Source\PSoC4/CyLFClk.c ****     *  CY_SYS_TIMER0_INT - Clear counter 0<br>
2725:Generated_Source\PSoC4/CyLFClk.c ****     * CY_SYS_TIMER1_INT - Clear counter 1<br>
2726:Generated_Source\PSoC4/CyLFClk.c ****     * CY_SYS_TIMER2_INT - Clear counter 2
2727:Generated_Source\PSoC4/CyLFClk.c ****     *
2728:Generated_Source\PSoC4/CyLFClk.c ****     *******************************************************************************/
2729:Generated_Source\PSoC4/CyLFClk.c ****     void CySysTimerClearInterrupt(uint32 counterMask)
2730:Generated_Source\PSoC4/CyLFClk.c ****     {
2731:Generated_Source\PSoC4/CyLFClk.c ****         uint8 interruptState;
2732:Generated_Source\PSoC4/CyLFClk.c ****         interruptState = CyEnterCriticalSection();
2733:Generated_Source\PSoC4/CyLFClk.c **** 
2734:Generated_Source\PSoC4/CyLFClk.c ****         /* Set new WCO_TIMER control register value */
2735:Generated_Source\PSoC4/CyLFClk.c ****         counterMask &= (CY_SYS_TIMER0_INT |
2736:Generated_Source\PSoC4/CyLFClk.c ****                         CY_SYS_TIMER1_INT |
2737:Generated_Source\PSoC4/CyLFClk.c ****                         CY_SYS_TIMER2_INT);
2738:Generated_Source\PSoC4/CyLFClk.c **** 
2739:Generated_Source\PSoC4/CyLFClk.c ****         CY_SYS_WCO_WDT_CONTROL_REG = counterMask | (CY_SYS_WCO_WDT_CONTROL_REG & ~(CY_SYS_TIMER0_IN
ARM GAS  C:\Users\JamesN4\AppData\Local\Temp\ccOIY297.s 			page 118


2740:Generated_Source\PSoC4/CyLFClk.c ****                                                                            CY_SYS_TIMER1_INT |
2741:Generated_Source\PSoC4/CyLFClk.c ****                                                                            CY_SYS_TIMER2_INT));
2742:Generated_Source\PSoC4/CyLFClk.c **** 
2743:Generated_Source\PSoC4/CyLFClk.c ****         /* Read the CY_SYS_WDT_CONTROL_REG to clear the interrupt request.
2744:Generated_Source\PSoC4/CyLFClk.c ****          * Cypress ID #207093, #206231
2745:Generated_Source\PSoC4/CyLFClk.c ****         */
2746:Generated_Source\PSoC4/CyLFClk.c ****         (void)CY_SYS_WCO_WDT_CONTROL_REG;
2747:Generated_Source\PSoC4/CyLFClk.c **** 
2748:Generated_Source\PSoC4/CyLFClk.c ****         CyExitCriticalSection(interruptState);
2749:Generated_Source\PSoC4/CyLFClk.c ****     }
2750:Generated_Source\PSoC4/CyLFClk.c **** 
2751:Generated_Source\PSoC4/CyLFClk.c **** 
2752:Generated_Source\PSoC4/CyLFClk.c ****     /*******************************************************************************
2753:Generated_Source\PSoC4/CyLFClk.c ****     * Function Name: CySysTimerSetInterruptCallback
2754:Generated_Source\PSoC4/CyLFClk.c ****     ****************************************************************************//**
2755:Generated_Source\PSoC4/CyLFClk.c ****     *
2756:Generated_Source\PSoC4/CyLFClk.c ****     * \brief
2757:Generated_Source\PSoC4/CyLFClk.c ****     * Sets the ISR callback function for the particular DeepSleep Timer counter.
2758:Generated_Source\PSoC4/CyLFClk.c ****     *
2759:Generated_Source\PSoC4/CyLFClk.c ****     * These functions are called on the Timer interrupt.
2760:Generated_Source\PSoC4/CyLFClk.c ****     *
2761:Generated_Source\PSoC4/CyLFClk.c ****     * \param counterNum The number of the Timer counter.
2762:Generated_Source\PSoC4/CyLFClk.c ****     * \param function The pointer to the callback function.
2763:Generated_Source\PSoC4/CyLFClk.c ****     *
2764:Generated_Source\PSoC4/CyLFClk.c ****     * \return  The pointer to the previous callback function. 
2765:Generated_Source\PSoC4/CyLFClk.c ****     * \return NULL is returned if the specified address is not set.
2766:Generated_Source\PSoC4/CyLFClk.c ****     *
2767:Generated_Source\PSoC4/CyLFClk.c ****     *******************************************************************************/
2768:Generated_Source\PSoC4/CyLFClk.c ****     cyTimerCallback CySysTimerSetInterruptCallback(uint32 counterNum, cyTimerCallback function)
2769:Generated_Source\PSoC4/CyLFClk.c ****     {
2770:Generated_Source\PSoC4/CyLFClk.c ****         cyTimerCallback prevCallback = (void *)0;
2771:Generated_Source\PSoC4/CyLFClk.c **** 
2772:Generated_Source\PSoC4/CyLFClk.c ****         if(counterNum < CY_SYS_NUM_OF_TIMERS)
2773:Generated_Source\PSoC4/CyLFClk.c ****         {
2774:Generated_Source\PSoC4/CyLFClk.c ****             prevCallback = cySysTimerCallback[counterNum];
2775:Generated_Source\PSoC4/CyLFClk.c ****             cySysTimerCallback[counterNum] = function;
2776:Generated_Source\PSoC4/CyLFClk.c ****         }
2777:Generated_Source\PSoC4/CyLFClk.c ****         else
2778:Generated_Source\PSoC4/CyLFClk.c ****         {
2779:Generated_Source\PSoC4/CyLFClk.c ****             CYASSERT(0u != 0u);
2780:Generated_Source\PSoC4/CyLFClk.c ****         }
2781:Generated_Source\PSoC4/CyLFClk.c **** 
2782:Generated_Source\PSoC4/CyLFClk.c ****         return((cyTimerCallback)prevCallback);
2783:Generated_Source\PSoC4/CyLFClk.c ****     }
2784:Generated_Source\PSoC4/CyLFClk.c **** 
2785:Generated_Source\PSoC4/CyLFClk.c **** 
2786:Generated_Source\PSoC4/CyLFClk.c ****     /*******************************************************************************
2787:Generated_Source\PSoC4/CyLFClk.c ****     * Function Name: CySysTimerGetInterruptCallback
2788:Generated_Source\PSoC4/CyLFClk.c ****     ****************************************************************************//**
2789:Generated_Source\PSoC4/CyLFClk.c ****     *
2790:Generated_Source\PSoC4/CyLFClk.c ****     * \brief Gets the ISR callback function for the particular DeepSleep Timer 
2791:Generated_Source\PSoC4/CyLFClk.c ****     * counter.
2792:Generated_Source\PSoC4/CyLFClk.c ****     *
2793:Generated_Source\PSoC4/CyLFClk.c ****     * \param counterNum The number of the Timer counter.
2794:Generated_Source\PSoC4/CyLFClk.c ****     *
2795:Generated_Source\PSoC4/CyLFClk.c ****     * \return
2796:Generated_Source\PSoC4/CyLFClk.c ****     * The pointer to the callback function registered for a particular Timer by
ARM GAS  C:\Users\JamesN4\AppData\Local\Temp\ccOIY297.s 			page 119


2797:Generated_Source\PSoC4/CyLFClk.c ****     * a particular address that are passed through arguments.
2798:Generated_Source\PSoC4/CyLFClk.c ****     *
2799:Generated_Source\PSoC4/CyLFClk.c ****     *******************************************************************************/
2800:Generated_Source\PSoC4/CyLFClk.c ****     cyTimerCallback CySysTimerGetInterruptCallback(uint32 counterNum)
2801:Generated_Source\PSoC4/CyLFClk.c ****     {
2802:Generated_Source\PSoC4/CyLFClk.c ****         cyTimerCallback retCallback = (void *)0;
2803:Generated_Source\PSoC4/CyLFClk.c **** 
2804:Generated_Source\PSoC4/CyLFClk.c ****         if(counterNum < CY_SYS_NUM_OF_TIMERS)
2805:Generated_Source\PSoC4/CyLFClk.c ****         {
2806:Generated_Source\PSoC4/CyLFClk.c ****             retCallback = (cyTimerCallback)cySysTimerCallback[counterNum];
2807:Generated_Source\PSoC4/CyLFClk.c ****         }
2808:Generated_Source\PSoC4/CyLFClk.c ****         else
2809:Generated_Source\PSoC4/CyLFClk.c ****         {
2810:Generated_Source\PSoC4/CyLFClk.c ****             CYASSERT(0u != 0u);
2811:Generated_Source\PSoC4/CyLFClk.c ****         }
2812:Generated_Source\PSoC4/CyLFClk.c **** 
2813:Generated_Source\PSoC4/CyLFClk.c ****         return(retCallback);
2814:Generated_Source\PSoC4/CyLFClk.c ****     }
2815:Generated_Source\PSoC4/CyLFClk.c **** 
2816:Generated_Source\PSoC4/CyLFClk.c **** 
2817:Generated_Source\PSoC4/CyLFClk.c ****     /*******************************************************************************
2818:Generated_Source\PSoC4/CyLFClk.c ****     * Function Name: CySysTimerEnableIsr
2819:Generated_Source\PSoC4/CyLFClk.c ****     ****************************************************************************//**
2820:Generated_Source\PSoC4/CyLFClk.c ****     *
2821:Generated_Source\PSoC4/CyLFClk.c ****     * \brief Enables the ISR callback servicing for the particular Timer counter
2822:Generated_Source\PSoC4/CyLFClk.c ****     *
2823:Generated_Source\PSoC4/CyLFClk.c ****     * \param counterNum Valid range [0-2]. The number of the Timer counter.
2824:Generated_Source\PSoC4/CyLFClk.c ****     *
2825:Generated_Source\PSoC4/CyLFClk.c ****     * Value corresponds to appropriate Timer counter. For example value 1 
2826:Generated_Source\PSoC4/CyLFClk.c ****     * corresponds to second Timer counter.
2827:Generated_Source\PSoC4/CyLFClk.c ****     *
2828:Generated_Source\PSoC4/CyLFClk.c ****     *******************************************************************************/
2829:Generated_Source\PSoC4/CyLFClk.c ****     void CySysTimerEnableIsr(uint32 counterNum)
2830:Generated_Source\PSoC4/CyLFClk.c ****     {
2831:Generated_Source\PSoC4/CyLFClk.c ****         if(counterNum <= CY_SYS_TIMER2)
2832:Generated_Source\PSoC4/CyLFClk.c ****         {
2833:Generated_Source\PSoC4/CyLFClk.c ****             disableTimerServicedIsr &= ~counterTimerIntMaskTbl[counterNum];
2834:Generated_Source\PSoC4/CyLFClk.c ****             timerIsrMask |= counterTimerIntMaskTbl[counterNum];
2835:Generated_Source\PSoC4/CyLFClk.c ****         }
2836:Generated_Source\PSoC4/CyLFClk.c ****         else
2837:Generated_Source\PSoC4/CyLFClk.c ****         {
2838:Generated_Source\PSoC4/CyLFClk.c ****             CYASSERT(0u != 0u);
2839:Generated_Source\PSoC4/CyLFClk.c ****         }
2840:Generated_Source\PSoC4/CyLFClk.c ****     }
2841:Generated_Source\PSoC4/CyLFClk.c **** 
2842:Generated_Source\PSoC4/CyLFClk.c **** 
2843:Generated_Source\PSoC4/CyLFClk.c ****     /*******************************************************************************
2844:Generated_Source\PSoC4/CyLFClk.c ****     * Function Name: CySysTimerDisableIsr
2845:Generated_Source\PSoC4/CyLFClk.c ****     ****************************************************************************//**
2846:Generated_Source\PSoC4/CyLFClk.c ****     *
2847:Generated_Source\PSoC4/CyLFClk.c ****     * \brief Disables the ISR callback servicing for the particular Timer counter
2848:Generated_Source\PSoC4/CyLFClk.c ****     *
2849:Generated_Source\PSoC4/CyLFClk.c ****     * \param counterNum Valid range [0-2]. The number of the Timer counter.
2850:Generated_Source\PSoC4/CyLFClk.c ****     *
2851:Generated_Source\PSoC4/CyLFClk.c ****     *******************************************************************************/
2852:Generated_Source\PSoC4/CyLFClk.c ****     void CySysTimerDisableIsr(uint32 counterNum)
2853:Generated_Source\PSoC4/CyLFClk.c ****     {
ARM GAS  C:\Users\JamesN4\AppData\Local\Temp\ccOIY297.s 			page 120


2854:Generated_Source\PSoC4/CyLFClk.c ****         if(counterNum <= CY_SYS_TIMER2)
2855:Generated_Source\PSoC4/CyLFClk.c ****         {
2856:Generated_Source\PSoC4/CyLFClk.c ****             timerIsrMask &= ~counterTimerIntMaskTbl[counterNum];
2857:Generated_Source\PSoC4/CyLFClk.c ****         }
2858:Generated_Source\PSoC4/CyLFClk.c ****         else
2859:Generated_Source\PSoC4/CyLFClk.c ****         {
2860:Generated_Source\PSoC4/CyLFClk.c ****             CYASSERT(0u != 0u);
2861:Generated_Source\PSoC4/CyLFClk.c ****         }
2862:Generated_Source\PSoC4/CyLFClk.c ****     }
2863:Generated_Source\PSoC4/CyLFClk.c **** 
2864:Generated_Source\PSoC4/CyLFClk.c **** 
2865:Generated_Source\PSoC4/CyLFClk.c ****     /*******************************************************************************
2866:Generated_Source\PSoC4/CyLFClk.c ****     * Function Name: CySysTimerIsr
2867:Generated_Source\PSoC4/CyLFClk.c ****     ****************************************************************************//**
2868:Generated_Source\PSoC4/CyLFClk.c ****     *
2869:Generated_Source\PSoC4/CyLFClk.c ****     * \brief This is the handler of the DeepSleep Timer interrupt in CPU NVIC.
2870:Generated_Source\PSoC4/CyLFClk.c ****     *
2871:Generated_Source\PSoC4/CyLFClk.c ****     * The handler checks which Timer triggered in the interrupt and calls the 
2872:Generated_Source\PSoC4/CyLFClk.c ****     * respective callback functions configured by the user by using 
2873:Generated_Source\PSoC4/CyLFClk.c ****     * CySysTimerSetIsrCallback() API.
2874:Generated_Source\PSoC4/CyLFClk.c ****     *
2875:Generated_Source\PSoC4/CyLFClk.c ****     * The order of the callback execution is incremental. Callback-0 is
2876:Generated_Source\PSoC4/CyLFClk.c ****     * run as the first one and callback-2 is called as the last one.
2877:Generated_Source\PSoC4/CyLFClk.c ****     *
2878:Generated_Source\PSoC4/CyLFClk.c ****     * \details This function clears the DeepSleep Timer interrupt every time when 
2879:Generated_Source\PSoC4/CyLFClk.c ****     * it is called.
2880:Generated_Source\PSoC4/CyLFClk.c ****     *
2881:Generated_Source\PSoC4/CyLFClk.c ****     *******************************************************************************/
2882:Generated_Source\PSoC4/CyLFClk.c ****     void CySysTimerIsr(void)
2883:Generated_Source\PSoC4/CyLFClk.c ****     {
2884:Generated_Source\PSoC4/CyLFClk.c ****         if(0u != (CY_SYS_TIMER0_INT & CY_SYS_WCO_WDT_CONTROL_REG))
2885:Generated_Source\PSoC4/CyLFClk.c ****         {
2886:Generated_Source\PSoC4/CyLFClk.c ****             if(0u != (CY_SYS_TIMER0_INT & timerIsrMask))
2887:Generated_Source\PSoC4/CyLFClk.c ****             {
2888:Generated_Source\PSoC4/CyLFClk.c ****                 timerIsrMask &= ~(disableTimerServicedIsr & CY_SYS_TIMER0_INT);
2889:Generated_Source\PSoC4/CyLFClk.c ****                 disableTimerServicedIsr  &= ~CY_SYS_TIMER0_INT;
2890:Generated_Source\PSoC4/CyLFClk.c ****                 if(cySysTimerCallback[CY_SYS_TIMER0] != (void *) 0)
2891:Generated_Source\PSoC4/CyLFClk.c ****                 {
2892:Generated_Source\PSoC4/CyLFClk.c ****                     (void)(cySysTimerCallback[CY_SYS_TIMER0])();
2893:Generated_Source\PSoC4/CyLFClk.c ****                 }
2894:Generated_Source\PSoC4/CyLFClk.c ****             }
2895:Generated_Source\PSoC4/CyLFClk.c ****             CySysTimerClearInterrupt(CY_SYS_TIMER0_INT);
2896:Generated_Source\PSoC4/CyLFClk.c ****         }
2897:Generated_Source\PSoC4/CyLFClk.c **** 
2898:Generated_Source\PSoC4/CyLFClk.c ****         if(0u != (CY_SYS_TIMER1_INT & CY_SYS_WCO_WDT_CONTROL_REG))
2899:Generated_Source\PSoC4/CyLFClk.c ****         {
2900:Generated_Source\PSoC4/CyLFClk.c ****             if(0u != (CY_SYS_TIMER1_INT & timerIsrMask))
2901:Generated_Source\PSoC4/CyLFClk.c ****             {
2902:Generated_Source\PSoC4/CyLFClk.c ****                 timerIsrMask &= ~(disableTimerServicedIsr & CY_SYS_TIMER1_INT);
2903:Generated_Source\PSoC4/CyLFClk.c ****                 disableTimerServicedIsr  &= ~CY_SYS_TIMER1_INT;
2904:Generated_Source\PSoC4/CyLFClk.c ****                 if(cySysTimerCallback[CY_SYS_TIMER1] != (void *) 0)
2905:Generated_Source\PSoC4/CyLFClk.c ****                 {
2906:Generated_Source\PSoC4/CyLFClk.c ****                     (void)(cySysTimerCallback[CY_SYS_TIMER1])();
2907:Generated_Source\PSoC4/CyLFClk.c ****                 }
2908:Generated_Source\PSoC4/CyLFClk.c ****             }
2909:Generated_Source\PSoC4/CyLFClk.c ****             CySysTimerClearInterrupt(CY_SYS_TIMER1_INT);
2910:Generated_Source\PSoC4/CyLFClk.c ****         }
ARM GAS  C:\Users\JamesN4\AppData\Local\Temp\ccOIY297.s 			page 121


2911:Generated_Source\PSoC4/CyLFClk.c **** 
2912:Generated_Source\PSoC4/CyLFClk.c ****         if(0u != (CY_SYS_TIMER2_INT & CY_SYS_WCO_WDT_CONTROL_REG))
2913:Generated_Source\PSoC4/CyLFClk.c ****         {
2914:Generated_Source\PSoC4/CyLFClk.c ****             if(0u != (CY_SYS_TIMER2_INT & timerIsrMask))
2915:Generated_Source\PSoC4/CyLFClk.c ****             {
2916:Generated_Source\PSoC4/CyLFClk.c ****                 if(cySysTimerCallback[CY_SYS_TIMER2] != (void *) 0)
2917:Generated_Source\PSoC4/CyLFClk.c ****                 {
2918:Generated_Source\PSoC4/CyLFClk.c ****                     (void)(cySysTimerCallback[CY_SYS_TIMER2])();
2919:Generated_Source\PSoC4/CyLFClk.c ****                 }
2920:Generated_Source\PSoC4/CyLFClk.c ****             }
2921:Generated_Source\PSoC4/CyLFClk.c ****             CySysTimerClearInterrupt(CY_SYS_TIMER2_INT);
2922:Generated_Source\PSoC4/CyLFClk.c ****         }
2923:Generated_Source\PSoC4/CyLFClk.c ****     }
2924:Generated_Source\PSoC4/CyLFClk.c **** 
2925:Generated_Source\PSoC4/CyLFClk.c **** 
2926:Generated_Source\PSoC4/CyLFClk.c ****     /*******************************************************************************
2927:Generated_Source\PSoC4/CyLFClk.c ****     * Function Name: CySysTimerResetCounters
2928:Generated_Source\PSoC4/CyLFClk.c ****     ****************************************************************************//**
2929:Generated_Source\PSoC4/CyLFClk.c ****     *
2930:Generated_Source\PSoC4/CyLFClk.c ****     * \brief Resets all the Timer counters set in the mask.
2931:Generated_Source\PSoC4/CyLFClk.c ****     *
2932:Generated_Source\PSoC4/CyLFClk.c ****     * \param countersMask
2933:Generated_Source\PSoC4/CyLFClk.c ****     * CY_SYS_TIMER0_RESET - Reset the Counter 0<br>
2934:Generated_Source\PSoC4/CyLFClk.c ****     * CY_SYS_TIMER1_RESET - Reset the Counter 1<br>
2935:Generated_Source\PSoC4/CyLFClk.c ****     * CY_SYS_TIMER2_RESET - Reset the Counter 2
2936:Generated_Source\PSoC4/CyLFClk.c ****     *
2937:Generated_Source\PSoC4/CyLFClk.c ****     * \details
2938:Generated_Source\PSoC4/CyLFClk.c ****     * This function waits while corresponding counters will be reset. This may
2939:Generated_Source\PSoC4/CyLFClk.c ****     * take up to 3 DeepSleep Timer source-cycles. DeepSleep Timer source must be 
2940:Generated_Source\PSoC4/CyLFClk.c ****     * enabled. Otherwise, the function will never exit.
2941:Generated_Source\PSoC4/CyLFClk.c ****     *
2942:Generated_Source\PSoC4/CyLFClk.c ****     *******************************************************************************/
2943:Generated_Source\PSoC4/CyLFClk.c ****     void CySysTimerResetCounters(uint32 countersMask)
2944:Generated_Source\PSoC4/CyLFClk.c ****     {
2945:Generated_Source\PSoC4/CyLFClk.c ****         /* Set new Timer reset value */
2946:Generated_Source\PSoC4/CyLFClk.c ****         CY_SYS_WCO_WDT_CONTROL_REG |= (countersMask & CY_SYS_TIMER_RESET);
2947:Generated_Source\PSoC4/CyLFClk.c **** 
2948:Generated_Source\PSoC4/CyLFClk.c ****         while (0uL != (CY_SYS_WCO_WDT_CONTROL_REG & CY_SYS_TIMER_RESET))
2949:Generated_Source\PSoC4/CyLFClk.c ****         {
2950:Generated_Source\PSoC4/CyLFClk.c ****             /* Wait for reset to come into effect */
2951:Generated_Source\PSoC4/CyLFClk.c ****         }
2952:Generated_Source\PSoC4/CyLFClk.c ****     }
2953:Generated_Source\PSoC4/CyLFClk.c **** #endif /* (CY_IP_SRSSLT && CY_IP_WCO && CY_IP_WCO_WDT_EN) */
2954:Generated_Source\PSoC4/CyLFClk.c **** 
2955:Generated_Source\PSoC4/CyLFClk.c **** 
2956:Generated_Source\PSoC4/CyLFClk.c **** #if(CY_IP_SRSSV2 || (CY_IP_WCO_WDT_EN && CY_IP_SRSSLT))
2957:Generated_Source\PSoC4/CyLFClk.c ****     /*******************************************************************************
2958:Generated_Source\PSoC4/CyLFClk.c ****     * Function Name: CySysTimerDelay
2959:Generated_Source\PSoC4/CyLFClk.c ****     ****************************************************************************//**
2960:Generated_Source\PSoC4/CyLFClk.c ****     *
2961:Generated_Source\PSoC4/CyLFClk.c ****     * \brief
2962:Generated_Source\PSoC4/CyLFClk.c ****     * The function implements the delay specified in the LFCLK clock ticks.
2963:Generated_Source\PSoC4/CyLFClk.c ****     *
2964:Generated_Source\PSoC4/CyLFClk.c ****     * This API is applicable for PSoC 4100 / PSoC 4200 / PSoC 4100 BLE / 
2965:Generated_Source\PSoC4/CyLFClk.c ****     * PSoC 4200 BLE / PRoC BLE / PSoC 4200L / PSoC 4100M / PSoC 4200M devices to 
2966:Generated_Source\PSoC4/CyLFClk.c ****     * use WDT. Also this API is available to use for PSoC4100S and / PSoC Analog 
2967:Generated_Source\PSoC4/CyLFClk.c ****     * Coprocessor devices to use DeepSleep Timers.
ARM GAS  C:\Users\JamesN4\AppData\Local\Temp\ccOIY297.s 			page 122


2968:Generated_Source\PSoC4/CyLFClk.c ****     *
2969:Generated_Source\PSoC4/CyLFClk.c ****     * For PSoC 4100 / PSoC 4200 / PSoC 4100 BLE / PSoC 4200 BLE / PRoC BLE / PSoC 
2970:Generated_Source\PSoC4/CyLFClk.c ****     * 4200L / PSoC 4100M / PSoC 4200M devices:
2971:Generated_Source\PSoC4/CyLFClk.c ****     * The specified WDT counter should be configured as described below and started.
2972:Generated_Source\PSoC4/CyLFClk.c ****     *
2973:Generated_Source\PSoC4/CyLFClk.c ****     * For PSoC 4100S / PSoC Analog Coprocessor devices:
2974:Generated_Source\PSoC4/CyLFClk.c ****     * The specified DeepSleep Timer counter should be configured as described below
2975:Generated_Source\PSoC4/CyLFClk.c ****     * and started.
2976:Generated_Source\PSoC4/CyLFClk.c ****     *
2977:Generated_Source\PSoC4/CyLFClk.c ****     * This function can operate in two modes: the "WAIT" and "INTERRUPT" modes. In
2978:Generated_Source\PSoC4/CyLFClk.c ****     * the "WAIT" mode, the function waits for the specified number of ticks. In the
2979:Generated_Source\PSoC4/CyLFClk.c ****     * "INTERRUPT" mode, the interrupt is generated after the specified number of
2980:Generated_Source\PSoC4/CyLFClk.c ****     * ticks.
2981:Generated_Source\PSoC4/CyLFClk.c ****     *
2982:Generated_Source\PSoC4/CyLFClk.c ****     * For the correct function operation, the "Clear On Match" option should be
2983:Generated_Source\PSoC4/CyLFClk.c ****     * disabled for the specified WDT or DeepSleep Timer counter. Use 
2984:Generated_Source\PSoC4/CyLFClk.c ****     * CySysWdtSetClearOnMatch() for WDT or CySysTimerSetClearOnMatch() for DeepSleep
2985:Generated_Source\PSoC4/CyLFClk.c ****     * Timer function with the "enable" parameter equal to zero for the used WDT 
2986:Generated_Source\PSoC4/CyLFClk.c ****     * counter or DeepSleep Timer counter.
2987:Generated_Source\PSoC4/CyLFClk.c ****     *
2988:Generated_Source\PSoC4/CyLFClk.c ****     * The corresponding WDT counter should be configured to match the selected
2989:Generated_Source\PSoC4/CyLFClk.c ****     * mode: "Free running Timer" for the "WAIT" mode, and
2990:Generated_Source\PSoC4/CyLFClk.c ****     * "Periodic Timer" / "Watchdog (w/Interrupt)" for the "INTERRUPT" mode.
2991:Generated_Source\PSoC4/CyLFClk.c ****     *
2992:Generated_Source\PSoC4/CyLFClk.c ****     * Or the corresponding DeepSleep Timer counter should be configured to match the
2993:Generated_Source\PSoC4/CyLFClk.c ****     * selected mode: "Free running Timer" for the "WAIT" mode, and
2994:Generated_Source\PSoC4/CyLFClk.c ****     * "Periodic Timer" for the "INTERRUPT" mode.
2995:Generated_Source\PSoC4/CyLFClk.c ****     *
2996:Generated_Source\PSoC4/CyLFClk.c ****     * This can be configured in two ways:
2997:Generated_Source\PSoC4/CyLFClk.c ****     * - Through the DWR page. Open the "Clocks" tab, click the "Edit Clocks..."
2998:Generated_Source\PSoC4/CyLFClk.c ****     * button, in the "Configure System Clocks" window click on the
2999:Generated_Source\PSoC4/CyLFClk.c ****     * "Low Frequency Clocks" tab and choose the appropriate option for the used
3000:Generated_Source\PSoC4/CyLFClk.c ****     * WDT or DeepSleep Timer counter.
3001:Generated_Source\PSoC4/CyLFClk.c ****     *
3002:Generated_Source\PSoC4/CyLFClk.c ****     * - Through the CySysWdtSetMode() for WDT or CySysTimerSetMode() for DeepSleep
3003:Generated_Source\PSoC4/CyLFClk.c ****     * Timer function. Call it with the appropriate "mode" parameter for the 
3004:Generated_Source\PSoC4/CyLFClk.c ****     * used WDT or DeepSleep Timer counter.
3005:Generated_Source\PSoC4/CyLFClk.c ****     *
3006:Generated_Source\PSoC4/CyLFClk.c ****     * For the "INTERRUPT" mode, the recommended sequence is the following:
3007:Generated_Source\PSoC4/CyLFClk.c ****     * - Call the CySysWdtDisableCounterIsr() for WDT or 
3008:Generated_Source\PSoC4/CyLFClk.c ****     * CySysTimerDisableIsr() for DeepSleep Timer function to disable servicing
3009:Generated_Source\PSoC4/CyLFClk.c ****     * interrupts of the specified WDT or DeepSleep Timer counter.
3010:Generated_Source\PSoC4/CyLFClk.c ****     *
3011:Generated_Source\PSoC4/CyLFClk.c ****     * - Call the CySysWdtSetInterruptCallback() for WDT or 
3012:Generated_Source\PSoC4/CyLFClk.c ****     * CySysTimerSetIsrCallback() for DeepSleep Timer function to register 
3013:Generated_Source\PSoC4/CyLFClk.c ****     * the callback function for the corresponding WDT or DeepSleep Timer counter.
3014:Generated_Source\PSoC4/CyLFClk.c ****     *
3015:Generated_Source\PSoC4/CyLFClk.c ****     * - Call the CySysTimerDelay() function.
3016:Generated_Source\PSoC4/CyLFClk.c ****     *
3017:Generated_Source\PSoC4/CyLFClk.c ****     * \param counterNum Valid range [0-1]. The number of the counter 
3018:Generated_Source\PSoC4/CyLFClk.c ****     * (Timer0 or Timer1).
3019:Generated_Source\PSoC4/CyLFClk.c ****     * \param delayType
3020:Generated_Source\PSoC4/CyLFClk.c ****     * CY_SYS_TIMER_WAIT - "WAIT" mode. <br>
3021:Generated_Source\PSoC4/CyLFClk.c ****     * CY_SYS_TIMER_INTERRUPT - "INTERRUPT" mode.
3022:Generated_Source\PSoC4/CyLFClk.c ****     * \param delay The delay value in the LFCLK ticks 
3023:Generated_Source\PSoC4/CyLFClk.c ****     * (allowable range - 16-bit value).
3024:Generated_Source\PSoC4/CyLFClk.c ****     *
ARM GAS  C:\Users\JamesN4\AppData\Local\Temp\ccOIY297.s 			page 123


3025:Generated_Source\PSoC4/CyLFClk.c ****     * \details
3026:Generated_Source\PSoC4/CyLFClk.c ****     * In the "INTERRUPT" mode, this function enables ISR callback servicing
3027:Generated_Source\PSoC4/CyLFClk.c ****     * from the corresponding WDT or DeepSleep Timer counter. Servicing of this ISR 
3028:Generated_Source\PSoC4/CyLFClk.c ****     * callback will be disabled after the expiration of the delay time.
3029:Generated_Source\PSoC4/CyLFClk.c ****     *
3030:Generated_Source\PSoC4/CyLFClk.c ****     *******************************************************************************/
3031:Generated_Source\PSoC4/CyLFClk.c ****     void CySysTimerDelay(uint32 counterNum, cy_sys_timer_delaytype_enum delayType, uint32 delay)
3032:Generated_Source\PSoC4/CyLFClk.c ****     {
3033:Generated_Source\PSoC4/CyLFClk.c ****         uint32 regValue;
3034:Generated_Source\PSoC4/CyLFClk.c ****         uint32 matchValue;
3035:Generated_Source\PSoC4/CyLFClk.c **** 
3036:Generated_Source\PSoC4/CyLFClk.c ****         #if(CY_IP_SRSSV2)
3037:Generated_Source\PSoC4/CyLFClk.c ****             if((counterNum < CY_SYS_WDT_COUNTER2) && (0uL == CySysWdtGetClearOnMatch(counterNum)) &
3038:Generated_Source\PSoC4/CyLFClk.c ****                                                                 (delay <= CY_SYS_UINT16_MAX_VAL))
3039:Generated_Source\PSoC4/CyLFClk.c ****             {
3040:Generated_Source\PSoC4/CyLFClk.c ****                 regValue   = CySysWdtGetCount(counterNum);
3041:Generated_Source\PSoC4/CyLFClk.c ****                 matchValue = (regValue + delay) & (uint32)CY_SYS_UINT16_MAX_VAL;
3042:Generated_Source\PSoC4/CyLFClk.c **** 
3043:Generated_Source\PSoC4/CyLFClk.c ****                 CySysTimerDelayUntilMatch(counterNum, delayType, matchValue);
3044:Generated_Source\PSoC4/CyLFClk.c ****             }
3045:Generated_Source\PSoC4/CyLFClk.c ****             else
3046:Generated_Source\PSoC4/CyLFClk.c ****             {
3047:Generated_Source\PSoC4/CyLFClk.c ****                 CYASSERT(0u != 0u);
3048:Generated_Source\PSoC4/CyLFClk.c ****             }
3049:Generated_Source\PSoC4/CyLFClk.c ****         #endif /* (CY_IP_SRSSV2) */
3050:Generated_Source\PSoC4/CyLFClk.c **** 
3051:Generated_Source\PSoC4/CyLFClk.c ****         #if(CY_IP_WCO_WDT_EN && CY_IP_SRSSLT)
3052:Generated_Source\PSoC4/CyLFClk.c ****             if((counterNum < CY_SYS_TIMER2) && (0uL == CySysTimerGetClearOnMatch(counterNum)) && 
3053:Generated_Source\PSoC4/CyLFClk.c ****                                                             (delay <= CY_SYS_UINT16_MAX_VAL))
3054:Generated_Source\PSoC4/CyLFClk.c ****             {
3055:Generated_Source\PSoC4/CyLFClk.c ****                 regValue   = CySysTimerGetCount(counterNum);
3056:Generated_Source\PSoC4/CyLFClk.c ****                 matchValue = (regValue + delay) & (uint32)CY_SYS_UINT16_MAX_VAL;
3057:Generated_Source\PSoC4/CyLFClk.c **** 
3058:Generated_Source\PSoC4/CyLFClk.c ****                 CySysTimerDelayUntilMatch(counterNum, delayType, matchValue);
3059:Generated_Source\PSoC4/CyLFClk.c ****             }
3060:Generated_Source\PSoC4/CyLFClk.c ****             else
3061:Generated_Source\PSoC4/CyLFClk.c ****             {
3062:Generated_Source\PSoC4/CyLFClk.c ****                 CYASSERT(0u != 0u);
3063:Generated_Source\PSoC4/CyLFClk.c ****             }
3064:Generated_Source\PSoC4/CyLFClk.c ****         #endif /* (CY_IP_WCO_WDT_EN) */
3065:Generated_Source\PSoC4/CyLFClk.c ****     }
3066:Generated_Source\PSoC4/CyLFClk.c **** 
3067:Generated_Source\PSoC4/CyLFClk.c **** 
3068:Generated_Source\PSoC4/CyLFClk.c ****     /*******************************************************************************
3069:Generated_Source\PSoC4/CyLFClk.c ****     * Function Name: CySysTimerDelayUntilMatch
3070:Generated_Source\PSoC4/CyLFClk.c ****     ****************************************************************************//**
3071:Generated_Source\PSoC4/CyLFClk.c ****     *
3072:Generated_Source\PSoC4/CyLFClk.c ****     * \brief
3073:Generated_Source\PSoC4/CyLFClk.c ****     * The function implements the delay specified as the number of WDT or DeepSleep
3074:Generated_Source\PSoC4/CyLFClk.c ****     * Timer clock source ticks between WDT or DeepSleep Timer current value and 
3075:Generated_Source\PSoC4/CyLFClk.c ****     * match" value.
3076:Generated_Source\PSoC4/CyLFClk.c ****     *
3077:Generated_Source\PSoC4/CyLFClk.c ****     * This API is applicable for PSoC 4100 / PSoC 4200 / PRoC BLE / PSoC 4100 BLE /
3078:Generated_Source\PSoC4/CyLFClk.c ****     * PSoC 4200 BLE / PSoC 4200L / PSoC 4100M / PSoC 4200M devices to use WDT.
3079:Generated_Source\PSoC4/CyLFClk.c ****     * Also this API is available to use for PSoC4100S / Analog Coprocessor devices
3080:Generated_Source\PSoC4/CyLFClk.c ****     * to use DeepSleep Timers.
3081:Generated_Source\PSoC4/CyLFClk.c ****     * 
ARM GAS  C:\Users\JamesN4\AppData\Local\Temp\ccOIY297.s 			page 124


3082:Generated_Source\PSoC4/CyLFClk.c ****     * For PSoC 4100 / PSoC 4200 / PSoC 4100 BLE / PSoC 4200 BLE / PRoC BLE / PSoC 
3083:Generated_Source\PSoC4/CyLFClk.c ****     * 4200L / PSoC 4100M / PSoC 4200M devices:
3084:Generated_Source\PSoC4/CyLFClk.c ****     * The function implements the delay specified as the number of LFCLK ticks
3085:Generated_Source\PSoC4/CyLFClk.c ****     * between the specified WDT counter's current value and the "match"
3086:Generated_Source\PSoC4/CyLFClk.c ****     * passed as the parameter to this function. The current WDT counter value can 
3087:Generated_Source\PSoC4/CyLFClk.c ****     * be obtained using the CySysWdtGetCount() function.
3088:Generated_Source\PSoC4/CyLFClk.c ****     *
3089:Generated_Source\PSoC4/CyLFClk.c ****     * For PSoC4100 S and Analog Coprocessor devices:
3090:Generated_Source\PSoC4/CyLFClk.c ****     * The function implements the delay specified as the number of DeepSleep Timer 
3091:Generated_Source\PSoC4/CyLFClk.c ****     * input clock ticks for Timer0/Timer1 counter's current value and the "match" 
3092:Generated_Source\PSoC4/CyLFClk.c ****     * passed as the parameter to this function. The current DeepSleep Timer counter
3093:Generated_Source\PSoC4/CyLFClk.c ****     * value can be obtained using the CySysWdtGetCount() function.
3094:Generated_Source\PSoC4/CyLFClk.c ****     *
3095:Generated_Source\PSoC4/CyLFClk.c ****     * For PSoC 4100 / PSoC 4200 / PSoC 4100 BLE / PSoC 4200 BLE / PRoC BLE / PSoC 
3096:Generated_Source\PSoC4/CyLFClk.c ****     * 4200L / PSoC 4100M / PSoC 4200M devices:
3097:Generated_Source\PSoC4/CyLFClk.c ****     * The specified WDT counter should be configured as described below and started.
3098:Generated_Source\PSoC4/CyLFClk.c ****     *
3099:Generated_Source\PSoC4/CyLFClk.c ****     * For PSoC PSoC 4100S / PSoC Analog Coprocessor devices:
3100:Generated_Source\PSoC4/CyLFClk.c ****     * The specified DeepSleep Timer counter should be configured as described below
3101:Generated_Source\PSoC4/CyLFClk.c ****     * and started.
3102:Generated_Source\PSoC4/CyLFClk.c ****     *
3103:Generated_Source\PSoC4/CyLFClk.c ****     * This function can operate in two modes: the "WAIT" and "INTERRUPT" modes. In
3104:Generated_Source\PSoC4/CyLFClk.c ****     * the "WAIT" mode, the function waits for the specified number of ticks. In the
3105:Generated_Source\PSoC4/CyLFClk.c ****     * "INTERRUPT" mode, the interrupt is generated after the specified number of
3106:Generated_Source\PSoC4/CyLFClk.c ****     * ticks.
3107:Generated_Source\PSoC4/CyLFClk.c ****     *
3108:Generated_Source\PSoC4/CyLFClk.c ****     * For the correct function operation, the "Clear On Match" option should be
3109:Generated_Source\PSoC4/CyLFClk.c ****     * disabled for the specified WDT or DeepSleep Timer counter. Use 
3110:Generated_Source\PSoC4/CyLFClk.c ****     * CySysWdtSetClearOnMatch() for WDT or CySysTimerSetClearOnMatch() for DeepSleep
3111:Generated_Source\PSoC4/CyLFClk.c ****     * Timer function with the "enable" parameter equal to zero for the used WDT 
3112:Generated_Source\PSoC4/CyLFClk.c ****     * or DeepSleep Timer counter.
3113:Generated_Source\PSoC4/CyLFClk.c ****     *
3114:Generated_Source\PSoC4/CyLFClk.c ****     * For PSoC 4100 / PSoC 4200 / PSoC 4100 BLE / PSoC 4200 BLE / PRoC BLE / PSoC 
3115:Generated_Source\PSoC4/CyLFClk.c ****     * 4200L / PSoC 4100M/PSoC 4200M devices:
3116:Generated_Source\PSoC4/CyLFClk.c ****     * The corresponding WDT counter should be configured to match the selected
3117:Generated_Source\PSoC4/CyLFClk.c ****     * mode: "Free running Timer" for the "WAIT" mode, and
3118:Generated_Source\PSoC4/CyLFClk.c ****     * "Periodic Timer" / "Watchdog (w/Interrupt)" for the "INTERRUPT" mode.
3119:Generated_Source\PSoC4/CyLFClk.c ****     *
3120:Generated_Source\PSoC4/CyLFClk.c ****     * For PSoC 4100S / PSoC Analog Coprocessor devices:
3121:Generated_Source\PSoC4/CyLFClk.c ****     * Corresponding DeepSleep Timer counter should be configured to match the 
3122:Generated_Source\PSoC4/CyLFClk.c ****     * selected mode: "Free running Timer" for the "WAIT" mode, and
3123:Generated_Source\PSoC4/CyLFClk.c ****     * "Periodic Timer" for the "INTERRUPT" mode.
3124:Generated_Source\PSoC4/CyLFClk.c ****     *
3125:Generated_Source\PSoC4/CyLFClk.c ****     * This can be configured in two ways:
3126:Generated_Source\PSoC4/CyLFClk.c ****     * - Through the DWR page. Open the "Clocks" tab, click the "Edit Clocks..."
3127:Generated_Source\PSoC4/CyLFClk.c ****     * button, in the "Configure System Clocks" window click on the
3128:Generated_Source\PSoC4/CyLFClk.c ****     * "Low Frequency Clocks" tab and choose the appropriate option for the used
3129:Generated_Source\PSoC4/CyLFClk.c ****     * WDT or DeepSleep Timer counter.
3130:Generated_Source\PSoC4/CyLFClk.c ****     *
3131:Generated_Source\PSoC4/CyLFClk.c ****     * - Through the CySysWdtSetMode() for WDT or CySysTimerSetMode() for DeepSleep
3132:Generated_Source\PSoC4/CyLFClk.c ****     * Timer function. Call it with the appropriate "mode" parameter for the 
3133:Generated_Source\PSoC4/CyLFClk.c ****     * used WDT or DeepSleep Timer counter.
3134:Generated_Source\PSoC4/CyLFClk.c ****     *
3135:Generated_Source\PSoC4/CyLFClk.c ****     * For the "INTERRUPT" mode, the recommended sequence is the following:
3136:Generated_Source\PSoC4/CyLFClk.c ****     * - Call the CySysWdtDisableCounterIsr() for WDT or 
3137:Generated_Source\PSoC4/CyLFClk.c ****     * CySysTimerDisableIsr() for DeepSleep Timer function to disable servicing
3138:Generated_Source\PSoC4/CyLFClk.c ****     * interrupts of the specified WDT or DeepSleep Timer counter.
ARM GAS  C:\Users\JamesN4\AppData\Local\Temp\ccOIY297.s 			page 125


3139:Generated_Source\PSoC4/CyLFClk.c ****     *
3140:Generated_Source\PSoC4/CyLFClk.c ****     * - Call the CySysWdtSetInterruptCallback() for WDT or 
3141:Generated_Source\PSoC4/CyLFClk.c ****     * CySysTimerSetInterruptCallback() for DeepSleep Timer function to register 
3142:Generated_Source\PSoC4/CyLFClk.c ****     * the callback function for the corresponding WDT or DeepSleep Timer counter.
3143:Generated_Source\PSoC4/CyLFClk.c ****     *
3144:Generated_Source\PSoC4/CyLFClk.c ****     * - Call the CySysTimerDelay() function.
3145:Generated_Source\PSoC4/CyLFClk.c ****     *
3146:Generated_Source\PSoC4/CyLFClk.c ****     * \param counterNum Valid range [0-1]. The number of the WDT or DeepSleep 
3147:Generated_Source\PSoC4/CyLFClk.c ****     * Timer.
3148:Generated_Source\PSoC4/CyLFClk.c ****     * counter (Timer0 or Timer1).
3149:Generated_Source\PSoC4/CyLFClk.c ****     * \param delayType  CY_SYS_TIMER_WAIT - "WAIT" mode.<br>
3150:Generated_Source\PSoC4/CyLFClk.c ****     * CY_SYS_TIMER_INTERRUPT - "INTERRUPT" mode.
3151:Generated_Source\PSoC4/CyLFClk.c ****     * \param delay The delay value in the LFCLK ticks
3152:Generated_Source\PSoC4/CyLFClk.c ****     * (allowable range - 16-bit value).
3153:Generated_Source\PSoC4/CyLFClk.c ****     *
3154:Generated_Source\PSoC4/CyLFClk.c ****     * \details
3155:Generated_Source\PSoC4/CyLFClk.c ****     * In the "INTERRUPT" mode, this function enables ISR callback servicing
3156:Generated_Source\PSoC4/CyLFClk.c ****     * from the corresponding WDT counter. Servicing of this ISR callback will be
3157:Generated_Source\PSoC4/CyLFClk.c ****     * disabled after the expiration of the delay time.
3158:Generated_Source\PSoC4/CyLFClk.c ****     *
3159:Generated_Source\PSoC4/CyLFClk.c ****     *******************************************************************************/
3160:Generated_Source\PSoC4/CyLFClk.c ****     void CySysTimerDelayUntilMatch(uint32 counterNum, cy_sys_timer_delaytype_enum delayType, uint32
3161:Generated_Source\PSoC4/CyLFClk.c ****     {
 2901              		.loc 1 3161 0
 2902              		.cfi_startproc
 2903              		@ args = 0, pretend = 0, frame = 0
 2904              		@ frame_needed = 0, uses_anonymous_args = 0
 2905              	.LVL291:
 2906 0000 70B5     		push	{r4, r5, r6, lr}
 2907              		.cfi_def_cfa_offset 16
 2908              		.cfi_offset 4, -16
 2909              		.cfi_offset 5, -12
 2910              		.cfi_offset 6, -8
 2911              		.cfi_offset 14, -4
 2912 0002 0400     		movs	r4, r0
 2913 0004 0E00     		movs	r6, r1
 2914 0006 1500     		movs	r5, r2
3162:Generated_Source\PSoC4/CyLFClk.c ****         uint32 tmpValue;
3163:Generated_Source\PSoC4/CyLFClk.c **** 
3164:Generated_Source\PSoC4/CyLFClk.c ****         #if(CY_IP_SRSSV2)
3165:Generated_Source\PSoC4/CyLFClk.c ****             if((counterNum < CY_SYS_WDT_COUNTER2) && (0uL == CySysWdtGetClearOnMatch(counterNum)) &
 2915              		.loc 1 3165 0
 2916 0008 0128     		cmp	r0, #1
 2917 000a 23D8     		bhi	.L245
 2918              		.loc 1 3165 0 is_stmt 0 discriminator 1
 2919 000c FFF7FEFF 		bl	CySysWdtGetClearOnMatch
 2920              	.LVL292:
 2921 0010 0028     		cmp	r0, #0
 2922 0012 1FD1     		bne	.L245
 2923              		.loc 1 3165 0 discriminator 2
 2924 0014 114B     		ldr	r3, .L250
 2925 0016 9D42     		cmp	r5, r3
 2926 0018 1CD8     		bhi	.L245
3166:Generated_Source\PSoC4/CyLFClk.c ****                                                                 (match <= CY_SYS_UINT16_MAX_VAL))
3167:Generated_Source\PSoC4/CyLFClk.c ****             {
3168:Generated_Source\PSoC4/CyLFClk.c ****                 if(delayType == CY_SYS_TIMER_WAIT)
 2927              		.loc 1 3168 0 is_stmt 1
ARM GAS  C:\Users\JamesN4\AppData\Local\Temp\ccOIY297.s 			page 126


 2928 001a 002E     		cmp	r6, #0
 2929 001c 0AD1     		bne	.L246
 2930              	.L247:
3169:Generated_Source\PSoC4/CyLFClk.c ****                 {
3170:Generated_Source\PSoC4/CyLFClk.c ****                     do
3171:Generated_Source\PSoC4/CyLFClk.c ****                     {
3172:Generated_Source\PSoC4/CyLFClk.c ****                         tmpValue = CySysWdtGetCount(counterNum);
 2931              		.loc 1 3172 0 discriminator 1
 2932 001e 2000     		movs	r0, r4
 2933 0020 FFF7FEFF 		bl	CySysWdtGetCount
 2934              	.LVL293:
3173:Generated_Source\PSoC4/CyLFClk.c ****                     }while(tmpValue > match);
 2935              		.loc 1 3173 0 discriminator 1
 2936 0024 8542     		cmp	r5, r0
 2937 0026 FAD3     		bcc	.L247
 2938              	.L248:
3174:Generated_Source\PSoC4/CyLFClk.c **** 
3175:Generated_Source\PSoC4/CyLFClk.c ****                     do
3176:Generated_Source\PSoC4/CyLFClk.c ****                     {
3177:Generated_Source\PSoC4/CyLFClk.c ****                         tmpValue = CySysWdtGetCount(counterNum);
 2939              		.loc 1 3177 0 discriminator 1
 2940 0028 2000     		movs	r0, r4
 2941              	.LVL294:
 2942 002a FFF7FEFF 		bl	CySysWdtGetCount
 2943              	.LVL295:
3178:Generated_Source\PSoC4/CyLFClk.c ****                     }while(tmpValue < match);
 2944              		.loc 1 3178 0 discriminator 1
 2945 002e 8542     		cmp	r5, r0
 2946 0030 FAD8     		bhi	.L248
 2947 0032 12E0     		b	.L244
 2948              	.LVL296:
 2949              	.L246:
3179:Generated_Source\PSoC4/CyLFClk.c ****                 }
3180:Generated_Source\PSoC4/CyLFClk.c ****                 else
3181:Generated_Source\PSoC4/CyLFClk.c ****                 {
3182:Generated_Source\PSoC4/CyLFClk.c ****                     tmpValue = counterIntMaskTbl[counterNum];
 2950              		.loc 1 3182 0
 2951 0034 A200     		lsls	r2, r4, #2
 2952 0036 0A4B     		ldr	r3, .L250+4
 2953 0038 D658     		ldr	r6, [r2, r3]
 2954              	.LVL297:
3183:Generated_Source\PSoC4/CyLFClk.c ****                     CySysWdtSetMatch(counterNum, match);
 2955              		.loc 1 3183 0
 2956 003a 2900     		movs	r1, r5
 2957 003c 2000     		movs	r0, r4
 2958 003e FFF7FEFF 		bl	CySysWdtSetMatch
 2959              	.LVL298:
3184:Generated_Source\PSoC4/CyLFClk.c **** 
3185:Generated_Source\PSoC4/CyLFClk.c ****                     disableServicedIsr  |= tmpValue;
 2960              		.loc 1 3185 0
 2961 0042 084A     		ldr	r2, .L250+8
 2962 0044 536A     		ldr	r3, [r2, #36]
 2963 0046 3343     		orrs	r3, r6
 2964 0048 5362     		str	r3, [r2, #36]
3186:Generated_Source\PSoC4/CyLFClk.c ****                     wdtIsrMask |= tmpValue;
 2965              		.loc 1 3186 0
 2966 004a 074A     		ldr	r2, .L250+12
ARM GAS  C:\Users\JamesN4\AppData\Local\Temp\ccOIY297.s 			page 127


 2967 004c 5368     		ldr	r3, [r2, #4]
 2968 004e 3343     		orrs	r3, r6
 2969 0050 5360     		str	r3, [r2, #4]
 2970 0052 02E0     		b	.L244
 2971              	.LVL299:
 2972              	.L245:
3187:Generated_Source\PSoC4/CyLFClk.c ****                 }
3188:Generated_Source\PSoC4/CyLFClk.c ****             }
3189:Generated_Source\PSoC4/CyLFClk.c ****             else
3190:Generated_Source\PSoC4/CyLFClk.c ****             {
3191:Generated_Source\PSoC4/CyLFClk.c ****                 CYASSERT(0u != 0u);
 2973              		.loc 1 3191 0 discriminator 1
 2974 0054 0020     		movs	r0, #0
 2975 0056 FFF7FEFF 		bl	CyHalt
 2976              	.LVL300:
 2977              	.L244:
3192:Generated_Source\PSoC4/CyLFClk.c ****             }
3193:Generated_Source\PSoC4/CyLFClk.c **** 
3194:Generated_Source\PSoC4/CyLFClk.c ****         #endif /* (CY_IP_SRSSV2) */  
3195:Generated_Source\PSoC4/CyLFClk.c **** 
3196:Generated_Source\PSoC4/CyLFClk.c ****         #if(CY_IP_WCO_WDT_EN && CY_IP_SRSSLT)
3197:Generated_Source\PSoC4/CyLFClk.c ****         if((counterNum < CY_SYS_TIMER2) && (0uL == CySysTimerGetClearOnMatch(counterNum)) &&
3198:Generated_Source\PSoC4/CyLFClk.c ****                                                         (match <= CY_SYS_UINT16_MAX_VAL))
3199:Generated_Source\PSoC4/CyLFClk.c ****         {
3200:Generated_Source\PSoC4/CyLFClk.c ****             if(delayType == CY_SYS_TIMER_WAIT)
3201:Generated_Source\PSoC4/CyLFClk.c ****             {
3202:Generated_Source\PSoC4/CyLFClk.c ****                 do
3203:Generated_Source\PSoC4/CyLFClk.c ****                 {
3204:Generated_Source\PSoC4/CyLFClk.c ****                     tmpValue = CySysTimerGetCount(counterNum);
3205:Generated_Source\PSoC4/CyLFClk.c ****                 }while(tmpValue > match);
3206:Generated_Source\PSoC4/CyLFClk.c **** 
3207:Generated_Source\PSoC4/CyLFClk.c ****                 do
3208:Generated_Source\PSoC4/CyLFClk.c ****                 {
3209:Generated_Source\PSoC4/CyLFClk.c ****                     tmpValue = CySysTimerGetCount(counterNum);
3210:Generated_Source\PSoC4/CyLFClk.c ****                 }while(tmpValue < match);
3211:Generated_Source\PSoC4/CyLFClk.c ****             }
3212:Generated_Source\PSoC4/CyLFClk.c ****             else
3213:Generated_Source\PSoC4/CyLFClk.c ****             {
3214:Generated_Source\PSoC4/CyLFClk.c ****                 tmpValue = counterTimerIntMaskTbl[counterNum];
3215:Generated_Source\PSoC4/CyLFClk.c ****                 CySysTimerSetMatch(counterNum, match);
3216:Generated_Source\PSoC4/CyLFClk.c **** 
3217:Generated_Source\PSoC4/CyLFClk.c ****                 disableTimerServicedIsr  |= tmpValue;
3218:Generated_Source\PSoC4/CyLFClk.c ****                 timerIsrMask |= tmpValue;
3219:Generated_Source\PSoC4/CyLFClk.c ****             }
3220:Generated_Source\PSoC4/CyLFClk.c ****         }
3221:Generated_Source\PSoC4/CyLFClk.c ****         else
3222:Generated_Source\PSoC4/CyLFClk.c ****         {
3223:Generated_Source\PSoC4/CyLFClk.c ****             CYASSERT(0u != 0u);
3224:Generated_Source\PSoC4/CyLFClk.c ****         }
3225:Generated_Source\PSoC4/CyLFClk.c ****         #endif /* (CY_IP_WCO_WDT_EN && CY_IP_SRSSLT) */
3226:Generated_Source\PSoC4/CyLFClk.c ****     }
 2978              		.loc 1 3226 0
 2979              		@ sp needed
 2980              	.LVL301:
 2981              	.LVL302:
 2982 005a 70BD     		pop	{r4, r5, r6, pc}
 2983              	.L251:
ARM GAS  C:\Users\JamesN4\AppData\Local\Temp\ccOIY297.s 			page 128


 2984              		.align	2
 2985              	.L250:
 2986 005c FFFF0000 		.word	65535
 2987 0060 00000000 		.word	.LANCHOR2
 2988 0064 00000000 		.word	.LANCHOR0
 2989 0068 00000000 		.word	.LANCHOR1
 2990              		.cfi_endproc
 2991              	.LFE46:
 2992              		.size	CySysTimerDelayUntilMatch, .-CySysTimerDelayUntilMatch
 2993              		.section	.text.CySysTimerDelay,"ax",%progbits
 2994              		.align	2
 2995              		.global	CySysTimerDelay
 2996              		.code	16
 2997              		.thumb_func
 2998              		.type	CySysTimerDelay, %function
 2999              	CySysTimerDelay:
 3000              	.LFB45:
3032:Generated_Source\PSoC4/CyLFClk.c ****         uint32 regValue;
 3001              		.loc 1 3032 0
 3002              		.cfi_startproc
 3003              		@ args = 0, pretend = 0, frame = 0
 3004              		@ frame_needed = 0, uses_anonymous_args = 0
 3005              	.LVL303:
 3006 0000 70B5     		push	{r4, r5, r6, lr}
 3007              		.cfi_def_cfa_offset 16
 3008              		.cfi_offset 4, -16
 3009              		.cfi_offset 5, -12
 3010              		.cfi_offset 6, -8
 3011              		.cfi_offset 14, -4
 3012 0002 0400     		movs	r4, r0
 3013 0004 0E00     		movs	r6, r1
 3014 0006 1500     		movs	r5, r2
3037:Generated_Source\PSoC4/CyLFClk.c ****                                                                 (delay <= CY_SYS_UINT16_MAX_VAL))
 3015              		.loc 1 3037 0
 3016 0008 0128     		cmp	r0, #1
 3017 000a 11D8     		bhi	.L253
3037:Generated_Source\PSoC4/CyLFClk.c ****                                                                 (delay <= CY_SYS_UINT16_MAX_VAL))
 3018              		.loc 1 3037 0 is_stmt 0 discriminator 1
 3019 000c FFF7FEFF 		bl	CySysWdtGetClearOnMatch
 3020              	.LVL304:
 3021 0010 0028     		cmp	r0, #0
 3022 0012 0DD1     		bne	.L253
3037:Generated_Source\PSoC4/CyLFClk.c ****                                                                 (delay <= CY_SYS_UINT16_MAX_VAL))
 3023              		.loc 1 3037 0 discriminator 2
 3024 0014 084B     		ldr	r3, .L255
 3025 0016 9D42     		cmp	r5, r3
 3026 0018 0AD8     		bhi	.L253
3040:Generated_Source\PSoC4/CyLFClk.c ****                 matchValue = (regValue + delay) & (uint32)CY_SYS_UINT16_MAX_VAL;
 3027              		.loc 1 3040 0 is_stmt 1
 3028 001a 2000     		movs	r0, r4
 3029 001c FFF7FEFF 		bl	CySysWdtGetCount
 3030              	.LVL305:
3041:Generated_Source\PSoC4/CyLFClk.c **** 
 3031              		.loc 1 3041 0
 3032 0020 2A18     		adds	r2, r5, r0
 3033 0022 1204     		lsls	r2, r2, #16
 3034 0024 120C     		lsrs	r2, r2, #16
ARM GAS  C:\Users\JamesN4\AppData\Local\Temp\ccOIY297.s 			page 129


 3035              	.LVL306:
3043:Generated_Source\PSoC4/CyLFClk.c ****             }
 3036              		.loc 1 3043 0
 3037 0026 3100     		movs	r1, r6
 3038 0028 2000     		movs	r0, r4
 3039              	.LVL307:
 3040 002a FFF7FEFF 		bl	CySysTimerDelayUntilMatch
 3041              	.LVL308:
 3042 002e 02E0     		b	.L252
 3043              	.L253:
3047:Generated_Source\PSoC4/CyLFClk.c ****             }
 3044              		.loc 1 3047 0 discriminator 1
 3045 0030 0020     		movs	r0, #0
 3046 0032 FFF7FEFF 		bl	CyHalt
 3047              	.LVL309:
 3048              	.L252:
3065:Generated_Source\PSoC4/CyLFClk.c **** 
 3049              		.loc 1 3065 0
 3050              		@ sp needed
 3051              	.LVL310:
 3052              	.LVL311:
 3053 0036 70BD     		pop	{r4, r5, r6, pc}
 3054              	.L256:
 3055              		.align	2
 3056              	.L255:
 3057 0038 FFFF0000 		.word	65535
 3058              		.cfi_endproc
 3059              	.LFE45:
 3060              		.size	CySysTimerDelay, .-CySysTimerDelay
 3061              		.section	.rodata
 3062              		.align	2
 3063              		.set	.LANCHOR2,. + 0
 3064              		.type	counterIntMaskTbl, %object
 3065              		.size	counterIntMaskTbl, 12
 3066              	counterIntMaskTbl:
 3067 0000 04000000 		.word	4
 3068 0004 00040000 		.word	1024
 3069 0008 00000400 		.word	262144
 3070              		.data
 3071              		.align	2
 3072              		.set	.LANCHOR1,. + 0
 3073              		.type	defaultIloTrimRegValue, %object
 3074              		.size	defaultIloTrimRegValue, 2
 3075              	defaultIloTrimRegValue:
 3076 0000 F000     		.short	240
 3077 0002 0000     		.space	2
 3078              		.type	wdtIsrMask, %object
 3079              		.size	wdtIsrMask, 4
 3080              	wdtIsrMask:
 3081 0004 04040400 		.word	263172
 3082              		.bss
 3083              		.align	2
 3084              		.set	.LANCHOR0,. + 0
 3085              		.type	iloTrimTrig.4871, %object
 3086              		.size	iloTrimTrig.4871, 1
 3087              	iloTrimTrig.4871:
 3088 0000 00       		.space	1
ARM GAS  C:\Users\JamesN4\AppData\Local\Temp\ccOIY297.s 			page 130


 3089 0001 000000   		.space	3
 3090              		.type	compensateRunningStatus.4881, %object
 3091              		.size	compensateRunningStatus.4881, 4
 3092              	compensateRunningStatus.4881:
 3093 0004 00000000 		.space	4
 3094              		.type	trimRunningStatus.4893, %object
 3095              		.size	trimRunningStatus.4893, 4
 3096              	trimRunningStatus.4893:
 3097 0008 00000000 		.space	4
 3098              		.type	lfclkPosedgeWdtCounter0Enabled, %object
 3099              		.size	lfclkPosedgeWdtCounter0Enabled, 4
 3100              	lfclkPosedgeWdtCounter0Enabled:
 3101 000c 00000000 		.space	4
 3102              		.type	lfclkPosedgeWdtCounter0Mode, %object
 3103              		.size	lfclkPosedgeWdtCounter0Mode, 4
 3104              	lfclkPosedgeWdtCounter0Mode:
 3105 0010 00000000 		.space	4
 3106              		.type	lfclkPosedgeEnabledWdtCounter.5066, %object
 3107              		.size	lfclkPosedgeEnabledWdtCounter.5066, 4
 3108              	lfclkPosedgeEnabledWdtCounter.5066:
 3109 0014 00000000 		.space	4
 3110              		.type	cySysWdtCallback, %object
 3111              		.size	cySysWdtCallback, 12
 3112              	cySysWdtCallback:
 3113 0018 00000000 		.space	12
 3113      00000000 
 3113      00000000 
 3114              		.type	disableServicedIsr, %object
 3115              		.size	disableServicedIsr, 4
 3116              	disableServicedIsr:
 3117 0024 00000000 		.space	4
 3118              		.text
 3119              	.Letext0:
 3120              		.file 3 "Generated_Source\\PSoC4\\cytypes.h"
 3121              		.file 4 "Generated_Source\\PSoC4\\CyLib.h"
 3122              		.section	.debug_info,"",%progbits
 3123              	.Ldebug_info0:
 3124 0000 54100000 		.4byte	0x1054
 3125 0004 0400     		.2byte	0x4
 3126 0006 00000000 		.4byte	.Ldebug_abbrev0
 3127 000a 04       		.byte	0x4
 3128 000b 01       		.uleb128 0x1
 3129 000c CA000000 		.4byte	.LASF123
 3130 0010 0C       		.byte	0xc
 3131 0011 79070000 		.4byte	.LASF124
 3132 0015 DB040000 		.4byte	.LASF125
 3133 0019 00000000 		.4byte	.Ldebug_ranges0+0
 3134 001d 00000000 		.4byte	0
 3135 0021 00000000 		.4byte	.Ldebug_line0
 3136 0025 02       		.uleb128 0x2
 3137 0026 04       		.byte	0x4
 3138 0027 07       		.byte	0x7
 3139 0028 85030000 		.4byte	.LASF0
 3140 002c 02       		.uleb128 0x2
 3141 002d 01       		.byte	0x1
 3142 002e 06       		.byte	0x6
 3143 002f F0010000 		.4byte	.LASF1
ARM GAS  C:\Users\JamesN4\AppData\Local\Temp\ccOIY297.s 			page 131


 3144 0033 02       		.uleb128 0x2
 3145 0034 01       		.byte	0x1
 3146 0035 08       		.byte	0x8
 3147 0036 B1060000 		.4byte	.LASF2
 3148 003a 02       		.uleb128 0x2
 3149 003b 02       		.byte	0x2
 3150 003c 05       		.byte	0x5
 3151 003d FB060000 		.4byte	.LASF3
 3152 0041 02       		.uleb128 0x2
 3153 0042 02       		.byte	0x2
 3154 0043 07       		.byte	0x7
 3155 0044 37040000 		.4byte	.LASF4
 3156 0048 02       		.uleb128 0x2
 3157 0049 04       		.byte	0x4
 3158 004a 05       		.byte	0x5
 3159 004b 62020000 		.4byte	.LASF5
 3160 004f 02       		.uleb128 0x2
 3161 0050 04       		.byte	0x4
 3162 0051 07       		.byte	0x7
 3163 0052 CD030000 		.4byte	.LASF6
 3164 0056 02       		.uleb128 0x2
 3165 0057 08       		.byte	0x8
 3166 0058 05       		.byte	0x5
 3167 0059 E2010000 		.4byte	.LASF7
 3168 005d 02       		.uleb128 0x2
 3169 005e 08       		.byte	0x8
 3170 005f 07       		.byte	0x7
 3171 0060 77010000 		.4byte	.LASF8
 3172 0064 03       		.uleb128 0x3
 3173 0065 04       		.byte	0x4
 3174 0066 05       		.byte	0x5
 3175 0067 696E7400 		.ascii	"int\000"
 3176 006b 04       		.uleb128 0x4
 3177 006c 7D020000 		.4byte	.LASF9
 3178 0070 03       		.byte	0x3
 3179 0071 D201     		.2byte	0x1d2
 3180 0073 33000000 		.4byte	0x33
 3181 0077 04       		.uleb128 0x4
 3182 0078 00000000 		.4byte	.LASF10
 3183 007c 03       		.byte	0x3
 3184 007d D301     		.2byte	0x1d3
 3185 007f 41000000 		.4byte	0x41
 3186 0083 04       		.uleb128 0x4
 3187 0084 D5020000 		.4byte	.LASF11
 3188 0088 03       		.byte	0x3
 3189 0089 D401     		.2byte	0x1d4
 3190 008b 4F000000 		.4byte	0x4f
 3191 008f 04       		.uleb128 0x4
 3192 0090 20020000 		.4byte	.LASF12
 3193 0094 03       		.byte	0x3
 3194 0095 D701     		.2byte	0x1d7
 3195 0097 48000000 		.4byte	0x48
 3196 009b 02       		.uleb128 0x2
 3197 009c 04       		.byte	0x4
 3198 009d 04       		.byte	0x4
 3199 009e 6B060000 		.4byte	.LASF13
 3200 00a2 02       		.uleb128 0x2
ARM GAS  C:\Users\JamesN4\AppData\Local\Temp\ccOIY297.s 			page 132


 3201 00a3 08       		.byte	0x8
 3202 00a4 04       		.byte	0x4
 3203 00a5 8A020000 		.4byte	.LASF14
 3204 00a9 02       		.uleb128 0x2
 3205 00aa 01       		.byte	0x1
 3206 00ab 08       		.byte	0x8
 3207 00ac ED070000 		.4byte	.LASF15
 3208 00b0 04       		.uleb128 0x4
 3209 00b1 E0080000 		.4byte	.LASF16
 3210 00b5 03       		.byte	0x3
 3211 00b6 7402     		.2byte	0x274
 3212 00b8 4F000000 		.4byte	0x4f
 3213 00bc 05       		.uleb128 0x5
 3214 00bd 77000000 		.4byte	0x77
 3215 00c1 04       		.uleb128 0x4
 3216 00c2 49050000 		.4byte	.LASF17
 3217 00c6 03       		.byte	0x3
 3218 00c7 7E02     		.2byte	0x27e
 3219 00c9 CD000000 		.4byte	0xcd
 3220 00cd 05       		.uleb128 0x5
 3221 00ce 83000000 		.4byte	0x83
 3222 00d2 06       		.uleb128 0x6
 3223 00d3 04       		.byte	0x4
 3224 00d4 D8000000 		.4byte	0xd8
 3225 00d8 07       		.uleb128 0x7
 3226 00d9 08       		.uleb128 0x8
 3227 00da 01       		.byte	0x1
 3228 00db 33000000 		.4byte	0x33
 3229 00df 02       		.byte	0x2
 3230 00e0 1A       		.byte	0x1a
 3231 00e1 F2000000 		.4byte	0xf2
 3232 00e5 09       		.uleb128 0x9
 3233 00e6 FE050000 		.4byte	.LASF18
 3234 00ea 00       		.byte	0
 3235 00eb 09       		.uleb128 0x9
 3236 00ec 20090000 		.4byte	.LASF19
 3237 00f0 01       		.byte	0x1
 3238 00f1 00       		.byte	0
 3239 00f2 0A       		.uleb128 0xa
 3240 00f3 41020000 		.4byte	.LASF20
 3241 00f7 02       		.byte	0x2
 3242 00f8 1D       		.byte	0x1d
 3243 00f9 D9000000 		.4byte	0xd9
 3244 00fd 0A       		.uleb128 0xa
 3245 00fe 12020000 		.4byte	.LASF21
 3246 0102 02       		.byte	0x2
 3247 0103 58       		.byte	0x58
 3248 0104 D2000000 		.4byte	0xd2
 3249 0108 02       		.uleb128 0x2
 3250 0109 08       		.byte	0x8
 3251 010a 04       		.byte	0x4
 3252 010b BD050000 		.4byte	.LASF22
 3253 010f 02       		.uleb128 0x2
 3254 0110 04       		.byte	0x4
 3255 0111 07       		.byte	0x7
 3256 0112 B4050000 		.4byte	.LASF23
 3257 0116 0B       		.uleb128 0xb
ARM GAS  C:\Users\JamesN4\AppData\Local\Temp\ccOIY297.s 			page 133


 3258 0117 C6010000 		.4byte	.LASF126
 3259 011b 02       		.byte	0x2
 3260 011c 9202     		.2byte	0x292
 3261 011e 03       		.byte	0x3
 3262 011f 0C       		.uleb128 0xc
 3263 0120 4B070000 		.4byte	.LASF24
 3264 0124 01       		.byte	0x1
 3265 0125 7201     		.2byte	0x172
 3266 0127 83000000 		.4byte	0x83
 3267 012b 00000000 		.4byte	.LFB6
 3268 012f 14000000 		.4byte	.LFE6-.LFB6
 3269 0133 01       		.uleb128 0x1
 3270 0134 9C       		.byte	0x9c
 3271 0135 0D       		.uleb128 0xd
 3272 0136 B3000000 		.4byte	.LASF127
 3273 013a 01       		.byte	0x1
 3274 013b AD02     		.2byte	0x2ad
 3275 013d 83000000 		.4byte	0x83
 3276 0141 00000000 		.4byte	.LFB10
 3277 0145 10000000 		.4byte	.LFE10-.LFB10
 3278 0149 01       		.uleb128 0x1
 3279 014a 9C       		.byte	0x9c
 3280 014b 5E010000 		.4byte	0x15e
 3281 014f 0E       		.uleb128 0xe
 3282 0150 1D000000 		.4byte	.LASF26
 3283 0154 01       		.byte	0x1
 3284 0155 AF02     		.2byte	0x2af
 3285 0157 83000000 		.4byte	0x83
 3286 015b 01       		.uleb128 0x1
 3287 015c 50       		.byte	0x50
 3288 015d 00       		.byte	0
 3289 015e 0C       		.uleb128 0xc
 3290 015f 9B060000 		.4byte	.LASF25
 3291 0163 01       		.byte	0x1
 3292 0164 C903     		.2byte	0x3c9
 3293 0166 83000000 		.4byte	0x83
 3294 016a 00000000 		.4byte	.LFB18
 3295 016e 14000000 		.4byte	.LFE18-.LFB18
 3296 0172 01       		.uleb128 0x1
 3297 0173 9C       		.byte	0x9c
 3298 0174 0F       		.uleb128 0xf
 3299 0175 A5040000 		.4byte	.LASF28
 3300 0179 01       		.byte	0x1
 3301 017a 53       		.byte	0x53
 3302 017b 00000000 		.4byte	.LFB1
 3303 017f 14000000 		.4byte	.LFE1-.LFB1
 3304 0183 01       		.uleb128 0x1
 3305 0184 9C       		.byte	0x9c
 3306 0185 10       		.uleb128 0x10
 3307 0186 1F070000 		.4byte	.LASF51
 3308 018a 01       		.byte	0x1
 3309 018b A8       		.byte	0xa8
 3310 018c 00000000 		.4byte	.LFB3
 3311 0190 5C000000 		.4byte	.LFE3-.LFB3
 3312 0194 01       		.uleb128 0x1
 3313 0195 9C       		.byte	0x9c
 3314 0196 AC010000 		.4byte	0x1ac
ARM GAS  C:\Users\JamesN4\AppData\Local\Temp\ccOIY297.s 			page 134


 3315 019a 11       		.uleb128 0x11
 3316 019b 80040000 		.4byte	.LASF27
 3317 019f 01       		.byte	0x1
 3318 01a0 AB       		.byte	0xab
 3319 01a1 6B000000 		.4byte	0x6b
 3320 01a5 05       		.uleb128 0x5
 3321 01a6 03       		.byte	0x3
 3322 01a7 00000000 		.4byte	iloTrimTrig.4871
 3323 01ab 00       		.byte	0
 3324 01ac 0F       		.uleb128 0xf
 3325 01ad DC020000 		.4byte	.LASF29
 3326 01b1 01       		.byte	0x1
 3327 01b2 C9       		.byte	0xc9
 3328 01b3 00000000 		.4byte	.LFB4
 3329 01b7 14000000 		.4byte	.LFE4-.LFB4
 3330 01bb 01       		.uleb128 0x1
 3331 01bc 9C       		.byte	0x9c
 3332 01bd 12       		.uleb128 0x12
 3333 01be 0A090000 		.4byte	.LASF37
 3334 01c2 01       		.byte	0x1
 3335 01c3 0B01     		.2byte	0x10b
 3336 01c5 B0000000 		.4byte	0xb0
 3337 01c9 00000000 		.4byte	.LFB5
 3338 01cd 04010000 		.4byte	.LFE5-.LFB5
 3339 01d1 01       		.uleb128 0x1
 3340 01d2 9C       		.byte	0x9c
 3341 01d3 4A020000 		.4byte	0x24a
 3342 01d7 13       		.uleb128 0x13
 3343 01d8 C0030000 		.4byte	.LASF30
 3344 01dc 01       		.byte	0x1
 3345 01dd 0B01     		.2byte	0x10b
 3346 01df 83000000 		.4byte	0x83
 3347 01e3 00000000 		.4byte	.LLST0
 3348 01e7 13       		.uleb128 0x13
 3349 01e8 91020000 		.4byte	.LASF31
 3350 01ec 01       		.byte	0x1
 3351 01ed 0B01     		.2byte	0x10b
 3352 01ef 4A020000 		.4byte	0x24a
 3353 01f3 F5000000 		.4byte	.LLST1
 3354 01f7 14       		.uleb128 0x14
 3355 01f8 B3020000 		.4byte	.LASF32
 3356 01fc 01       		.byte	0x1
 3357 01fd 0D01     		.2byte	0x10d
 3358 01ff 83000000 		.4byte	0x83
 3359 0203 4D010000 		.4byte	.LLST2
 3360 0207 14       		.uleb128 0x14
 3361 0208 76080000 		.4byte	.LASF33
 3362 020c 01       		.byte	0x1
 3363 020d 0E01     		.2byte	0x10e
 3364 020f 83000000 		.4byte	0x83
 3365 0213 77010000 		.4byte	.LLST3
 3366 0217 0E       		.uleb128 0xe
 3367 0218 BF060000 		.4byte	.LASF34
 3368 021c 01       		.byte	0x1
 3369 021d 0F01     		.2byte	0x10f
 3370 021f 83000000 		.4byte	0x83
 3371 0223 05       		.uleb128 0x5
ARM GAS  C:\Users\JamesN4\AppData\Local\Temp\ccOIY297.s 			page 135


 3372 0224 03       		.byte	0x3
 3373 0225 04000000 		.4byte	compensateRunningStatus.4881
 3374 0229 14       		.uleb128 0x14
 3375 022a 10060000 		.4byte	.LASF35
 3376 022e 01       		.byte	0x1
 3377 022f 1001     		.2byte	0x110
 3378 0231 83000000 		.4byte	0x83
 3379 0235 BF010000 		.4byte	.LLST4
 3380 0239 14       		.uleb128 0x14
 3381 023a 86050000 		.4byte	.LASF36
 3382 023e 01       		.byte	0x1
 3383 023f 1101     		.2byte	0x111
 3384 0241 B0000000 		.4byte	0xb0
 3385 0245 DD010000 		.4byte	.LLST5
 3386 0249 00       		.byte	0
 3387 024a 06       		.uleb128 0x6
 3388 024b 04       		.byte	0x4
 3389 024c 83000000 		.4byte	0x83
 3390 0250 12       		.uleb128 0x12
 3391 0251 8C040000 		.4byte	.LASF38
 3392 0255 01       		.byte	0x1
 3393 0256 3B02     		.2byte	0x23b
 3394 0258 B0000000 		.4byte	0xb0
 3395 025c 00000000 		.4byte	.LFB8
 3396 0260 A8000000 		.4byte	.LFE8-.LFB8
 3397 0264 01       		.uleb128 0x1
 3398 0265 9C       		.byte	0x9c
 3399 0266 CB020000 		.4byte	0x2cb
 3400 026a 13       		.uleb128 0x13
 3401 026b 9A070000 		.4byte	.LASF39
 3402 026f 01       		.byte	0x1
 3403 0270 3B02     		.2byte	0x23b
 3404 0272 CB020000 		.4byte	0x2cb
 3405 0276 08020000 		.4byte	.LLST6
 3406 027a 14       		.uleb128 0x14
 3407 027b 6B000000 		.4byte	.LASF40
 3408 027f 01       		.byte	0x1
 3409 0280 3D02     		.2byte	0x23d
 3410 0282 83000000 		.4byte	0x83
 3411 0286 4A020000 		.4byte	.LLST7
 3412 028a 14       		.uleb128 0x14
 3413 028b 8E010000 		.4byte	.LASF41
 3414 028f 01       		.byte	0x1
 3415 0290 3E02     		.2byte	0x23e
 3416 0292 83000000 		.4byte	0x83
 3417 0296 6C020000 		.4byte	.LLST8
 3418 029a 14       		.uleb128 0x14
 3419 029b 30020000 		.4byte	.LASF42
 3420 029f 01       		.byte	0x1
 3421 02a0 3F02     		.2byte	0x23f
 3422 02a2 8F000000 		.4byte	0x8f
 3423 02a6 7F020000 		.4byte	.LLST9
 3424 02aa 14       		.uleb128 0x14
 3425 02ab 2E040000 		.4byte	.LASF43
 3426 02af 01       		.byte	0x1
 3427 02b0 4002     		.2byte	0x240
 3428 02b2 8F000000 		.4byte	0x8f
ARM GAS  C:\Users\JamesN4\AppData\Local\Temp\ccOIY297.s 			page 136


 3429 02b6 B4020000 		.4byte	.LLST10
 3430 02ba 14       		.uleb128 0x14
 3431 02bb B5010000 		.4byte	.LASF44
 3432 02bf 01       		.byte	0x1
 3433 02c0 4102     		.2byte	0x241
 3434 02c2 B0000000 		.4byte	0xb0
 3435 02c6 D2020000 		.4byte	.LLST11
 3436 02ca 00       		.byte	0
 3437 02cb 06       		.uleb128 0x6
 3438 02cc 04       		.byte	0x4
 3439 02cd 8F000000 		.4byte	0x8f
 3440 02d1 15       		.uleb128 0x15
 3441 02d2 3B070000 		.4byte	.LASF45
 3442 02d6 01       		.byte	0x1
 3443 02d7 C101     		.2byte	0x1c1
 3444 02d9 B0000000 		.4byte	0xb0
 3445 02dd 00000000 		.4byte	.LFB7
 3446 02e1 D8000000 		.4byte	.LFE7-.LFB7
 3447 02e5 01       		.uleb128 0x1
 3448 02e6 9C       		.byte	0x9c
 3449 02e7 82030000 		.4byte	0x382
 3450 02eb 13       		.uleb128 0x13
 3451 02ec F2070000 		.4byte	.LASF46
 3452 02f0 01       		.byte	0x1
 3453 02f1 C101     		.2byte	0x1c1
 3454 02f3 83000000 		.4byte	0x83
 3455 02f7 FD020000 		.4byte	.LLST12
 3456 02fb 13       		.uleb128 0x13
 3457 02fc 9A070000 		.4byte	.LASF39
 3458 0300 01       		.byte	0x1
 3459 0301 C101     		.2byte	0x1c1
 3460 0303 CB020000 		.4byte	0x2cb
 3461 0307 B4030000 		.4byte	.LLST13
 3462 030b 14       		.uleb128 0x14
 3463 030c 46080000 		.4byte	.LASF47
 3464 0310 01       		.byte	0x1
 3465 0311 C301     		.2byte	0x1c3
 3466 0313 83000000 		.4byte	0x83
 3467 0317 22040000 		.4byte	.LLST14
 3468 031b 14       		.uleb128 0x14
 3469 031c 40060000 		.4byte	.LASF48
 3470 0320 01       		.byte	0x1
 3471 0321 C401     		.2byte	0x1c4
 3472 0323 83000000 		.4byte	0x83
 3473 0327 64040000 		.4byte	.LLST15
 3474 032b 0E       		.uleb128 0xe
 3475 032c 54080000 		.4byte	.LASF49
 3476 0330 01       		.byte	0x1
 3477 0331 C501     		.2byte	0x1c5
 3478 0333 83000000 		.4byte	0x83
 3479 0337 05       		.uleb128 0x5
 3480 0338 03       		.byte	0x3
 3481 0339 08000000 		.4byte	trimRunningStatus.4893
 3482 033d 14       		.uleb128 0x14
 3483 033e 10060000 		.4byte	.LASF35
 3484 0342 01       		.byte	0x1
 3485 0343 C601     		.2byte	0x1c6
ARM GAS  C:\Users\JamesN4\AppData\Local\Temp\ccOIY297.s 			page 137


 3486 0345 83000000 		.4byte	0x83
 3487 0349 82040000 		.4byte	.LLST16
 3488 034d 14       		.uleb128 0x14
 3489 034e 86050000 		.4byte	.LASF36
 3490 0352 01       		.byte	0x1
 3491 0353 C701     		.2byte	0x1c7
 3492 0355 B0000000 		.4byte	0xb0
 3493 0359 A0040000 		.4byte	.LLST17
 3494 035d 16       		.uleb128 0x16
 3495 035e 4E000000 		.4byte	.LVL69
 3496 0362 50020000 		.4byte	0x250
 3497 0366 71030000 		.4byte	0x371
 3498 036a 17       		.uleb128 0x17
 3499 036b 01       		.uleb128 0x1
 3500 036c 50       		.byte	0x50
 3501 036d 02       		.uleb128 0x2
 3502 036e 74       		.byte	0x74
 3503 036f 00       		.sleb128 0
 3504 0370 00       		.byte	0
 3505 0371 18       		.uleb128 0x18
 3506 0372 88000000 		.4byte	.LVL74
 3507 0376 50020000 		.4byte	0x250
 3508 037a 17       		.uleb128 0x17
 3509 037b 01       		.uleb128 0x1
 3510 037c 50       		.byte	0x50
 3511 037d 02       		.uleb128 0x2
 3512 037e 74       		.byte	0x74
 3513 037f 00       		.sleb128 0
 3514 0380 00       		.byte	0
 3515 0381 00       		.byte	0
 3516 0382 15       		.uleb128 0x15
 3517 0383 E0050000 		.4byte	.LASF50
 3518 0387 01       		.byte	0x1
 3519 0388 8802     		.2byte	0x288
 3520 038a B0000000 		.4byte	0xb0
 3521 038e 00000000 		.4byte	.LFB9
 3522 0392 30000000 		.4byte	.LFE9-.LFB9
 3523 0396 01       		.uleb128 0x1
 3524 0397 9C       		.byte	0x9c
 3525 0398 AD030000 		.4byte	0x3ad
 3526 039c 14       		.uleb128 0x14
 3527 039d 86050000 		.4byte	.LASF36
 3528 03a1 01       		.byte	0x1
 3529 03a2 8A02     		.2byte	0x28a
 3530 03a4 B0000000 		.4byte	0xb0
 3531 03a8 D6040000 		.4byte	.LLST18
 3532 03ac 00       		.byte	0
 3533 03ad 19       		.uleb128 0x19
 3534 03ae 8B080000 		.4byte	.LASF52
 3535 03b2 01       		.byte	0x1
 3536 03b3 0303     		.2byte	0x303
 3537 03b5 00000000 		.4byte	.LFB12
 3538 03b9 40000000 		.4byte	.LFE12-.LFB12
 3539 03bd 01       		.uleb128 0x1
 3540 03be 9C       		.byte	0x9c
 3541 03bf D4030000 		.4byte	0x3d4
 3542 03c3 1A       		.uleb128 0x1a
ARM GAS  C:\Users\JamesN4\AppData\Local\Temp\ccOIY297.s 			page 138


 3543 03c4 16010000 		.4byte	0x116
 3544 03c8 02000000 		.4byte	.LBB6
 3545 03cc 2A000000 		.4byte	.LBE6-.LBB6
 3546 03d0 01       		.byte	0x1
 3547 03d1 0503     		.2byte	0x305
 3548 03d3 00       		.byte	0
 3549 03d4 1B       		.uleb128 0x1b
 3550 03d5 A2010000 		.4byte	.LASF74
 3551 03d9 01       		.byte	0x1
 3552 03da 3803     		.2byte	0x338
 3553 03dc 83000000 		.4byte	0x83
 3554 03e0 00000000 		.4byte	.LFB14
 3555 03e4 14000000 		.4byte	.LFE14-.LFB14
 3556 03e8 01       		.uleb128 0x1
 3557 03e9 9C       		.byte	0x9c
 3558 03ea 15       		.uleb128 0x15
 3559 03eb BB070000 		.4byte	.LASF53
 3560 03ef 01       		.byte	0x1
 3561 03f0 5303     		.2byte	0x353
 3562 03f2 83000000 		.4byte	0x83
 3563 03f6 00000000 		.4byte	.LFB15
 3564 03fa 4C000000 		.4byte	.LFE15-.LFB15
 3565 03fe 01       		.uleb128 0x1
 3566 03ff 9C       		.byte	0x9c
 3567 0400 44040000 		.4byte	0x444
 3568 0404 13       		.uleb128 0x13
 3569 0405 F2070000 		.4byte	.LASF46
 3570 0409 01       		.byte	0x1
 3571 040a 5303     		.2byte	0x353
 3572 040c 83000000 		.4byte	0x83
 3573 0410 F5040000 		.4byte	.LLST19
 3574 0414 14       		.uleb128 0x14
 3575 0415 CB040000 		.4byte	.LASF54
 3576 0419 01       		.byte	0x1
 3577 041a 5503     		.2byte	0x355
 3578 041c 83000000 		.4byte	0x83
 3579 0420 55050000 		.4byte	.LLST20
 3580 0424 1A       		.uleb128 0x1a
 3581 0425 16010000 		.4byte	0x116
 3582 0429 0E000000 		.4byte	.LBB8
 3583 042d 2C000000 		.4byte	.LBE8-.LBB8
 3584 0431 01       		.byte	0x1
 3585 0432 5C03     		.2byte	0x35c
 3586 0434 18       		.uleb128 0x18
 3587 0435 40000000 		.4byte	.LVL98
 3588 0439 2B100000 		.4byte	0x102b
 3589 043d 17       		.uleb128 0x17
 3590 043e 01       		.uleb128 0x1
 3591 043f 50       		.byte	0x50
 3592 0440 01       		.uleb128 0x1
 3593 0441 30       		.byte	0x30
 3594 0442 00       		.byte	0
 3595 0443 00       		.byte	0
 3596 0444 19       		.uleb128 0x19
 3597 0445 9A050000 		.4byte	.LASF55
 3598 0449 01       		.byte	0x1
 3599 044a 9603     		.2byte	0x396
ARM GAS  C:\Users\JamesN4\AppData\Local\Temp\ccOIY297.s 			page 139


 3600 044c 00000000 		.4byte	.LFB16
 3601 0450 2C000000 		.4byte	.LFE16-.LFB16
 3602 0454 01       		.uleb128 0x1
 3603 0455 9C       		.byte	0x9c
 3604 0456 83040000 		.4byte	0x483
 3605 045a 13       		.uleb128 0x13
 3606 045b 74020000 		.4byte	.LASF56
 3607 045f 01       		.byte	0x1
 3608 0460 9603     		.2byte	0x396
 3609 0462 83000000 		.4byte	0x83
 3610 0466 73050000 		.4byte	.LLST21
 3611 046a 1C       		.uleb128 0x1c
 3612 046b 08000000 		.4byte	.LVL101
 3613 046f D4030000 		.4byte	0x3d4
 3614 0473 18       		.uleb128 0x18
 3615 0474 26000000 		.4byte	.LVL104
 3616 0478 2B100000 		.4byte	0x102b
 3617 047c 17       		.uleb128 0x17
 3618 047d 01       		.uleb128 0x1
 3619 047e 50       		.byte	0x50
 3620 047f 01       		.uleb128 0x1
 3621 0480 30       		.byte	0x30
 3622 0481 00       		.byte	0
 3623 0482 00       		.byte	0
 3624 0483 19       		.uleb128 0x19
 3625 0484 05020000 		.4byte	.LASF57
 3626 0488 01       		.byte	0x1
 3627 0489 B403     		.2byte	0x3b4
 3628 048b 00000000 		.4byte	.LFB17
 3629 048f 1C000000 		.4byte	.LFE17-.LFB17
 3630 0493 01       		.uleb128 0x1
 3631 0494 9C       		.byte	0x9c
 3632 0495 BC040000 		.4byte	0x4bc
 3633 0499 14       		.uleb128 0x14
 3634 049a DF030000 		.4byte	.LASF58
 3635 049e 01       		.byte	0x1
 3636 049f B603     		.2byte	0x3b6
 3637 04a1 6B000000 		.4byte	0x6b
 3638 04a5 B8050000 		.4byte	.LLST22
 3639 04a9 1C       		.uleb128 0x1c
 3640 04aa 06000000 		.4byte	.LVL105
 3641 04ae 36100000 		.4byte	0x1036
 3642 04b2 1C       		.uleb128 0x1c
 3643 04b3 16000000 		.4byte	.LVL106
 3644 04b7 41100000 		.4byte	0x1041
 3645 04bb 00       		.byte	0
 3646 04bc 19       		.uleb128 0x19
 3647 04bd 5C000000 		.4byte	.LASF59
 3648 04c1 01       		.byte	0x1
 3649 04c2 D703     		.2byte	0x3d7
 3650 04c4 00000000 		.4byte	.LFB19
 3651 04c8 30000000 		.4byte	.LFE19-.LFB19
 3652 04cc 01       		.uleb128 0x1
 3653 04cd 9C       		.byte	0x9c
 3654 04ce F5040000 		.4byte	0x4f5
 3655 04d2 14       		.uleb128 0x14
 3656 04d3 DF030000 		.4byte	.LASF58
ARM GAS  C:\Users\JamesN4\AppData\Local\Temp\ccOIY297.s 			page 140


 3657 04d7 01       		.byte	0x1
 3658 04d8 D903     		.2byte	0x3d9
 3659 04da 6B000000 		.4byte	0x6b
 3660 04de CB050000 		.4byte	.LLST23
 3661 04e2 1C       		.uleb128 0x1c
 3662 04e3 06000000 		.4byte	.LVL107
 3663 04e7 36100000 		.4byte	0x1036
 3664 04eb 1C       		.uleb128 0x1c
 3665 04ec 26000000 		.4byte	.LVL108
 3666 04f0 41100000 		.4byte	0x1041
 3667 04f4 00       		.byte	0
 3668 04f5 15       		.uleb128 0x15
 3669 04f6 4A040000 		.4byte	.LASF60
 3670 04fa 01       		.byte	0x1
 3671 04fb F903     		.2byte	0x3f9
 3672 04fd 83000000 		.4byte	0x83
 3673 0501 00000000 		.4byte	.LFB20
 3674 0505 24000000 		.4byte	.LFE20-.LFB20
 3675 0509 01       		.uleb128 0x1
 3676 050a 9C       		.byte	0x9c
 3677 050b 2F050000 		.4byte	0x52f
 3678 050f 13       		.uleb128 0x13
 3679 0510 7B000000 		.4byte	.LASF61
 3680 0514 01       		.byte	0x1
 3681 0515 F903     		.2byte	0x3f9
 3682 0517 83000000 		.4byte	0x83
 3683 051b DE050000 		.4byte	.LLST24
 3684 051f 18       		.uleb128 0x18
 3685 0520 0E000000 		.4byte	.LVL111
 3686 0524 2B100000 		.4byte	0x102b
 3687 0528 17       		.uleb128 0x17
 3688 0529 01       		.uleb128 0x1
 3689 052a 50       		.byte	0x50
 3690 052b 01       		.uleb128 0x1
 3691 052c 30       		.byte	0x30
 3692 052d 00       		.byte	0
 3693 052e 00       		.byte	0
 3694 052f 19       		.uleb128 0x19
 3695 0530 4C000000 		.4byte	.LASF62
 3696 0534 01       		.byte	0x1
 3697 0535 1704     		.2byte	0x417
 3698 0537 00000000 		.4byte	.LFB21
 3699 053b 38000000 		.4byte	.LFE21-.LFB21
 3700 053f 01       		.uleb128 0x1
 3701 0540 9C       		.byte	0x9c
 3702 0541 99050000 		.4byte	0x599
 3703 0545 13       		.uleb128 0x13
 3704 0546 7B000000 		.4byte	.LASF61
 3705 054a 01       		.byte	0x1
 3706 054b 1704     		.2byte	0x417
 3707 054d 83000000 		.4byte	0x83
 3708 0551 0A060000 		.4byte	.LLST25
 3709 0555 13       		.uleb128 0x13
 3710 0556 F2070000 		.4byte	.LASF46
 3711 055a 01       		.byte	0x1
 3712 055b 1704     		.2byte	0x417
 3713 055d 83000000 		.4byte	0x83
ARM GAS  C:\Users\JamesN4\AppData\Local\Temp\ccOIY297.s 			page 141


 3714 0561 36060000 		.4byte	.LLST26
 3715 0565 14       		.uleb128 0x14
 3716 0566 A9080000 		.4byte	.LASF63
 3717 056a 01       		.byte	0x1
 3718 056b 1904     		.2byte	0x419
 3719 056d 83000000 		.4byte	0x83
 3720 0571 62060000 		.4byte	.LLST27
 3721 0575 16       		.uleb128 0x16
 3722 0576 10000000 		.4byte	.LVL115
 3723 057a 2B100000 		.4byte	0x102b
 3724 057e 88050000 		.4byte	0x588
 3725 0582 17       		.uleb128 0x17
 3726 0583 01       		.uleb128 0x1
 3727 0584 50       		.byte	0x50
 3728 0585 01       		.uleb128 0x1
 3729 0586 30       		.byte	0x30
 3730 0587 00       		.byte	0
 3731 0588 18       		.uleb128 0x18
 3732 0589 16000000 		.4byte	.LVL116
 3733 058d F5040000 		.4byte	0x4f5
 3734 0591 17       		.uleb128 0x17
 3735 0592 01       		.uleb128 0x1
 3736 0593 50       		.byte	0x50
 3737 0594 02       		.uleb128 0x2
 3738 0595 74       		.byte	0x74
 3739 0596 00       		.sleb128 0
 3740 0597 00       		.byte	0
 3741 0598 00       		.byte	0
 3742 0599 1D       		.uleb128 0x1d
 3743 059a F9030000 		.4byte	.LASF84
 3744 059e 01       		.byte	0x1
 3745 059f 6607     		.2byte	0x766
 3746 05a1 00000000 		.4byte	.LFB44
 3747 05a5 2C000000 		.4byte	.LFE44-.LFB44
 3748 05a9 01       		.uleb128 0x1
 3749 05aa 9C       		.byte	0x9c
 3750 05ab BF050000 		.4byte	0x5bf
 3751 05af 18       		.uleb128 0x18
 3752 05b0 1E000000 		.4byte	.LVL122
 3753 05b4 2F050000 		.4byte	0x52f
 3754 05b8 17       		.uleb128 0x17
 3755 05b9 01       		.uleb128 0x1
 3756 05ba 50       		.byte	0x50
 3757 05bb 01       		.uleb128 0x1
 3758 05bc 30       		.byte	0x30
 3759 05bd 00       		.byte	0
 3760 05be 00       		.byte	0
 3761 05bf 15       		.uleb128 0x15
 3762 05c0 66080000 		.4byte	.LASF64
 3763 05c4 01       		.byte	0x1
 3764 05c5 3304     		.2byte	0x433
 3765 05c7 83000000 		.4byte	0x83
 3766 05cb 00000000 		.4byte	.LFB22
 3767 05cf 14000000 		.4byte	.LFE22-.LFB22
 3768 05d3 01       		.uleb128 0x1
 3769 05d4 9C       		.byte	0x9c
 3770 05d5 EA050000 		.4byte	0x5ea
ARM GAS  C:\Users\JamesN4\AppData\Local\Temp\ccOIY297.s 			page 142


 3771 05d9 13       		.uleb128 0x13
 3772 05da 7B000000 		.4byte	.LASF61
 3773 05de 01       		.byte	0x1
 3774 05df 3304     		.2byte	0x433
 3775 05e1 83000000 		.4byte	0x83
 3776 05e5 80060000 		.4byte	.LLST28
 3777 05e9 00       		.byte	0
 3778 05ea 19       		.uleb128 0x19
 3779 05eb 1B080000 		.4byte	.LASF65
 3780 05ef 01       		.byte	0x1
 3781 05f0 5004     		.2byte	0x450
 3782 05f2 00000000 		.4byte	.LFB23
 3783 05f6 34000000 		.4byte	.LFE23-.LFB23
 3784 05fa 01       		.uleb128 0x1
 3785 05fb 9C       		.byte	0x9c
 3786 05fc 54060000 		.4byte	0x654
 3787 0600 13       		.uleb128 0x13
 3788 0601 7B000000 		.4byte	.LASF61
 3789 0605 01       		.byte	0x1
 3790 0606 5004     		.2byte	0x450
 3791 0608 83000000 		.4byte	0x83
 3792 060c AC060000 		.4byte	.LLST29
 3793 0610 13       		.uleb128 0x13
 3794 0611 83020000 		.4byte	.LASF66
 3795 0615 01       		.byte	0x1
 3796 0616 5004     		.2byte	0x450
 3797 0618 83000000 		.4byte	0x83
 3798 061c D8060000 		.4byte	.LLST30
 3799 0620 14       		.uleb128 0x14
 3800 0621 A9080000 		.4byte	.LASF63
 3801 0625 01       		.byte	0x1
 3802 0626 5204     		.2byte	0x452
 3803 0628 83000000 		.4byte	0x83
 3804 062c 04070000 		.4byte	.LLST31
 3805 0630 16       		.uleb128 0x16
 3806 0631 10000000 		.4byte	.LVL128
 3807 0635 2B100000 		.4byte	0x102b
 3808 0639 43060000 		.4byte	0x643
 3809 063d 17       		.uleb128 0x17
 3810 063e 01       		.uleb128 0x1
 3811 063f 50       		.byte	0x50
 3812 0640 01       		.uleb128 0x1
 3813 0641 30       		.byte	0x30
 3814 0642 00       		.byte	0
 3815 0643 18       		.uleb128 0x18
 3816 0644 16000000 		.4byte	.LVL129
 3817 0648 F5040000 		.4byte	0x4f5
 3818 064c 17       		.uleb128 0x17
 3819 064d 01       		.uleb128 0x1
 3820 064e 50       		.byte	0x50
 3821 064f 02       		.uleb128 0x2
 3822 0650 74       		.byte	0x74
 3823 0651 00       		.sleb128 0
 3824 0652 00       		.byte	0
 3825 0653 00       		.byte	0
 3826 0654 15       		.uleb128 0x15
 3827 0655 6D030000 		.4byte	.LASF67
ARM GAS  C:\Users\JamesN4\AppData\Local\Temp\ccOIY297.s 			page 143


 3828 0659 01       		.byte	0x1
 3829 065a 7104     		.2byte	0x471
 3830 065c 83000000 		.4byte	0x83
 3831 0660 00000000 		.4byte	.LFB24
 3832 0664 24000000 		.4byte	.LFE24-.LFB24
 3833 0668 01       		.uleb128 0x1
 3834 0669 9C       		.byte	0x9c
 3835 066a 8E060000 		.4byte	0x68e
 3836 066e 13       		.uleb128 0x13
 3837 066f 7B000000 		.4byte	.LASF61
 3838 0673 01       		.byte	0x1
 3839 0674 7104     		.2byte	0x471
 3840 0676 83000000 		.4byte	0x83
 3841 067a 22070000 		.4byte	.LLST32
 3842 067e 18       		.uleb128 0x18
 3843 067f 0E000000 		.4byte	.LVL137
 3844 0683 2B100000 		.4byte	0x102b
 3845 0687 17       		.uleb128 0x17
 3846 0688 01       		.uleb128 0x1
 3847 0689 50       		.byte	0x50
 3848 068a 01       		.uleb128 0x1
 3849 068b 30       		.byte	0x30
 3850 068c 00       		.byte	0
 3851 068d 00       		.byte	0
 3852 068e 19       		.uleb128 0x19
 3853 068f 35030000 		.4byte	.LASF68
 3854 0693 01       		.byte	0x1
 3855 0694 9A04     		.2byte	0x49a
 3856 0696 00000000 		.4byte	.LFB25
 3857 069a 3C000000 		.4byte	.LFE25-.LFB25
 3858 069e 01       		.uleb128 0x1
 3859 069f 9C       		.byte	0x9c
 3860 06a0 EA060000 		.4byte	0x6ea
 3861 06a4 13       		.uleb128 0x13
 3862 06a5 61030000 		.4byte	.LASF69
 3863 06a9 01       		.byte	0x1
 3864 06aa 9A04     		.2byte	0x49a
 3865 06ac 83000000 		.4byte	0x83
 3866 06b0 4E070000 		.4byte	.LLST33
 3867 06b4 16       		.uleb128 0x16
 3868 06b5 16000000 		.4byte	.LVL141
 3869 06b9 F5040000 		.4byte	0x4f5
 3870 06bd C7060000 		.4byte	0x6c7
 3871 06c1 17       		.uleb128 0x17
 3872 06c2 01       		.uleb128 0x1
 3873 06c3 50       		.byte	0x50
 3874 06c4 01       		.uleb128 0x1
 3875 06c5 30       		.byte	0x30
 3876 06c6 00       		.byte	0
 3877 06c7 16       		.uleb128 0x16
 3878 06c8 24000000 		.4byte	.LVL142
 3879 06cc F5040000 		.4byte	0x4f5
 3880 06d0 DA060000 		.4byte	0x6da
 3881 06d4 17       		.uleb128 0x17
 3882 06d5 01       		.uleb128 0x1
 3883 06d6 50       		.byte	0x50
 3884 06d7 01       		.uleb128 0x1
ARM GAS  C:\Users\JamesN4\AppData\Local\Temp\ccOIY297.s 			page 144


 3885 06d8 31       		.byte	0x31
 3886 06d9 00       		.byte	0
 3887 06da 18       		.uleb128 0x18
 3888 06db 32000000 		.4byte	.LVL143
 3889 06df F5040000 		.4byte	0x4f5
 3890 06e3 17       		.uleb128 0x17
 3891 06e4 01       		.uleb128 0x1
 3892 06e5 50       		.byte	0x50
 3893 06e6 01       		.uleb128 0x1
 3894 06e7 32       		.byte	0x32
 3895 06e8 00       		.byte	0
 3896 06e9 00       		.byte	0
 3897 06ea 19       		.uleb128 0x19
 3898 06eb 0F070000 		.4byte	.LASF70
 3899 06ef 01       		.byte	0x1
 3900 06f0 CA04     		.2byte	0x4ca
 3901 06f2 00000000 		.4byte	.LFB26
 3902 06f6 44000000 		.4byte	.LFE26-.LFB26
 3903 06fa 01       		.uleb128 0x1
 3904 06fb 9C       		.byte	0x9c
 3905 06fc 4F070000 		.4byte	0x74f
 3906 0700 13       		.uleb128 0x13
 3907 0701 61030000 		.4byte	.LASF69
 3908 0705 01       		.byte	0x1
 3909 0706 CA04     		.2byte	0x4ca
 3910 0708 83000000 		.4byte	0x83
 3911 070c 7A070000 		.4byte	.LLST34
 3912 0710 1C       		.uleb128 0x1c
 3913 0711 08000000 		.4byte	.LVL146
 3914 0715 5E010000 		.4byte	0x15e
 3915 0719 16       		.uleb128 0x16
 3916 071a 1E000000 		.4byte	.LVL147
 3917 071e F5040000 		.4byte	0x4f5
 3918 0722 2C070000 		.4byte	0x72c
 3919 0726 17       		.uleb128 0x17
 3920 0727 01       		.uleb128 0x1
 3921 0728 50       		.byte	0x50
 3922 0729 01       		.uleb128 0x1
 3923 072a 30       		.byte	0x30
 3924 072b 00       		.byte	0
 3925 072c 16       		.uleb128 0x16
 3926 072d 2C000000 		.4byte	.LVL148
 3927 0731 F5040000 		.4byte	0x4f5
 3928 0735 3F070000 		.4byte	0x73f
 3929 0739 17       		.uleb128 0x17
 3930 073a 01       		.uleb128 0x1
 3931 073b 50       		.byte	0x50
 3932 073c 01       		.uleb128 0x1
 3933 073d 31       		.byte	0x31
 3934 073e 00       		.byte	0
 3935 073f 18       		.uleb128 0x18
 3936 0740 3A000000 		.4byte	.LVL149
 3937 0744 F5040000 		.4byte	0x4f5
 3938 0748 17       		.uleb128 0x17
 3939 0749 01       		.uleb128 0x1
 3940 074a 50       		.byte	0x50
 3941 074b 01       		.uleb128 0x1
ARM GAS  C:\Users\JamesN4\AppData\Local\Temp\ccOIY297.s 			page 145


 3942 074c 32       		.byte	0x32
 3943 074d 00       		.byte	0
 3944 074e 00       		.byte	0
 3945 074f 19       		.uleb128 0x19
 3946 0750 33080000 		.4byte	.LASF71
 3947 0754 01       		.byte	0x1
 3948 0755 0505     		.2byte	0x505
 3949 0757 00000000 		.4byte	.LFB27
 3950 075b 34000000 		.4byte	.LFE27-.LFB27
 3951 075f 01       		.uleb128 0x1
 3952 0760 9C       		.byte	0x9c
 3953 0761 C9070000 		.4byte	0x7c9
 3954 0765 13       		.uleb128 0x13
 3955 0766 D4080000 		.4byte	.LASF72
 3956 076a 01       		.byte	0x1
 3957 076b 0505     		.2byte	0x505
 3958 076d 83000000 		.4byte	0x83
 3959 0771 A6070000 		.4byte	.LLST35
 3960 0775 14       		.uleb128 0x14
 3961 0776 A9080000 		.4byte	.LASF63
 3962 077a 01       		.byte	0x1
 3963 077b 0705     		.2byte	0x507
 3964 077d 83000000 		.4byte	0x83
 3965 0781 D2070000 		.4byte	.LLST36
 3966 0785 0E       		.uleb128 0xe
 3967 0786 15030000 		.4byte	.LASF73
 3968 078a 01       		.byte	0x1
 3969 078b 0805     		.2byte	0x508
 3970 078d 83000000 		.4byte	0x83
 3971 0791 01       		.uleb128 0x1
 3972 0792 50       		.byte	0x50
 3973 0793 16       		.uleb128 0x16
 3974 0794 0A000000 		.4byte	.LVL153
 3975 0798 F5040000 		.4byte	0x4f5
 3976 079c A6070000 		.4byte	0x7a6
 3977 07a0 17       		.uleb128 0x17
 3978 07a1 01       		.uleb128 0x1
 3979 07a2 50       		.byte	0x50
 3980 07a3 01       		.uleb128 0x1
 3981 07a4 30       		.byte	0x30
 3982 07a5 00       		.byte	0
 3983 07a6 16       		.uleb128 0x16
 3984 07a7 12000000 		.4byte	.LVL154
 3985 07ab F5040000 		.4byte	0x4f5
 3986 07af B9070000 		.4byte	0x7b9
 3987 07b3 17       		.uleb128 0x17
 3988 07b4 01       		.uleb128 0x1
 3989 07b5 50       		.byte	0x50
 3990 07b6 01       		.uleb128 0x1
 3991 07b7 31       		.byte	0x31
 3992 07b8 00       		.byte	0
 3993 07b9 18       		.uleb128 0x18
 3994 07ba 1A000000 		.4byte	.LVL155
 3995 07be F5040000 		.4byte	0x4f5
 3996 07c2 17       		.uleb128 0x17
 3997 07c3 01       		.uleb128 0x1
 3998 07c4 50       		.byte	0x50
ARM GAS  C:\Users\JamesN4\AppData\Local\Temp\ccOIY297.s 			page 146


 3999 07c5 01       		.uleb128 0x1
 4000 07c6 32       		.byte	0x32
 4001 07c7 00       		.byte	0
 4002 07c8 00       		.byte	0
 4003 07c9 1B       		.uleb128 0x1b
 4004 07ca A0000000 		.4byte	.LASF75
 4005 07ce 01       		.byte	0x1
 4006 07cf 2405     		.2byte	0x524
 4007 07d1 83000000 		.4byte	0x83
 4008 07d5 00000000 		.4byte	.LFB28
 4009 07d9 14000000 		.4byte	.LFE28-.LFB28
 4010 07dd 01       		.uleb128 0x1
 4011 07de 9C       		.byte	0x9c
 4012 07df 19       		.uleb128 0x19
 4013 07e0 04030000 		.4byte	.LASF76
 4014 07e4 01       		.byte	0x1
 4015 07e5 3805     		.2byte	0x538
 4016 07e7 00000000 		.4byte	.LFB29
 4017 07eb 54000000 		.4byte	.LFE29-.LFB29
 4018 07ef 01       		.uleb128 0x1
 4019 07f0 9C       		.byte	0x9c
 4020 07f1 4B080000 		.4byte	0x84b
 4021 07f5 13       		.uleb128 0x13
 4022 07f6 7B000000 		.4byte	.LASF61
 4023 07fa 01       		.byte	0x1
 4024 07fb 3805     		.2byte	0x538
 4025 07fd 83000000 		.4byte	0x83
 4026 0801 FB070000 		.4byte	.LLST37
 4027 0805 13       		.uleb128 0x13
 4028 0806 DA050000 		.4byte	.LASF77
 4029 080a 01       		.byte	0x1
 4030 080b 3805     		.2byte	0x538
 4031 080d 83000000 		.4byte	0x83
 4032 0811 27080000 		.4byte	.LLST38
 4033 0815 14       		.uleb128 0x14
 4034 0816 6B020000 		.4byte	.LASF78
 4035 081a 01       		.byte	0x1
 4036 081b 3A05     		.2byte	0x53a
 4037 081d 83000000 		.4byte	0x83
 4038 0821 53080000 		.4byte	.LLST39
 4039 0825 16       		.uleb128 0x16
 4040 0826 10000000 		.4byte	.LVL163
 4041 082a 2B100000 		.4byte	0x102b
 4042 082e 38080000 		.4byte	0x838
 4043 0832 17       		.uleb128 0x17
 4044 0833 01       		.uleb128 0x1
 4045 0834 50       		.byte	0x50
 4046 0835 01       		.uleb128 0x1
 4047 0836 30       		.byte	0x30
 4048 0837 00       		.byte	0
 4049 0838 1C       		.uleb128 0x1c
 4050 0839 22000000 		.4byte	.LVL164
 4051 083d 4C100000 		.4byte	0x104c
 4052 0841 1C       		.uleb128 0x1c
 4053 0842 46000000 		.4byte	.LVL170
 4054 0846 4C100000 		.4byte	0x104c
 4055 084a 00       		.byte	0
ARM GAS  C:\Users\JamesN4\AppData\Local\Temp\ccOIY297.s 			page 147


 4056 084b 19       		.uleb128 0x19
 4057 084c B6040000 		.4byte	.LASF79
 4058 0850 01       		.byte	0x1
 4059 0851 5F05     		.2byte	0x55f
 4060 0853 00000000 		.4byte	.LFB30
 4061 0857 30000000 		.4byte	.LFE30-.LFB30
 4062 085b 01       		.uleb128 0x1
 4063 085c 9C       		.byte	0x9c
 4064 085d 91080000 		.4byte	0x891
 4065 0861 13       		.uleb128 0x13
 4066 0862 5D020000 		.4byte	.LASF80
 4067 0866 01       		.byte	0x1
 4068 0867 5F05     		.2byte	0x55f
 4069 0869 83000000 		.4byte	0x83
 4070 086d 66080000 		.4byte	.LLST40
 4071 0871 14       		.uleb128 0x14
 4072 0872 A9080000 		.4byte	.LASF63
 4073 0876 01       		.byte	0x1
 4074 0877 6105     		.2byte	0x561
 4075 0879 83000000 		.4byte	0x83
 4076 087d 92080000 		.4byte	.LLST41
 4077 0881 18       		.uleb128 0x18
 4078 0882 0A000000 		.4byte	.LVL173
 4079 0886 F5040000 		.4byte	0x4f5
 4080 088a 17       		.uleb128 0x17
 4081 088b 01       		.uleb128 0x1
 4082 088c 50       		.byte	0x50
 4083 088d 01       		.uleb128 0x1
 4084 088e 32       		.byte	0x32
 4085 088f 00       		.byte	0
 4086 0890 00       		.byte	0
 4087 0891 1B       		.uleb128 0x1b
 4088 0892 F5080000 		.4byte	.LASF81
 4089 0896 01       		.byte	0x1
 4090 0897 7605     		.2byte	0x576
 4091 0899 83000000 		.4byte	0x83
 4092 089d 00000000 		.4byte	.LFB31
 4093 08a1 10000000 		.4byte	.LFE31-.LFB31
 4094 08a5 01       		.uleb128 0x1
 4095 08a6 9C       		.byte	0x9c
 4096 08a7 15       		.uleb128 0x15
 4097 08a8 C9050000 		.4byte	.LASF82
 4098 08ac 01       		.byte	0x1
 4099 08ad 8805     		.2byte	0x588
 4100 08af 83000000 		.4byte	0x83
 4101 08b3 00000000 		.4byte	.LFB32
 4102 08b7 20000000 		.4byte	.LFE32-.LFB32
 4103 08bb 01       		.uleb128 0x1
 4104 08bc 9C       		.byte	0x9c
 4105 08bd E1080000 		.4byte	0x8e1
 4106 08c1 13       		.uleb128 0x13
 4107 08c2 7B000000 		.4byte	.LASF61
 4108 08c6 01       		.byte	0x1
 4109 08c7 8805     		.2byte	0x588
 4110 08c9 83000000 		.4byte	0x83
 4111 08cd BB080000 		.4byte	.LLST42
 4112 08d1 18       		.uleb128 0x18
ARM GAS  C:\Users\JamesN4\AppData\Local\Temp\ccOIY297.s 			page 148


 4113 08d2 0E000000 		.4byte	.LVL181
 4114 08d6 2B100000 		.4byte	0x102b
 4115 08da 17       		.uleb128 0x17
 4116 08db 01       		.uleb128 0x1
 4117 08dc 50       		.byte	0x50
 4118 08dd 01       		.uleb128 0x1
 4119 08de 30       		.byte	0x30
 4120 08df 00       		.byte	0
 4121 08e0 00       		.byte	0
 4122 08e1 15       		.uleb128 0x15
 4123 08e2 F7070000 		.4byte	.LASF83
 4124 08e6 01       		.byte	0x1
 4125 08e7 9E05     		.2byte	0x59e
 4126 08e9 83000000 		.4byte	0x83
 4127 08ed 00000000 		.4byte	.LFB33
 4128 08f1 3C000000 		.4byte	.LFE33-.LFB33
 4129 08f5 01       		.uleb128 0x1
 4130 08f6 9C       		.byte	0x9c
 4131 08f7 2B090000 		.4byte	0x92b
 4132 08fb 13       		.uleb128 0x13
 4133 08fc 7B000000 		.4byte	.LASF61
 4134 0900 01       		.byte	0x1
 4135 0901 9E05     		.2byte	0x59e
 4136 0903 83000000 		.4byte	0x83
 4137 0907 E7080000 		.4byte	.LLST43
 4138 090b 14       		.uleb128 0x14
 4139 090c 6B020000 		.4byte	.LASF78
 4140 0910 01       		.byte	0x1
 4141 0911 A005     		.2byte	0x5a0
 4142 0913 83000000 		.4byte	0x83
 4143 0917 53090000 		.4byte	.LLST44
 4144 091b 18       		.uleb128 0x18
 4145 091c 2E000000 		.4byte	.LVL194
 4146 0920 2B100000 		.4byte	0x102b
 4147 0924 17       		.uleb128 0x17
 4148 0925 01       		.uleb128 0x1
 4149 0926 50       		.byte	0x50
 4150 0927 01       		.uleb128 0x1
 4151 0928 30       		.byte	0x30
 4152 0929 00       		.byte	0
 4153 092a 00       		.byte	0
 4154 092b 1D       		.uleb128 0x1d
 4155 092c 86000000 		.4byte	.LASF85
 4156 0930 01       		.byte	0x1
 4157 0931 3007     		.2byte	0x730
 4158 0933 00000000 		.4byte	.LFB43
 4159 0937 74000000 		.4byte	.LFE43-.LFB43
 4160 093b 01       		.uleb128 0x1
 4161 093c 9C       		.byte	0x9c
 4162 093d ED090000 		.4byte	0x9ed
 4163 0941 14       		.uleb128 0x14
 4164 0942 A9030000 		.4byte	.LASF86
 4165 0946 01       		.byte	0x1
 4166 0947 3207     		.2byte	0x732
 4167 0949 83000000 		.4byte	0x83
 4168 094d B7090000 		.4byte	.LLST45
 4169 0951 0E       		.uleb128 0xe
ARM GAS  C:\Users\JamesN4\AppData\Local\Temp\ccOIY297.s 			page 149


 4170 0952 D7060000 		.4byte	.LASF87
 4171 0956 01       		.byte	0x1
 4172 0957 3307     		.2byte	0x733
 4173 0959 83000000 		.4byte	0x83
 4174 095d 05       		.uleb128 0x5
 4175 095e 03       		.byte	0x3
 4176 095f 14000000 		.4byte	lfclkPosedgeEnabledWdtCounter.5066
 4177 0963 16       		.uleb128 0x16
 4178 0964 08000000 		.4byte	.LVL196
 4179 0968 F5040000 		.4byte	0x4f5
 4180 096c 76090000 		.4byte	0x976
 4181 0970 17       		.uleb128 0x17
 4182 0971 01       		.uleb128 0x1
 4183 0972 50       		.byte	0x50
 4184 0973 01       		.uleb128 0x1
 4185 0974 30       		.byte	0x30
 4186 0975 00       		.byte	0
 4187 0976 16       		.uleb128 0x16
 4188 0977 1A000000 		.4byte	.LVL197
 4189 097b F5040000 		.4byte	0x4f5
 4190 097f 89090000 		.4byte	0x989
 4191 0983 17       		.uleb128 0x17
 4192 0984 01       		.uleb128 0x1
 4193 0985 50       		.byte	0x50
 4194 0986 01       		.uleb128 0x1
 4195 0987 31       		.byte	0x31
 4196 0988 00       		.byte	0
 4197 0989 16       		.uleb128 0x16
 4198 098a 2C000000 		.4byte	.LVL198
 4199 098e F5040000 		.4byte	0x4f5
 4200 0992 9C090000 		.4byte	0x99c
 4201 0996 17       		.uleb128 0x17
 4202 0997 01       		.uleb128 0x1
 4203 0998 50       		.byte	0x50
 4204 0999 01       		.uleb128 0x1
 4205 099a 32       		.byte	0x32
 4206 099b 00       		.byte	0
 4207 099c 16       		.uleb128 0x16
 4208 099d 48000000 		.4byte	.LVL199
 4209 09a1 BF050000 		.4byte	0x5bf
 4210 09a5 AF090000 		.4byte	0x9af
 4211 09a9 17       		.uleb128 0x17
 4212 09aa 01       		.uleb128 0x1
 4213 09ab 50       		.byte	0x50
 4214 09ac 01       		.uleb128 0x1
 4215 09ad 30       		.byte	0x30
 4216 09ae 00       		.byte	0
 4217 09af 16       		.uleb128 0x16
 4218 09b0 52000000 		.4byte	.LVL200
 4219 09b4 2F050000 		.4byte	0x52f
 4220 09b8 C7090000 		.4byte	0x9c7
 4221 09bc 17       		.uleb128 0x17
 4222 09bd 01       		.uleb128 0x1
 4223 09be 50       		.byte	0x50
 4224 09bf 01       		.uleb128 0x1
 4225 09c0 30       		.byte	0x30
 4226 09c1 17       		.uleb128 0x17
ARM GAS  C:\Users\JamesN4\AppData\Local\Temp\ccOIY297.s 			page 150


 4227 09c2 01       		.uleb128 0x1
 4228 09c3 51       		.byte	0x51
 4229 09c4 01       		.uleb128 0x1
 4230 09c5 30       		.byte	0x30
 4231 09c6 00       		.byte	0
 4232 09c7 16       		.uleb128 0x16
 4233 09c8 58000000 		.4byte	.LVL201
 4234 09cc 8E060000 		.4byte	0x68e
 4235 09d0 DA090000 		.4byte	0x9da
 4236 09d4 17       		.uleb128 0x17
 4237 09d5 01       		.uleb128 0x1
 4238 09d6 50       		.byte	0x50
 4239 09d7 01       		.uleb128 0x1
 4240 09d8 31       		.byte	0x31
 4241 09d9 00       		.byte	0
 4242 09da 1C       		.uleb128 0x1c
 4243 09db 60000000 		.4byte	.LVL202
 4244 09df E1080000 		.4byte	0x8e1
 4245 09e3 1C       		.uleb128 0x1c
 4246 09e4 6A000000 		.4byte	.LVL204
 4247 09e8 E1080000 		.4byte	0x8e1
 4248 09ec 00       		.byte	0
 4249 09ed 10       		.uleb128 0x10
 4250 09ee A3020000 		.4byte	.LASF88
 4251 09f2 01       		.byte	0x1
 4252 09f3 6C       		.byte	0x6c
 4253 09f4 00000000 		.4byte	.LFB2
 4254 09f8 4C000000 		.4byte	.LFE2-.LFB2
 4255 09fc 01       		.uleb128 0x1
 4256 09fd 9C       		.byte	0x9c
 4257 09fe 580A0000 		.4byte	0xa58
 4258 0a02 1E       		.uleb128 0x1e
 4259 0a03 DF030000 		.4byte	.LASF58
 4260 0a07 01       		.byte	0x1
 4261 0a08 6F       		.byte	0x6f
 4262 0a09 6B000000 		.4byte	0x6b
 4263 0a0d CA090000 		.4byte	.LLST46
 4264 0a11 1C       		.uleb128 0x1c
 4265 0a12 06000000 		.4byte	.LVL206
 4266 0a16 5E010000 		.4byte	0x15e
 4267 0a1a 1C       		.uleb128 0x1c
 4268 0a1b 0E000000 		.4byte	.LVL207
 4269 0a1f 1F010000 		.4byte	0x11f
 4270 0a23 1C       		.uleb128 0x1c
 4271 0a24 16000000 		.4byte	.LVL208
 4272 0a28 35010000 		.4byte	0x135
 4273 0a2c 1C       		.uleb128 0x1c
 4274 0a2d 1E000000 		.4byte	.LVL209
 4275 0a31 36100000 		.4byte	0x1036
 4276 0a35 1C       		.uleb128 0x1c
 4277 0a36 24000000 		.4byte	.LVL211
 4278 0a3a 2B090000 		.4byte	0x92b
 4279 0a3e 1C       		.uleb128 0x1c
 4280 0a3f 32000000 		.4byte	.LVL212
 4281 0a43 99050000 		.4byte	0x599
 4282 0a47 18       		.uleb128 0x18
 4283 0a48 38000000 		.4byte	.LVL213
ARM GAS  C:\Users\JamesN4\AppData\Local\Temp\ccOIY297.s 			page 151


 4284 0a4c 41100000 		.4byte	0x1041
 4285 0a50 17       		.uleb128 0x17
 4286 0a51 01       		.uleb128 0x1
 4287 0a52 50       		.byte	0x50
 4288 0a53 02       		.uleb128 0x2
 4289 0a54 74       		.byte	0x74
 4290 0a55 00       		.sleb128 0
 4291 0a56 00       		.byte	0
 4292 0a57 00       		.byte	0
 4293 0a58 19       		.uleb128 0x19
 4294 0a59 92030000 		.4byte	.LASF89
 4295 0a5d 01       		.byte	0x1
 4296 0a5e DE02     		.2byte	0x2de
 4297 0a60 00000000 		.4byte	.LFB11
 4298 0a64 38000000 		.4byte	.LFE11-.LFB11
 4299 0a68 01       		.uleb128 0x1
 4300 0a69 9C       		.byte	0x9c
 4301 0a6a C30A0000 		.4byte	0xac3
 4302 0a6e 13       		.uleb128 0x13
 4303 0a6f 93050000 		.4byte	.LASF90
 4304 0a73 01       		.byte	0x1
 4305 0a74 DE02     		.2byte	0x2de
 4306 0a76 83000000 		.4byte	0x83
 4307 0a7a DD090000 		.4byte	.LLST47
 4308 0a7e 14       		.uleb128 0x14
 4309 0a7f DF030000 		.4byte	.LASF58
 4310 0a83 01       		.byte	0x1
 4311 0a84 E002     		.2byte	0x2e0
 4312 0a86 6B000000 		.4byte	0x6b
 4313 0a8a 090A0000 		.4byte	.LLST48
 4314 0a8e 1C       		.uleb128 0x1c
 4315 0a8f 08000000 		.4byte	.LVL216
 4316 0a93 35010000 		.4byte	0x135
 4317 0a97 1C       		.uleb128 0x1c
 4318 0a98 10000000 		.4byte	.LVL217
 4319 0a9c 36100000 		.4byte	0x1036
 4320 0aa0 1C       		.uleb128 0x1c
 4321 0aa1 16000000 		.4byte	.LVL219
 4322 0aa5 2B090000 		.4byte	0x92b
 4323 0aa9 1C       		.uleb128 0x1c
 4324 0aaa 2A000000 		.4byte	.LVL221
 4325 0aae 99050000 		.4byte	0x599
 4326 0ab2 18       		.uleb128 0x18
 4327 0ab3 30000000 		.4byte	.LVL222
 4328 0ab7 41100000 		.4byte	0x1041
 4329 0abb 17       		.uleb128 0x17
 4330 0abc 01       		.uleb128 0x1
 4331 0abd 50       		.byte	0x50
 4332 0abe 02       		.uleb128 0x2
 4333 0abf 75       		.byte	0x75
 4334 0ac0 00       		.sleb128 0
 4335 0ac1 00       		.byte	0
 4336 0ac2 00       		.byte	0
 4337 0ac3 19       		.uleb128 0x19
 4338 0ac4 AB070000 		.4byte	.LASF91
 4339 0ac8 01       		.byte	0x1
 4340 0ac9 1503     		.2byte	0x315
ARM GAS  C:\Users\JamesN4\AppData\Local\Temp\ccOIY297.s 			page 152


 4341 0acb 00000000 		.4byte	.LFB13
 4342 0acf 48000000 		.4byte	.LFE13-.LFB13
 4343 0ad3 01       		.uleb128 0x1
 4344 0ad4 9C       		.byte	0x9c
 4345 0ad5 270B0000 		.4byte	0xb27
 4346 0ad9 14       		.uleb128 0x14
 4347 0ada DF030000 		.4byte	.LASF58
 4348 0ade 01       		.byte	0x1
 4349 0adf 1803     		.2byte	0x318
 4350 0ae1 6B000000 		.4byte	0x6b
 4351 0ae5 1C0A0000 		.4byte	.LLST49
 4352 0ae9 1C       		.uleb128 0x1c
 4353 0aea 06000000 		.4byte	.LVL223
 4354 0aee D4030000 		.4byte	0x3d4
 4355 0af2 1C       		.uleb128 0x1c
 4356 0af3 0E000000 		.4byte	.LVL224
 4357 0af7 35010000 		.4byte	0x135
 4358 0afb 1C       		.uleb128 0x1c
 4359 0afc 1A000000 		.4byte	.LVL225
 4360 0b00 36100000 		.4byte	0x1036
 4361 0b04 1C       		.uleb128 0x1c
 4362 0b05 20000000 		.4byte	.LVL227
 4363 0b09 2B090000 		.4byte	0x92b
 4364 0b0d 1C       		.uleb128 0x1c
 4365 0b0e 2E000000 		.4byte	.LVL228
 4366 0b12 99050000 		.4byte	0x599
 4367 0b16 18       		.uleb128 0x18
 4368 0b17 34000000 		.4byte	.LVL229
 4369 0b1b 41100000 		.4byte	0x1041
 4370 0b1f 17       		.uleb128 0x17
 4371 0b20 01       		.uleb128 0x1
 4372 0b21 50       		.byte	0x50
 4373 0b22 02       		.uleb128 0x2
 4374 0b23 74       		.byte	0x74
 4375 0b24 00       		.sleb128 0
 4376 0b25 00       		.byte	0
 4377 0b26 00       		.byte	0
 4378 0b27 1B       		.uleb128 0x1b
 4379 0b28 5E070000 		.4byte	.LASF92
 4380 0b2c 01       		.byte	0x1
 4381 0b2d C905     		.2byte	0x5c9
 4382 0b2f 83000000 		.4byte	0x83
 4383 0b33 00000000 		.4byte	.LFB34
 4384 0b37 14000000 		.4byte	.LFE34-.LFB34
 4385 0b3b 01       		.uleb128 0x1
 4386 0b3c 9C       		.byte	0x9c
 4387 0b3d 19       		.uleb128 0x19
 4388 0b3e 54060000 		.4byte	.LASF93
 4389 0b42 01       		.byte	0x1
 4390 0b43 E605     		.2byte	0x5e6
 4391 0b45 00000000 		.4byte	.LFB35
 4392 0b49 4C000000 		.4byte	.LFE35-.LFB35
 4393 0b4d 01       		.uleb128 0x1
 4394 0b4e 9C       		.byte	0x9c
 4395 0b4f B80B0000 		.4byte	0xbb8
 4396 0b53 13       		.uleb128 0x13
 4397 0b54 61030000 		.4byte	.LASF69
ARM GAS  C:\Users\JamesN4\AppData\Local\Temp\ccOIY297.s 			page 153


 4398 0b58 01       		.byte	0x1
 4399 0b59 E605     		.2byte	0x5e6
 4400 0b5b 83000000 		.4byte	0x83
 4401 0b5f 2F0A0000 		.4byte	.LLST50
 4402 0b63 14       		.uleb128 0x14
 4403 0b64 DF030000 		.4byte	.LASF58
 4404 0b68 01       		.byte	0x1
 4405 0b69 E805     		.2byte	0x5e8
 4406 0b6b 6B000000 		.4byte	0x6b
 4407 0b6f 6C0A0000 		.4byte	.LLST51
 4408 0b73 14       		.uleb128 0x14
 4409 0b74 9C080000 		.4byte	.LASF94
 4410 0b78 01       		.byte	0x1
 4411 0b79 E905     		.2byte	0x5e9
 4412 0b7b 83000000 		.4byte	0x83
 4413 0b7f 7F0A0000 		.4byte	.LLST52
 4414 0b83 1C       		.uleb128 0x1c
 4415 0b84 08000000 		.4byte	.LVL232
 4416 0b88 36100000 		.4byte	0x1036
 4417 0b8c 1C       		.uleb128 0x1c
 4418 0b8d 0E000000 		.4byte	.LVL234
 4419 0b91 5E010000 		.4byte	0x15e
 4420 0b95 1C       		.uleb128 0x1c
 4421 0b96 16000000 		.4byte	.LVL236
 4422 0b9a BC040000 		.4byte	0x4bc
 4423 0b9e 1C       		.uleb128 0x1c
 4424 0b9f 36000000 		.4byte	.LVL241
 4425 0ba3 83040000 		.4byte	0x483
 4426 0ba7 18       		.uleb128 0x18
 4427 0ba8 3C000000 		.4byte	.LVL242
 4428 0bac 41100000 		.4byte	0x1041
 4429 0bb0 17       		.uleb128 0x17
 4430 0bb1 01       		.uleb128 0x1
 4431 0bb2 50       		.byte	0x50
 4432 0bb3 02       		.uleb128 0x2
 4433 0bb4 74       		.byte	0x74
 4434 0bb5 00       		.sleb128 0
 4435 0bb6 00       		.byte	0
 4436 0bb7 00       		.byte	0
 4437 0bb8 19       		.uleb128 0x19
 4438 0bb9 2A060000 		.4byte	.LASF95
 4439 0bbd 01       		.byte	0x1
 4440 0bbe 2006     		.2byte	0x620
 4441 0bc0 00000000 		.4byte	.LFB36
 4442 0bc4 20000000 		.4byte	.LFE36-.LFB36
 4443 0bc8 01       		.uleb128 0x1
 4444 0bc9 9C       		.byte	0x9c
 4445 0bca DF0B0000 		.4byte	0xbdf
 4446 0bce 13       		.uleb128 0x13
 4447 0bcf C8020000 		.4byte	.LASF96
 4448 0bd3 01       		.byte	0x1
 4449 0bd4 2006     		.2byte	0x620
 4450 0bd6 83000000 		.4byte	0x83
 4451 0bda 9E0A0000 		.4byte	.LLST53
 4452 0bde 00       		.byte	0
 4453 0bdf 15       		.uleb128 0x15
 4454 0be0 44030000 		.4byte	.LASF97
ARM GAS  C:\Users\JamesN4\AppData\Local\Temp\ccOIY297.s 			page 154


 4455 0be4 01       		.byte	0x1
 4456 0be5 3A06     		.2byte	0x63a
 4457 0be7 FD000000 		.4byte	0xfd
 4458 0beb 00000000 		.4byte	.LFB37
 4459 0bef 20000000 		.4byte	.LFE37-.LFB37
 4460 0bf3 01       		.uleb128 0x1
 4461 0bf4 9C       		.byte	0x9c
 4462 0bf5 390C0000 		.4byte	0xc39
 4463 0bf9 13       		.uleb128 0x13
 4464 0bfa 7B000000 		.4byte	.LASF61
 4465 0bfe 01       		.byte	0x1
 4466 0bff 3A06     		.2byte	0x63a
 4467 0c01 83000000 		.4byte	0x83
 4468 0c05 BF0A0000 		.4byte	.LLST54
 4469 0c09 13       		.uleb128 0x13
 4470 0c0a FC010000 		.4byte	.LASF98
 4471 0c0e 01       		.byte	0x1
 4472 0c0f 3A06     		.2byte	0x63a
 4473 0c11 FD000000 		.4byte	0xfd
 4474 0c15 F90A0000 		.4byte	.LLST55
 4475 0c19 14       		.uleb128 0x14
 4476 0c1a F7020000 		.4byte	.LASF99
 4477 0c1e 01       		.byte	0x1
 4478 0c1f 3C06     		.2byte	0x63c
 4479 0c21 FD000000 		.4byte	0xfd
 4480 0c25 1A0B0000 		.4byte	.LLST56
 4481 0c29 18       		.uleb128 0x18
 4482 0c2a 18000000 		.4byte	.LVL252
 4483 0c2e 2B100000 		.4byte	0x102b
 4484 0c32 17       		.uleb128 0x17
 4485 0c33 01       		.uleb128 0x1
 4486 0c34 50       		.byte	0x50
 4487 0c35 01       		.uleb128 0x1
 4488 0c36 30       		.byte	0x30
 4489 0c37 00       		.byte	0
 4490 0c38 00       		.byte	0
 4491 0c39 15       		.uleb128 0x15
 4492 0c3a 63040000 		.4byte	.LASF100
 4493 0c3e 01       		.byte	0x1
 4494 0c3f 5806     		.2byte	0x658
 4495 0c41 FD000000 		.4byte	0xfd
 4496 0c45 00000000 		.4byte	.LFB38
 4497 0c49 20000000 		.4byte	.LFE38-.LFB38
 4498 0c4d 01       		.uleb128 0x1
 4499 0c4e 9C       		.byte	0x9c
 4500 0c4f 830C0000 		.4byte	0xc83
 4501 0c53 13       		.uleb128 0x13
 4502 0c54 7B000000 		.4byte	.LASF61
 4503 0c58 01       		.byte	0x1
 4504 0c59 5806     		.2byte	0x658
 4505 0c5b 83000000 		.4byte	0x83
 4506 0c5f 500B0000 		.4byte	.LLST57
 4507 0c63 14       		.uleb128 0x14
 4508 0c64 B4030000 		.4byte	.LASF101
 4509 0c68 01       		.byte	0x1
 4510 0c69 5A06     		.2byte	0x65a
 4511 0c6b FD000000 		.4byte	0xfd
ARM GAS  C:\Users\JamesN4\AppData\Local\Temp\ccOIY297.s 			page 155


 4512 0c6f 8A0B0000 		.4byte	.LLST58
 4513 0c73 18       		.uleb128 0x18
 4514 0c74 16000000 		.4byte	.LVL260
 4515 0c78 2B100000 		.4byte	0x102b
 4516 0c7c 17       		.uleb128 0x17
 4517 0c7d 01       		.uleb128 0x1
 4518 0c7e 50       		.byte	0x50
 4519 0c7f 01       		.uleb128 0x1
 4520 0c80 30       		.byte	0x30
 4521 0c81 00       		.byte	0
 4522 0c82 00       		.byte	0
 4523 0c83 19       		.uleb128 0x19
 4524 0c84 15040000 		.4byte	.LASF102
 4525 0c88 01       		.byte	0x1
 4526 0c89 7506     		.2byte	0x675
 4527 0c8b 00000000 		.4byte	.LFB39
 4528 0c8f 34000000 		.4byte	.LFE39-.LFB39
 4529 0c93 01       		.uleb128 0x1
 4530 0c94 9C       		.byte	0x9c
 4531 0c95 B90C0000 		.4byte	0xcb9
 4532 0c99 13       		.uleb128 0x13
 4533 0c9a 7B000000 		.4byte	.LASF61
 4534 0c9e 01       		.byte	0x1
 4535 0c9f 7506     		.2byte	0x675
 4536 0ca1 83000000 		.4byte	0x83
 4537 0ca5 C00B0000 		.4byte	.LLST59
 4538 0ca9 18       		.uleb128 0x18
 4539 0caa 24000000 		.4byte	.LVL266
 4540 0cae 2B100000 		.4byte	0x102b
 4541 0cb2 17       		.uleb128 0x17
 4542 0cb3 01       		.uleb128 0x1
 4543 0cb4 50       		.byte	0x50
 4544 0cb5 01       		.uleb128 0x1
 4545 0cb6 30       		.byte	0x30
 4546 0cb7 00       		.byte	0
 4547 0cb8 00       		.byte	0
 4548 0cb9 19       		.uleb128 0x19
 4549 0cba D3070000 		.4byte	.LASF103
 4550 0cbe 01       		.byte	0x1
 4551 0cbf 8C06     		.2byte	0x68c
 4552 0cc1 00000000 		.4byte	.LFB40
 4553 0cc5 28000000 		.4byte	.LFE40-.LFB40
 4554 0cc9 01       		.uleb128 0x1
 4555 0cca 9C       		.byte	0x9c
 4556 0ccb EF0C0000 		.4byte	0xcef
 4557 0ccf 13       		.uleb128 0x13
 4558 0cd0 7B000000 		.4byte	.LASF61
 4559 0cd4 01       		.byte	0x1
 4560 0cd5 8C06     		.2byte	0x68c
 4561 0cd7 83000000 		.4byte	0x83
 4562 0cdb FA0B0000 		.4byte	.LLST60
 4563 0cdf 18       		.uleb128 0x18
 4564 0ce0 1C000000 		.4byte	.LVL271
 4565 0ce4 2B100000 		.4byte	0x102b
 4566 0ce8 17       		.uleb128 0x17
 4567 0ce9 01       		.uleb128 0x1
 4568 0cea 50       		.byte	0x50
ARM GAS  C:\Users\JamesN4\AppData\Local\Temp\ccOIY297.s 			page 156


 4569 0ceb 01       		.uleb128 0x1
 4570 0cec 30       		.byte	0x30
 4571 0ced 00       		.byte	0
 4572 0cee 00       		.byte	0
 4573 0cef 1F       		.uleb128 0x1f
 4574 0cf0 E9080000 		.4byte	.LASF104
 4575 0cf4 01       		.byte	0x1
 4576 0cf5 AD06     		.2byte	0x6ad
 4577 0cf7 00000000 		.4byte	.LFB41
 4578 0cfb A4000000 		.4byte	.LFE41-.LFB41
 4579 0cff 01       		.uleb128 0x1
 4580 0d00 9C       		.byte	0x9c
 4581 0d01 3F0D0000 		.4byte	0xd3f
 4582 0d05 16       		.uleb128 0x16
 4583 0d06 36000000 		.4byte	.LVL273
 4584 0d0a 3D0B0000 		.4byte	0xb3d
 4585 0d0e 180D0000 		.4byte	0xd18
 4586 0d12 17       		.uleb128 0x17
 4587 0d13 01       		.uleb128 0x1
 4588 0d14 50       		.byte	0x50
 4589 0d15 01       		.uleb128 0x1
 4590 0d16 34       		.byte	0x34
 4591 0d17 00       		.byte	0
 4592 0d18 16       		.uleb128 0x16
 4593 0d19 70000000 		.4byte	.LVL275
 4594 0d1d 3D0B0000 		.4byte	0xb3d
 4595 0d21 2D0D0000 		.4byte	0xd2d
 4596 0d25 17       		.uleb128 0x17
 4597 0d26 01       		.uleb128 0x1
 4598 0d27 50       		.byte	0x50
 4599 0d28 03       		.uleb128 0x3
 4600 0d29 0A       		.byte	0xa
 4601 0d2a 0004     		.2byte	0x400
 4602 0d2c 00       		.byte	0
 4603 0d2d 18       		.uleb128 0x18
 4604 0d2e 92000000 		.4byte	.LVL277
 4605 0d32 3D0B0000 		.4byte	0xb3d
 4606 0d36 17       		.uleb128 0x17
 4607 0d37 01       		.uleb128 0x1
 4608 0d38 50       		.byte	0x50
 4609 0d39 03       		.uleb128 0x3
 4610 0d3a 40       		.byte	0x40
 4611 0d3b 3E       		.byte	0x3e
 4612 0d3c 24       		.byte	0x24
 4613 0d3d 00       		.byte	0
 4614 0d3e 00       		.byte	0
 4615 0d3f 19       		.uleb128 0x19
 4616 0d40 37050000 		.4byte	.LASF105
 4617 0d44 01       		.byte	0x1
 4618 0d45 EE06     		.2byte	0x6ee
 4619 0d47 00000000 		.4byte	.LFB42
 4620 0d4b 60000000 		.4byte	.LFE42-.LFB42
 4621 0d4f 01       		.uleb128 0x1
 4622 0d50 9C       		.byte	0x9c
 4623 0d51 0B0E0000 		.4byte	0xe0b
 4624 0d55 13       		.uleb128 0x13
 4625 0d56 7B000000 		.4byte	.LASF61
ARM GAS  C:\Users\JamesN4\AppData\Local\Temp\ccOIY297.s 			page 157


 4626 0d5a 01       		.byte	0x1
 4627 0d5b EE06     		.2byte	0x6ee
 4628 0d5d 83000000 		.4byte	0x83
 4629 0d61 340C0000 		.4byte	.LLST61
 4630 0d65 16       		.uleb128 0x16
 4631 0d66 0A000000 		.4byte	.LVL279
 4632 0d6a BF050000 		.4byte	0x5bf
 4633 0d6e 790D0000 		.4byte	0xd79
 4634 0d72 17       		.uleb128 0x17
 4635 0d73 01       		.uleb128 0x1
 4636 0d74 50       		.byte	0x50
 4637 0d75 02       		.uleb128 0x2
 4638 0d76 74       		.byte	0x74
 4639 0d77 00       		.sleb128 0
 4640 0d78 00       		.byte	0
 4641 0d79 1C       		.uleb128 0x1c
 4642 0d7a 14000000 		.4byte	.LVL280
 4643 0d7e 3D0B0000 		.4byte	0xb3d
 4644 0d82 16       		.uleb128 0x16
 4645 0d83 1C000000 		.4byte	.LVL281
 4646 0d87 BF050000 		.4byte	0x5bf
 4647 0d8b 960D0000 		.4byte	0xd96
 4648 0d8f 17       		.uleb128 0x17
 4649 0d90 01       		.uleb128 0x1
 4650 0d91 50       		.byte	0x50
 4651 0d92 02       		.uleb128 0x2
 4652 0d93 74       		.byte	0x74
 4653 0d94 00       		.sleb128 0
 4654 0d95 00       		.byte	0
 4655 0d96 1C       		.uleb128 0x1c
 4656 0d97 26000000 		.4byte	.LVL282
 4657 0d9b B80B0000 		.4byte	0xbb8
 4658 0d9f 16       		.uleb128 0x16
 4659 0da0 2C000000 		.4byte	.LVL283
 4660 0da4 3D0B0000 		.4byte	0xb3d
 4661 0da8 B20D0000 		.4byte	0xdb2
 4662 0dac 17       		.uleb128 0x17
 4663 0dad 01       		.uleb128 0x1
 4664 0dae 50       		.byte	0x50
 4665 0daf 01       		.uleb128 0x1
 4666 0db0 34       		.byte	0x34
 4667 0db1 00       		.byte	0
 4668 0db2 1C       		.uleb128 0x1c
 4669 0db3 36000000 		.4byte	.LVL285
 4670 0db7 BF050000 		.4byte	0x5bf
 4671 0dbb 16       		.uleb128 0x16
 4672 0dbc 42000000 		.4byte	.LVL286
 4673 0dc0 3D0B0000 		.4byte	0xb3d
 4674 0dc4 D00D0000 		.4byte	0xdd0
 4675 0dc8 17       		.uleb128 0x17
 4676 0dc9 01       		.uleb128 0x1
 4677 0dca 50       		.byte	0x50
 4678 0dcb 03       		.uleb128 0x3
 4679 0dcc 0A       		.byte	0xa
 4680 0dcd 0004     		.2byte	0x400
 4681 0dcf 00       		.byte	0
 4682 0dd0 16       		.uleb128 0x16
ARM GAS  C:\Users\JamesN4\AppData\Local\Temp\ccOIY297.s 			page 158


 4683 0dd1 4A000000 		.4byte	.LVL287
 4684 0dd5 BF050000 		.4byte	0x5bf
 4685 0dd9 E40D0000 		.4byte	0xde4
 4686 0ddd 17       		.uleb128 0x17
 4687 0dde 01       		.uleb128 0x1
 4688 0ddf 50       		.byte	0x50
 4689 0de0 02       		.uleb128 0x2
 4690 0de1 74       		.byte	0x74
 4691 0de2 00       		.sleb128 0
 4692 0de3 00       		.byte	0
 4693 0de4 16       		.uleb128 0x16
 4694 0de5 56000000 		.4byte	.LVL288
 4695 0de9 B80B0000 		.4byte	0xbb8
 4696 0ded F90D0000 		.4byte	0xdf9
 4697 0df1 17       		.uleb128 0x17
 4698 0df2 01       		.uleb128 0x1
 4699 0df3 50       		.byte	0x50
 4700 0df4 03       		.uleb128 0x3
 4701 0df5 0A       		.byte	0xa
 4702 0df6 0008     		.2byte	0x800
 4703 0df8 00       		.byte	0
 4704 0df9 18       		.uleb128 0x18
 4705 0dfa 5E000000 		.4byte	.LVL289
 4706 0dfe 3D0B0000 		.4byte	0xb3d
 4707 0e02 17       		.uleb128 0x17
 4708 0e03 01       		.uleb128 0x1
 4709 0e04 50       		.byte	0x50
 4710 0e05 03       		.uleb128 0x3
 4711 0e06 0A       		.byte	0xa
 4712 0e07 0004     		.2byte	0x400
 4713 0e09 00       		.byte	0
 4714 0e0a 00       		.byte	0
 4715 0e0b 19       		.uleb128 0x19
 4716 0e0c 71060000 		.4byte	.LASF106
 4717 0e10 01       		.byte	0x1
 4718 0e11 580C     		.2byte	0xc58
 4719 0e13 00000000 		.4byte	.LFB46
 4720 0e17 6C000000 		.4byte	.LFE46-.LFB46
 4721 0e1b 01       		.uleb128 0x1
 4722 0e1c 9C       		.byte	0x9c
 4723 0e1d C70E0000 		.4byte	0xec7
 4724 0e21 13       		.uleb128 0x13
 4725 0e22 7B000000 		.4byte	.LASF61
 4726 0e26 01       		.byte	0x1
 4727 0e27 580C     		.2byte	0xc58
 4728 0e29 83000000 		.4byte	0x83
 4729 0e2d 760C0000 		.4byte	.LLST62
 4730 0e31 13       		.uleb128 0x13
 4731 0e32 05070000 		.4byte	.LASF107
 4732 0e36 01       		.byte	0x1
 4733 0e37 580C     		.2byte	0xc58
 4734 0e39 F2000000 		.4byte	0xf2
 4735 0e3d A20C0000 		.4byte	.LLST63
 4736 0e41 13       		.uleb128 0x13
 4737 0e42 DA050000 		.4byte	.LASF77
 4738 0e46 01       		.byte	0x1
 4739 0e47 580C     		.2byte	0xc58
ARM GAS  C:\Users\JamesN4\AppData\Local\Temp\ccOIY297.s 			page 159


 4740 0e49 83000000 		.4byte	0x83
 4741 0e4d C30C0000 		.4byte	.LLST64
 4742 0e51 14       		.uleb128 0x14
 4743 0e52 7D050000 		.4byte	.LASF108
 4744 0e56 01       		.byte	0x1
 4745 0e57 5A0C     		.2byte	0xc5a
 4746 0e59 83000000 		.4byte	0x83
 4747 0e5d EF0C0000 		.4byte	.LLST65
 4748 0e61 16       		.uleb128 0x16
 4749 0e62 10000000 		.4byte	.LVL292
 4750 0e66 54060000 		.4byte	0x654
 4751 0e6a 750E0000 		.4byte	0xe75
 4752 0e6e 17       		.uleb128 0x17
 4753 0e6f 01       		.uleb128 0x1
 4754 0e70 50       		.byte	0x50
 4755 0e71 02       		.uleb128 0x2
 4756 0e72 74       		.byte	0x74
 4757 0e73 00       		.sleb128 0
 4758 0e74 00       		.byte	0
 4759 0e75 16       		.uleb128 0x16
 4760 0e76 24000000 		.4byte	.LVL293
 4761 0e7a E1080000 		.4byte	0x8e1
 4762 0e7e 890E0000 		.4byte	0xe89
 4763 0e82 17       		.uleb128 0x17
 4764 0e83 01       		.uleb128 0x1
 4765 0e84 50       		.byte	0x50
 4766 0e85 02       		.uleb128 0x2
 4767 0e86 74       		.byte	0x74
 4768 0e87 00       		.sleb128 0
 4769 0e88 00       		.byte	0
 4770 0e89 16       		.uleb128 0x16
 4771 0e8a 2E000000 		.4byte	.LVL295
 4772 0e8e E1080000 		.4byte	0x8e1
 4773 0e92 9D0E0000 		.4byte	0xe9d
 4774 0e96 17       		.uleb128 0x17
 4775 0e97 01       		.uleb128 0x1
 4776 0e98 50       		.byte	0x50
 4777 0e99 02       		.uleb128 0x2
 4778 0e9a 74       		.byte	0x74
 4779 0e9b 00       		.sleb128 0
 4780 0e9c 00       		.byte	0
 4781 0e9d 16       		.uleb128 0x16
 4782 0e9e 42000000 		.4byte	.LVL298
 4783 0ea2 DF070000 		.4byte	0x7df
 4784 0ea6 B70E0000 		.4byte	0xeb7
 4785 0eaa 17       		.uleb128 0x17
 4786 0eab 01       		.uleb128 0x1
 4787 0eac 50       		.byte	0x50
 4788 0ead 02       		.uleb128 0x2
 4789 0eae 74       		.byte	0x74
 4790 0eaf 00       		.sleb128 0
 4791 0eb0 17       		.uleb128 0x17
 4792 0eb1 01       		.uleb128 0x1
 4793 0eb2 51       		.byte	0x51
 4794 0eb3 02       		.uleb128 0x2
 4795 0eb4 75       		.byte	0x75
 4796 0eb5 00       		.sleb128 0
ARM GAS  C:\Users\JamesN4\AppData\Local\Temp\ccOIY297.s 			page 160


 4797 0eb6 00       		.byte	0
 4798 0eb7 18       		.uleb128 0x18
 4799 0eb8 5A000000 		.4byte	.LVL300
 4800 0ebc 2B100000 		.4byte	0x102b
 4801 0ec0 17       		.uleb128 0x17
 4802 0ec1 01       		.uleb128 0x1
 4803 0ec2 50       		.byte	0x50
 4804 0ec3 01       		.uleb128 0x1
 4805 0ec4 30       		.byte	0x30
 4806 0ec5 00       		.byte	0
 4807 0ec6 00       		.byte	0
 4808 0ec7 19       		.uleb128 0x19
 4809 0ec8 8B060000 		.4byte	.LASF109
 4810 0ecc 01       		.byte	0x1
 4811 0ecd D70B     		.2byte	0xbd7
 4812 0ecf 00000000 		.4byte	.LFB45
 4813 0ed3 3C000000 		.4byte	.LFE45-.LFB45
 4814 0ed7 01       		.uleb128 0x1
 4815 0ed8 9C       		.byte	0x9c
 4816 0ed9 7F0F0000 		.4byte	0xf7f
 4817 0edd 13       		.uleb128 0x13
 4818 0ede 7B000000 		.4byte	.LASF61
 4819 0ee2 01       		.byte	0x1
 4820 0ee3 D70B     		.2byte	0xbd7
 4821 0ee5 83000000 		.4byte	0x83
 4822 0ee9 180D0000 		.4byte	.LLST66
 4823 0eed 13       		.uleb128 0x13
 4824 0eee 05070000 		.4byte	.LASF107
 4825 0ef2 01       		.byte	0x1
 4826 0ef3 D70B     		.2byte	0xbd7
 4827 0ef5 F2000000 		.4byte	0xf2
 4828 0ef9 440D0000 		.4byte	.LLST67
 4829 0efd 13       		.uleb128 0x13
 4830 0efe F5060000 		.4byte	.LASF110
 4831 0f02 01       		.byte	0x1
 4832 0f03 D70B     		.2byte	0xbd7
 4833 0f05 83000000 		.4byte	0x83
 4834 0f09 650D0000 		.4byte	.LLST68
 4835 0f0d 14       		.uleb128 0x14
 4836 0f0e 6B020000 		.4byte	.LASF78
 4837 0f12 01       		.byte	0x1
 4838 0f13 D90B     		.2byte	0xbd9
 4839 0f15 83000000 		.4byte	0x83
 4840 0f19 910D0000 		.4byte	.LLST69
 4841 0f1d 14       		.uleb128 0x14
 4842 0f1e EE030000 		.4byte	.LASF111
 4843 0f22 01       		.byte	0x1
 4844 0f23 DA0B     		.2byte	0xbda
 4845 0f25 83000000 		.4byte	0x83
 4846 0f29 A40D0000 		.4byte	.LLST70
 4847 0f2d 16       		.uleb128 0x16
 4848 0f2e 10000000 		.4byte	.LVL304
 4849 0f32 54060000 		.4byte	0x654
 4850 0f36 410F0000 		.4byte	0xf41
 4851 0f3a 17       		.uleb128 0x17
 4852 0f3b 01       		.uleb128 0x1
 4853 0f3c 50       		.byte	0x50
ARM GAS  C:\Users\JamesN4\AppData\Local\Temp\ccOIY297.s 			page 161


 4854 0f3d 02       		.uleb128 0x2
 4855 0f3e 74       		.byte	0x74
 4856 0f3f 00       		.sleb128 0
 4857 0f40 00       		.byte	0
 4858 0f41 16       		.uleb128 0x16
 4859 0f42 20000000 		.4byte	.LVL305
 4860 0f46 E1080000 		.4byte	0x8e1
 4861 0f4a 550F0000 		.4byte	0xf55
 4862 0f4e 17       		.uleb128 0x17
 4863 0f4f 01       		.uleb128 0x1
 4864 0f50 50       		.byte	0x50
 4865 0f51 02       		.uleb128 0x2
 4866 0f52 74       		.byte	0x74
 4867 0f53 00       		.sleb128 0
 4868 0f54 00       		.byte	0
 4869 0f55 16       		.uleb128 0x16
 4870 0f56 2E000000 		.4byte	.LVL308
 4871 0f5a 0B0E0000 		.4byte	0xe0b
 4872 0f5e 6F0F0000 		.4byte	0xf6f
 4873 0f62 17       		.uleb128 0x17
 4874 0f63 01       		.uleb128 0x1
 4875 0f64 50       		.byte	0x50
 4876 0f65 02       		.uleb128 0x2
 4877 0f66 74       		.byte	0x74
 4878 0f67 00       		.sleb128 0
 4879 0f68 17       		.uleb128 0x17
 4880 0f69 01       		.uleb128 0x1
 4881 0f6a 51       		.byte	0x51
 4882 0f6b 02       		.uleb128 0x2
 4883 0f6c 76       		.byte	0x76
 4884 0f6d 00       		.sleb128 0
 4885 0f6e 00       		.byte	0
 4886 0f6f 18       		.uleb128 0x18
 4887 0f70 36000000 		.4byte	.LVL309
 4888 0f74 2B100000 		.4byte	0x102b
 4889 0f78 17       		.uleb128 0x17
 4890 0f79 01       		.uleb128 0x1
 4891 0f7a 50       		.byte	0x50
 4892 0f7b 01       		.uleb128 0x1
 4893 0f7c 30       		.byte	0x30
 4894 0f7d 00       		.byte	0
 4895 0f7e 00       		.byte	0
 4896 0f7f 11       		.uleb128 0x11
 4897 0f80 4F050000 		.4byte	.LASF112
 4898 0f84 01       		.byte	0x1
 4899 0f85 1D       		.byte	0x1d
 4900 0f86 BC000000 		.4byte	0xbc
 4901 0f8a 05       		.uleb128 0x5
 4902 0f8b 03       		.byte	0x3
 4903 0f8c 00000000 		.4byte	defaultIloTrimRegValue
 4904 0f90 11       		.uleb128 0x11
 4905 0f91 58010000 		.4byte	.LASF113
 4906 0f95 01       		.byte	0x1
 4907 0f96 22       		.byte	0x22
 4908 0f97 83000000 		.4byte	0x83
 4909 0f9b 05       		.uleb128 0x5
 4910 0f9c 03       		.byte	0x3
ARM GAS  C:\Users\JamesN4\AppData\Local\Temp\ccOIY297.s 			page 162


 4911 0f9d 0C000000 		.4byte	lfclkPosedgeWdtCounter0Enabled
 4912 0fa1 11       		.uleb128 0x11
 4913 0fa2 B8080000 		.4byte	.LASF114
 4914 0fa6 01       		.byte	0x1
 4915 0fa7 23       		.byte	0x23
 4916 0fa8 83000000 		.4byte	0x83
 4917 0fac 05       		.uleb128 0x5
 4918 0fad 03       		.byte	0x3
 4919 0fae 10000000 		.4byte	lfclkPosedgeWdtCounter0Mode
 4920 0fb2 11       		.uleb128 0x11
 4921 0fb3 08080000 		.4byte	.LASF115
 4922 0fb7 01       		.byte	0x1
 4923 0fb8 25       		.byte	0x25
 4924 0fb9 CD000000 		.4byte	0xcd
 4925 0fbd 05       		.uleb128 0x5
 4926 0fbe 03       		.byte	0x3
 4927 0fbf 24000000 		.4byte	disableServicedIsr
 4928 0fc3 11       		.uleb128 0x11
 4929 0fc4 2A030000 		.4byte	.LASF116
 4930 0fc8 01       		.byte	0x1
 4931 0fc9 26       		.byte	0x26
 4932 0fca CD000000 		.4byte	0xcd
 4933 0fce 05       		.uleb128 0x5
 4934 0fcf 03       		.byte	0x3
 4935 0fd0 04000000 		.4byte	wdtIsrMask
 4936 0fd4 20       		.uleb128 0x20
 4937 0fd5 E40F0000 		.4byte	0xfe4
 4938 0fd9 E40F0000 		.4byte	0xfe4
 4939 0fdd 21       		.uleb128 0x21
 4940 0fde 0F010000 		.4byte	0x10f
 4941 0fe2 02       		.byte	0x2
 4942 0fe3 00       		.byte	0
 4943 0fe4 22       		.uleb128 0x22
 4944 0fe5 83000000 		.4byte	0x83
 4945 0fe9 11       		.uleb128 0x11
 4946 0fea 29000000 		.4byte	.LASF117
 4947 0fee 01       		.byte	0x1
 4948 0fef 2A       		.byte	0x2a
 4949 0ff0 FA0F0000 		.4byte	0xffa
 4950 0ff4 05       		.uleb128 0x5
 4951 0ff5 03       		.byte	0x3
 4952 0ff6 00000000 		.4byte	counterIntMaskTbl
 4953 0ffa 22       		.uleb128 0x22
 4954 0ffb D40F0000 		.4byte	0xfd4
 4955 0fff 20       		.uleb128 0x20
 4956 1000 FD000000 		.4byte	0xfd
 4957 1004 0F100000 		.4byte	0x100f
 4958 1008 21       		.uleb128 0x21
 4959 1009 0F010000 		.4byte	0x10f
 4960 100d 02       		.byte	0x2
 4961 100e 00       		.byte	0
 4962 100f 11       		.uleb128 0x11
 4963 1010 3B000000 		.4byte	.LASF118
 4964 1014 01       		.byte	0x1
 4965 1015 44       		.byte	0x44
 4966 1016 FF0F0000 		.4byte	0xfff
 4967 101a 05       		.uleb128 0x5
ARM GAS  C:\Users\JamesN4\AppData\Local\Temp\ccOIY297.s 			page 163


 4968 101b 03       		.byte	0x3
 4969 101c 18000000 		.4byte	cySysWdtCallback
 4970 1020 23       		.uleb128 0x23
 4971 1021 1C060000 		.4byte	.LASF128
 4972 1025 04       		.byte	0x4
 4973 1026 D4       		.byte	0xd4
 4974 1027 83000000 		.4byte	0x83
 4975 102b 24       		.uleb128 0x24
 4976 102c AA060000 		.4byte	.LASF119
 4977 1030 AA060000 		.4byte	.LASF119
 4978 1034 04       		.byte	0x4
 4979 1035 E7       		.byte	0xe7
 4980 1036 24       		.uleb128 0x24
 4981 1037 66050000 		.4byte	.LASF120
 4982 103b 66050000 		.4byte	.LASF120
 4983 103f 04       		.byte	0x4
 4984 1040 E5       		.byte	0xe5
 4985 1041 24       		.uleb128 0x24
 4986 1042 07000000 		.4byte	.LASF121
 4987 1046 07000000 		.4byte	.LASF121
 4988 104a 04       		.byte	0x4
 4989 104b E6       		.byte	0xe6
 4990 104c 24       		.uleb128 0x24
 4991 104d 26020000 		.4byte	.LASF122
 4992 1051 26020000 		.4byte	.LASF122
 4993 1055 04       		.byte	0x4
 4994 1056 DA       		.byte	0xda
 4995 1057 00       		.byte	0
 4996              		.section	.debug_abbrev,"",%progbits
 4997              	.Ldebug_abbrev0:
 4998 0000 01       		.uleb128 0x1
 4999 0001 11       		.uleb128 0x11
 5000 0002 01       		.byte	0x1
 5001 0003 25       		.uleb128 0x25
 5002 0004 0E       		.uleb128 0xe
 5003 0005 13       		.uleb128 0x13
 5004 0006 0B       		.uleb128 0xb
 5005 0007 03       		.uleb128 0x3
 5006 0008 0E       		.uleb128 0xe
 5007 0009 1B       		.uleb128 0x1b
 5008 000a 0E       		.uleb128 0xe
 5009 000b 55       		.uleb128 0x55
 5010 000c 17       		.uleb128 0x17
 5011 000d 11       		.uleb128 0x11
 5012 000e 01       		.uleb128 0x1
 5013 000f 10       		.uleb128 0x10
 5014 0010 17       		.uleb128 0x17
 5015 0011 00       		.byte	0
 5016 0012 00       		.byte	0
 5017 0013 02       		.uleb128 0x2
 5018 0014 24       		.uleb128 0x24
 5019 0015 00       		.byte	0
 5020 0016 0B       		.uleb128 0xb
 5021 0017 0B       		.uleb128 0xb
 5022 0018 3E       		.uleb128 0x3e
 5023 0019 0B       		.uleb128 0xb
 5024 001a 03       		.uleb128 0x3
ARM GAS  C:\Users\JamesN4\AppData\Local\Temp\ccOIY297.s 			page 164


 5025 001b 0E       		.uleb128 0xe
 5026 001c 00       		.byte	0
 5027 001d 00       		.byte	0
 5028 001e 03       		.uleb128 0x3
 5029 001f 24       		.uleb128 0x24
 5030 0020 00       		.byte	0
 5031 0021 0B       		.uleb128 0xb
 5032 0022 0B       		.uleb128 0xb
 5033 0023 3E       		.uleb128 0x3e
 5034 0024 0B       		.uleb128 0xb
 5035 0025 03       		.uleb128 0x3
 5036 0026 08       		.uleb128 0x8
 5037 0027 00       		.byte	0
 5038 0028 00       		.byte	0
 5039 0029 04       		.uleb128 0x4
 5040 002a 16       		.uleb128 0x16
 5041 002b 00       		.byte	0
 5042 002c 03       		.uleb128 0x3
 5043 002d 0E       		.uleb128 0xe
 5044 002e 3A       		.uleb128 0x3a
 5045 002f 0B       		.uleb128 0xb
 5046 0030 3B       		.uleb128 0x3b
 5047 0031 05       		.uleb128 0x5
 5048 0032 49       		.uleb128 0x49
 5049 0033 13       		.uleb128 0x13
 5050 0034 00       		.byte	0
 5051 0035 00       		.byte	0
 5052 0036 05       		.uleb128 0x5
 5053 0037 35       		.uleb128 0x35
 5054 0038 00       		.byte	0
 5055 0039 49       		.uleb128 0x49
 5056 003a 13       		.uleb128 0x13
 5057 003b 00       		.byte	0
 5058 003c 00       		.byte	0
 5059 003d 06       		.uleb128 0x6
 5060 003e 0F       		.uleb128 0xf
 5061 003f 00       		.byte	0
 5062 0040 0B       		.uleb128 0xb
 5063 0041 0B       		.uleb128 0xb
 5064 0042 49       		.uleb128 0x49
 5065 0043 13       		.uleb128 0x13
 5066 0044 00       		.byte	0
 5067 0045 00       		.byte	0
 5068 0046 07       		.uleb128 0x7
 5069 0047 15       		.uleb128 0x15
 5070 0048 00       		.byte	0
 5071 0049 27       		.uleb128 0x27
 5072 004a 19       		.uleb128 0x19
 5073 004b 00       		.byte	0
 5074 004c 00       		.byte	0
 5075 004d 08       		.uleb128 0x8
 5076 004e 04       		.uleb128 0x4
 5077 004f 01       		.byte	0x1
 5078 0050 0B       		.uleb128 0xb
 5079 0051 0B       		.uleb128 0xb
 5080 0052 49       		.uleb128 0x49
 5081 0053 13       		.uleb128 0x13
ARM GAS  C:\Users\JamesN4\AppData\Local\Temp\ccOIY297.s 			page 165


 5082 0054 3A       		.uleb128 0x3a
 5083 0055 0B       		.uleb128 0xb
 5084 0056 3B       		.uleb128 0x3b
 5085 0057 0B       		.uleb128 0xb
 5086 0058 01       		.uleb128 0x1
 5087 0059 13       		.uleb128 0x13
 5088 005a 00       		.byte	0
 5089 005b 00       		.byte	0
 5090 005c 09       		.uleb128 0x9
 5091 005d 28       		.uleb128 0x28
 5092 005e 00       		.byte	0
 5093 005f 03       		.uleb128 0x3
 5094 0060 0E       		.uleb128 0xe
 5095 0061 1C       		.uleb128 0x1c
 5096 0062 0B       		.uleb128 0xb
 5097 0063 00       		.byte	0
 5098 0064 00       		.byte	0
 5099 0065 0A       		.uleb128 0xa
 5100 0066 16       		.uleb128 0x16
 5101 0067 00       		.byte	0
 5102 0068 03       		.uleb128 0x3
 5103 0069 0E       		.uleb128 0xe
 5104 006a 3A       		.uleb128 0x3a
 5105 006b 0B       		.uleb128 0xb
 5106 006c 3B       		.uleb128 0x3b
 5107 006d 0B       		.uleb128 0xb
 5108 006e 49       		.uleb128 0x49
 5109 006f 13       		.uleb128 0x13
 5110 0070 00       		.byte	0
 5111 0071 00       		.byte	0
 5112 0072 0B       		.uleb128 0xb
 5113 0073 2E       		.uleb128 0x2e
 5114 0074 00       		.byte	0
 5115 0075 03       		.uleb128 0x3
 5116 0076 0E       		.uleb128 0xe
 5117 0077 3A       		.uleb128 0x3a
 5118 0078 0B       		.uleb128 0xb
 5119 0079 3B       		.uleb128 0x3b
 5120 007a 05       		.uleb128 0x5
 5121 007b 27       		.uleb128 0x27
 5122 007c 19       		.uleb128 0x19
 5123 007d 20       		.uleb128 0x20
 5124 007e 0B       		.uleb128 0xb
 5125 007f 00       		.byte	0
 5126 0080 00       		.byte	0
 5127 0081 0C       		.uleb128 0xc
 5128 0082 2E       		.uleb128 0x2e
 5129 0083 00       		.byte	0
 5130 0084 03       		.uleb128 0x3
 5131 0085 0E       		.uleb128 0xe
 5132 0086 3A       		.uleb128 0x3a
 5133 0087 0B       		.uleb128 0xb
 5134 0088 3B       		.uleb128 0x3b
 5135 0089 05       		.uleb128 0x5
 5136 008a 27       		.uleb128 0x27
 5137 008b 19       		.uleb128 0x19
 5138 008c 49       		.uleb128 0x49
ARM GAS  C:\Users\JamesN4\AppData\Local\Temp\ccOIY297.s 			page 166


 5139 008d 13       		.uleb128 0x13
 5140 008e 11       		.uleb128 0x11
 5141 008f 01       		.uleb128 0x1
 5142 0090 12       		.uleb128 0x12
 5143 0091 06       		.uleb128 0x6
 5144 0092 40       		.uleb128 0x40
 5145 0093 18       		.uleb128 0x18
 5146 0094 9742     		.uleb128 0x2117
 5147 0096 19       		.uleb128 0x19
 5148 0097 00       		.byte	0
 5149 0098 00       		.byte	0
 5150 0099 0D       		.uleb128 0xd
 5151 009a 2E       		.uleb128 0x2e
 5152 009b 01       		.byte	0x1
 5153 009c 03       		.uleb128 0x3
 5154 009d 0E       		.uleb128 0xe
 5155 009e 3A       		.uleb128 0x3a
 5156 009f 0B       		.uleb128 0xb
 5157 00a0 3B       		.uleb128 0x3b
 5158 00a1 05       		.uleb128 0x5
 5159 00a2 27       		.uleb128 0x27
 5160 00a3 19       		.uleb128 0x19
 5161 00a4 49       		.uleb128 0x49
 5162 00a5 13       		.uleb128 0x13
 5163 00a6 11       		.uleb128 0x11
 5164 00a7 01       		.uleb128 0x1
 5165 00a8 12       		.uleb128 0x12
 5166 00a9 06       		.uleb128 0x6
 5167 00aa 40       		.uleb128 0x40
 5168 00ab 18       		.uleb128 0x18
 5169 00ac 9742     		.uleb128 0x2117
 5170 00ae 19       		.uleb128 0x19
 5171 00af 01       		.uleb128 0x1
 5172 00b0 13       		.uleb128 0x13
 5173 00b1 00       		.byte	0
 5174 00b2 00       		.byte	0
 5175 00b3 0E       		.uleb128 0xe
 5176 00b4 34       		.uleb128 0x34
 5177 00b5 00       		.byte	0
 5178 00b6 03       		.uleb128 0x3
 5179 00b7 0E       		.uleb128 0xe
 5180 00b8 3A       		.uleb128 0x3a
 5181 00b9 0B       		.uleb128 0xb
 5182 00ba 3B       		.uleb128 0x3b
 5183 00bb 05       		.uleb128 0x5
 5184 00bc 49       		.uleb128 0x49
 5185 00bd 13       		.uleb128 0x13
 5186 00be 02       		.uleb128 0x2
 5187 00bf 18       		.uleb128 0x18
 5188 00c0 00       		.byte	0
 5189 00c1 00       		.byte	0
 5190 00c2 0F       		.uleb128 0xf
 5191 00c3 2E       		.uleb128 0x2e
 5192 00c4 00       		.byte	0
 5193 00c5 3F       		.uleb128 0x3f
 5194 00c6 19       		.uleb128 0x19
 5195 00c7 03       		.uleb128 0x3
ARM GAS  C:\Users\JamesN4\AppData\Local\Temp\ccOIY297.s 			page 167


 5196 00c8 0E       		.uleb128 0xe
 5197 00c9 3A       		.uleb128 0x3a
 5198 00ca 0B       		.uleb128 0xb
 5199 00cb 3B       		.uleb128 0x3b
 5200 00cc 0B       		.uleb128 0xb
 5201 00cd 27       		.uleb128 0x27
 5202 00ce 19       		.uleb128 0x19
 5203 00cf 11       		.uleb128 0x11
 5204 00d0 01       		.uleb128 0x1
 5205 00d1 12       		.uleb128 0x12
 5206 00d2 06       		.uleb128 0x6
 5207 00d3 40       		.uleb128 0x40
 5208 00d4 18       		.uleb128 0x18
 5209 00d5 9742     		.uleb128 0x2117
 5210 00d7 19       		.uleb128 0x19
 5211 00d8 00       		.byte	0
 5212 00d9 00       		.byte	0
 5213 00da 10       		.uleb128 0x10
 5214 00db 2E       		.uleb128 0x2e
 5215 00dc 01       		.byte	0x1
 5216 00dd 3F       		.uleb128 0x3f
 5217 00de 19       		.uleb128 0x19
 5218 00df 03       		.uleb128 0x3
 5219 00e0 0E       		.uleb128 0xe
 5220 00e1 3A       		.uleb128 0x3a
 5221 00e2 0B       		.uleb128 0xb
 5222 00e3 3B       		.uleb128 0x3b
 5223 00e4 0B       		.uleb128 0xb
 5224 00e5 27       		.uleb128 0x27
 5225 00e6 19       		.uleb128 0x19
 5226 00e7 11       		.uleb128 0x11
 5227 00e8 01       		.uleb128 0x1
 5228 00e9 12       		.uleb128 0x12
 5229 00ea 06       		.uleb128 0x6
 5230 00eb 40       		.uleb128 0x40
 5231 00ec 18       		.uleb128 0x18
 5232 00ed 9742     		.uleb128 0x2117
 5233 00ef 19       		.uleb128 0x19
 5234 00f0 01       		.uleb128 0x1
 5235 00f1 13       		.uleb128 0x13
 5236 00f2 00       		.byte	0
 5237 00f3 00       		.byte	0
 5238 00f4 11       		.uleb128 0x11
 5239 00f5 34       		.uleb128 0x34
 5240 00f6 00       		.byte	0
 5241 00f7 03       		.uleb128 0x3
 5242 00f8 0E       		.uleb128 0xe
 5243 00f9 3A       		.uleb128 0x3a
 5244 00fa 0B       		.uleb128 0xb
 5245 00fb 3B       		.uleb128 0x3b
 5246 00fc 0B       		.uleb128 0xb
 5247 00fd 49       		.uleb128 0x49
 5248 00fe 13       		.uleb128 0x13
 5249 00ff 02       		.uleb128 0x2
 5250 0100 18       		.uleb128 0x18
 5251 0101 00       		.byte	0
 5252 0102 00       		.byte	0
ARM GAS  C:\Users\JamesN4\AppData\Local\Temp\ccOIY297.s 			page 168


 5253 0103 12       		.uleb128 0x12
 5254 0104 2E       		.uleb128 0x2e
 5255 0105 01       		.byte	0x1
 5256 0106 3F       		.uleb128 0x3f
 5257 0107 19       		.uleb128 0x19
 5258 0108 03       		.uleb128 0x3
 5259 0109 0E       		.uleb128 0xe
 5260 010a 3A       		.uleb128 0x3a
 5261 010b 0B       		.uleb128 0xb
 5262 010c 3B       		.uleb128 0x3b
 5263 010d 05       		.uleb128 0x5
 5264 010e 27       		.uleb128 0x27
 5265 010f 19       		.uleb128 0x19
 5266 0110 49       		.uleb128 0x49
 5267 0111 13       		.uleb128 0x13
 5268 0112 11       		.uleb128 0x11
 5269 0113 01       		.uleb128 0x1
 5270 0114 12       		.uleb128 0x12
 5271 0115 06       		.uleb128 0x6
 5272 0116 40       		.uleb128 0x40
 5273 0117 18       		.uleb128 0x18
 5274 0118 9642     		.uleb128 0x2116
 5275 011a 19       		.uleb128 0x19
 5276 011b 01       		.uleb128 0x1
 5277 011c 13       		.uleb128 0x13
 5278 011d 00       		.byte	0
 5279 011e 00       		.byte	0
 5280 011f 13       		.uleb128 0x13
 5281 0120 05       		.uleb128 0x5
 5282 0121 00       		.byte	0
 5283 0122 03       		.uleb128 0x3
 5284 0123 0E       		.uleb128 0xe
 5285 0124 3A       		.uleb128 0x3a
 5286 0125 0B       		.uleb128 0xb
 5287 0126 3B       		.uleb128 0x3b
 5288 0127 05       		.uleb128 0x5
 5289 0128 49       		.uleb128 0x49
 5290 0129 13       		.uleb128 0x13
 5291 012a 02       		.uleb128 0x2
 5292 012b 17       		.uleb128 0x17
 5293 012c 00       		.byte	0
 5294 012d 00       		.byte	0
 5295 012e 14       		.uleb128 0x14
 5296 012f 34       		.uleb128 0x34
 5297 0130 00       		.byte	0
 5298 0131 03       		.uleb128 0x3
 5299 0132 0E       		.uleb128 0xe
 5300 0133 3A       		.uleb128 0x3a
 5301 0134 0B       		.uleb128 0xb
 5302 0135 3B       		.uleb128 0x3b
 5303 0136 05       		.uleb128 0x5
 5304 0137 49       		.uleb128 0x49
 5305 0138 13       		.uleb128 0x13
 5306 0139 02       		.uleb128 0x2
 5307 013a 17       		.uleb128 0x17
 5308 013b 00       		.byte	0
 5309 013c 00       		.byte	0
ARM GAS  C:\Users\JamesN4\AppData\Local\Temp\ccOIY297.s 			page 169


 5310 013d 15       		.uleb128 0x15
 5311 013e 2E       		.uleb128 0x2e
 5312 013f 01       		.byte	0x1
 5313 0140 3F       		.uleb128 0x3f
 5314 0141 19       		.uleb128 0x19
 5315 0142 03       		.uleb128 0x3
 5316 0143 0E       		.uleb128 0xe
 5317 0144 3A       		.uleb128 0x3a
 5318 0145 0B       		.uleb128 0xb
 5319 0146 3B       		.uleb128 0x3b
 5320 0147 05       		.uleb128 0x5
 5321 0148 27       		.uleb128 0x27
 5322 0149 19       		.uleb128 0x19
 5323 014a 49       		.uleb128 0x49
 5324 014b 13       		.uleb128 0x13
 5325 014c 11       		.uleb128 0x11
 5326 014d 01       		.uleb128 0x1
 5327 014e 12       		.uleb128 0x12
 5328 014f 06       		.uleb128 0x6
 5329 0150 40       		.uleb128 0x40
 5330 0151 18       		.uleb128 0x18
 5331 0152 9742     		.uleb128 0x2117
 5332 0154 19       		.uleb128 0x19
 5333 0155 01       		.uleb128 0x1
 5334 0156 13       		.uleb128 0x13
 5335 0157 00       		.byte	0
 5336 0158 00       		.byte	0
 5337 0159 16       		.uleb128 0x16
 5338 015a 898201   		.uleb128 0x4109
 5339 015d 01       		.byte	0x1
 5340 015e 11       		.uleb128 0x11
 5341 015f 01       		.uleb128 0x1
 5342 0160 31       		.uleb128 0x31
 5343 0161 13       		.uleb128 0x13
 5344 0162 01       		.uleb128 0x1
 5345 0163 13       		.uleb128 0x13
 5346 0164 00       		.byte	0
 5347 0165 00       		.byte	0
 5348 0166 17       		.uleb128 0x17
 5349 0167 8A8201   		.uleb128 0x410a
 5350 016a 00       		.byte	0
 5351 016b 02       		.uleb128 0x2
 5352 016c 18       		.uleb128 0x18
 5353 016d 9142     		.uleb128 0x2111
 5354 016f 18       		.uleb128 0x18
 5355 0170 00       		.byte	0
 5356 0171 00       		.byte	0
 5357 0172 18       		.uleb128 0x18
 5358 0173 898201   		.uleb128 0x4109
 5359 0176 01       		.byte	0x1
 5360 0177 11       		.uleb128 0x11
 5361 0178 01       		.uleb128 0x1
 5362 0179 31       		.uleb128 0x31
 5363 017a 13       		.uleb128 0x13
 5364 017b 00       		.byte	0
 5365 017c 00       		.byte	0
 5366 017d 19       		.uleb128 0x19
ARM GAS  C:\Users\JamesN4\AppData\Local\Temp\ccOIY297.s 			page 170


 5367 017e 2E       		.uleb128 0x2e
 5368 017f 01       		.byte	0x1
 5369 0180 3F       		.uleb128 0x3f
 5370 0181 19       		.uleb128 0x19
 5371 0182 03       		.uleb128 0x3
 5372 0183 0E       		.uleb128 0xe
 5373 0184 3A       		.uleb128 0x3a
 5374 0185 0B       		.uleb128 0xb
 5375 0186 3B       		.uleb128 0x3b
 5376 0187 05       		.uleb128 0x5
 5377 0188 27       		.uleb128 0x27
 5378 0189 19       		.uleb128 0x19
 5379 018a 11       		.uleb128 0x11
 5380 018b 01       		.uleb128 0x1
 5381 018c 12       		.uleb128 0x12
 5382 018d 06       		.uleb128 0x6
 5383 018e 40       		.uleb128 0x40
 5384 018f 18       		.uleb128 0x18
 5385 0190 9742     		.uleb128 0x2117
 5386 0192 19       		.uleb128 0x19
 5387 0193 01       		.uleb128 0x1
 5388 0194 13       		.uleb128 0x13
 5389 0195 00       		.byte	0
 5390 0196 00       		.byte	0
 5391 0197 1A       		.uleb128 0x1a
 5392 0198 1D       		.uleb128 0x1d
 5393 0199 00       		.byte	0
 5394 019a 31       		.uleb128 0x31
 5395 019b 13       		.uleb128 0x13
 5396 019c 11       		.uleb128 0x11
 5397 019d 01       		.uleb128 0x1
 5398 019e 12       		.uleb128 0x12
 5399 019f 06       		.uleb128 0x6
 5400 01a0 58       		.uleb128 0x58
 5401 01a1 0B       		.uleb128 0xb
 5402 01a2 59       		.uleb128 0x59
 5403 01a3 05       		.uleb128 0x5
 5404 01a4 00       		.byte	0
 5405 01a5 00       		.byte	0
 5406 01a6 1B       		.uleb128 0x1b
 5407 01a7 2E       		.uleb128 0x2e
 5408 01a8 00       		.byte	0
 5409 01a9 3F       		.uleb128 0x3f
 5410 01aa 19       		.uleb128 0x19
 5411 01ab 03       		.uleb128 0x3
 5412 01ac 0E       		.uleb128 0xe
 5413 01ad 3A       		.uleb128 0x3a
 5414 01ae 0B       		.uleb128 0xb
 5415 01af 3B       		.uleb128 0x3b
 5416 01b0 05       		.uleb128 0x5
 5417 01b1 27       		.uleb128 0x27
 5418 01b2 19       		.uleb128 0x19
 5419 01b3 49       		.uleb128 0x49
 5420 01b4 13       		.uleb128 0x13
 5421 01b5 11       		.uleb128 0x11
 5422 01b6 01       		.uleb128 0x1
 5423 01b7 12       		.uleb128 0x12
ARM GAS  C:\Users\JamesN4\AppData\Local\Temp\ccOIY297.s 			page 171


 5424 01b8 06       		.uleb128 0x6
 5425 01b9 40       		.uleb128 0x40
 5426 01ba 18       		.uleb128 0x18
 5427 01bb 9742     		.uleb128 0x2117
 5428 01bd 19       		.uleb128 0x19
 5429 01be 00       		.byte	0
 5430 01bf 00       		.byte	0
 5431 01c0 1C       		.uleb128 0x1c
 5432 01c1 898201   		.uleb128 0x4109
 5433 01c4 00       		.byte	0
 5434 01c5 11       		.uleb128 0x11
 5435 01c6 01       		.uleb128 0x1
 5436 01c7 31       		.uleb128 0x31
 5437 01c8 13       		.uleb128 0x13
 5438 01c9 00       		.byte	0
 5439 01ca 00       		.byte	0
 5440 01cb 1D       		.uleb128 0x1d
 5441 01cc 2E       		.uleb128 0x2e
 5442 01cd 01       		.byte	0x1
 5443 01ce 03       		.uleb128 0x3
 5444 01cf 0E       		.uleb128 0xe
 5445 01d0 3A       		.uleb128 0x3a
 5446 01d1 0B       		.uleb128 0xb
 5447 01d2 3B       		.uleb128 0x3b
 5448 01d3 05       		.uleb128 0x5
 5449 01d4 27       		.uleb128 0x27
 5450 01d5 19       		.uleb128 0x19
 5451 01d6 11       		.uleb128 0x11
 5452 01d7 01       		.uleb128 0x1
 5453 01d8 12       		.uleb128 0x12
 5454 01d9 06       		.uleb128 0x6
 5455 01da 40       		.uleb128 0x40
 5456 01db 18       		.uleb128 0x18
 5457 01dc 9742     		.uleb128 0x2117
 5458 01de 19       		.uleb128 0x19
 5459 01df 01       		.uleb128 0x1
 5460 01e0 13       		.uleb128 0x13
 5461 01e1 00       		.byte	0
 5462 01e2 00       		.byte	0
 5463 01e3 1E       		.uleb128 0x1e
 5464 01e4 34       		.uleb128 0x34
 5465 01e5 00       		.byte	0
 5466 01e6 03       		.uleb128 0x3
 5467 01e7 0E       		.uleb128 0xe
 5468 01e8 3A       		.uleb128 0x3a
 5469 01e9 0B       		.uleb128 0xb
 5470 01ea 3B       		.uleb128 0x3b
 5471 01eb 0B       		.uleb128 0xb
 5472 01ec 49       		.uleb128 0x49
 5473 01ed 13       		.uleb128 0x13
 5474 01ee 02       		.uleb128 0x2
 5475 01ef 17       		.uleb128 0x17
 5476 01f0 00       		.byte	0
 5477 01f1 00       		.byte	0
 5478 01f2 1F       		.uleb128 0x1f
 5479 01f3 2E       		.uleb128 0x2e
 5480 01f4 01       		.byte	0x1
ARM GAS  C:\Users\JamesN4\AppData\Local\Temp\ccOIY297.s 			page 172


 5481 01f5 3F       		.uleb128 0x3f
 5482 01f6 19       		.uleb128 0x19
 5483 01f7 03       		.uleb128 0x3
 5484 01f8 0E       		.uleb128 0xe
 5485 01f9 3A       		.uleb128 0x3a
 5486 01fa 0B       		.uleb128 0xb
 5487 01fb 3B       		.uleb128 0x3b
 5488 01fc 05       		.uleb128 0x5
 5489 01fd 27       		.uleb128 0x27
 5490 01fe 19       		.uleb128 0x19
 5491 01ff 11       		.uleb128 0x11
 5492 0200 01       		.uleb128 0x1
 5493 0201 12       		.uleb128 0x12
 5494 0202 06       		.uleb128 0x6
 5495 0203 40       		.uleb128 0x40
 5496 0204 18       		.uleb128 0x18
 5497 0205 9642     		.uleb128 0x2116
 5498 0207 19       		.uleb128 0x19
 5499 0208 01       		.uleb128 0x1
 5500 0209 13       		.uleb128 0x13
 5501 020a 00       		.byte	0
 5502 020b 00       		.byte	0
 5503 020c 20       		.uleb128 0x20
 5504 020d 01       		.uleb128 0x1
 5505 020e 01       		.byte	0x1
 5506 020f 49       		.uleb128 0x49
 5507 0210 13       		.uleb128 0x13
 5508 0211 01       		.uleb128 0x1
 5509 0212 13       		.uleb128 0x13
 5510 0213 00       		.byte	0
 5511 0214 00       		.byte	0
 5512 0215 21       		.uleb128 0x21
 5513 0216 21       		.uleb128 0x21
 5514 0217 00       		.byte	0
 5515 0218 49       		.uleb128 0x49
 5516 0219 13       		.uleb128 0x13
 5517 021a 2F       		.uleb128 0x2f
 5518 021b 0B       		.uleb128 0xb
 5519 021c 00       		.byte	0
 5520 021d 00       		.byte	0
 5521 021e 22       		.uleb128 0x22
 5522 021f 26       		.uleb128 0x26
 5523 0220 00       		.byte	0
 5524 0221 49       		.uleb128 0x49
 5525 0222 13       		.uleb128 0x13
 5526 0223 00       		.byte	0
 5527 0224 00       		.byte	0
 5528 0225 23       		.uleb128 0x23
 5529 0226 34       		.uleb128 0x34
 5530 0227 00       		.byte	0
 5531 0228 03       		.uleb128 0x3
 5532 0229 0E       		.uleb128 0xe
 5533 022a 3A       		.uleb128 0x3a
 5534 022b 0B       		.uleb128 0xb
 5535 022c 3B       		.uleb128 0x3b
 5536 022d 0B       		.uleb128 0xb
 5537 022e 49       		.uleb128 0x49
ARM GAS  C:\Users\JamesN4\AppData\Local\Temp\ccOIY297.s 			page 173


 5538 022f 13       		.uleb128 0x13
 5539 0230 3F       		.uleb128 0x3f
 5540 0231 19       		.uleb128 0x19
 5541 0232 3C       		.uleb128 0x3c
 5542 0233 19       		.uleb128 0x19
 5543 0234 00       		.byte	0
 5544 0235 00       		.byte	0
 5545 0236 24       		.uleb128 0x24
 5546 0237 2E       		.uleb128 0x2e
 5547 0238 00       		.byte	0
 5548 0239 3F       		.uleb128 0x3f
 5549 023a 19       		.uleb128 0x19
 5550 023b 3C       		.uleb128 0x3c
 5551 023c 19       		.uleb128 0x19
 5552 023d 6E       		.uleb128 0x6e
 5553 023e 0E       		.uleb128 0xe
 5554 023f 03       		.uleb128 0x3
 5555 0240 0E       		.uleb128 0xe
 5556 0241 3A       		.uleb128 0x3a
 5557 0242 0B       		.uleb128 0xb
 5558 0243 3B       		.uleb128 0x3b
 5559 0244 0B       		.uleb128 0xb
 5560 0245 00       		.byte	0
 5561 0246 00       		.byte	0
 5562 0247 00       		.byte	0
 5563              		.section	.debug_loc,"",%progbits
 5564              	.Ldebug_loc0:
 5565              	.LLST0:
 5566 0000 00000000 		.4byte	.LVL1
 5567 0004 50000000 		.4byte	.LVL5
 5568 0008 0100     		.2byte	0x1
 5569 000a 50       		.byte	0x50
 5570 000b 50000000 		.4byte	.LVL5
 5571 000f 6A000000 		.4byte	.LVL10
 5572 0013 0100     		.2byte	0x1
 5573 0015 54       		.byte	0x54
 5574 0016 6A000000 		.4byte	.LVL10
 5575 001a 6C000000 		.4byte	.LVL11
 5576 001e 0100     		.2byte	0x1
 5577 0020 50       		.byte	0x50
 5578 0021 6C000000 		.4byte	.LVL11
 5579 0025 7C000000 		.4byte	.LVL14
 5580 0029 0100     		.2byte	0x1
 5581 002b 54       		.byte	0x54
 5582 002c 7C000000 		.4byte	.LVL14
 5583 0030 A0000000 		.4byte	.LVL20
 5584 0034 0400     		.2byte	0x4
 5585 0036 F3       		.byte	0xf3
 5586 0037 01       		.uleb128 0x1
 5587 0038 50       		.byte	0x50
 5588 0039 9F       		.byte	0x9f
 5589 003a A0000000 		.4byte	.LVL20
 5590 003e B2000000 		.4byte	.LVL22
 5591 0042 0100     		.2byte	0x1
 5592 0044 50       		.byte	0x50
 5593 0045 B2000000 		.4byte	.LVL22
 5594 0049 B4000000 		.4byte	.LVL23
ARM GAS  C:\Users\JamesN4\AppData\Local\Temp\ccOIY297.s 			page 174


 5595 004d 0100     		.2byte	0x1
 5596 004f 54       		.byte	0x54
 5597 0050 B4000000 		.4byte	.LVL23
 5598 0054 B6000000 		.4byte	.LVL24
 5599 0058 0100     		.2byte	0x1
 5600 005a 50       		.byte	0x50
 5601 005b B6000000 		.4byte	.LVL24
 5602 005f B8000000 		.4byte	.LVL25
 5603 0063 0100     		.2byte	0x1
 5604 0065 54       		.byte	0x54
 5605 0066 B8000000 		.4byte	.LVL25
 5606 006a BA000000 		.4byte	.LVL26
 5607 006e 0100     		.2byte	0x1
 5608 0070 50       		.byte	0x50
 5609 0071 BA000000 		.4byte	.LVL26
 5610 0075 BC000000 		.4byte	.LVL27
 5611 0079 0100     		.2byte	0x1
 5612 007b 54       		.byte	0x54
 5613 007c BC000000 		.4byte	.LVL27
 5614 0080 BE000000 		.4byte	.LVL28
 5615 0084 0100     		.2byte	0x1
 5616 0086 50       		.byte	0x50
 5617 0087 BE000000 		.4byte	.LVL28
 5618 008b C0000000 		.4byte	.LVL29
 5619 008f 0100     		.2byte	0x1
 5620 0091 54       		.byte	0x54
 5621 0092 C0000000 		.4byte	.LVL29
 5622 0096 C2000000 		.4byte	.LVL30
 5623 009a 0100     		.2byte	0x1
 5624 009c 50       		.byte	0x50
 5625 009d C2000000 		.4byte	.LVL30
 5626 00a1 C4000000 		.4byte	.LVL31
 5627 00a5 0100     		.2byte	0x1
 5628 00a7 54       		.byte	0x54
 5629 00a8 C4000000 		.4byte	.LVL31
 5630 00ac C6000000 		.4byte	.LVL32
 5631 00b0 0100     		.2byte	0x1
 5632 00b2 50       		.byte	0x50
 5633 00b3 C6000000 		.4byte	.LVL32
 5634 00b7 C8000000 		.4byte	.LVL33
 5635 00bb 0100     		.2byte	0x1
 5636 00bd 54       		.byte	0x54
 5637 00be C8000000 		.4byte	.LVL33
 5638 00c2 CA000000 		.4byte	.LVL34
 5639 00c6 0100     		.2byte	0x1
 5640 00c8 50       		.byte	0x50
 5641 00c9 CA000000 		.4byte	.LVL34
 5642 00cd CC000000 		.4byte	.LVL35
 5643 00d1 0100     		.2byte	0x1
 5644 00d3 54       		.byte	0x54
 5645 00d4 CC000000 		.4byte	.LVL35
 5646 00d8 CE000000 		.4byte	.LVL36
 5647 00dc 0100     		.2byte	0x1
 5648 00de 50       		.byte	0x50
 5649 00df CE000000 		.4byte	.LVL36
 5650 00e3 04010000 		.4byte	.LFE5
 5651 00e7 0400     		.2byte	0x4
ARM GAS  C:\Users\JamesN4\AppData\Local\Temp\ccOIY297.s 			page 175


 5652 00e9 F3       		.byte	0xf3
 5653 00ea 01       		.uleb128 0x1
 5654 00eb 50       		.byte	0x50
 5655 00ec 9F       		.byte	0x9f
 5656 00ed 00000000 		.4byte	0
 5657 00f1 00000000 		.4byte	0
 5658              	.LLST1:
 5659 00f5 00000000 		.4byte	.LVL1
 5660 00f9 54000000 		.4byte	.LVL6
 5661 00fd 0100     		.2byte	0x1
 5662 00ff 51       		.byte	0x51
 5663 0100 54000000 		.4byte	.LVL6
 5664 0104 6A000000 		.4byte	.LVL10
 5665 0108 0100     		.2byte	0x1
 5666 010a 55       		.byte	0x55
 5667 010b 6A000000 		.4byte	.LVL10
 5668 010f 76000000 		.4byte	.LVL12
 5669 0113 0100     		.2byte	0x1
 5670 0115 51       		.byte	0x51
 5671 0116 76000000 		.4byte	.LVL12
 5672 011a A0000000 		.4byte	.LVL20
 5673 011e 0100     		.2byte	0x1
 5674 0120 55       		.byte	0x55
 5675 0121 A0000000 		.4byte	.LVL20
 5676 0125 CE000000 		.4byte	.LVL36
 5677 0129 0100     		.2byte	0x1
 5678 012b 51       		.byte	0x51
 5679 012c CE000000 		.4byte	.LVL36
 5680 0130 CE000000 		.4byte	.LVL37
 5681 0134 0100     		.2byte	0x1
 5682 0136 55       		.byte	0x55
 5683 0137 CE000000 		.4byte	.LVL37
 5684 013b 04010000 		.4byte	.LFE5
 5685 013f 0400     		.2byte	0x4
 5686 0141 F3       		.byte	0xf3
 5687 0142 01       		.uleb128 0x1
 5688 0143 51       		.byte	0x51
 5689 0144 9F       		.byte	0x9f
 5690 0145 00000000 		.4byte	0
 5691 0149 00000000 		.4byte	0
 5692              	.LLST2:
 5693 014d 68000000 		.4byte	.LVL9
 5694 0151 6A000000 		.4byte	.LVL10
 5695 0155 0100     		.2byte	0x1
 5696 0157 50       		.byte	0x50
 5697 0158 96000000 		.4byte	.LVL17
 5698 015c 9A000000 		.4byte	.LVL18
 5699 0160 0100     		.2byte	0x1
 5700 0162 50       		.byte	0x50
 5701 0163 9A000000 		.4byte	.LVL18
 5702 0167 A0000000 		.4byte	.LVL20
 5703 016b 0200     		.2byte	0x2
 5704 016d 75       		.byte	0x75
 5705 016e 00       		.sleb128 0
 5706 016f 00000000 		.4byte	0
 5707 0173 00000000 		.4byte	0
 5708              	.LLST3:
ARM GAS  C:\Users\JamesN4\AppData\Local\Temp\ccOIY297.s 			page 176


 5709 0177 4C000000 		.4byte	.LVL4
 5710 017b 50000000 		.4byte	.LVL5
 5711 017f 0B00     		.2byte	0xb
 5712 0181 70       		.byte	0x70
 5713 0182 00       		.sleb128 0
 5714 0183 F7       		.byte	0xf7
 5715 0184 25       		.uleb128 0x25
 5716 0185 4F       		.byte	0x4f
 5717 0186 F7       		.byte	0xf7
 5718 0187 25       		.uleb128 0x25
 5719 0188 1B       		.byte	0x1b
 5720 0189 F7       		.byte	0xf7
 5721 018a 00       		.uleb128 0
 5722 018b 9F       		.byte	0x9f
 5723 018c 50000000 		.4byte	.LVL5
 5724 0190 6A000000 		.4byte	.LVL10
 5725 0194 0B00     		.2byte	0xb
 5726 0196 74       		.byte	0x74
 5727 0197 00       		.sleb128 0
 5728 0198 F7       		.byte	0xf7
 5729 0199 25       		.uleb128 0x25
 5730 019a 4F       		.byte	0x4f
 5731 019b F7       		.byte	0xf7
 5732 019c 25       		.uleb128 0x25
 5733 019d 1B       		.byte	0x1b
 5734 019e F7       		.byte	0xf7
 5735 019f 00       		.uleb128 0
 5736 01a0 9F       		.byte	0x9f
 5737 01a1 7C000000 		.4byte	.LVL14
 5738 01a5 80000000 		.4byte	.LVL15
 5739 01a9 0100     		.2byte	0x1
 5740 01ab 50       		.byte	0x50
 5741 01ac 80000000 		.4byte	.LVL15
 5742 01b0 96000000 		.4byte	.LVL17
 5743 01b4 0100     		.2byte	0x1
 5744 01b6 54       		.byte	0x54
 5745 01b7 00000000 		.4byte	0
 5746 01bb 00000000 		.4byte	0
 5747              	.LLST4:
 5748 01bf 0E000000 		.4byte	.LVL2
 5749 01c3 18000000 		.4byte	.LVL3
 5750 01c7 0100     		.2byte	0x1
 5751 01c9 53       		.byte	0x53
 5752 01ca B4000000 		.4byte	.LVL23
 5753 01ce B8000000 		.4byte	.LVL25
 5754 01d2 0100     		.2byte	0x1
 5755 01d4 53       		.byte	0x53
 5756 01d5 00000000 		.4byte	0
 5757 01d9 00000000 		.4byte	0
 5758              	.LLST5:
 5759 01dd 9E000000 		.4byte	.LVL19
 5760 01e1 A0000000 		.4byte	.LVL20
 5761 01e5 0200     		.2byte	0x2
 5762 01e7 30       		.byte	0x30
 5763 01e8 9F       		.byte	0x9f
 5764 01e9 B0000000 		.4byte	.LVL21
 5765 01ed B4000000 		.4byte	.LVL23
ARM GAS  C:\Users\JamesN4\AppData\Local\Temp\ccOIY297.s 			page 177


 5766 01f1 0200     		.2byte	0x2
 5767 01f3 37       		.byte	0x37
 5768 01f4 9F       		.byte	0x9f
 5769 01f5 CE000000 		.4byte	.LVL36
 5770 01f9 04010000 		.4byte	.LFE5
 5771 01fd 0100     		.2byte	0x1
 5772 01ff 50       		.byte	0x50
 5773 0200 00000000 		.4byte	0
 5774 0204 00000000 		.4byte	0
 5775              	.LLST6:
 5776 0208 00000000 		.4byte	.LVL38
 5777 020c 10000000 		.4byte	.LVL39
 5778 0210 0100     		.2byte	0x1
 5779 0212 50       		.byte	0x50
 5780 0213 10000000 		.4byte	.LVL39
 5781 0217 90000000 		.4byte	.LVL59
 5782 021b 0100     		.2byte	0x1
 5783 021d 54       		.byte	0x54
 5784 021e 90000000 		.4byte	.LVL59
 5785 0222 92000000 		.4byte	.LVL60
 5786 0226 0100     		.2byte	0x1
 5787 0228 50       		.byte	0x50
 5788 0229 92000000 		.4byte	.LVL60
 5789 022d 92000000 		.4byte	.LVL61
 5790 0231 0100     		.2byte	0x1
 5791 0233 54       		.byte	0x54
 5792 0234 92000000 		.4byte	.LVL61
 5793 0238 A8000000 		.4byte	.LFE8
 5794 023c 0400     		.2byte	0x4
 5795 023e F3       		.byte	0xf3
 5796 023f 01       		.uleb128 0x1
 5797 0240 50       		.byte	0x50
 5798 0241 9F       		.byte	0x9f
 5799 0242 00000000 		.4byte	0
 5800 0246 00000000 		.4byte	0
 5801              	.LLST7:
 5802 024a 1C000000 		.4byte	.LVL40
 5803 024e 22000000 		.4byte	.LVL41
 5804 0252 0100     		.2byte	0x1
 5805 0254 50       		.byte	0x50
 5806 0255 22000000 		.4byte	.LVL41
 5807 0259 28000000 		.4byte	.LVL42
 5808 025d 0500     		.2byte	0x5
 5809 025f 70       		.byte	0x70
 5810 0260 80FA01   		.sleb128 32000
 5811 0263 9F       		.byte	0x9f
 5812 0264 00000000 		.4byte	0
 5813 0268 00000000 		.4byte	0
 5814              	.LLST8:
 5815 026c 6C000000 		.4byte	.LVL49
 5816 0270 7E000000 		.4byte	.LVL53
 5817 0274 0100     		.2byte	0x1
 5818 0276 53       		.byte	0x53
 5819 0277 00000000 		.4byte	0
 5820 027b 00000000 		.4byte	0
 5821              	.LLST9:
 5822 027f 30000000 		.4byte	.LVL43
ARM GAS  C:\Users\JamesN4\AppData\Local\Temp\ccOIY297.s 			page 178


 5823 0283 42000000 		.4byte	.LVL44
 5824 0287 0100     		.2byte	0x1
 5825 0289 50       		.byte	0x50
 5826 028a 52000000 		.4byte	.LVL46
 5827 028e 56000000 		.4byte	.LVL47
 5828 0292 0100     		.2byte	0x1
 5829 0294 50       		.byte	0x50
 5830 0295 8A000000 		.4byte	.LVL56
 5831 0299 8E000000 		.4byte	.LVL58
 5832 029d 0100     		.2byte	0x1
 5833 029f 50       		.byte	0x50
 5834 02a0 8E000000 		.4byte	.LVL58
 5835 02a4 90000000 		.4byte	.LVL59
 5836 02a8 0200     		.2byte	0x2
 5837 02aa 74       		.byte	0x74
 5838 02ab 00       		.sleb128 0
 5839 02ac 00000000 		.4byte	0
 5840 02b0 00000000 		.4byte	0
 5841              	.LLST10:
 5842 02b4 50000000 		.4byte	.LVL45
 5843 02b8 52000000 		.4byte	.LVL46
 5844 02bc 0100     		.2byte	0x1
 5845 02be 50       		.byte	0x50
 5846 02bf 64000000 		.4byte	.LVL48
 5847 02c3 84000000 		.4byte	.LVL54
 5848 02c7 0100     		.2byte	0x1
 5849 02c9 50       		.byte	0x50
 5850 02ca 00000000 		.4byte	0
 5851 02ce 00000000 		.4byte	0
 5852              	.LLST11:
 5853 02d2 86000000 		.4byte	.LVL55
 5854 02d6 8A000000 		.4byte	.LVL56
 5855 02da 0200     		.2byte	0x2
 5856 02dc 37       		.byte	0x37
 5857 02dd 9F       		.byte	0x9f
 5858 02de 8C000000 		.4byte	.LVL57
 5859 02e2 90000000 		.4byte	.LVL59
 5860 02e6 0200     		.2byte	0x2
 5861 02e8 30       		.byte	0x30
 5862 02e9 9F       		.byte	0x9f
 5863 02ea 92000000 		.4byte	.LVL60
 5864 02ee A8000000 		.4byte	.LFE8
 5865 02f2 0100     		.2byte	0x1
 5866 02f4 50       		.byte	0x50
 5867 02f5 00000000 		.4byte	0
 5868 02f9 00000000 		.4byte	0
 5869              	.LLST12:
 5870 02fd 00000000 		.4byte	.LVL62
 5871 0301 2E000000 		.4byte	.LVL67
 5872 0305 0100     		.2byte	0x1
 5873 0307 50       		.byte	0x50
 5874 0308 2E000000 		.4byte	.LVL67
 5875 030c 72000000 		.4byte	.LVL72
 5876 0310 0400     		.2byte	0x4
 5877 0312 F3       		.byte	0xf3
 5878 0313 01       		.uleb128 0x1
 5879 0314 50       		.byte	0x50
ARM GAS  C:\Users\JamesN4\AppData\Local\Temp\ccOIY297.s 			page 179


 5880 0315 9F       		.byte	0x9f
 5881 0316 72000000 		.4byte	.LVL72
 5882 031a 84000000 		.4byte	.LVL73
 5883 031e 0100     		.2byte	0x1
 5884 0320 50       		.byte	0x50
 5885 0321 84000000 		.4byte	.LVL73
 5886 0325 90000000 		.4byte	.LVL75
 5887 0329 0400     		.2byte	0x4
 5888 032b F3       		.byte	0xf3
 5889 032c 01       		.uleb128 0x1
 5890 032d 50       		.byte	0x50
 5891 032e 9F       		.byte	0x9f
 5892 032f 90000000 		.4byte	.LVL75
 5893 0333 A2000000 		.4byte	.LVL77
 5894 0337 0100     		.2byte	0x1
 5895 0339 50       		.byte	0x50
 5896 033a A2000000 		.4byte	.LVL77
 5897 033e A4000000 		.4byte	.LVL78
 5898 0342 0400     		.2byte	0x4
 5899 0344 F3       		.byte	0xf3
 5900 0345 01       		.uleb128 0x1
 5901 0346 50       		.byte	0x50
 5902 0347 9F       		.byte	0x9f
 5903 0348 A4000000 		.4byte	.LVL78
 5904 034c A6000000 		.4byte	.LVL79
 5905 0350 0100     		.2byte	0x1
 5906 0352 50       		.byte	0x50
 5907 0353 A6000000 		.4byte	.LVL79
 5908 0357 A8000000 		.4byte	.LVL80
 5909 035b 0400     		.2byte	0x4
 5910 035d F3       		.byte	0xf3
 5911 035e 01       		.uleb128 0x1
 5912 035f 50       		.byte	0x50
 5913 0360 9F       		.byte	0x9f
 5914 0361 A8000000 		.4byte	.LVL80
 5915 0365 AA000000 		.4byte	.LVL81
 5916 0369 0100     		.2byte	0x1
 5917 036b 50       		.byte	0x50
 5918 036c AA000000 		.4byte	.LVL81
 5919 0370 AC000000 		.4byte	.LVL82
 5920 0374 0400     		.2byte	0x4
 5921 0376 F3       		.byte	0xf3
 5922 0377 01       		.uleb128 0x1
 5923 0378 50       		.byte	0x50
 5924 0379 9F       		.byte	0x9f
 5925 037a AC000000 		.4byte	.LVL82
 5926 037e AE000000 		.4byte	.LVL83
 5927 0382 0100     		.2byte	0x1
 5928 0384 50       		.byte	0x50
 5929 0385 AE000000 		.4byte	.LVL83
 5930 0389 B8000000 		.4byte	.LVL85
 5931 038d 0400     		.2byte	0x4
 5932 038f F3       		.byte	0xf3
 5933 0390 01       		.uleb128 0x1
 5934 0391 50       		.byte	0x50
 5935 0392 9F       		.byte	0x9f
 5936 0393 B8000000 		.4byte	.LVL85
ARM GAS  C:\Users\JamesN4\AppData\Local\Temp\ccOIY297.s 			page 180


 5937 0397 BA000000 		.4byte	.LVL86
 5938 039b 0100     		.2byte	0x1
 5939 039d 50       		.byte	0x50
 5940 039e BA000000 		.4byte	.LVL86
 5941 03a2 D8000000 		.4byte	.LFE7
 5942 03a6 0400     		.2byte	0x4
 5943 03a8 F3       		.byte	0xf3
 5944 03a9 01       		.uleb128 0x1
 5945 03aa 50       		.byte	0x50
 5946 03ab 9F       		.byte	0x9f
 5947 03ac 00000000 		.4byte	0
 5948 03b0 00000000 		.4byte	0
 5949              	.LLST13:
 5950 03b4 00000000 		.4byte	.LVL62
 5951 03b8 2E000000 		.4byte	.LVL67
 5952 03bc 0100     		.2byte	0x1
 5953 03be 51       		.byte	0x51
 5954 03bf 2E000000 		.4byte	.LVL67
 5955 03c3 72000000 		.4byte	.LVL72
 5956 03c7 0100     		.2byte	0x1
 5957 03c9 54       		.byte	0x54
 5958 03ca 72000000 		.4byte	.LVL72
 5959 03ce 87000000 		.4byte	.LVL74-1
 5960 03d2 0100     		.2byte	0x1
 5961 03d4 51       		.byte	0x51
 5962 03d5 87000000 		.4byte	.LVL74-1
 5963 03d9 90000000 		.4byte	.LVL75
 5964 03dd 0100     		.2byte	0x1
 5965 03df 54       		.byte	0x54
 5966 03e0 90000000 		.4byte	.LVL75
 5967 03e4 B0000000 		.4byte	.LVL84
 5968 03e8 0100     		.2byte	0x1
 5969 03ea 51       		.byte	0x51
 5970 03eb B0000000 		.4byte	.LVL84
 5971 03ef B8000000 		.4byte	.LVL85
 5972 03f3 0100     		.2byte	0x1
 5973 03f5 54       		.byte	0x54
 5974 03f6 B8000000 		.4byte	.LVL85
 5975 03fa BA000000 		.4byte	.LVL86
 5976 03fe 0100     		.2byte	0x1
 5977 0400 51       		.byte	0x51
 5978 0401 BA000000 		.4byte	.LVL86
 5979 0405 BA000000 		.4byte	.LVL87
 5980 0409 0100     		.2byte	0x1
 5981 040b 54       		.byte	0x54
 5982 040c BA000000 		.4byte	.LVL87
 5983 0410 D8000000 		.4byte	.LFE7
 5984 0414 0400     		.2byte	0x4
 5985 0416 F3       		.byte	0xf3
 5986 0417 01       		.uleb128 0x1
 5987 0418 51       		.byte	0x51
 5988 0419 9F       		.byte	0x9f
 5989 041a 00000000 		.4byte	0
 5990 041e 00000000 		.4byte	0
 5991              	.LLST14:
 5992 0422 04000000 		.4byte	.LVL63
 5993 0426 2E000000 		.4byte	.LVL67
ARM GAS  C:\Users\JamesN4\AppData\Local\Temp\ccOIY297.s 			page 181


 5994 042a 0200     		.2byte	0x2
 5995 042c 35       		.byte	0x35
 5996 042d 9F       		.byte	0x9f
 5997 042e 2E000000 		.4byte	.LVL67
 5998 0432 72000000 		.4byte	.LVL72
 5999 0436 0100     		.2byte	0x1
 6000 0438 56       		.byte	0x56
 6001 0439 72000000 		.4byte	.LVL72
 6002 043d B0000000 		.4byte	.LVL84
 6003 0441 0200     		.2byte	0x2
 6004 0443 35       		.byte	0x35
 6005 0444 9F       		.byte	0x9f
 6006 0445 B0000000 		.4byte	.LVL84
 6007 0449 B8000000 		.4byte	.LVL85
 6008 044d 0100     		.2byte	0x1
 6009 044f 56       		.byte	0x56
 6010 0450 B8000000 		.4byte	.LVL85
 6011 0454 BA000000 		.4byte	.LVL86
 6012 0458 0200     		.2byte	0x2
 6013 045a 35       		.byte	0x35
 6014 045b 9F       		.byte	0x9f
 6015 045c 00000000 		.4byte	0
 6016 0460 00000000 		.4byte	0
 6017              	.LLST15:
 6018 0464 2C000000 		.4byte	.LVL66
 6019 0468 72000000 		.4byte	.LVL72
 6020 046c 0100     		.2byte	0x1
 6021 046e 55       		.byte	0x55
 6022 046f B0000000 		.4byte	.LVL84
 6023 0473 B8000000 		.4byte	.LVL85
 6024 0477 0100     		.2byte	0x1
 6025 0479 55       		.byte	0x55
 6026 047a 00000000 		.4byte	0
 6027 047e 00000000 		.4byte	0
 6028              	.LLST16:
 6029 0482 0C000000 		.4byte	.LVL64
 6030 0486 16000000 		.4byte	.LVL65
 6031 048a 0100     		.2byte	0x1
 6032 048c 53       		.byte	0x53
 6033 048d A4000000 		.4byte	.LVL78
 6034 0491 A8000000 		.4byte	.LVL80
 6035 0495 0100     		.2byte	0x1
 6036 0497 53       		.byte	0x53
 6037 0498 00000000 		.4byte	0
 6038 049c 00000000 		.4byte	0
 6039              	.LLST17:
 6040 04a0 6E000000 		.4byte	.LVL71
 6041 04a4 72000000 		.4byte	.LVL72
 6042 04a8 0200     		.2byte	0x2
 6043 04aa 40       		.byte	0x40
 6044 04ab 9F       		.byte	0x9f
 6045 04ac 88000000 		.4byte	.LVL74
 6046 04b0 90000000 		.4byte	.LVL75
 6047 04b4 0100     		.2byte	0x1
 6048 04b6 50       		.byte	0x50
 6049 04b7 A0000000 		.4byte	.LVL76
 6050 04bb A4000000 		.4byte	.LVL78
ARM GAS  C:\Users\JamesN4\AppData\Local\Temp\ccOIY297.s 			page 182


 6051 04bf 0200     		.2byte	0x2
 6052 04c1 37       		.byte	0x37
 6053 04c2 9F       		.byte	0x9f
 6054 04c3 BA000000 		.4byte	.LVL86
 6055 04c7 D8000000 		.4byte	.LFE7
 6056 04cb 0100     		.2byte	0x1
 6057 04cd 50       		.byte	0x50
 6058 04ce 00000000 		.4byte	0
 6059 04d2 00000000 		.4byte	0
 6060              	.LLST18:
 6061 04d6 00000000 		.4byte	.LVL88
 6062 04da 26000000 		.4byte	.LVL89
 6063 04de 0200     		.2byte	0x2
 6064 04e0 30       		.byte	0x30
 6065 04e1 9F       		.byte	0x9f
 6066 04e2 26000000 		.4byte	.LVL89
 6067 04e6 30000000 		.4byte	.LFE9
 6068 04ea 0100     		.2byte	0x1
 6069 04ec 50       		.byte	0x50
 6070 04ed 00000000 		.4byte	0
 6071 04f1 00000000 		.4byte	0
 6072              	.LLST19:
 6073 04f5 00000000 		.4byte	.LVL90
 6074 04f9 1C000000 		.4byte	.LVL92
 6075 04fd 0100     		.2byte	0x1
 6076 04ff 50       		.byte	0x50
 6077 0500 1C000000 		.4byte	.LVL92
 6078 0504 26000000 		.4byte	.LVL93
 6079 0508 0300     		.2byte	0x3
 6080 050a 70       		.byte	0x70
 6081 050b 7E       		.sleb128 -2
 6082 050c 9F       		.byte	0x9f
 6083 050d 26000000 		.4byte	.LVL93
 6084 0511 2A000000 		.4byte	.LVL94
 6085 0515 0300     		.2byte	0x3
 6086 0517 70       		.byte	0x70
 6087 0518 50       		.sleb128 -48
 6088 0519 9F       		.byte	0x9f
 6089 051a 2A000000 		.4byte	.LVL94
 6090 051e 32000000 		.4byte	.LVL95
 6091 0522 0300     		.2byte	0x3
 6092 0524 70       		.byte	0x70
 6093 0525 70       		.sleb128 -16
 6094 0526 9F       		.byte	0x9f
 6095 0527 32000000 		.4byte	.LVL95
 6096 052b 3A000000 		.4byte	.LVL96
 6097 052f 0300     		.2byte	0x3
 6098 0531 70       		.byte	0x70
 6099 0532 79       		.sleb128 -7
 6100 0533 9F       		.byte	0x9f
 6101 0534 3A000000 		.4byte	.LVL96
 6102 0538 3C000000 		.4byte	.LVL97
 6103 053c 0100     		.2byte	0x1
 6104 053e 50       		.byte	0x50
 6105 053f 3C000000 		.4byte	.LVL97
 6106 0543 4C000000 		.4byte	.LFE15
 6107 0547 0400     		.2byte	0x4
ARM GAS  C:\Users\JamesN4\AppData\Local\Temp\ccOIY297.s 			page 183


 6108 0549 F3       		.byte	0xf3
 6109 054a 01       		.uleb128 0x1
 6110 054b 50       		.byte	0x50
 6111 054c 9F       		.byte	0x9f
 6112 054d 00000000 		.4byte	0
 6113 0551 00000000 		.4byte	0
 6114              	.LLST20:
 6115 0555 0A000000 		.4byte	.LVL91
 6116 0559 42000000 		.4byte	.LVL99
 6117 055d 0100     		.2byte	0x1
 6118 055f 54       		.byte	0x54
 6119 0560 42000000 		.4byte	.LVL99
 6120 0564 4C000000 		.4byte	.LFE15
 6121 0568 0100     		.2byte	0x1
 6122 056a 50       		.byte	0x50
 6123 056b 00000000 		.4byte	0
 6124 056f 00000000 		.4byte	0
 6125              	.LLST21:
 6126 0573 00000000 		.4byte	.LVL100
 6127 0577 07000000 		.4byte	.LVL101-1
 6128 057b 0100     		.2byte	0x1
 6129 057d 50       		.byte	0x50
 6130 057e 07000000 		.4byte	.LVL101-1
 6131 0582 1A000000 		.4byte	.LVL102
 6132 0586 0100     		.2byte	0x1
 6133 0588 54       		.byte	0x54
 6134 0589 1A000000 		.4byte	.LVL102
 6135 058d 20000000 		.4byte	.LVL103
 6136 0591 0400     		.2byte	0x4
 6137 0593 F3       		.byte	0xf3
 6138 0594 01       		.uleb128 0x1
 6139 0595 50       		.byte	0x50
 6140 0596 9F       		.byte	0x9f
 6141 0597 20000000 		.4byte	.LVL103
 6142 059b 26000000 		.4byte	.LVL104
 6143 059f 0100     		.2byte	0x1
 6144 05a1 54       		.byte	0x54
 6145 05a2 26000000 		.4byte	.LVL104
 6146 05a6 2C000000 		.4byte	.LFE16
 6147 05aa 0400     		.2byte	0x4
 6148 05ac F3       		.byte	0xf3
 6149 05ad 01       		.uleb128 0x1
 6150 05ae 50       		.byte	0x50
 6151 05af 9F       		.byte	0x9f
 6152 05b0 00000000 		.4byte	0
 6153 05b4 00000000 		.4byte	0
 6154              	.LLST22:
 6155 05b8 06000000 		.4byte	.LVL105
 6156 05bc 15000000 		.4byte	.LVL106-1
 6157 05c0 0100     		.2byte	0x1
 6158 05c2 50       		.byte	0x50
 6159 05c3 00000000 		.4byte	0
 6160 05c7 00000000 		.4byte	0
 6161              	.LLST23:
 6162 05cb 06000000 		.4byte	.LVL107
 6163 05cf 25000000 		.4byte	.LVL108-1
 6164 05d3 0100     		.2byte	0x1
ARM GAS  C:\Users\JamesN4\AppData\Local\Temp\ccOIY297.s 			page 184


 6165 05d5 50       		.byte	0x50
 6166 05d6 00000000 		.4byte	0
 6167 05da 00000000 		.4byte	0
 6168              	.LLST24:
 6169 05de 00000000 		.4byte	.LVL109
 6170 05e2 0A000000 		.4byte	.LVL110
 6171 05e6 0100     		.2byte	0x1
 6172 05e8 50       		.byte	0x50
 6173 05e9 0A000000 		.4byte	.LVL110
 6174 05ed 14000000 		.4byte	.LVL112
 6175 05f1 0100     		.2byte	0x1
 6176 05f3 54       		.byte	0x54
 6177 05f4 14000000 		.4byte	.LVL112
 6178 05f8 24000000 		.4byte	.LFE20
 6179 05fc 0400     		.2byte	0x4
 6180 05fe F3       		.byte	0xf3
 6181 05ff 01       		.uleb128 0x1
 6182 0600 50       		.byte	0x50
 6183 0601 9F       		.byte	0x9f
 6184 0602 00000000 		.4byte	0
 6185 0606 00000000 		.4byte	0
 6186              	.LLST25:
 6187 060a 00000000 		.4byte	.LVL113
 6188 060e 0C000000 		.4byte	.LVL114
 6189 0612 0100     		.2byte	0x1
 6190 0614 50       		.byte	0x50
 6191 0615 0C000000 		.4byte	.LVL114
 6192 0619 20000000 		.4byte	.LVL117
 6193 061d 0100     		.2byte	0x1
 6194 061f 54       		.byte	0x54
 6195 0620 20000000 		.4byte	.LVL117
 6196 0624 38000000 		.4byte	.LFE21
 6197 0628 0400     		.2byte	0x4
 6198 062a F3       		.byte	0xf3
 6199 062b 01       		.uleb128 0x1
 6200 062c 50       		.byte	0x50
 6201 062d 9F       		.byte	0x9f
 6202 062e 00000000 		.4byte	0
 6203 0632 00000000 		.4byte	0
 6204              	.LLST26:
 6205 0636 00000000 		.4byte	.LVL113
 6206 063a 0F000000 		.4byte	.LVL115-1
 6207 063e 0100     		.2byte	0x1
 6208 0640 51       		.byte	0x51
 6209 0641 0F000000 		.4byte	.LVL115-1
 6210 0645 2A000000 		.4byte	.LVL119
 6211 0649 0100     		.2byte	0x1
 6212 064b 55       		.byte	0x55
 6213 064c 2A000000 		.4byte	.LVL119
 6214 0650 38000000 		.4byte	.LFE21
 6215 0654 0400     		.2byte	0x4
 6216 0656 F3       		.byte	0xf3
 6217 0657 01       		.uleb128 0x1
 6218 0658 51       		.byte	0x51
 6219 0659 9F       		.byte	0x9f
 6220 065a 00000000 		.4byte	0
 6221 065e 00000000 		.4byte	0
ARM GAS  C:\Users\JamesN4\AppData\Local\Temp\ccOIY297.s 			page 185


 6222              	.LLST27:
 6223 0662 28000000 		.4byte	.LVL118
 6224 0666 2E000000 		.4byte	.LVL120
 6225 066a 0100     		.2byte	0x1
 6226 066c 53       		.byte	0x53
 6227 066d 2E000000 		.4byte	.LVL120
 6228 0671 30000000 		.4byte	.LVL121
 6229 0675 0100     		.2byte	0x1
 6230 0677 55       		.byte	0x55
 6231 0678 00000000 		.4byte	0
 6232 067c 00000000 		.4byte	0
 6233              	.LLST28:
 6234 0680 00000000 		.4byte	.LVL123
 6235 0684 06000000 		.4byte	.LVL124
 6236 0688 0100     		.2byte	0x1
 6237 068a 50       		.byte	0x50
 6238 068b 06000000 		.4byte	.LVL124
 6239 068f 08000000 		.4byte	.LVL125
 6240 0693 0100     		.2byte	0x1
 6241 0695 53       		.byte	0x53
 6242 0696 08000000 		.4byte	.LVL125
 6243 069a 14000000 		.4byte	.LFE22
 6244 069e 0400     		.2byte	0x4
 6245 06a0 F3       		.byte	0xf3
 6246 06a1 01       		.uleb128 0x1
 6247 06a2 50       		.byte	0x50
 6248 06a3 9F       		.byte	0x9f
 6249 06a4 00000000 		.4byte	0
 6250 06a8 00000000 		.4byte	0
 6251              	.LLST29:
 6252 06ac 00000000 		.4byte	.LVL126
 6253 06b0 0C000000 		.4byte	.LVL127
 6254 06b4 0100     		.2byte	0x1
 6255 06b6 50       		.byte	0x50
 6256 06b7 0C000000 		.4byte	.LVL127
 6257 06bb 20000000 		.4byte	.LVL130
 6258 06bf 0100     		.2byte	0x1
 6259 06c1 54       		.byte	0x54
 6260 06c2 20000000 		.4byte	.LVL130
 6261 06c6 34000000 		.4byte	.LFE23
 6262 06ca 0400     		.2byte	0x4
 6263 06cc F3       		.byte	0xf3
 6264 06cd 01       		.uleb128 0x1
 6265 06ce 50       		.byte	0x50
 6266 06cf 9F       		.byte	0x9f
 6267 06d0 00000000 		.4byte	0
 6268 06d4 00000000 		.4byte	0
 6269              	.LLST30:
 6270 06d8 00000000 		.4byte	.LVL126
 6271 06dc 0F000000 		.4byte	.LVL128-1
 6272 06e0 0100     		.2byte	0x1
 6273 06e2 51       		.byte	0x51
 6274 06e3 0F000000 		.4byte	.LVL128-1
 6275 06e7 2A000000 		.4byte	.LVL132
 6276 06eb 0100     		.2byte	0x1
 6277 06ed 55       		.byte	0x55
 6278 06ee 2A000000 		.4byte	.LVL132
ARM GAS  C:\Users\JamesN4\AppData\Local\Temp\ccOIY297.s 			page 186


 6279 06f2 34000000 		.4byte	.LFE23
 6280 06f6 0400     		.2byte	0x4
 6281 06f8 F3       		.byte	0xf3
 6282 06f9 01       		.uleb128 0x1
 6283 06fa 51       		.byte	0x51
 6284 06fb 9F       		.byte	0x9f
 6285 06fc 00000000 		.4byte	0
 6286 0700 00000000 		.4byte	0
 6287              	.LLST31:
 6288 0704 28000000 		.4byte	.LVL131
 6289 0708 2C000000 		.4byte	.LVL133
 6290 070c 0100     		.2byte	0x1
 6291 070e 53       		.byte	0x53
 6292 070f 2C000000 		.4byte	.LVL133
 6293 0713 2E000000 		.4byte	.LVL134
 6294 0717 0100     		.2byte	0x1
 6295 0719 55       		.byte	0x55
 6296 071a 00000000 		.4byte	0
 6297 071e 00000000 		.4byte	0
 6298              	.LLST32:
 6299 0722 00000000 		.4byte	.LVL135
 6300 0726 0A000000 		.4byte	.LVL136
 6301 072a 0100     		.2byte	0x1
 6302 072c 50       		.byte	0x50
 6303 072d 0A000000 		.4byte	.LVL136
 6304 0731 14000000 		.4byte	.LVL138
 6305 0735 0100     		.2byte	0x1
 6306 0737 54       		.byte	0x54
 6307 0738 14000000 		.4byte	.LVL138
 6308 073c 24000000 		.4byte	.LFE24
 6309 0740 0400     		.2byte	0x4
 6310 0742 F3       		.byte	0xf3
 6311 0743 01       		.uleb128 0x1
 6312 0744 50       		.byte	0x50
 6313 0745 9F       		.byte	0x9f
 6314 0746 00000000 		.4byte	0
 6315 074a 00000000 		.4byte	0
 6316              	.LLST33:
 6317 074e 00000000 		.4byte	.LVL139
 6318 0752 10000000 		.4byte	.LVL140
 6319 0756 0100     		.2byte	0x1
 6320 0758 50       		.byte	0x50
 6321 0759 10000000 		.4byte	.LVL140
 6322 075d 36000000 		.4byte	.LVL144
 6323 0761 0100     		.2byte	0x1
 6324 0763 54       		.byte	0x54
 6325 0764 36000000 		.4byte	.LVL144
 6326 0768 3C000000 		.4byte	.LFE25
 6327 076c 0400     		.2byte	0x4
 6328 076e F3       		.byte	0xf3
 6329 076f 01       		.uleb128 0x1
 6330 0770 50       		.byte	0x50
 6331 0771 9F       		.byte	0x9f
 6332 0772 00000000 		.4byte	0
 6333 0776 00000000 		.4byte	0
 6334              	.LLST34:
 6335 077a 00000000 		.4byte	.LVL145
ARM GAS  C:\Users\JamesN4\AppData\Local\Temp\ccOIY297.s 			page 187


 6336 077e 07000000 		.4byte	.LVL146-1
 6337 0782 0100     		.2byte	0x1
 6338 0784 50       		.byte	0x50
 6339 0785 07000000 		.4byte	.LVL146-1
 6340 0789 3E000000 		.4byte	.LVL150
 6341 078d 0100     		.2byte	0x1
 6342 078f 54       		.byte	0x54
 6343 0790 3E000000 		.4byte	.LVL150
 6344 0794 44000000 		.4byte	.LFE26
 6345 0798 0400     		.2byte	0x4
 6346 079a F3       		.byte	0xf3
 6347 079b 01       		.uleb128 0x1
 6348 079c 50       		.byte	0x50
 6349 079d 9F       		.byte	0x9f
 6350 079e 00000000 		.4byte	0
 6351 07a2 00000000 		.4byte	0
 6352              	.LLST35:
 6353 07a6 00000000 		.4byte	.LVL151
 6354 07aa 06000000 		.4byte	.LVL152
 6355 07ae 0100     		.2byte	0x1
 6356 07b0 50       		.byte	0x50
 6357 07b1 06000000 		.4byte	.LVL152
 6358 07b5 28000000 		.4byte	.LVL159
 6359 07b9 0100     		.2byte	0x1
 6360 07bb 55       		.byte	0x55
 6361 07bc 28000000 		.4byte	.LVL159
 6362 07c0 34000000 		.4byte	.LFE27
 6363 07c4 0400     		.2byte	0x4
 6364 07c6 F3       		.byte	0xf3
 6365 07c7 01       		.uleb128 0x1
 6366 07c8 50       		.byte	0x50
 6367 07c9 9F       		.byte	0x9f
 6368 07ca 00000000 		.4byte	0
 6369 07ce 00000000 		.4byte	0
 6370              	.LLST36:
 6371 07d2 22000000 		.4byte	.LVL157
 6372 07d6 26000000 		.4byte	.LVL158
 6373 07da 0100     		.2byte	0x1
 6374 07dc 51       		.byte	0x51
 6375 07dd 26000000 		.4byte	.LVL158
 6376 07e1 28000000 		.4byte	.LVL159
 6377 07e5 0100     		.2byte	0x1
 6378 07e7 53       		.byte	0x53
 6379 07e8 28000000 		.4byte	.LVL159
 6380 07ec 2A000000 		.4byte	.LVL160
 6381 07f0 0100     		.2byte	0x1
 6382 07f2 55       		.byte	0x55
 6383 07f3 00000000 		.4byte	0
 6384 07f7 00000000 		.4byte	0
 6385              	.LLST37:
 6386 07fb 00000000 		.4byte	.LVL161
 6387 07ff 0C000000 		.4byte	.LVL162
 6388 0803 0100     		.2byte	0x1
 6389 0805 50       		.byte	0x50
 6390 0806 0C000000 		.4byte	.LVL162
 6391 080a 28000000 		.4byte	.LVL166
 6392 080e 0100     		.2byte	0x1
ARM GAS  C:\Users\JamesN4\AppData\Local\Temp\ccOIY297.s 			page 188


 6393 0810 55       		.byte	0x55
 6394 0811 28000000 		.4byte	.LVL166
 6395 0815 54000000 		.4byte	.LFE29
 6396 0819 0400     		.2byte	0x4
 6397 081b F3       		.byte	0xf3
 6398 081c 01       		.uleb128 0x1
 6399 081d 50       		.byte	0x50
 6400 081e 9F       		.byte	0x9f
 6401 081f 00000000 		.4byte	0
 6402 0823 00000000 		.4byte	0
 6403              	.LLST38:
 6404 0827 00000000 		.4byte	.LVL161
 6405 082b 0F000000 		.4byte	.LVL163-1
 6406 082f 0100     		.2byte	0x1
 6407 0831 51       		.byte	0x51
 6408 0832 0F000000 		.4byte	.LVL163-1
 6409 0836 30000000 		.4byte	.LVL168
 6410 083a 0100     		.2byte	0x1
 6411 083c 54       		.byte	0x54
 6412 083d 30000000 		.4byte	.LVL168
 6413 0841 54000000 		.4byte	.LFE29
 6414 0845 0400     		.2byte	0x4
 6415 0847 F3       		.byte	0xf3
 6416 0848 01       		.uleb128 0x1
 6417 0849 51       		.byte	0x51
 6418 084a 9F       		.byte	0x9f
 6419 084b 00000000 		.4byte	0
 6420 084f 00000000 		.4byte	0
 6421              	.LLST39:
 6422 0853 26000000 		.4byte	.LVL165
 6423 0857 36000000 		.4byte	.LVL169
 6424 085b 0100     		.2byte	0x1
 6425 085d 53       		.byte	0x53
 6426 085e 00000000 		.4byte	0
 6427 0862 00000000 		.4byte	0
 6428              	.LLST40:
 6429 0866 00000000 		.4byte	.LVL171
 6430 086a 06000000 		.4byte	.LVL172
 6431 086e 0100     		.2byte	0x1
 6432 0870 50       		.byte	0x50
 6433 0871 06000000 		.4byte	.LVL172
 6434 0875 24000000 		.4byte	.LVL178
 6435 0879 0100     		.2byte	0x1
 6436 087b 54       		.byte	0x54
 6437 087c 24000000 		.4byte	.LVL178
 6438 0880 30000000 		.4byte	.LFE30
 6439 0884 0400     		.2byte	0x4
 6440 0886 F3       		.byte	0xf3
 6441 0887 01       		.uleb128 0x1
 6442 0888 50       		.byte	0x50
 6443 0889 9F       		.byte	0x9f
 6444 088a 00000000 		.4byte	0
 6445 088e 00000000 		.4byte	0
 6446              	.LLST41:
 6447 0892 12000000 		.4byte	.LVL174
 6448 0896 18000000 		.4byte	.LVL175
 6449 089a 0100     		.2byte	0x1
ARM GAS  C:\Users\JamesN4\AppData\Local\Temp\ccOIY297.s 			page 189


 6450 089c 50       		.byte	0x50
 6451 089d 18000000 		.4byte	.LVL175
 6452 08a1 22000000 		.4byte	.LVL176
 6453 08a5 0100     		.2byte	0x1
 6454 08a7 52       		.byte	0x52
 6455 08a8 22000000 		.4byte	.LVL176
 6456 08ac 24000000 		.4byte	.LVL177
 6457 08b0 0100     		.2byte	0x1
 6458 08b2 50       		.byte	0x50
 6459 08b3 00000000 		.4byte	0
 6460 08b7 00000000 		.4byte	0
 6461              	.LLST42:
 6462 08bb 00000000 		.4byte	.LVL179
 6463 08bf 0A000000 		.4byte	.LVL180
 6464 08c3 0100     		.2byte	0x1
 6465 08c5 50       		.byte	0x50
 6466 08c6 0A000000 		.4byte	.LVL180
 6467 08ca 14000000 		.4byte	.LVL182
 6468 08ce 0100     		.2byte	0x1
 6469 08d0 54       		.byte	0x54
 6470 08d1 14000000 		.4byte	.LVL182
 6471 08d5 20000000 		.4byte	.LFE32
 6472 08d9 0400     		.2byte	0x4
 6473 08db F3       		.byte	0xf3
 6474 08dc 01       		.uleb128 0x1
 6475 08dd 50       		.byte	0x50
 6476 08de 9F       		.byte	0x9f
 6477 08df 00000000 		.4byte	0
 6478 08e3 00000000 		.4byte	0
 6479              	.LLST43:
 6480 08e7 00000000 		.4byte	.LVL183
 6481 08eb 14000000 		.4byte	.LVL185
 6482 08ef 0100     		.2byte	0x1
 6483 08f1 50       		.byte	0x50
 6484 08f2 14000000 		.4byte	.LVL185
 6485 08f6 1A000000 		.4byte	.LVL187
 6486 08fa 0400     		.2byte	0x4
 6487 08fc F3       		.byte	0xf3
 6488 08fd 01       		.uleb128 0x1
 6489 08fe 50       		.byte	0x50
 6490 08ff 9F       		.byte	0x9f
 6491 0900 1A000000 		.4byte	.LVL187
 6492 0904 1E000000 		.4byte	.LVL188
 6493 0908 0100     		.2byte	0x1
 6494 090a 50       		.byte	0x50
 6495 090b 1E000000 		.4byte	.LVL188
 6496 090f 22000000 		.4byte	.LVL190
 6497 0913 0400     		.2byte	0x4
 6498 0915 F3       		.byte	0xf3
 6499 0916 01       		.uleb128 0x1
 6500 0917 50       		.byte	0x50
 6501 0918 9F       		.byte	0x9f
 6502 0919 22000000 		.4byte	.LVL190
 6503 091d 26000000 		.4byte	.LVL191
 6504 0921 0100     		.2byte	0x1
 6505 0923 50       		.byte	0x50
 6506 0924 26000000 		.4byte	.LVL191
ARM GAS  C:\Users\JamesN4\AppData\Local\Temp\ccOIY297.s 			page 190


 6507 0928 28000000 		.4byte	.LVL192
 6508 092c 0400     		.2byte	0x4
 6509 092e F3       		.byte	0xf3
 6510 092f 01       		.uleb128 0x1
 6511 0930 50       		.byte	0x50
 6512 0931 9F       		.byte	0x9f
 6513 0932 28000000 		.4byte	.LVL192
 6514 0936 2A000000 		.4byte	.LVL193
 6515 093a 0100     		.2byte	0x1
 6516 093c 50       		.byte	0x50
 6517 093d 2A000000 		.4byte	.LVL193
 6518 0941 3C000000 		.4byte	.LFE33
 6519 0945 0400     		.2byte	0x4
 6520 0947 F3       		.byte	0xf3
 6521 0948 01       		.uleb128 0x1
 6522 0949 50       		.byte	0x50
 6523 094a 9F       		.byte	0x9f
 6524 094b 00000000 		.4byte	0
 6525 094f 00000000 		.4byte	0
 6526              	.LLST44:
 6527 0953 02000000 		.4byte	.LVL184
 6528 0957 18000000 		.4byte	.LVL186
 6529 095b 0200     		.2byte	0x2
 6530 095d 30       		.byte	0x30
 6531 095e 9F       		.byte	0x9f
 6532 095f 18000000 		.4byte	.LVL186
 6533 0963 1A000000 		.4byte	.LVL187
 6534 0967 0100     		.2byte	0x1
 6535 0969 50       		.byte	0x50
 6536 096a 1A000000 		.4byte	.LVL187
 6537 096e 20000000 		.4byte	.LVL189
 6538 0972 0200     		.2byte	0x2
 6539 0974 30       		.byte	0x30
 6540 0975 9F       		.byte	0x9f
 6541 0976 20000000 		.4byte	.LVL189
 6542 097a 22000000 		.4byte	.LVL190
 6543 097e 0100     		.2byte	0x1
 6544 0980 50       		.byte	0x50
 6545 0981 22000000 		.4byte	.LVL190
 6546 0985 26000000 		.4byte	.LVL191
 6547 0989 0200     		.2byte	0x2
 6548 098b 30       		.byte	0x30
 6549 098c 9F       		.byte	0x9f
 6550 098d 26000000 		.4byte	.LVL191
 6551 0991 28000000 		.4byte	.LVL192
 6552 0995 0100     		.2byte	0x1
 6553 0997 50       		.byte	0x50
 6554 0998 28000000 		.4byte	.LVL192
 6555 099c 30000000 		.4byte	.LVL195
 6556 09a0 0200     		.2byte	0x2
 6557 09a2 30       		.byte	0x30
 6558 09a3 9F       		.byte	0x9f
 6559 09a4 30000000 		.4byte	.LVL195
 6560 09a8 3C000000 		.4byte	.LFE33
 6561 09ac 0100     		.2byte	0x1
 6562 09ae 50       		.byte	0x50
 6563 09af 00000000 		.4byte	0
ARM GAS  C:\Users\JamesN4\AppData\Local\Temp\ccOIY297.s 			page 191


 6564 09b3 00000000 		.4byte	0
 6565              	.LLST45:
 6566 09b7 62000000 		.4byte	.LVL203
 6567 09bb 6E000000 		.4byte	.LVL205
 6568 09bf 0100     		.2byte	0x1
 6569 09c1 54       		.byte	0x54
 6570 09c2 00000000 		.4byte	0
 6571 09c6 00000000 		.4byte	0
 6572              	.LLST46:
 6573 09ca 20000000 		.4byte	.LVL210
 6574 09ce 3A000000 		.4byte	.LVL214
 6575 09d2 0100     		.2byte	0x1
 6576 09d4 54       		.byte	0x54
 6577 09d5 00000000 		.4byte	0
 6578 09d9 00000000 		.4byte	0
 6579              	.LLST47:
 6580 09dd 00000000 		.4byte	.LVL215
 6581 09e1 07000000 		.4byte	.LVL216-1
 6582 09e5 0100     		.2byte	0x1
 6583 09e7 50       		.byte	0x50
 6584 09e8 07000000 		.4byte	.LVL216-1
 6585 09ec 20000000 		.4byte	.LVL220
 6586 09f0 0100     		.2byte	0x1
 6587 09f2 54       		.byte	0x54
 6588 09f3 20000000 		.4byte	.LVL220
 6589 09f7 38000000 		.4byte	.LFE11
 6590 09fb 0400     		.2byte	0x4
 6591 09fd F3       		.byte	0xf3
 6592 09fe 01       		.uleb128 0x1
 6593 09ff 50       		.byte	0x50
 6594 0a00 9F       		.byte	0x9f
 6595 0a01 00000000 		.4byte	0
 6596 0a05 00000000 		.4byte	0
 6597              	.LLST48:
 6598 0a09 12000000 		.4byte	.LVL218
 6599 0a0d 30000000 		.4byte	.LVL222
 6600 0a11 0100     		.2byte	0x1
 6601 0a13 55       		.byte	0x55
 6602 0a14 00000000 		.4byte	0
 6603 0a18 00000000 		.4byte	0
 6604              	.LLST49:
 6605 0a1c 1C000000 		.4byte	.LVL226
 6606 0a20 36000000 		.4byte	.LVL230
 6607 0a24 0100     		.2byte	0x1
 6608 0a26 54       		.byte	0x54
 6609 0a27 00000000 		.4byte	0
 6610 0a2b 00000000 		.4byte	0
 6611              	.LLST50:
 6612 0a2f 00000000 		.4byte	.LVL231
 6613 0a33 07000000 		.4byte	.LVL232-1
 6614 0a37 0100     		.2byte	0x1
 6615 0a39 50       		.byte	0x50
 6616 0a3a 07000000 		.4byte	.LVL232-1
 6617 0a3e 20000000 		.4byte	.LVL239
 6618 0a42 0100     		.2byte	0x1
 6619 0a44 55       		.byte	0x55
 6620 0a45 20000000 		.4byte	.LVL239
ARM GAS  C:\Users\JamesN4\AppData\Local\Temp\ccOIY297.s 			page 192


 6621 0a49 2A000000 		.4byte	.LVL240
 6622 0a4d 0100     		.2byte	0x1
 6623 0a4f 50       		.byte	0x50
 6624 0a50 2A000000 		.4byte	.LVL240
 6625 0a54 4C000000 		.4byte	.LFE35
 6626 0a58 0A00     		.2byte	0xa
 6627 0a5a F3       		.byte	0xf3
 6628 0a5b 01       		.uleb128 0x1
 6629 0a5c 50       		.byte	0x50
 6630 0a5d 0C       		.byte	0xc
 6631 0a5e 04040400 		.4byte	0x40404
 6632 0a62 1A       		.byte	0x1a
 6633 0a63 9F       		.byte	0x9f
 6634 0a64 00000000 		.4byte	0
 6635 0a68 00000000 		.4byte	0
 6636              	.LLST51:
 6637 0a6c 0A000000 		.4byte	.LVL233
 6638 0a70 3C000000 		.4byte	.LVL243
 6639 0a74 0100     		.2byte	0x1
 6640 0a76 54       		.byte	0x54
 6641 0a77 00000000 		.4byte	0
 6642 0a7b 00000000 		.4byte	0
 6643              	.LLST52:
 6644 0a7f 12000000 		.4byte	.LVL235
 6645 0a83 1A000000 		.4byte	.LVL237
 6646 0a87 0200     		.2byte	0x2
 6647 0a89 31       		.byte	0x31
 6648 0a8a 9F       		.byte	0x9f
 6649 0a8b 1C000000 		.4byte	.LVL238
 6650 0a8f 35000000 		.4byte	.LVL241-1
 6651 0a93 0100     		.2byte	0x1
 6652 0a95 51       		.byte	0x51
 6653 0a96 00000000 		.4byte	0
 6654 0a9a 00000000 		.4byte	0
 6655              	.LLST53:
 6656 0a9e 00000000 		.4byte	.LVL244
 6657 0aa2 08000000 		.4byte	.LVL245
 6658 0aa6 0100     		.2byte	0x1
 6659 0aa8 50       		.byte	0x50
 6660 0aa9 08000000 		.4byte	.LVL245
 6661 0aad 20000000 		.4byte	.LFE36
 6662 0ab1 0400     		.2byte	0x4
 6663 0ab3 F3       		.byte	0xf3
 6664 0ab4 01       		.uleb128 0x1
 6665 0ab5 50       		.byte	0x50
 6666 0ab6 9F       		.byte	0x9f
 6667 0ab7 00000000 		.4byte	0
 6668 0abb 00000000 		.4byte	0
 6669              	.LLST54:
 6670 0abf 00000000 		.4byte	.LVL246
 6671 0ac3 08000000 		.4byte	.LVL248
 6672 0ac7 0100     		.2byte	0x1
 6673 0ac9 50       		.byte	0x50
 6674 0aca 08000000 		.4byte	.LVL248
 6675 0ace 12000000 		.4byte	.LVL250
 6676 0ad2 0400     		.2byte	0x4
 6677 0ad4 F3       		.byte	0xf3
ARM GAS  C:\Users\JamesN4\AppData\Local\Temp\ccOIY297.s 			page 193


 6678 0ad5 01       		.uleb128 0x1
 6679 0ad6 50       		.byte	0x50
 6680 0ad7 9F       		.byte	0x9f
 6681 0ad8 12000000 		.4byte	.LVL250
 6682 0adc 14000000 		.4byte	.LVL251
 6683 0ae0 0100     		.2byte	0x1
 6684 0ae2 50       		.byte	0x50
 6685 0ae3 14000000 		.4byte	.LVL251
 6686 0ae7 20000000 		.4byte	.LFE37
 6687 0aeb 0400     		.2byte	0x4
 6688 0aed F3       		.byte	0xf3
 6689 0aee 01       		.uleb128 0x1
 6690 0aef 50       		.byte	0x50
 6691 0af0 9F       		.byte	0x9f
 6692 0af1 00000000 		.4byte	0
 6693 0af5 00000000 		.4byte	0
 6694              	.LLST55:
 6695 0af9 00000000 		.4byte	.LVL246
 6696 0afd 17000000 		.4byte	.LVL252-1
 6697 0b01 0100     		.2byte	0x1
 6698 0b03 51       		.byte	0x51
 6699 0b04 17000000 		.4byte	.LVL252-1
 6700 0b08 20000000 		.4byte	.LFE37
 6701 0b0c 0400     		.2byte	0x4
 6702 0b0e F3       		.byte	0xf3
 6703 0b0f 01       		.uleb128 0x1
 6704 0b10 51       		.byte	0x51
 6705 0b11 9F       		.byte	0x9f
 6706 0b12 00000000 		.4byte	0
 6707 0b16 00000000 		.4byte	0
 6708              	.LLST56:
 6709 0b1a 02000000 		.4byte	.LVL247
 6710 0b1e 0E000000 		.4byte	.LVL249
 6711 0b22 0200     		.2byte	0x2
 6712 0b24 30       		.byte	0x30
 6713 0b25 9F       		.byte	0x9f
 6714 0b26 0E000000 		.4byte	.LVL249
 6715 0b2a 12000000 		.4byte	.LVL250
 6716 0b2e 0100     		.2byte	0x1
 6717 0b30 50       		.byte	0x50
 6718 0b31 12000000 		.4byte	.LVL250
 6719 0b35 1A000000 		.4byte	.LVL253
 6720 0b39 0200     		.2byte	0x2
 6721 0b3b 30       		.byte	0x30
 6722 0b3c 9F       		.byte	0x9f
 6723 0b3d 1A000000 		.4byte	.LVL253
 6724 0b41 20000000 		.4byte	.LFE37
 6725 0b45 0100     		.2byte	0x1
 6726 0b47 50       		.byte	0x50
 6727 0b48 00000000 		.4byte	0
 6728 0b4c 00000000 		.4byte	0
 6729              	.LLST57:
 6730 0b50 00000000 		.4byte	.LVL254
 6731 0b54 08000000 		.4byte	.LVL256
 6732 0b58 0100     		.2byte	0x1
 6733 0b5a 50       		.byte	0x50
 6734 0b5b 08000000 		.4byte	.LVL256
ARM GAS  C:\Users\JamesN4\AppData\Local\Temp\ccOIY297.s 			page 194


 6735 0b5f 10000000 		.4byte	.LVL258
 6736 0b63 0400     		.2byte	0x4
 6737 0b65 F3       		.byte	0xf3
 6738 0b66 01       		.uleb128 0x1
 6739 0b67 50       		.byte	0x50
 6740 0b68 9F       		.byte	0x9f
 6741 0b69 10000000 		.4byte	.LVL258
 6742 0b6d 12000000 		.4byte	.LVL259
 6743 0b71 0100     		.2byte	0x1
 6744 0b73 50       		.byte	0x50
 6745 0b74 12000000 		.4byte	.LVL259
 6746 0b78 20000000 		.4byte	.LFE38
 6747 0b7c 0400     		.2byte	0x4
 6748 0b7e F3       		.byte	0xf3
 6749 0b7f 01       		.uleb128 0x1
 6750 0b80 50       		.byte	0x50
 6751 0b81 9F       		.byte	0x9f
 6752 0b82 00000000 		.4byte	0
 6753 0b86 00000000 		.4byte	0
 6754              	.LLST58:
 6755 0b8a 02000000 		.4byte	.LVL255
 6756 0b8e 0E000000 		.4byte	.LVL257
 6757 0b92 0200     		.2byte	0x2
 6758 0b94 30       		.byte	0x30
 6759 0b95 9F       		.byte	0x9f
 6760 0b96 0E000000 		.4byte	.LVL257
 6761 0b9a 10000000 		.4byte	.LVL258
 6762 0b9e 0100     		.2byte	0x1
 6763 0ba0 50       		.byte	0x50
 6764 0ba1 10000000 		.4byte	.LVL258
 6765 0ba5 18000000 		.4byte	.LVL261
 6766 0ba9 0200     		.2byte	0x2
 6767 0bab 30       		.byte	0x30
 6768 0bac 9F       		.byte	0x9f
 6769 0bad 18000000 		.4byte	.LVL261
 6770 0bb1 20000000 		.4byte	.LFE38
 6771 0bb5 0100     		.2byte	0x1
 6772 0bb7 50       		.byte	0x50
 6773 0bb8 00000000 		.4byte	0
 6774 0bbc 00000000 		.4byte	0
 6775              	.LLST59:
 6776 0bc0 00000000 		.4byte	.LVL262
 6777 0bc4 08000000 		.4byte	.LVL263
 6778 0bc8 0100     		.2byte	0x1
 6779 0bca 50       		.byte	0x50
 6780 0bcb 08000000 		.4byte	.LVL263
 6781 0bcf 1E000000 		.4byte	.LVL264
 6782 0bd3 0400     		.2byte	0x4
 6783 0bd5 F3       		.byte	0xf3
 6784 0bd6 01       		.uleb128 0x1
 6785 0bd7 50       		.byte	0x50
 6786 0bd8 9F       		.byte	0x9f
 6787 0bd9 1E000000 		.4byte	.LVL264
 6788 0bdd 20000000 		.4byte	.LVL265
 6789 0be1 0100     		.2byte	0x1
 6790 0be3 50       		.byte	0x50
 6791 0be4 20000000 		.4byte	.LVL265
ARM GAS  C:\Users\JamesN4\AppData\Local\Temp\ccOIY297.s 			page 195


 6792 0be8 34000000 		.4byte	.LFE39
 6793 0bec 0400     		.2byte	0x4
 6794 0bee F3       		.byte	0xf3
 6795 0bef 01       		.uleb128 0x1
 6796 0bf0 50       		.byte	0x50
 6797 0bf1 9F       		.byte	0x9f
 6798 0bf2 00000000 		.4byte	0
 6799 0bf6 00000000 		.4byte	0
 6800              	.LLST60:
 6801 0bfa 00000000 		.4byte	.LVL267
 6802 0bfe 08000000 		.4byte	.LVL268
 6803 0c02 0100     		.2byte	0x1
 6804 0c04 50       		.byte	0x50
 6805 0c05 08000000 		.4byte	.LVL268
 6806 0c09 16000000 		.4byte	.LVL269
 6807 0c0d 0400     		.2byte	0x4
 6808 0c0f F3       		.byte	0xf3
 6809 0c10 01       		.uleb128 0x1
 6810 0c11 50       		.byte	0x50
 6811 0c12 9F       		.byte	0x9f
 6812 0c13 16000000 		.4byte	.LVL269
 6813 0c17 18000000 		.4byte	.LVL270
 6814 0c1b 0100     		.2byte	0x1
 6815 0c1d 50       		.byte	0x50
 6816 0c1e 18000000 		.4byte	.LVL270
 6817 0c22 28000000 		.4byte	.LFE40
 6818 0c26 0400     		.2byte	0x4
 6819 0c28 F3       		.byte	0xf3
 6820 0c29 01       		.uleb128 0x1
 6821 0c2a 50       		.byte	0x50
 6822 0c2b 9F       		.byte	0x9f
 6823 0c2c 00000000 		.4byte	0
 6824 0c30 00000000 		.4byte	0
 6825              	.LLST61:
 6826 0c34 00000000 		.4byte	.LVL278
 6827 0c38 09000000 		.4byte	.LVL279-1
 6828 0c3c 0100     		.2byte	0x1
 6829 0c3e 50       		.byte	0x50
 6830 0c3f 09000000 		.4byte	.LVL279-1
 6831 0c43 2E000000 		.4byte	.LVL284
 6832 0c47 0100     		.2byte	0x1
 6833 0c49 54       		.byte	0x54
 6834 0c4a 2E000000 		.4byte	.LVL284
 6835 0c4e 35000000 		.4byte	.LVL285-1
 6836 0c52 0100     		.2byte	0x1
 6837 0c54 50       		.byte	0x50
 6838 0c55 35000000 		.4byte	.LVL285-1
 6839 0c59 5E000000 		.4byte	.LVL290
 6840 0c5d 0100     		.2byte	0x1
 6841 0c5f 54       		.byte	0x54
 6842 0c60 5E000000 		.4byte	.LVL290
 6843 0c64 60000000 		.4byte	.LFE42
 6844 0c68 0400     		.2byte	0x4
 6845 0c6a F3       		.byte	0xf3
 6846 0c6b 01       		.uleb128 0x1
 6847 0c6c 50       		.byte	0x50
 6848 0c6d 9F       		.byte	0x9f
ARM GAS  C:\Users\JamesN4\AppData\Local\Temp\ccOIY297.s 			page 196


 6849 0c6e 00000000 		.4byte	0
 6850 0c72 00000000 		.4byte	0
 6851              	.LLST62:
 6852 0c76 00000000 		.4byte	.LVL291
 6853 0c7a 0F000000 		.4byte	.LVL292-1
 6854 0c7e 0100     		.2byte	0x1
 6855 0c80 50       		.byte	0x50
 6856 0c81 0F000000 		.4byte	.LVL292-1
 6857 0c85 5A000000 		.4byte	.LVL301
 6858 0c89 0100     		.2byte	0x1
 6859 0c8b 54       		.byte	0x54
 6860 0c8c 5A000000 		.4byte	.LVL301
 6861 0c90 6C000000 		.4byte	.LFE46
 6862 0c94 0400     		.2byte	0x4
 6863 0c96 F3       		.byte	0xf3
 6864 0c97 01       		.uleb128 0x1
 6865 0c98 50       		.byte	0x50
 6866 0c99 9F       		.byte	0x9f
 6867 0c9a 00000000 		.4byte	0
 6868 0c9e 00000000 		.4byte	0
 6869              	.LLST63:
 6870 0ca2 00000000 		.4byte	.LVL291
 6871 0ca6 0F000000 		.4byte	.LVL292-1
 6872 0caa 0100     		.2byte	0x1
 6873 0cac 51       		.byte	0x51
 6874 0cad 0F000000 		.4byte	.LVL292-1
 6875 0cb1 6C000000 		.4byte	.LFE46
 6876 0cb5 0400     		.2byte	0x4
 6877 0cb7 F3       		.byte	0xf3
 6878 0cb8 01       		.uleb128 0x1
 6879 0cb9 51       		.byte	0x51
 6880 0cba 9F       		.byte	0x9f
 6881 0cbb 00000000 		.4byte	0
 6882 0cbf 00000000 		.4byte	0
 6883              	.LLST64:
 6884 0cc3 00000000 		.4byte	.LVL291
 6885 0cc7 0F000000 		.4byte	.LVL292-1
 6886 0ccb 0100     		.2byte	0x1
 6887 0ccd 52       		.byte	0x52
 6888 0cce 0F000000 		.4byte	.LVL292-1
 6889 0cd2 5A000000 		.4byte	.LVL302
 6890 0cd6 0100     		.2byte	0x1
 6891 0cd8 55       		.byte	0x55
 6892 0cd9 5A000000 		.4byte	.LVL302
 6893 0cdd 6C000000 		.4byte	.LFE46
 6894 0ce1 0400     		.2byte	0x4
 6895 0ce3 F3       		.byte	0xf3
 6896 0ce4 01       		.uleb128 0x1
 6897 0ce5 52       		.byte	0x52
 6898 0ce6 9F       		.byte	0x9f
 6899 0ce7 00000000 		.4byte	0
 6900 0ceb 00000000 		.4byte	0
 6901              	.LLST65:
 6902 0cef 24000000 		.4byte	.LVL293
 6903 0cf3 2A000000 		.4byte	.LVL294
 6904 0cf7 0100     		.2byte	0x1
 6905 0cf9 50       		.byte	0x50
ARM GAS  C:\Users\JamesN4\AppData\Local\Temp\ccOIY297.s 			page 197


 6906 0cfa 2E000000 		.4byte	.LVL295
 6907 0cfe 34000000 		.4byte	.LVL296
 6908 0d02 0100     		.2byte	0x1
 6909 0d04 50       		.byte	0x50
 6910 0d05 3A000000 		.4byte	.LVL297
 6911 0d09 54000000 		.4byte	.LVL299
 6912 0d0d 0100     		.2byte	0x1
 6913 0d0f 56       		.byte	0x56
 6914 0d10 00000000 		.4byte	0
 6915 0d14 00000000 		.4byte	0
 6916              	.LLST66:
 6917 0d18 00000000 		.4byte	.LVL303
 6918 0d1c 0F000000 		.4byte	.LVL304-1
 6919 0d20 0100     		.2byte	0x1
 6920 0d22 50       		.byte	0x50
 6921 0d23 0F000000 		.4byte	.LVL304-1
 6922 0d27 36000000 		.4byte	.LVL310
 6923 0d2b 0100     		.2byte	0x1
 6924 0d2d 54       		.byte	0x54
 6925 0d2e 36000000 		.4byte	.LVL310
 6926 0d32 3C000000 		.4byte	.LFE45
 6927 0d36 0400     		.2byte	0x4
 6928 0d38 F3       		.byte	0xf3
 6929 0d39 01       		.uleb128 0x1
 6930 0d3a 50       		.byte	0x50
 6931 0d3b 9F       		.byte	0x9f
 6932 0d3c 00000000 		.4byte	0
 6933 0d40 00000000 		.4byte	0
 6934              	.LLST67:
 6935 0d44 00000000 		.4byte	.LVL303
 6936 0d48 0F000000 		.4byte	.LVL304-1
 6937 0d4c 0100     		.2byte	0x1
 6938 0d4e 51       		.byte	0x51
 6939 0d4f 0F000000 		.4byte	.LVL304-1
 6940 0d53 3C000000 		.4byte	.LFE45
 6941 0d57 0400     		.2byte	0x4
 6942 0d59 F3       		.byte	0xf3
 6943 0d5a 01       		.uleb128 0x1
 6944 0d5b 51       		.byte	0x51
 6945 0d5c 9F       		.byte	0x9f
 6946 0d5d 00000000 		.4byte	0
 6947 0d61 00000000 		.4byte	0
 6948              	.LLST68:
 6949 0d65 00000000 		.4byte	.LVL303
 6950 0d69 0F000000 		.4byte	.LVL304-1
 6951 0d6d 0100     		.2byte	0x1
 6952 0d6f 52       		.byte	0x52
 6953 0d70 0F000000 		.4byte	.LVL304-1
 6954 0d74 36000000 		.4byte	.LVL311
 6955 0d78 0100     		.2byte	0x1
 6956 0d7a 55       		.byte	0x55
 6957 0d7b 36000000 		.4byte	.LVL311
 6958 0d7f 3C000000 		.4byte	.LFE45
 6959 0d83 0400     		.2byte	0x4
 6960 0d85 F3       		.byte	0xf3
 6961 0d86 01       		.uleb128 0x1
 6962 0d87 52       		.byte	0x52
ARM GAS  C:\Users\JamesN4\AppData\Local\Temp\ccOIY297.s 			page 198


 6963 0d88 9F       		.byte	0x9f
 6964 0d89 00000000 		.4byte	0
 6965 0d8d 00000000 		.4byte	0
 6966              	.LLST69:
 6967 0d91 20000000 		.4byte	.LVL305
 6968 0d95 2A000000 		.4byte	.LVL307
 6969 0d99 0100     		.2byte	0x1
 6970 0d9b 50       		.byte	0x50
 6971 0d9c 00000000 		.4byte	0
 6972 0da0 00000000 		.4byte	0
 6973              	.LLST70:
 6974 0da4 26000000 		.4byte	.LVL306
 6975 0da8 2D000000 		.4byte	.LVL308-1
 6976 0dac 0100     		.2byte	0x1
 6977 0dae 52       		.byte	0x52
 6978 0daf 00000000 		.4byte	0
 6979 0db3 00000000 		.4byte	0
 6980              		.section	.debug_aranges,"",%progbits
 6981 0000 84010000 		.4byte	0x184
 6982 0004 0200     		.2byte	0x2
 6983 0006 00000000 		.4byte	.Ldebug_info0
 6984 000a 04       		.byte	0x4
 6985 000b 00       		.byte	0
 6986 000c 0000     		.2byte	0
 6987 000e 0000     		.2byte	0
 6988 0010 00000000 		.4byte	.LFB6
 6989 0014 14000000 		.4byte	.LFE6-.LFB6
 6990 0018 00000000 		.4byte	.LFB10
 6991 001c 10000000 		.4byte	.LFE10-.LFB10
 6992 0020 00000000 		.4byte	.LFB18
 6993 0024 14000000 		.4byte	.LFE18-.LFB18
 6994 0028 00000000 		.4byte	.LFB1
 6995 002c 14000000 		.4byte	.LFE1-.LFB1
 6996 0030 00000000 		.4byte	.LFB3
 6997 0034 5C000000 		.4byte	.LFE3-.LFB3
 6998 0038 00000000 		.4byte	.LFB4
 6999 003c 14000000 		.4byte	.LFE4-.LFB4
 7000 0040 00000000 		.4byte	.LFB5
 7001 0044 04010000 		.4byte	.LFE5-.LFB5
 7002 0048 00000000 		.4byte	.LFB8
 7003 004c A8000000 		.4byte	.LFE8-.LFB8
 7004 0050 00000000 		.4byte	.LFB7
 7005 0054 D8000000 		.4byte	.LFE7-.LFB7
 7006 0058 00000000 		.4byte	.LFB9
 7007 005c 30000000 		.4byte	.LFE9-.LFB9
 7008 0060 00000000 		.4byte	.LFB12
 7009 0064 40000000 		.4byte	.LFE12-.LFB12
 7010 0068 00000000 		.4byte	.LFB14
 7011 006c 14000000 		.4byte	.LFE14-.LFB14
 7012 0070 00000000 		.4byte	.LFB15
 7013 0074 4C000000 		.4byte	.LFE15-.LFB15
 7014 0078 00000000 		.4byte	.LFB16
 7015 007c 2C000000 		.4byte	.LFE16-.LFB16
 7016 0080 00000000 		.4byte	.LFB17
 7017 0084 1C000000 		.4byte	.LFE17-.LFB17
 7018 0088 00000000 		.4byte	.LFB19
 7019 008c 30000000 		.4byte	.LFE19-.LFB19
ARM GAS  C:\Users\JamesN4\AppData\Local\Temp\ccOIY297.s 			page 199


 7020 0090 00000000 		.4byte	.LFB20
 7021 0094 24000000 		.4byte	.LFE20-.LFB20
 7022 0098 00000000 		.4byte	.LFB21
 7023 009c 38000000 		.4byte	.LFE21-.LFB21
 7024 00a0 00000000 		.4byte	.LFB44
 7025 00a4 2C000000 		.4byte	.LFE44-.LFB44
 7026 00a8 00000000 		.4byte	.LFB22
 7027 00ac 14000000 		.4byte	.LFE22-.LFB22
 7028 00b0 00000000 		.4byte	.LFB23
 7029 00b4 34000000 		.4byte	.LFE23-.LFB23
 7030 00b8 00000000 		.4byte	.LFB24
 7031 00bc 24000000 		.4byte	.LFE24-.LFB24
 7032 00c0 00000000 		.4byte	.LFB25
 7033 00c4 3C000000 		.4byte	.LFE25-.LFB25
 7034 00c8 00000000 		.4byte	.LFB26
 7035 00cc 44000000 		.4byte	.LFE26-.LFB26
 7036 00d0 00000000 		.4byte	.LFB27
 7037 00d4 34000000 		.4byte	.LFE27-.LFB27
 7038 00d8 00000000 		.4byte	.LFB28
 7039 00dc 14000000 		.4byte	.LFE28-.LFB28
 7040 00e0 00000000 		.4byte	.LFB29
 7041 00e4 54000000 		.4byte	.LFE29-.LFB29
 7042 00e8 00000000 		.4byte	.LFB30
 7043 00ec 30000000 		.4byte	.LFE30-.LFB30
 7044 00f0 00000000 		.4byte	.LFB31
 7045 00f4 10000000 		.4byte	.LFE31-.LFB31
 7046 00f8 00000000 		.4byte	.LFB32
 7047 00fc 20000000 		.4byte	.LFE32-.LFB32
 7048 0100 00000000 		.4byte	.LFB33
 7049 0104 3C000000 		.4byte	.LFE33-.LFB33
 7050 0108 00000000 		.4byte	.LFB43
 7051 010c 74000000 		.4byte	.LFE43-.LFB43
 7052 0110 00000000 		.4byte	.LFB2
 7053 0114 4C000000 		.4byte	.LFE2-.LFB2
 7054 0118 00000000 		.4byte	.LFB11
 7055 011c 38000000 		.4byte	.LFE11-.LFB11
 7056 0120 00000000 		.4byte	.LFB13
 7057 0124 48000000 		.4byte	.LFE13-.LFB13
 7058 0128 00000000 		.4byte	.LFB34
 7059 012c 14000000 		.4byte	.LFE34-.LFB34
 7060 0130 00000000 		.4byte	.LFB35
 7061 0134 4C000000 		.4byte	.LFE35-.LFB35
 7062 0138 00000000 		.4byte	.LFB36
 7063 013c 20000000 		.4byte	.LFE36-.LFB36
 7064 0140 00000000 		.4byte	.LFB37
 7065 0144 20000000 		.4byte	.LFE37-.LFB37
 7066 0148 00000000 		.4byte	.LFB38
 7067 014c 20000000 		.4byte	.LFE38-.LFB38
 7068 0150 00000000 		.4byte	.LFB39
 7069 0154 34000000 		.4byte	.LFE39-.LFB39
 7070 0158 00000000 		.4byte	.LFB40
 7071 015c 28000000 		.4byte	.LFE40-.LFB40
 7072 0160 00000000 		.4byte	.LFB41
 7073 0164 A4000000 		.4byte	.LFE41-.LFB41
 7074 0168 00000000 		.4byte	.LFB42
 7075 016c 60000000 		.4byte	.LFE42-.LFB42
 7076 0170 00000000 		.4byte	.LFB46
ARM GAS  C:\Users\JamesN4\AppData\Local\Temp\ccOIY297.s 			page 200


 7077 0174 6C000000 		.4byte	.LFE46-.LFB46
 7078 0178 00000000 		.4byte	.LFB45
 7079 017c 3C000000 		.4byte	.LFE45-.LFB45
 7080 0180 00000000 		.4byte	0
 7081 0184 00000000 		.4byte	0
 7082              		.section	.debug_ranges,"",%progbits
 7083              	.Ldebug_ranges0:
 7084 0000 00000000 		.4byte	.LFB6
 7085 0004 14000000 		.4byte	.LFE6
 7086 0008 00000000 		.4byte	.LFB10
 7087 000c 10000000 		.4byte	.LFE10
 7088 0010 00000000 		.4byte	.LFB18
 7089 0014 14000000 		.4byte	.LFE18
 7090 0018 00000000 		.4byte	.LFB1
 7091 001c 14000000 		.4byte	.LFE1
 7092 0020 00000000 		.4byte	.LFB3
 7093 0024 5C000000 		.4byte	.LFE3
 7094 0028 00000000 		.4byte	.LFB4
 7095 002c 14000000 		.4byte	.LFE4
 7096 0030 00000000 		.4byte	.LFB5
 7097 0034 04010000 		.4byte	.LFE5
 7098 0038 00000000 		.4byte	.LFB8
 7099 003c A8000000 		.4byte	.LFE8
 7100 0040 00000000 		.4byte	.LFB7
 7101 0044 D8000000 		.4byte	.LFE7
 7102 0048 00000000 		.4byte	.LFB9
 7103 004c 30000000 		.4byte	.LFE9
 7104 0050 00000000 		.4byte	.LFB12
 7105 0054 40000000 		.4byte	.LFE12
 7106 0058 00000000 		.4byte	.LFB14
 7107 005c 14000000 		.4byte	.LFE14
 7108 0060 00000000 		.4byte	.LFB15
 7109 0064 4C000000 		.4byte	.LFE15
 7110 0068 00000000 		.4byte	.LFB16
 7111 006c 2C000000 		.4byte	.LFE16
 7112 0070 00000000 		.4byte	.LFB17
 7113 0074 1C000000 		.4byte	.LFE17
 7114 0078 00000000 		.4byte	.LFB19
 7115 007c 30000000 		.4byte	.LFE19
 7116 0080 00000000 		.4byte	.LFB20
 7117 0084 24000000 		.4byte	.LFE20
 7118 0088 00000000 		.4byte	.LFB21
 7119 008c 38000000 		.4byte	.LFE21
 7120 0090 00000000 		.4byte	.LFB44
 7121 0094 2C000000 		.4byte	.LFE44
 7122 0098 00000000 		.4byte	.LFB22
 7123 009c 14000000 		.4byte	.LFE22
 7124 00a0 00000000 		.4byte	.LFB23
 7125 00a4 34000000 		.4byte	.LFE23
 7126 00a8 00000000 		.4byte	.LFB24
 7127 00ac 24000000 		.4byte	.LFE24
 7128 00b0 00000000 		.4byte	.LFB25
 7129 00b4 3C000000 		.4byte	.LFE25
 7130 00b8 00000000 		.4byte	.LFB26
 7131 00bc 44000000 		.4byte	.LFE26
 7132 00c0 00000000 		.4byte	.LFB27
 7133 00c4 34000000 		.4byte	.LFE27
ARM GAS  C:\Users\JamesN4\AppData\Local\Temp\ccOIY297.s 			page 201


 7134 00c8 00000000 		.4byte	.LFB28
 7135 00cc 14000000 		.4byte	.LFE28
 7136 00d0 00000000 		.4byte	.LFB29
 7137 00d4 54000000 		.4byte	.LFE29
 7138 00d8 00000000 		.4byte	.LFB30
 7139 00dc 30000000 		.4byte	.LFE30
 7140 00e0 00000000 		.4byte	.LFB31
 7141 00e4 10000000 		.4byte	.LFE31
 7142 00e8 00000000 		.4byte	.LFB32
 7143 00ec 20000000 		.4byte	.LFE32
 7144 00f0 00000000 		.4byte	.LFB33
 7145 00f4 3C000000 		.4byte	.LFE33
 7146 00f8 00000000 		.4byte	.LFB43
 7147 00fc 74000000 		.4byte	.LFE43
 7148 0100 00000000 		.4byte	.LFB2
 7149 0104 4C000000 		.4byte	.LFE2
 7150 0108 00000000 		.4byte	.LFB11
 7151 010c 38000000 		.4byte	.LFE11
 7152 0110 00000000 		.4byte	.LFB13
 7153 0114 48000000 		.4byte	.LFE13
 7154 0118 00000000 		.4byte	.LFB34
 7155 011c 14000000 		.4byte	.LFE34
 7156 0120 00000000 		.4byte	.LFB35
 7157 0124 4C000000 		.4byte	.LFE35
 7158 0128 00000000 		.4byte	.LFB36
 7159 012c 20000000 		.4byte	.LFE36
 7160 0130 00000000 		.4byte	.LFB37
 7161 0134 20000000 		.4byte	.LFE37
 7162 0138 00000000 		.4byte	.LFB38
 7163 013c 20000000 		.4byte	.LFE38
 7164 0140 00000000 		.4byte	.LFB39
 7165 0144 34000000 		.4byte	.LFE39
 7166 0148 00000000 		.4byte	.LFB40
 7167 014c 28000000 		.4byte	.LFE40
 7168 0150 00000000 		.4byte	.LFB41
 7169 0154 A4000000 		.4byte	.LFE41
 7170 0158 00000000 		.4byte	.LFB42
 7171 015c 60000000 		.4byte	.LFE42
 7172 0160 00000000 		.4byte	.LFB46
 7173 0164 6C000000 		.4byte	.LFE46
 7174 0168 00000000 		.4byte	.LFB45
 7175 016c 3C000000 		.4byte	.LFE45
 7176 0170 00000000 		.4byte	0
 7177 0174 00000000 		.4byte	0
 7178              		.section	.debug_line,"",%progbits
 7179              	.Ldebug_line0:
 7180 0000 CD050000 		.section	.debug_str,"MS",%progbits,1
 7180      02005C00 
 7180      00000201 
 7180      FB0E0D00 
 7180      01010101 
 7181              	.LASF10:
 7182 0000 75696E74 		.ascii	"uint16\000"
 7182      313600
 7183              	.LASF121:
 7184 0007 43794578 		.ascii	"CyExitCriticalSection\000"
 7184      69744372 
ARM GAS  C:\Users\JamesN4\AppData\Local\Temp\ccOIY297.s 			page 202


 7184      69746963 
 7184      616C5365 
 7184      6374696F 
 7185              	.LASF26:
 7186 001d 6C66636C 		.ascii	"lfclkSource\000"
 7186      6B536F75 
 7186      72636500 
 7187              	.LASF117:
 7188 0029 636F756E 		.ascii	"counterIntMaskTbl\000"
 7188      74657249 
 7188      6E744D61 
 7188      736B5462 
 7188      6C00
 7189              	.LASF118:
 7190 003b 63795379 		.ascii	"cySysWdtCallback\000"
 7190      73576474 
 7190      43616C6C 
 7190      6261636B 
 7190      00
 7191              	.LASF62:
 7192 004c 43795379 		.ascii	"CySysWdtSetMode\000"
 7192      73576474 
 7192      5365744D 
 7192      6F646500 
 7193              	.LASF59:
 7194 005c 43795379 		.ascii	"CySysWdtUnlock\000"
 7194      73576474 
 7194      556E6C6F 
 7194      636B00
 7195              	.LASF40:
 7196 006b 6D656173 		.ascii	"measuredIloFreq\000"
 7196      75726564 
 7196      496C6F46 
 7196      72657100 
 7197              	.LASF61:
 7198 007b 636F756E 		.ascii	"counterNum\000"
 7198      7465724E 
 7198      756D00
 7199              	.LASF85:
 7200 0086 43795379 		.ascii	"CySysClkLfclkPosedgeCatch\000"
 7200      73436C6B 
 7200      4C66636C 
 7200      6B506F73 
 7200      65646765 
 7201              	.LASF75:
 7202 00a0 43795379 		.ascii	"CySysWdtGetCascade\000"
 7202      73576474 
 7202      47657443 
 7202      61736361 
 7202      646500
 7203              	.LASF127:
 7204 00b3 43795379 		.ascii	"CySysClkGetLfclkSource\000"
 7204      73436C6B 
 7204      4765744C 
 7204      66636C6B 
 7204      536F7572 
 7205              	.LASF123:
ARM GAS  C:\Users\JamesN4\AppData\Local\Temp\ccOIY297.s 			page 203


 7206 00ca 474E5520 		.ascii	"GNU C11 5.4.1 20160609 (release) [ARM/embedded-5-br"
 7206      43313120 
 7206      352E342E 
 7206      31203230 
 7206      31363036 
 7207 00fd 616E6368 		.ascii	"anch revision 237715] -mcpu=cortex-m0 -mthumb -g -O"
 7207      20726576 
 7207      6973696F 
 7207      6E203233 
 7207      37373135 
 7208 0130 67202D66 		.ascii	"g -ffunction-sections -ffat-lto-objects\000"
 7208      66756E63 
 7208      74696F6E 
 7208      2D736563 
 7208      74696F6E 
 7209              	.LASF113:
 7210 0158 6C66636C 		.ascii	"lfclkPosedgeWdtCounter0Enabled\000"
 7210      6B506F73 
 7210      65646765 
 7210      57647443 
 7210      6F756E74 
 7211              	.LASF8:
 7212 0177 6C6F6E67 		.ascii	"long long unsigned int\000"
 7212      206C6F6E 
 7212      6720756E 
 7212      7369676E 
 7212      65642069 
 7213              	.LASF41:
 7214 018e 63757272 		.ascii	"currentIloTrimValue\000"
 7214      656E7449 
 7214      6C6F5472 
 7214      696D5661 
 7214      6C756500 
 7215              	.LASF74:
 7216 01a2 43795379 		.ascii	"CySysClkWcoEnabled\000"
 7216      73436C6B 
 7216      57636F45 
 7216      6E61626C 
 7216      656400
 7217              	.LASF44:
 7218 01b5 6572726F 		.ascii	"errorRangeStatus\000"
 7218      7252616E 
 7218      67655374 
 7218      61747573 
 7218      00
 7219              	.LASF126:
 7220 01c6 43795379 		.ascii	"CySysClkWcoSetHighPowerMode\000"
 7220      73436C6B 
 7220      57636F53 
 7220      65744869 
 7220      6768506F 
 7221              	.LASF7:
 7222 01e2 6C6F6E67 		.ascii	"long long int\000"
 7222      206C6F6E 
 7222      6720696E 
 7222      7400
 7223              	.LASF1:
ARM GAS  C:\Users\JamesN4\AppData\Local\Temp\ccOIY297.s 			page 204


 7224 01f0 7369676E 		.ascii	"signed char\000"
 7224      65642063 
 7224      68617200 
 7225              	.LASF98:
 7226 01fc 66756E63 		.ascii	"function\000"
 7226      74696F6E 
 7226      00
 7227              	.LASF57:
 7228 0205 43795379 		.ascii	"CySysWdtLock\000"
 7228      73576474 
 7228      4C6F636B 
 7228      00
 7229              	.LASF21:
 7230 0212 63795764 		.ascii	"cyWdtCallback\000"
 7230      7443616C 
 7230      6C626163 
 7230      6B00
 7231              	.LASF12:
 7232 0220 696E7433 		.ascii	"int32\000"
 7232      3200
 7233              	.LASF122:
 7234 0226 43794465 		.ascii	"CyDelayUs\000"
 7234      6C617955 
 7234      7300
 7235              	.LASF42:
 7236 0230 696C6F41 		.ascii	"iloAccuracyValue\000"
 7236      63637572 
 7236      61637956 
 7236      616C7565 
 7236      00
 7237              	.LASF20:
 7238 0241 63795F73 		.ascii	"cy_sys_timer_delaytype_enum\000"
 7238      79735F74 
 7238      696D6572 
 7238      5F64656C 
 7238      61797479 
 7239              	.LASF80:
 7240 025d 62697473 		.ascii	"bits\000"
 7240      00
 7241              	.LASF5:
 7242 0262 6C6F6E67 		.ascii	"long int\000"
 7242      20696E74 
 7242      00
 7243              	.LASF78:
 7244 026b 72656756 		.ascii	"regValue\000"
 7244      616C7565 
 7244      00
 7245              	.LASF56:
 7246 0274 636C6F63 		.ascii	"clockSel\000"
 7246      6B53656C 
 7246      00
 7247              	.LASF9:
 7248 027d 75696E74 		.ascii	"uint8\000"
 7248      3800
 7249              	.LASF66:
 7250 0283 656E6162 		.ascii	"enable\000"
 7250      6C6500
ARM GAS  C:\Users\JamesN4\AppData\Local\Temp\ccOIY297.s 			page 205


 7251              	.LASF14:
 7252 028a 646F7562 		.ascii	"double\000"
 7252      6C6500
 7253              	.LASF31:
 7254 0291 636F6D70 		.ascii	"compensatedCycles\000"
 7254      656E7361 
 7254      74656443 
 7254      79636C65 
 7254      7300
 7255              	.LASF88:
 7256 02a3 43795379 		.ascii	"CySysClkIloStop\000"
 7256      73436C6B 
 7256      496C6F53 
 7256      746F7000 
 7257              	.LASF32:
 7258 02b3 696C6F43 		.ascii	"iloCompensatedCycles\000"
 7258      6F6D7065 
 7258      6E736174 
 7258      65644379 
 7258      636C6573 
 7259              	.LASF96:
 7260 02c8 636F756E 		.ascii	"countersMask\000"
 7260      74657273 
 7260      4D61736B 
 7260      00
 7261              	.LASF11:
 7262 02d5 75696E74 		.ascii	"uint32\000"
 7262      333200
 7263              	.LASF29:
 7264 02dc 43795379 		.ascii	"CySysClkIloStopMeasurement\000"
 7264      73436C6B 
 7264      496C6F53 
 7264      746F704D 
 7264      65617375 
 7265              	.LASF99:
 7266 02f7 70726576 		.ascii	"prevCallback\000"
 7266      43616C6C 
 7266      6261636B 
 7266      00
 7267              	.LASF76:
 7268 0304 43795379 		.ascii	"CySysWdtSetMatch\000"
 7268      73576474 
 7268      5365744D 
 7268      61746368 
 7268      00
 7269              	.LASF73:
 7270 0315 636F756E 		.ascii	"countersEnableStatus\000"
 7270      74657273 
 7270      456E6162 
 7270      6C655374 
 7270      61747573 
 7271              	.LASF116:
 7272 032a 77647449 		.ascii	"wdtIsrMask\000"
 7272      73724D61 
 7272      736B00
 7273              	.LASF68:
 7274 0335 43795379 		.ascii	"CySysWdtEnable\000"
ARM GAS  C:\Users\JamesN4\AppData\Local\Temp\ccOIY297.s 			page 206


 7274      73576474 
 7274      456E6162 
 7274      6C6500
 7275              	.LASF97:
 7276 0344 43795379 		.ascii	"CySysWdtSetInterruptCallback\000"
 7276      73576474 
 7276      53657449 
 7276      6E746572 
 7276      72757074 
 7277              	.LASF69:
 7278 0361 636F756E 		.ascii	"counterMask\000"
 7278      7465724D 
 7278      61736B00 
 7279              	.LASF67:
 7280 036d 43795379 		.ascii	"CySysWdtGetClearOnMatch\000"
 7280      73576474 
 7280      47657443 
 7280      6C656172 
 7280      4F6E4D61 
 7281              	.LASF0:
 7282 0385 756E7369 		.ascii	"unsigned int\000"
 7282      676E6564 
 7282      20696E74 
 7282      00
 7283              	.LASF89:
 7284 0392 43795379 		.ascii	"CySysClkSetLfclkSource\000"
 7284      73436C6B 
 7284      5365744C 
 7284      66636C6B 
 7284      536F7572 
 7285              	.LASF86:
 7286 03a9 66697273 		.ascii	"firstCount\000"
 7286      74436F75 
 7286      6E7400
 7287              	.LASF101:
 7288 03b4 72657443 		.ascii	"retCallback\000"
 7288      616C6C62 
 7288      61636B00 
 7289              	.LASF30:
 7290 03c0 64657369 		.ascii	"desiredDelay\000"
 7290      72656444 
 7290      656C6179 
 7290      00
 7291              	.LASF6:
 7292 03cd 6C6F6E67 		.ascii	"long unsigned int\000"
 7292      20756E73 
 7292      69676E65 
 7292      6420696E 
 7292      7400
 7293              	.LASF58:
 7294 03df 696E7465 		.ascii	"interruptState\000"
 7294      72727570 
 7294      74537461 
 7294      746500
 7295              	.LASF111:
 7296 03ee 6D617463 		.ascii	"matchValue\000"
 7296      6856616C 
ARM GAS  C:\Users\JamesN4\AppData\Local\Temp\ccOIY297.s 			page 207


 7296      756500
 7297              	.LASF84:
 7298 03f9 43795379 		.ascii	"CySysClkLfclkPosedgeRestore\000"
 7298      73436C6B 
 7298      4C66636C 
 7298      6B506F73 
 7298      65646765 
 7299              	.LASF102:
 7300 0415 43795379 		.ascii	"CySysWdtEnableCounterIsr\000"
 7300      73576474 
 7300      456E6162 
 7300      6C65436F 
 7300      756E7465 
 7301              	.LASF43:
 7302 042e 7472696D 		.ascii	"trimStep\000"
 7302      53746570 
 7302      00
 7303              	.LASF4:
 7304 0437 73686F72 		.ascii	"short unsigned int\000"
 7304      7420756E 
 7304      7369676E 
 7304      65642069 
 7304      6E7400
 7305              	.LASF60:
 7306 044a 43795379 		.ascii	"CySysWdtGetEnabledStatus\000"
 7306      73576474 
 7306      47657445 
 7306      6E61626C 
 7306      65645374 
 7307              	.LASF100:
 7308 0463 43795379 		.ascii	"CySysWdtGetInterruptCallback\000"
 7308      73576474 
 7308      47657449 
 7308      6E746572 
 7308      72757074 
 7309              	.LASF27:
 7310 0480 696C6F54 		.ascii	"iloTrimTrig\000"
 7310      72696D54 
 7310      72696700 
 7311              	.LASF38:
 7312 048c 43795379 		.ascii	"CySysClkIloUpdateTrimReg\000"
 7312      73436C6B 
 7312      496C6F55 
 7312      70646174 
 7312      65547269 
 7313              	.LASF28:
 7314 04a5 43795379 		.ascii	"CySysClkIloStart\000"
 7314      73436C6B 
 7314      496C6F53 
 7314      74617274 
 7314      00
 7315              	.LASF79:
 7316 04b6 43795379 		.ascii	"CySysWdtSetToggleBit\000"
 7316      73576474 
 7316      53657454 
 7316      6F67676C 
 7316      65426974 
ARM GAS  C:\Users\JamesN4\AppData\Local\Temp\ccOIY297.s 			page 208


 7317              	.LASF54:
 7318 04cb 706F7765 		.ascii	"powerModeStatus\000"
 7318      724D6F64 
 7318      65537461 
 7318      74757300 
 7319              	.LASF125:
 7320 04db 433A5C55 		.ascii	"C:\\Users\\JamesN4\\Documents\\PSoC Creator\\Hybrid"
 7320      73657273 
 7320      5C4A616D 
 7320      65734E34 
 7320      5C446F63 
 7321 0509 456E636F 		.ascii	"EncoderCY8CKIT43\\firmware\\HybridEncoder.cydsn\000"
 7321      64657243 
 7321      5938434B 
 7321      49543433 
 7321      5C666972 
 7322              	.LASF105:
 7323 0537 43795379 		.ascii	"CySysWatchdogFeed\000"
 7323      73576174 
 7323      6368646F 
 7323      67466565 
 7323      6400
 7324              	.LASF17:
 7325 0549 72656733 		.ascii	"reg32\000"
 7325      3200
 7326              	.LASF112:
 7327 054f 64656661 		.ascii	"defaultIloTrimRegValue\000"
 7327      756C7449 
 7327      6C6F5472 
 7327      696D5265 
 7327      6756616C 
 7328              	.LASF120:
 7329 0566 4379456E 		.ascii	"CyEnterCriticalSection\000"
 7329      74657243 
 7329      72697469 
 7329      63616C53 
 7329      65637469 
 7330              	.LASF108:
 7331 057d 746D7056 		.ascii	"tmpValue\000"
 7331      616C7565 
 7331      00
 7332              	.LASF36:
 7333 0586 72657475 		.ascii	"returnStatus\000"
 7333      726E5374 
 7333      61747573 
 7333      00
 7334              	.LASF90:
 7335 0593 736F7572 		.ascii	"source\000"
 7335      636500
 7336              	.LASF55:
 7337 059a 43795379 		.ascii	"CySysClkWcoClockOutSelect\000"
 7337      73436C6B 
 7337      57636F43 
 7337      6C6F636B 
 7337      4F757453 
 7338              	.LASF23:
 7339 05b4 73697A65 		.ascii	"sizetype\000"
ARM GAS  C:\Users\JamesN4\AppData\Local\Temp\ccOIY297.s 			page 209


 7339      74797065 
 7339      00
 7340              	.LASF22:
 7341 05bd 6C6F6E67 		.ascii	"long double\000"
 7341      20646F75 
 7341      626C6500 
 7342              	.LASF82:
 7343 05c9 43795379 		.ascii	"CySysWdtGetMatch\000"
 7343      73576474 
 7343      4765744D 
 7343      61746368 
 7343      00
 7344              	.LASF77:
 7345 05da 6D617463 		.ascii	"match\000"
 7345      6800
 7346              	.LASF50:
 7347 05e0 43795379 		.ascii	"CySysClkIloRestoreFactoryTrim\000"
 7347      73436C6B 
 7347      496C6F52 
 7347      6573746F 
 7347      72654661 
 7348              	.LASF18:
 7349 05fe 43595F53 		.ascii	"CY_SYS_TIMER_WAIT\000"
 7349      59535F54 
 7349      494D4552 
 7349      5F574149 
 7349      5400
 7350              	.LASF35:
 7351 0610 63686563 		.ascii	"checkStatus\000"
 7351      6B537461 
 7351      74757300 
 7352              	.LASF128:
 7353 061c 63796465 		.ascii	"cydelayFreqHz\000"
 7353      6C617946 
 7353      72657148 
 7353      7A00
 7354              	.LASF95:
 7355 062a 43795379 		.ascii	"CySysWdtResetCounters\000"
 7355      73576474 
 7355      52657365 
 7355      74436F75 
 7355      6E746572 
 7356              	.LASF48:
 7357 0640 77616974 		.ascii	"waitUntilCntr1Stops\000"
 7357      556E7469 
 7357      6C436E74 
 7357      72315374 
 7357      6F707300 
 7358              	.LASF93:
 7359 0654 43795379 		.ascii	"CySysWdtClearInterrupt\000"
 7359      73576474 
 7359      436C6561 
 7359      72496E74 
 7359      65727275 
 7360              	.LASF13:
 7361 066b 666C6F61 		.ascii	"float\000"
 7361      7400
ARM GAS  C:\Users\JamesN4\AppData\Local\Temp\ccOIY297.s 			page 210


 7362              	.LASF106:
 7363 0671 43795379 		.ascii	"CySysTimerDelayUntilMatch\000"
 7363      7354696D 
 7363      65724465 
 7363      6C617955 
 7363      6E74696C 
 7364              	.LASF109:
 7365 068b 43795379 		.ascii	"CySysTimerDelay\000"
 7365      7354696D 
 7365      65724465 
 7365      6C617900 
 7366              	.LASF25:
 7367 069b 43795379 		.ascii	"CySysWdtLocked\000"
 7367      73576474 
 7367      4C6F636B 
 7367      656400
 7368              	.LASF119:
 7369 06aa 43794861 		.ascii	"CyHalt\000"
 7369      6C7400
 7370              	.LASF2:
 7371 06b1 756E7369 		.ascii	"unsigned char\000"
 7371      676E6564 
 7371      20636861 
 7371      7200
 7372              	.LASF34:
 7373 06bf 636F6D70 		.ascii	"compensateRunningStatus\000"
 7373      656E7361 
 7373      74655275 
 7373      6E6E696E 
 7373      67537461 
 7374              	.LASF87:
 7375 06d7 6C66636C 		.ascii	"lfclkPosedgeEnabledWdtCounter\000"
 7375      6B506F73 
 7375      65646765 
 7375      456E6162 
 7375      6C656457 
 7376              	.LASF110:
 7377 06f5 64656C61 		.ascii	"delay\000"
 7377      7900
 7378              	.LASF3:
 7379 06fb 73686F72 		.ascii	"short int\000"
 7379      7420696E 
 7379      7400
 7380              	.LASF107:
 7381 0705 64656C61 		.ascii	"delayType\000"
 7381      79547970 
 7381      6500
 7382              	.LASF70:
 7383 070f 43795379 		.ascii	"CySysWdtDisable\000"
 7383      73576474 
 7383      44697361 
 7383      626C6500 
 7384              	.LASF51:
 7385 071f 43795379 		.ascii	"CySysClkIloStartMeasurement\000"
 7385      73436C6B 
 7385      496C6F53 
 7385      74617274 
ARM GAS  C:\Users\JamesN4\AppData\Local\Temp\ccOIY297.s 			page 211


 7385      4D656173 
 7386              	.LASF45:
 7387 073b 43795379 		.ascii	"CySysClkIloTrim\000"
 7387      73436C6B 
 7387      496C6F54 
 7387      72696D00 
 7388              	.LASF24:
 7389 074b 43795379 		.ascii	"CySysClkIloEnabled\000"
 7389      73436C6B 
 7389      496C6F45 
 7389      6E61626C 
 7389      656400
 7390              	.LASF92:
 7391 075e 43795379 		.ascii	"CySysWdtGetInterruptSource\000"
 7391      73576474 
 7391      47657449 
 7391      6E746572 
 7391      72757074 
 7392              	.LASF124:
 7393 0779 47656E65 		.ascii	"Generated_Source\\PSoC4\\CyLFClk.c\000"
 7393      72617465 
 7393      645F536F 
 7393      75726365 
 7393      5C50536F 
 7394              	.LASF39:
 7395 079a 696C6F41 		.ascii	"iloAccuracyInPPT\000"
 7395      63637572 
 7395      61637949 
 7395      6E505054 
 7395      00
 7396              	.LASF91:
 7397 07ab 43795379 		.ascii	"CySysClkWcoStop\000"
 7397      73436C6B 
 7397      57636F53 
 7397      746F7000 
 7398              	.LASF53:
 7399 07bb 43795379 		.ascii	"CySysClkWcoSetPowerMode\000"
 7399      73436C6B 
 7399      57636F53 
 7399      6574506F 
 7399      7765724D 
 7400              	.LASF103:
 7401 07d3 43795379 		.ascii	"CySysWdtDisableCounterIsr\000"
 7401      73576474 
 7401      44697361 
 7401      626C6543 
 7401      6F756E74 
 7402              	.LASF15:
 7403 07ed 63686172 		.ascii	"char\000"
 7403      00
 7404              	.LASF46:
 7405 07f2 6D6F6465 		.ascii	"mode\000"
 7405      00
 7406              	.LASF83:
 7407 07f7 43795379 		.ascii	"CySysWdtGetCount\000"
 7407      73576474 
 7407      47657443 
ARM GAS  C:\Users\JamesN4\AppData\Local\Temp\ccOIY297.s 			page 212


 7407      6F756E74 
 7407      00
 7408              	.LASF115:
 7409 0808 64697361 		.ascii	"disableServicedIsr\000"
 7409      626C6553 
 7409      65727669 
 7409      63656449 
 7409      737200
 7410              	.LASF65:
 7411 081b 43795379 		.ascii	"CySysWdtSetClearOnMatch\000"
 7411      73576474 
 7411      53657443 
 7411      6C656172 
 7411      4F6E4D61 
 7412              	.LASF71:
 7413 0833 43795379 		.ascii	"CySysWdtSetCascade\000"
 7413      73576474 
 7413      53657443 
 7413      61736361 
 7413      646500
 7414              	.LASF47:
 7415 0846 74696D65 		.ascii	"timeOutClocks\000"
 7415      4F757443 
 7415      6C6F636B 
 7415      7300
 7416              	.LASF49:
 7417 0854 7472696D 		.ascii	"trimRunningStatus\000"
 7417      52756E6E 
 7417      696E6753 
 7417      74617475 
 7417      7300
 7418              	.LASF64:
 7419 0866 43795379 		.ascii	"CySysWdtGetMode\000"
 7419      73576474 
 7419      4765744D 
 7419      6F646500 
 7420              	.LASF33:
 7421 0876 64657369 		.ascii	"desiredDelayInCounts\000"
 7421      72656444 
 7421      656C6179 
 7421      496E436F 
 7421      756E7473 
 7422              	.LASF52:
 7423 088b 43795379 		.ascii	"CySysClkWcoStart\000"
 7423      73436C6B 
 7423      57636F53 
 7423      74617274 
 7423      00
 7424              	.LASF94:
 7425 089c 7764744C 		.ascii	"wdtLockState\000"
 7425      6F636B53 
 7425      74617465 
 7425      00
 7426              	.LASF63:
 7427 08a9 636F6E66 		.ascii	"configRegValue\000"
 7427      69675265 
 7427      6756616C 
ARM GAS  C:\Users\JamesN4\AppData\Local\Temp\ccOIY297.s 			page 213


 7427      756500
 7428              	.LASF114:
 7429 08b8 6C66636C 		.ascii	"lfclkPosedgeWdtCounter0Mode\000"
 7429      6B506F73 
 7429      65646765 
 7429      57647443 
 7429      6F756E74 
 7430              	.LASF72:
 7431 08d4 63617363 		.ascii	"cascadeMask\000"
 7431      6164654D 
 7431      61736B00 
 7432              	.LASF16:
 7433 08e0 63797374 		.ascii	"cystatus\000"
 7433      61747573 
 7433      00
 7434              	.LASF104:
 7435 08e9 43795379 		.ascii	"CySysWdtIsr\000"
 7435      73576474 
 7435      49737200 
 7436              	.LASF81:
 7437 08f5 43795379 		.ascii	"CySysWdtGetToggleBit\000"
 7437      73576474 
 7437      47657454 
 7437      6F67676C 
 7437      65426974 
 7438              	.LASF37:
 7439 090a 43795379 		.ascii	"CySysClkIloCompensate\000"
 7439      73436C6B 
 7439      496C6F43 
 7439      6F6D7065 
 7439      6E736174 
 7440              	.LASF19:
 7441 0920 43595F53 		.ascii	"CY_SYS_TIMER_INTERRUPT\000"
 7441      59535F54 
 7441      494D4552 
 7441      5F494E54 
 7441      45525255 
 7442              		.ident	"GCC: (GNU Tools for ARM Embedded Processors) 5.4.1 20160609 (release) [ARM/embedded-5-bran
