ARM GAS  C:\Users\JamesN4\AppData\Local\Temp\ccul3mwE.s 			page 1


   1              		.syntax unified
   2              		.cpu cortex-m0
   3              		.fpu softvfp
   4              		.eabi_attribute 20, 1
   5              		.eabi_attribute 21, 1
   6              		.eabi_attribute 23, 3
   7              		.eabi_attribute 24, 1
   8              		.eabi_attribute 25, 1
   9              		.eabi_attribute 26, 1
  10              		.eabi_attribute 30, 1
  11              		.eabi_attribute 34, 0
  12              		.eabi_attribute 18, 4
  13              		.thumb
  14              		.syntax unified
  15              		.file	"main.c"
  16              		.text
  17              	.Ltext0:
  18              		.cfi_sections	.debug_frame
  19              		.section	.text.ADC_ISR_LOC,"ax",%progbits
  20              		.align	2
  21              		.global	ADC_ISR_LOC
  22              		.code	16
  23              		.thumb_func
  24              		.type	ADC_ISR_LOC, %function
  25              	ADC_ISR_LOC:
  26              	.LFB36:
  27              		.file 1 "main.c"
   1:main.c        **** /* 
   2:main.c        **** Hybrid Encoder Firmware
   3:main.c        **** 
   4:main.c        **** Ver 0.1 Connect via serial terminal 115,200 N81, 
   5:main.c        ****  - 's' shows sin, cos, and ATAN2
   6:main.c        ****  - '8' sin LED drive up '2' sin LED drive down
   7:main.c        ****  - '6' cos LED drive up '4' cos LED drive down
   8:main.c        **** 
   9:main.c        **** TODO: Setup a timer and just output ATAN2 regularly
  10:main.c        **** */
  11:main.c        **** #include <project.h>
  12:main.c        **** #include <stdio.h>
  13:main.c        **** 
  14:main.c        **** #define CH0         (0x00u)
  15:main.c        **** #define CH1         (0x01u)
  16:main.c        **** #define CH2_SIN     (0x02u)
  17:main.c        **** #define CH3_COS     (0x03u)
  18:main.c        **** 
  19:main.c        **** #define LED_MAX (int)PWM_2_PERIOD_REG
  20:main.c        **** 
  21:main.c        **** #define BRAD_PI_SHIFT 14
  22:main.c        **** #define BRAD_PI  (1<<BRAD_PI_SHIFT)
  23:main.c        **** static const uint BRAD_HPI= BRAD_PI/2;
  24:main.c        **** static const uint BRAD_2PI= BRAD_PI*2; 
  25:main.c        **** 
  26:main.c        **** static const uint ATAN_ONE = 0x1000, ATAN_FP= 12;
  27:main.c        **** 
  28:main.c        **** volatile uint32 dataReady = 0u;
  29:main.c        **** volatile int16 result[ADC_TOTAL_CHANNELS_NUM];
  30:main.c        **** 
ARM GAS  C:\Users\JamesN4\AppData\Local\Temp\ccul3mwE.s 			page 2


  31:main.c        **** #define OCTANTIFY(_x, _y, _o)   do {                            \
  32:main.c        ****     int _t; _o= 0;                                              \
  33:main.c        ****     if(_y<  0)  {            _x= -_x;   _y= -_y; _o += 4; }     \
  34:main.c        ****     if(_x<= 0)  { _t= _x;    _x=  _y;   _y= -_t; _o += 2; }     \
  35:main.c        ****     if(_x<=_y)  { _t= _y-_x; _x= _x+_y; _y=  _t; _o += 1; }     \
  36:main.c        **** } while(0);
  37:main.c        **** 
  38:main.c        **** CY_ISR(ISR_TIMER_LOC) { //heartbeat. Keep for timed response?
  39:main.c        ****     //UART_UartPutChar(result[0]&0xFF);
  40:main.c        ****     UART_UartPutChar('.'); //blip
  41:main.c        ****     UART_UartPutChar(8); //backspace over the blip
  42:main.c        ****     }
  43:main.c        **** 
  44:main.c        **** CY_ISR(ADC_ISR_LOC) {
  28              		.loc 1 44 0
  29              		.cfi_startproc
  30              		@ args = 0, pretend = 0, frame = 0
  31              		@ frame_needed = 0, uses_anonymous_args = 0
  32 0000 70B5     		push	{r4, r5, r6, lr}
  33              		.cfi_def_cfa_offset 16
  34              		.cfi_offset 4, -16
  35              		.cfi_offset 5, -12
  36              		.cfi_offset 6, -8
  37              		.cfi_offset 14, -4
  45:main.c        ****     uint32 intr_status;
  46:main.c        ****     uint32 range_status;
  47:main.c        **** 
  48:main.c        ****     intr_status = ADC_SAR_INTR_MASKED_REG; //read int status reg
  38              		.loc 1 48 0
  39 0002 0C4B     		ldr	r3, .L3
  40 0004 1C68     		ldr	r4, [r3]
  41              	.LVL0:
  49:main.c        ****     if((intr_status & ADC_EOS_MASK) != 0u) { //End of scan?
  42              		.loc 1 49 0
  43 0006 E307     		lsls	r3, r4, #31
  44 0008 11D5     		bpl	.L2
  50:main.c        ****         range_status = ADC_SAR_RANGE_INTR_MASKED_REG; //range status
  45              		.loc 1 50 0
  46 000a 0B4B     		ldr	r3, .L3+4
  47 000c 1A68     		ldr	r2, [r3]
  48              	.LVL1:
  51:main.c        ****         /* Keep this for autoranging in the future
  52:main.c        ****         if((range_status & (uint32)(1ul << CH0_SIN)) != 0u) {
  53:main.c        ****             result[CH0_SIN] = ADC_GetResult16(CH0_SIN); //Get result
  54:main.c        ****             // Set PWM compare from channel so LED glows as vin rises
  55:main.c        ****             PWM_WriteCompare(result[CH0_SIN]); 
  56:main.c        ****             }    
  57:main.c        ****         */
  58:main.c        ****         // Clear range detect status ??? Why does this clear it?
  59:main.c        ****         ADC_SAR_RANGE_INTR_REG = range_status;
  49              		.loc 1 59 0
  50 000e 0B4B     		ldr	r3, .L3+8
  51 0010 1A60     		str	r2, [r3]
  60:main.c        ****         result[CH2_SIN] = ADC_GetResult16(CH2_SIN); //Get result
  52              		.loc 1 60 0
  53 0012 0220     		movs	r0, #2
  54 0014 FFF7FEFF 		bl	ADC_GetResult16
ARM GAS  C:\Users\JamesN4\AppData\Local\Temp\ccul3mwE.s 			page 3


  55              	.LVL2:
  56 0018 094D     		ldr	r5, .L3+12
  57 001a A880     		strh	r0, [r5, #4]
  61:main.c        ****         //shouldn't need to check for completion for CH1, locked to CH0, right?
  62:main.c        ****         result[CH3_COS] = ADC_GetResult16(CH3_COS); //Get cos result
  58              		.loc 1 62 0
  59 001c 0320     		movs	r0, #3
  60 001e FFF7FEFF 		bl	ADC_GetResult16
  61              	.LVL3:
  62 0022 E880     		strh	r0, [r5, #6]
  63:main.c        ****         dataReady |= ADC_EOS_MASK;
  63              		.loc 1 63 0
  64 0024 074A     		ldr	r2, .L3+16
  65 0026 1168     		ldr	r1, [r2]
  66 0028 0123     		movs	r3, #1
  67 002a 0B43     		orrs	r3, r1
  68 002c 1360     		str	r3, [r2]
  69              	.L2:
  64:main.c        ****         }
  65:main.c        **** 
  66:main.c        ****     ADC_SAR_INTR_REG = intr_status; //clear handled interrupt
  70              		.loc 1 66 0
  71 002e 064B     		ldr	r3, .L3+20
  72 0030 1C60     		str	r4, [r3]
  67:main.c        ****     }
  73              		.loc 1 67 0
  74              		@ sp needed
  75              	.LVL4:
  76 0032 70BD     		pop	{r4, r5, r6, pc}
  77              	.L4:
  78              		.align	2
  79              	.L3:
  80 0034 1C023A40 		.word	1077543452
  81 0038 3C023A40 		.word	1077543484
  82 003c 30023A40 		.word	1077543472
  83 0040 00000000 		.word	result
  84 0044 00000000 		.word	.LANCHOR0
  85 0048 10023A40 		.word	1077543440
  86              		.cfi_endproc
  87              	.LFE36:
  88              		.size	ADC_ISR_LOC, .-ADC_ISR_LOC
  89              		.section	.text.ISR_TIMER_LOC,"ax",%progbits
  90              		.align	2
  91              		.global	ISR_TIMER_LOC
  92              		.code	16
  93              		.thumb_func
  94              		.type	ISR_TIMER_LOC, %function
  95              	ISR_TIMER_LOC:
  96              	.LFB35:
  38:main.c        ****     //UART_UartPutChar(result[0]&0xFF);
  97              		.loc 1 38 0
  98              		.cfi_startproc
  99              		@ args = 0, pretend = 0, frame = 0
 100              		@ frame_needed = 0, uses_anonymous_args = 0
 101 0000 10B5     		push	{r4, lr}
 102              		.cfi_def_cfa_offset 8
 103              		.cfi_offset 4, -8
ARM GAS  C:\Users\JamesN4\AppData\Local\Temp\ccul3mwE.s 			page 4


 104              		.cfi_offset 14, -4
  40:main.c        ****     UART_UartPutChar(8); //backspace over the blip
 105              		.loc 1 40 0
 106 0002 2E20     		movs	r0, #46
 107 0004 FFF7FEFF 		bl	UART_SpiUartWriteTxData
 108              	.LVL5:
  41:main.c        ****     }
 109              		.loc 1 41 0
 110 0008 0820     		movs	r0, #8
 111 000a FFF7FEFF 		bl	UART_SpiUartWriteTxData
 112              	.LVL6:
  42:main.c        **** 
 113              		.loc 1 42 0
 114              		@ sp needed
 115 000e 10BD     		pop	{r4, pc}
 116              		.cfi_endproc
 117              	.LFE35:
 118              		.size	ISR_TIMER_LOC, .-ISR_TIMER_LOC
 119              		.global	__aeabi_idiv
 120              		.section	.text.atan2Tonc,"ax",%progbits
 121              		.align	2
 122              		.global	atan2Tonc
 123              		.code	16
 124              		.thumb_func
 125              		.type	atan2Tonc, %function
 126              	atan2Tonc:
 127              	.LFB38:
  68:main.c        **** 
  69:main.c        **** // QDIV stands for the fixed-point division method most appropriate for 
  70:main.c        **** // your system. Modify where appropriate.
  71:main.c        **** // This would be for NDS.
  72:main.c        **** static inline int QDIV(int num, int den, const int bits) {
  73:main.c        ****     int bignum;
  74:main.c        ****     bignum = num;
  75:main.c        ****     bignum <<= bits;
  76:main.c        ****     bignum /= den;
  77:main.c        ****     return (int)bignum;
  78:main.c        ****     }
  79:main.c        **** 
  80:main.c        **** // Approximate Taylor series for atan2, home-grown implementation. 
  81:main.c        **** // Returns [0,2pi), where pi ~ 0x4000.
  82:main.c        **** uint atan2Tonc(int x, int y) {
 128              		.loc 1 82 0
 129              		.cfi_startproc
 130              		@ args = 0, pretend = 0, frame = 0
 131              		@ frame_needed = 0, uses_anonymous_args = 0
 132              	.LVL7:
 133 0000 10B5     		push	{r4, lr}
 134              		.cfi_def_cfa_offset 8
 135              		.cfi_offset 4, -8
 136              		.cfi_offset 14, -4
  83:main.c        ****     if(y==0)    return (x>=0 ? 0 : BRAD_PI);
 137              		.loc 1 83 0
 138 0002 0029     		cmp	r1, #0
 139 0004 03D1     		bne	.L7
 140              		.loc 1 83 0 is_stmt 0 discriminator 1
 141 0006 0028     		cmp	r0, #0
ARM GAS  C:\Users\JamesN4\AppData\Local\Temp\ccul3mwE.s 			page 5


 142 0008 39DB     		blt	.L12
 143              		.loc 1 83 0
 144 000a 0020     		movs	r0, #0
 145              	.LVL8:
 146 000c 39E0     		b	.L8
 147              	.LVL9:
 148              	.L7:
 149              	.LBB5:
  84:main.c        **** 
  85:main.c        ****     static const int fixShift= 15;
  86:main.c        ****     int  phi, t, t2, dphi;
  87:main.c        **** 
  88:main.c        ****     OCTANTIFY(x, y, phi);
 150              		.loc 1 88 0 is_stmt 1
 151 000e 0029     		cmp	r1, #0
 152 0010 03DA     		bge	.L13
 153              		.loc 1 88 0 is_stmt 0 discriminator 1
 154 0012 4042     		rsbs	r0, r0, #0
 155              	.LVL10:
 156 0014 4942     		rsbs	r1, r1, #0
 157              	.LVL11:
 158 0016 0424     		movs	r4, #4
 159 0018 00E0     		b	.L9
 160              	.LVL12:
 161              	.L13:
 162              		.loc 1 88 0
 163 001a 0024     		movs	r4, #0
 164              	.LVL13:
 165              	.L9:
 166              		.loc 1 88 0 discriminator 3
 167 001c 0028     		cmp	r0, #0
 168 001e 03DC     		bgt	.L10
 169              	.LVL14:
 170              		.loc 1 88 0 discriminator 4
 171 0020 4342     		rsbs	r3, r0, #0
 172              	.LVL15:
 173 0022 0234     		adds	r4, r4, #2
 174              	.LVL16:
 175 0024 0800     		movs	r0, r1
 176              	.LVL17:
 177 0026 1900     		movs	r1, r3
 178              	.LVL18:
 179              	.L10:
 180              		.loc 1 88 0 discriminator 6
 181 0028 8842     		cmp	r0, r1
 182 002a 03DC     		bgt	.L11
 183              		.loc 1 88 0 discriminator 7
 184 002c 0B1A     		subs	r3, r1, r0
 185              	.LVL19:
 186 002e 4018     		adds	r0, r0, r1
 187              	.LVL20:
 188 0030 0134     		adds	r4, r4, #1
 189              	.LVL21:
 190 0032 1900     		movs	r1, r3
 191              	.LVL22:
 192              	.L11:
 193              	.LBE5:
ARM GAS  C:\Users\JamesN4\AppData\Local\Temp\ccul3mwE.s 			page 6


  89:main.c        ****     phi *= BRAD_PI/4;
 194              		.loc 1 89 0 is_stmt 1
 195 0034 2403     		lsls	r4, r4, #12
 196              	.LVL23:
 197              	.LBB6:
 198              	.LBB7:
  75:main.c        ****     bignum /= den;
 199              		.loc 1 75 0
 200 0036 CB03     		lsls	r3, r1, #15
 201              	.LVL24:
  76:main.c        ****     return (int)bignum;
 202              		.loc 1 76 0
 203 0038 0100     		movs	r1, r0
 204              	.LVL25:
 205 003a 1800     		movs	r0, r3
 206              	.LVL26:
 207 003c FFF7FEFF 		bl	__aeabi_idiv
 208              	.LVL27:
 209              	.LBE7:
 210              	.LBE6:
  90:main.c        **** 
  91:main.c        ****     t= QDIV(y, x, fixShift);
  92:main.c        ****     t2= -t*t>>fixShift;
 211              		.loc 1 92 0
 212 0040 4342     		rsbs	r3, r0, #0
 213 0042 4343     		muls	r3, r0
 214 0044 DB13     		asrs	r3, r3, #15
 215              	.LVL28:
  93:main.c        **** 
  94:main.c        ****     dphi= 0x0470;
  95:main.c        ****     dphi= 0x1029 + (t2*dphi>>fixShift);
 216              		.loc 1 95 0
 217 0046 8E22     		movs	r2, #142
 218 0048 D200     		lsls	r2, r2, #3
 219 004a 5A43     		muls	r2, r3
 220 004c D213     		asrs	r2, r2, #15
 221 004e 0D49     		ldr	r1, .L14
 222 0050 8C46     		mov	ip, r1
 223 0052 6244     		add	r2, r2, ip
 224              	.LVL29:
  96:main.c        ****     dphi= 0x1F0B + (t2*dphi>>fixShift);
 225              		.loc 1 96 0
 226 0054 5A43     		muls	r2, r3
 227              	.LVL30:
 228 0056 D213     		asrs	r2, r2, #15
 229 0058 0B49     		ldr	r1, .L14+4
 230              	.LVL31:
 231 005a 8C46     		mov	ip, r1
 232              	.LVL32:
 233 005c 6244     		add	r2, r2, ip
 234              	.LVL33:
  97:main.c        ****     dphi= 0x364C + (t2*dphi>>fixShift);
 235              		.loc 1 97 0
 236 005e 5A43     		muls	r2, r3
 237              	.LVL34:
 238 0060 D213     		asrs	r2, r2, #15
 239 0062 0A49     		ldr	r1, .L14+8
ARM GAS  C:\Users\JamesN4\AppData\Local\Temp\ccul3mwE.s 			page 7


 240              	.LVL35:
 241 0064 8C46     		mov	ip, r1
 242              	.LVL36:
 243 0066 6244     		add	r2, r2, ip
 244              	.LVL37:
  98:main.c        ****     dphi= 0xA2FC + (t2*dphi>>fixShift);
 245              		.loc 1 98 0
 246 0068 5343     		muls	r3, r2
 247              	.LVL38:
 248 006a DB13     		asrs	r3, r3, #15
 249 006c 084A     		ldr	r2, .L14+12
 250              	.LVL39:
 251 006e 9446     		mov	ip, r2
 252 0070 6344     		add	r3, r3, ip
 253              	.LVL40:
  99:main.c        ****     dphi= dphi*t>>fixShift;
 254              		.loc 1 99 0
 255 0072 5843     		muls	r0, r3
 256              	.LVL41:
 257 0074 C013     		asrs	r0, r0, #15
 258              	.LVL42:
 100:main.c        **** 
 101:main.c        ****     return phi + ((dphi+4)>>3);
 259              		.loc 1 101 0
 260 0076 0430     		adds	r0, r0, #4
 261              	.LVL43:
 262 0078 C010     		asrs	r0, r0, #3
 263              	.LVL44:
 264 007a 2018     		adds	r0, r4, r0
 265 007c 01E0     		b	.L8
 266              	.LVL45:
 267              	.L12:
  83:main.c        **** 
 268              		.loc 1 83 0
 269 007e 8020     		movs	r0, #128
 270              	.LVL46:
 271 0080 C001     		lsls	r0, r0, #7
 272              	.LVL47:
 273              	.L8:
 102:main.c        ****     }
 274              		.loc 1 102 0
 275              		@ sp needed
 276 0082 10BD     		pop	{r4, pc}
 277              	.L15:
 278              		.align	2
 279              	.L14:
 280 0084 29100000 		.word	4137
 281 0088 0B1F0000 		.word	7947
 282 008c 4C360000 		.word	13900
 283 0090 FCA20000 		.word	41724
 284              		.cfi_endproc
 285              	.LFE38:
 286              		.size	atan2Tonc, .-atan2Tonc
 287              		.global	__aeabi_uidiv
 288              		.section	.text.main,"ax",%progbits
 289              		.align	2
 290              		.global	main
ARM GAS  C:\Users\JamesN4\AppData\Local\Temp\ccul3mwE.s 			page 8


 291              		.code	16
 292              		.thumb_func
 293              		.type	main, %function
 294              	main:
 295              	.LFB39:
 103:main.c        **** 
 104:main.c        **** 
 105:main.c        **** int main() {
 296              		.loc 1 105 0
 297              		.cfi_startproc
 298              		@ args = 0, pretend = 0, frame = 264
 299              		@ frame_needed = 0, uses_anonymous_args = 0
 300 0000 F0B5     		push	{r4, r5, r6, r7, lr}
 301              		.cfi_def_cfa_offset 20
 302              		.cfi_offset 4, -20
 303              		.cfi_offset 5, -16
 304              		.cfi_offset 6, -12
 305              		.cfi_offset 7, -8
 306              		.cfi_offset 14, -4
 307 0002 C5B0     		sub	sp, sp, #276
 308              		.cfi_def_cfa_offset 296
 309              	.LVL48:
 106:main.c        ****     char ch;
 107:main.c        ****     char  uartLine[250];
 108:main.c        ****     int sin, cos;
 109:main.c        ****     int center_sin = 500;
 110:main.c        ****     int center_cos = 200;
 111:main.c        ****     int led_sin = 0;
 112:main.c        ****     int led_cos = 0;
 113:main.c        ****     
 114:main.c        ****     UART_Start(); //Start the UART
 310              		.loc 1 114 0
 311 0004 FFF7FEFF 		bl	UART_Start
 312              	.LVL49:
 115:main.c        ****     UART_UartPutString("\0x0COk\r\n"); //Hello world!
 313              		.loc 1 115 0
 314 0008 2B48     		ldr	r0, .L26
 315 000a FFF7FEFF 		bl	UART_UartPutString
 316              	.LVL50:
 116:main.c        **** 
 117:main.c        ****     ADC_Start(); //Init ADC
 317              		.loc 1 117 0
 318 000e FFF7FEFF 		bl	ADC_Start
 319              	.LVL51:
 118:main.c        ****     ADC_StartConvert(); //Start ADC sequencing
 320              		.loc 1 118 0
 321 0012 FFF7FEFF 		bl	ADC_StartConvert
 322              	.LVL52:
 119:main.c        ****     ADC_IRQ_StartEx(ADC_ISR_LOC); //for ADC
 323              		.loc 1 119 0
 324 0016 2948     		ldr	r0, .L26+4
 325 0018 FFF7FEFF 		bl	ADC_IRQ_StartEx
 326              	.LVL53:
 120:main.c        ****     CyGlobalIntEnable;      /* Enable global interrupts */
 327              		.loc 1 120 0
 328              		.syntax divided
 329              	@ 120 "main.c" 1
ARM GAS  C:\Users\JamesN4\AppData\Local\Temp\ccul3mwE.s 			page 9


 330 001c 62B6     		CPSIE   i
 331              	@ 0 "" 2
 121:main.c        ****     
 122:main.c        ****     /* Place your initialization/startup code here (e.g. MyInst_Start()) */
 123:main.c        ****     PWM_2_Start();
 332              		.loc 1 123 0
 333              		.thumb
 334              		.syntax unified
 335 001e FFF7FEFF 		bl	PWM_2_Start
 336              	.LVL54:
 112:main.c        ****     
 337              		.loc 1 112 0
 338 0022 0026     		movs	r6, #0
 111:main.c        ****     int led_cos = 0;
 339              		.loc 1 111 0
 340 0024 0025     		movs	r5, #0
 341              	.LVL55:
 342              	.L17:
 124:main.c        ****     
 125:main.c        ****     for(;;) {
 126:main.c        ****         ch = UART_UartGetChar(); //non-blocking. Zero if RX FIFO empty
 343              		.loc 1 126 0
 344 0026 FFF7FEFF 		bl	UART_UartGetChar
 345              	.LVL56:
 346 002a C4B2     		uxtb	r4, r0
 347              	.LVL57:
 127:main.c        ****         if(0u != ch) {
 348              		.loc 1 127 0
 349 002c 002C     		cmp	r4, #0
 350 002e FAD0     		beq	.L17
 128:main.c        ****             UART_UartPutChar(ch); //blocking, will wait for TX FIFO empty.
 351              		.loc 1 128 0
 352 0030 FF23     		movs	r3, #255
 353 0032 1840     		ands	r0, r3
 354 0034 FFF7FEFF 		bl	UART_SpiUartWriteTxData
 355              	.LVL58:
 129:main.c        ****             if ('s' == ch) { 
 356              		.loc 1 129 0
 357 0038 732C     		cmp	r4, #115
 358 003a 19D1     		bne	.L18
 130:main.c        ****                 sin = result[CH2_SIN] - center_sin;
 359              		.loc 1 130 0
 360 003c 204B     		ldr	r3, .L26+8
 361 003e 9A88     		ldrh	r2, [r3, #4]
 362 0040 12B2     		sxth	r2, r2
 363 0042 F53A     		subs	r2, r2, #245
 364 0044 FF3A     		subs	r2, r2, #255
 365              	.LVL59:
 131:main.c        ****                 cos = result[CH3_COS] - center_cos;
 366              		.loc 1 131 0
 367 0046 DF88     		ldrh	r7, [r3, #6]
 368 0048 3FB2     		sxth	r7, r7
 369 004a C83F     		subs	r7, r7, #200
 370              	.LVL60:
 132:main.c        ****                 sprintf(uartLine, " %d,%d = %d\r\n" 
 133:main.c        ****                     ,sin
 134:main.c        ****                     ,cos
ARM GAS  C:\Users\JamesN4\AppData\Local\Temp\ccul3mwE.s 			page 10


 135:main.c        ****                     ,atan2Tonc(sin,cos)/91
 371              		.loc 1 135 0
 372 004c 3900     		movs	r1, r7
 373 004e 0392     		str	r2, [sp, #12]
 374 0050 1000     		movs	r0, r2
 375 0052 FFF7FEFF 		bl	atan2Tonc
 376              	.LVL61:
 132:main.c        ****                 sprintf(uartLine, " %d,%d = %d\r\n" 
 377              		.loc 1 132 0
 378 0056 5B21     		movs	r1, #91
 379 0058 FFF7FEFF 		bl	__aeabi_uidiv
 380              	.LVL62:
 381 005c 0090     		str	r0, [sp]
 382 005e 3B00     		movs	r3, r7
 383 0060 039A     		ldr	r2, [sp, #12]
 384 0062 1849     		ldr	r1, .L26+12
 385 0064 05A8     		add	r0, sp, #20
 386 0066 FFF7FEFF 		bl	sprintf
 387              	.LVL63:
 136:main.c        ****                     );
 137:main.c        ****                 UART_UartPutString(uartLine); //blocking
 388              		.loc 1 137 0
 389 006a 05A8     		add	r0, sp, #20
 390 006c FFF7FEFF 		bl	UART_UartPutString
 391              	.LVL64:
 392              	.L18:
 138:main.c        ****                 }
 139:main.c        ****             if ('2' == ch) { 
 393              		.loc 1 139 0
 394 0070 322C     		cmp	r4, #50
 395 0072 02D1     		bne	.L19
 396              	.LVL65:
 140:main.c        ****                 led_sin--;
 141:main.c        ****                 if (led_sin < 0) led_sin = 0;
 397              		.loc 1 141 0
 398 0074 013D     		subs	r5, r5, #1
 399 0076 00D5     		bpl	.L19
 400              	.LVL66:
 401 0078 0025     		movs	r5, #0
 402              	.LVL67:
 403              	.L19:
 142:main.c        ****                 }
 143:main.c        ****             if ('8' == ch) { 
 404              		.loc 1 143 0
 405 007a 382C     		cmp	r4, #56
 406 007c 06D1     		bne	.L20
 144:main.c        ****                 led_sin++;
 407              		.loc 1 144 0
 408 007e 0135     		adds	r5, r5, #1
 409              	.LVL68:
 145:main.c        ****                 if (led_sin > LED_MAX) led_sin = LED_MAX;
 410              		.loc 1 145 0
 411 0080 114B     		ldr	r3, .L26+16
 412 0082 1B68     		ldr	r3, [r3]
 413 0084 9D42     		cmp	r5, r3
 414 0086 01DD     		ble	.L20
 415              		.loc 1 145 0 is_stmt 0 discriminator 1
ARM GAS  C:\Users\JamesN4\AppData\Local\Temp\ccul3mwE.s 			page 11


 416 0088 0F4B     		ldr	r3, .L26+16
 417 008a 1D68     		ldr	r5, [r3]
 418              	.LVL69:
 419              	.L20:
 146:main.c        ****                 }
 147:main.c        ****             if ('4' == ch) { 
 420              		.loc 1 147 0 is_stmt 1
 421 008c 342C     		cmp	r4, #52
 422 008e 02D1     		bne	.L21
 423              	.LVL70:
 148:main.c        ****                 led_cos--;
 149:main.c        ****                 if (led_cos < 0) led_cos = 0;
 424              		.loc 1 149 0
 425 0090 013E     		subs	r6, r6, #1
 426 0092 00D5     		bpl	.L21
 427              	.LVL71:
 428 0094 0026     		movs	r6, #0
 429              	.LVL72:
 430              	.L21:
 150:main.c        ****                 }
 151:main.c        ****             if ('6' == ch) { 
 431              		.loc 1 151 0
 432 0096 362C     		cmp	r4, #54
 433 0098 06D1     		bne	.L22
 152:main.c        ****                 led_cos++;
 434              		.loc 1 152 0
 435 009a 0136     		adds	r6, r6, #1
 436              	.LVL73:
 153:main.c        ****                 if (led_cos > LED_MAX) led_cos = LED_MAX;
 437              		.loc 1 153 0
 438 009c 0A4B     		ldr	r3, .L26+16
 439 009e 1B68     		ldr	r3, [r3]
 440 00a0 9E42     		cmp	r6, r3
 441 00a2 01DD     		ble	.L22
 442              		.loc 1 153 0 is_stmt 0 discriminator 1
 443 00a4 084B     		ldr	r3, .L26+16
 444 00a6 1E68     		ldr	r6, [r3]
 445              	.LVL74:
 446              	.L22:
 154:main.c        ****                 }
 155:main.c        ****             PWM_1_WriteCompare(led_cos);
 447              		.loc 1 155 0 is_stmt 1
 448 00a8 3000     		movs	r0, r6
 449 00aa FFF7FEFF 		bl	PWM_1_WriteCompare
 450              	.LVL75:
 156:main.c        ****             PWM_2_WriteCompare(led_sin);
 451              		.loc 1 156 0
 452 00ae 2800     		movs	r0, r5
 453 00b0 FFF7FEFF 		bl	PWM_2_WriteCompare
 454              	.LVL76:
 455 00b4 B7E7     		b	.L17
 456              	.L27:
 457 00b6 C046     		.align	2
 458              	.L26:
 459 00b8 00000000 		.word	.LANCHOR1
 460 00bc 00000000 		.word	ADC_ISR_LOC
 461 00c0 00000000 		.word	result
ARM GAS  C:\Users\JamesN4\AppData\Local\Temp\ccul3mwE.s 			page 12


 462 00c4 00000000 		.word	.LC6
 463 00c8 D4022040 		.word	1075839700
 464              		.cfi_endproc
 465              	.LFE39:
 466              		.size	main, .-main
 467              		.comm	result,8,4
 468              		.global	dataReady
 469              		.section	.rodata
 470              		.align	2
 471              		.set	.LANCHOR1,. + 0
 472              	.LC2:
 473 0000 00783043 		.ascii	"\000x0COk\015\012\000"
 473      4F6B0D0A 
 473      00
 474              		.section	.rodata.str1.4,"aMS",%progbits,1
 475              		.align	2
 476              	.LC6:
 477 0000 2025642C 		.ascii	" %d,%d = %d\015\012\000"
 477      2564203D 
 477      2025640D 
 477      0A00
 478              		.bss
 479              		.align	2
 480              		.set	.LANCHOR0,. + 0
 481              		.type	dataReady, %object
 482              		.size	dataReady, 4
 483              	dataReady:
 484 0000 00000000 		.space	4
 485              		.text
 486              	.Letext0:
 487              		.file 2 "Generated_Source\\PSoC4/cytypes.h"
 488              		.file 3 "c:\\program files (x86)\\cypress\\psoc creator\\4.1\\psoc creator\\import\\gnu\\arm\\5.4.
 489              		.file 4 "Generated_Source\\PSoC4/ADC.h"
 490              		.file 5 "Generated_Source\\PSoC4/UART_SPI_UART.h"
 491              		.file 6 "Generated_Source\\PSoC4/UART.h"
 492              		.file 7 "Generated_Source\\PSoC4/ADC_IRQ.h"
 493              		.file 8 "Generated_Source\\PSoC4/PWM_2.h"
 494              		.file 9 "c:\\program files (x86)\\cypress\\psoc creator\\4.1\\psoc creator\\import\\gnu\\arm\\5.4.
 495              		.file 10 "Generated_Source\\PSoC4/PWM_1.h"