ARM GAS  C:\Users\JamesN4\AppData\Local\Temp\ccOnSHeI.s 			page 1


   1              		.syntax unified
   2              		.cpu cortex-m0
   3              		.fpu softvfp
   4              		.eabi_attribute 20, 1
   5              		.eabi_attribute 21, 1
   6              		.eabi_attribute 23, 3
   7              		.eabi_attribute 24, 1
   8              		.eabi_attribute 25, 1
   9              		.eabi_attribute 26, 1
  10              		.eabi_attribute 30, 1
  11              		.eabi_attribute 34, 0
  12              		.eabi_attribute 18, 4
  13              		.thumb
  14              		.syntax unified
  15              		.file	"PWM_0_Int.c"
  16              		.text
  17              	.Ltext0:
  18              		.cfi_sections	.debug_frame
  19              		.section	.text.PWM_0_Int_Interrupt,"ax",%progbits
  20              		.align	2
  21              		.global	PWM_0_Int_Interrupt
  22              		.code	16
  23              		.thumb_func
  24              		.type	PWM_0_Int_Interrupt, %function
  25              	PWM_0_Int_Interrupt:
  26              	.LFB4:
  27              		.file 1 "Generated_Source\\PSoC4\\PWM_0_Int.c"
   1:Generated_Source\PSoC4/PWM_0_Int.c **** /*******************************************************************************
   2:Generated_Source\PSoC4/PWM_0_Int.c **** * File Name: PWM_0_Int.c  
   3:Generated_Source\PSoC4/PWM_0_Int.c **** * Version 1.70
   4:Generated_Source\PSoC4/PWM_0_Int.c **** *
   5:Generated_Source\PSoC4/PWM_0_Int.c **** *  Description:
   6:Generated_Source\PSoC4/PWM_0_Int.c **** *   API for controlling the state of an interrupt.
   7:Generated_Source\PSoC4/PWM_0_Int.c **** *
   8:Generated_Source\PSoC4/PWM_0_Int.c **** *
   9:Generated_Source\PSoC4/PWM_0_Int.c **** *  Note:
  10:Generated_Source\PSoC4/PWM_0_Int.c **** *
  11:Generated_Source\PSoC4/PWM_0_Int.c **** ********************************************************************************
  12:Generated_Source\PSoC4/PWM_0_Int.c **** * Copyright 2008-2015, Cypress Semiconductor Corporation.  All rights reserved.
  13:Generated_Source\PSoC4/PWM_0_Int.c **** * You may use this file only in accordance with the license, terms, conditions, 
  14:Generated_Source\PSoC4/PWM_0_Int.c **** * disclaimers, and limitations in the end user license agreement accompanying 
  15:Generated_Source\PSoC4/PWM_0_Int.c **** * the software package with which this file was provided.
  16:Generated_Source\PSoC4/PWM_0_Int.c **** *******************************************************************************/
  17:Generated_Source\PSoC4/PWM_0_Int.c **** 
  18:Generated_Source\PSoC4/PWM_0_Int.c **** 
  19:Generated_Source\PSoC4/PWM_0_Int.c **** #include <cydevice_trm.h>
  20:Generated_Source\PSoC4/PWM_0_Int.c **** #include <CyLib.h>
  21:Generated_Source\PSoC4/PWM_0_Int.c **** #include <PWM_0_Int.h>
  22:Generated_Source\PSoC4/PWM_0_Int.c **** #include "cyapicallbacks.h"
  23:Generated_Source\PSoC4/PWM_0_Int.c **** 
  24:Generated_Source\PSoC4/PWM_0_Int.c **** #if !defined(PWM_0_Int__REMOVED) /* Check for removal by optimization */
  25:Generated_Source\PSoC4/PWM_0_Int.c **** 
  26:Generated_Source\PSoC4/PWM_0_Int.c **** /*******************************************************************************
  27:Generated_Source\PSoC4/PWM_0_Int.c **** *  Place your includes, defines and code here 
  28:Generated_Source\PSoC4/PWM_0_Int.c **** ********************************************************************************/
  29:Generated_Source\PSoC4/PWM_0_Int.c **** /* `#START PWM_0_Int_intc` */
  30:Generated_Source\PSoC4/PWM_0_Int.c **** 
ARM GAS  C:\Users\JamesN4\AppData\Local\Temp\ccOnSHeI.s 			page 2


  31:Generated_Source\PSoC4/PWM_0_Int.c **** /* `#END` */
  32:Generated_Source\PSoC4/PWM_0_Int.c **** 
  33:Generated_Source\PSoC4/PWM_0_Int.c **** extern cyisraddress CyRamVectors[CYINT_IRQ_BASE + CY_NUM_INTERRUPTS];
  34:Generated_Source\PSoC4/PWM_0_Int.c **** 
  35:Generated_Source\PSoC4/PWM_0_Int.c **** /* Declared in startup, used to set unused interrupts to. */
  36:Generated_Source\PSoC4/PWM_0_Int.c **** CY_ISR_PROTO(IntDefaultHandler);
  37:Generated_Source\PSoC4/PWM_0_Int.c **** 
  38:Generated_Source\PSoC4/PWM_0_Int.c **** 
  39:Generated_Source\PSoC4/PWM_0_Int.c **** /*******************************************************************************
  40:Generated_Source\PSoC4/PWM_0_Int.c **** * Function Name: PWM_0_Int_Start
  41:Generated_Source\PSoC4/PWM_0_Int.c **** ********************************************************************************
  42:Generated_Source\PSoC4/PWM_0_Int.c **** *
  43:Generated_Source\PSoC4/PWM_0_Int.c **** * Summary:
  44:Generated_Source\PSoC4/PWM_0_Int.c **** *  Set up the interrupt and enable it. This function disables the interrupt, 
  45:Generated_Source\PSoC4/PWM_0_Int.c **** *  sets the default interrupt vector, sets the priority from the value in the
  46:Generated_Source\PSoC4/PWM_0_Int.c **** *  Design Wide Resources Interrupt Editor, then enables the interrupt to the 
  47:Generated_Source\PSoC4/PWM_0_Int.c **** *  interrupt controller.
  48:Generated_Source\PSoC4/PWM_0_Int.c **** *
  49:Generated_Source\PSoC4/PWM_0_Int.c **** * Parameters:  
  50:Generated_Source\PSoC4/PWM_0_Int.c **** *   None
  51:Generated_Source\PSoC4/PWM_0_Int.c **** *
  52:Generated_Source\PSoC4/PWM_0_Int.c **** * Return:
  53:Generated_Source\PSoC4/PWM_0_Int.c **** *   None
  54:Generated_Source\PSoC4/PWM_0_Int.c **** *
  55:Generated_Source\PSoC4/PWM_0_Int.c **** *******************************************************************************/
  56:Generated_Source\PSoC4/PWM_0_Int.c **** void PWM_0_Int_Start(void)
  57:Generated_Source\PSoC4/PWM_0_Int.c **** {
  58:Generated_Source\PSoC4/PWM_0_Int.c ****     /* For all we know the interrupt is active. */
  59:Generated_Source\PSoC4/PWM_0_Int.c ****     PWM_0_Int_Disable();
  60:Generated_Source\PSoC4/PWM_0_Int.c **** 
  61:Generated_Source\PSoC4/PWM_0_Int.c ****     /* Set the ISR to point to the PWM_0_Int Interrupt. */
  62:Generated_Source\PSoC4/PWM_0_Int.c ****     PWM_0_Int_SetVector(&PWM_0_Int_Interrupt);
  63:Generated_Source\PSoC4/PWM_0_Int.c **** 
  64:Generated_Source\PSoC4/PWM_0_Int.c ****     /* Set the priority. */
  65:Generated_Source\PSoC4/PWM_0_Int.c ****     PWM_0_Int_SetPriority((uint8)PWM_0_Int_INTC_PRIOR_NUMBER);
  66:Generated_Source\PSoC4/PWM_0_Int.c **** 
  67:Generated_Source\PSoC4/PWM_0_Int.c ****     /* Enable it. */
  68:Generated_Source\PSoC4/PWM_0_Int.c ****     PWM_0_Int_Enable();
  69:Generated_Source\PSoC4/PWM_0_Int.c **** }
  70:Generated_Source\PSoC4/PWM_0_Int.c **** 
  71:Generated_Source\PSoC4/PWM_0_Int.c **** 
  72:Generated_Source\PSoC4/PWM_0_Int.c **** /*******************************************************************************
  73:Generated_Source\PSoC4/PWM_0_Int.c **** * Function Name: PWM_0_Int_StartEx
  74:Generated_Source\PSoC4/PWM_0_Int.c **** ********************************************************************************
  75:Generated_Source\PSoC4/PWM_0_Int.c **** *
  76:Generated_Source\PSoC4/PWM_0_Int.c **** * Summary:
  77:Generated_Source\PSoC4/PWM_0_Int.c **** *  Sets up the interrupt and enables it. This function disables the interrupt,
  78:Generated_Source\PSoC4/PWM_0_Int.c **** *  sets the interrupt vector based on the address passed in, sets the priority 
  79:Generated_Source\PSoC4/PWM_0_Int.c **** *  from the value in the Design Wide Resources Interrupt Editor, then enables 
  80:Generated_Source\PSoC4/PWM_0_Int.c **** *  the interrupt to the interrupt controller.
  81:Generated_Source\PSoC4/PWM_0_Int.c **** *  
  82:Generated_Source\PSoC4/PWM_0_Int.c **** *  When defining ISR functions, the CY_ISR and CY_ISR_PROTO macros should be 
  83:Generated_Source\PSoC4/PWM_0_Int.c **** *  used to provide consistent definition across compilers:
  84:Generated_Source\PSoC4/PWM_0_Int.c **** *  
  85:Generated_Source\PSoC4/PWM_0_Int.c **** *  Function definition example:
  86:Generated_Source\PSoC4/PWM_0_Int.c **** *   CY_ISR(MyISR)
  87:Generated_Source\PSoC4/PWM_0_Int.c **** *   {
ARM GAS  C:\Users\JamesN4\AppData\Local\Temp\ccOnSHeI.s 			page 3


  88:Generated_Source\PSoC4/PWM_0_Int.c **** *   }
  89:Generated_Source\PSoC4/PWM_0_Int.c **** *   Function prototype example:
  90:Generated_Source\PSoC4/PWM_0_Int.c **** *   CY_ISR_PROTO(MyISR);
  91:Generated_Source\PSoC4/PWM_0_Int.c **** *
  92:Generated_Source\PSoC4/PWM_0_Int.c **** * Parameters:  
  93:Generated_Source\PSoC4/PWM_0_Int.c **** *   address: Address of the ISR to set in the interrupt vector table.
  94:Generated_Source\PSoC4/PWM_0_Int.c **** *
  95:Generated_Source\PSoC4/PWM_0_Int.c **** * Return:
  96:Generated_Source\PSoC4/PWM_0_Int.c **** *   None
  97:Generated_Source\PSoC4/PWM_0_Int.c **** *
  98:Generated_Source\PSoC4/PWM_0_Int.c **** *******************************************************************************/
  99:Generated_Source\PSoC4/PWM_0_Int.c **** void PWM_0_Int_StartEx(cyisraddress address)
 100:Generated_Source\PSoC4/PWM_0_Int.c **** {
 101:Generated_Source\PSoC4/PWM_0_Int.c ****     /* For all we know the interrupt is active. */
 102:Generated_Source\PSoC4/PWM_0_Int.c ****     PWM_0_Int_Disable();
 103:Generated_Source\PSoC4/PWM_0_Int.c **** 
 104:Generated_Source\PSoC4/PWM_0_Int.c ****     /* Set the ISR to point to the PWM_0_Int Interrupt. */
 105:Generated_Source\PSoC4/PWM_0_Int.c ****     PWM_0_Int_SetVector(address);
 106:Generated_Source\PSoC4/PWM_0_Int.c **** 
 107:Generated_Source\PSoC4/PWM_0_Int.c ****     /* Set the priority. */
 108:Generated_Source\PSoC4/PWM_0_Int.c ****     PWM_0_Int_SetPriority((uint8)PWM_0_Int_INTC_PRIOR_NUMBER);
 109:Generated_Source\PSoC4/PWM_0_Int.c **** 
 110:Generated_Source\PSoC4/PWM_0_Int.c ****     /* Enable it. */
 111:Generated_Source\PSoC4/PWM_0_Int.c ****     PWM_0_Int_Enable();
 112:Generated_Source\PSoC4/PWM_0_Int.c **** }
 113:Generated_Source\PSoC4/PWM_0_Int.c **** 
 114:Generated_Source\PSoC4/PWM_0_Int.c **** 
 115:Generated_Source\PSoC4/PWM_0_Int.c **** /*******************************************************************************
 116:Generated_Source\PSoC4/PWM_0_Int.c **** * Function Name: PWM_0_Int_Stop
 117:Generated_Source\PSoC4/PWM_0_Int.c **** ********************************************************************************
 118:Generated_Source\PSoC4/PWM_0_Int.c **** *
 119:Generated_Source\PSoC4/PWM_0_Int.c **** * Summary:
 120:Generated_Source\PSoC4/PWM_0_Int.c **** *   Disables and removes the interrupt.
 121:Generated_Source\PSoC4/PWM_0_Int.c **** *
 122:Generated_Source\PSoC4/PWM_0_Int.c **** * Parameters:  
 123:Generated_Source\PSoC4/PWM_0_Int.c **** *   None
 124:Generated_Source\PSoC4/PWM_0_Int.c **** *
 125:Generated_Source\PSoC4/PWM_0_Int.c **** * Return:
 126:Generated_Source\PSoC4/PWM_0_Int.c **** *   None
 127:Generated_Source\PSoC4/PWM_0_Int.c **** *
 128:Generated_Source\PSoC4/PWM_0_Int.c **** *******************************************************************************/
 129:Generated_Source\PSoC4/PWM_0_Int.c **** void PWM_0_Int_Stop(void)
 130:Generated_Source\PSoC4/PWM_0_Int.c **** {
 131:Generated_Source\PSoC4/PWM_0_Int.c ****     /* Disable this interrupt. */
 132:Generated_Source\PSoC4/PWM_0_Int.c ****     PWM_0_Int_Disable();
 133:Generated_Source\PSoC4/PWM_0_Int.c **** 
 134:Generated_Source\PSoC4/PWM_0_Int.c ****     /* Set the ISR to point to the passive one. */
 135:Generated_Source\PSoC4/PWM_0_Int.c ****     PWM_0_Int_SetVector(&IntDefaultHandler);
 136:Generated_Source\PSoC4/PWM_0_Int.c **** }
 137:Generated_Source\PSoC4/PWM_0_Int.c **** 
 138:Generated_Source\PSoC4/PWM_0_Int.c **** 
 139:Generated_Source\PSoC4/PWM_0_Int.c **** /*******************************************************************************
 140:Generated_Source\PSoC4/PWM_0_Int.c **** * Function Name: PWM_0_Int_Interrupt
 141:Generated_Source\PSoC4/PWM_0_Int.c **** ********************************************************************************
 142:Generated_Source\PSoC4/PWM_0_Int.c **** *
 143:Generated_Source\PSoC4/PWM_0_Int.c **** * Summary:
 144:Generated_Source\PSoC4/PWM_0_Int.c **** *   The default Interrupt Service Routine for PWM_0_Int.
ARM GAS  C:\Users\JamesN4\AppData\Local\Temp\ccOnSHeI.s 			page 4


 145:Generated_Source\PSoC4/PWM_0_Int.c **** *
 146:Generated_Source\PSoC4/PWM_0_Int.c **** *   Add custom code between the START and END comments to keep the next version
 147:Generated_Source\PSoC4/PWM_0_Int.c **** *   of this file from over-writing your code.
 148:Generated_Source\PSoC4/PWM_0_Int.c **** *
 149:Generated_Source\PSoC4/PWM_0_Int.c **** *   Note You may use either the default ISR by using this API, or you may define
 150:Generated_Source\PSoC4/PWM_0_Int.c **** *   your own separate ISR through ISR_StartEx().
 151:Generated_Source\PSoC4/PWM_0_Int.c **** *
 152:Generated_Source\PSoC4/PWM_0_Int.c **** * Parameters:  
 153:Generated_Source\PSoC4/PWM_0_Int.c **** *   None
 154:Generated_Source\PSoC4/PWM_0_Int.c **** *
 155:Generated_Source\PSoC4/PWM_0_Int.c **** * Return:
 156:Generated_Source\PSoC4/PWM_0_Int.c **** *   None
 157:Generated_Source\PSoC4/PWM_0_Int.c **** *
 158:Generated_Source\PSoC4/PWM_0_Int.c **** *******************************************************************************/
 159:Generated_Source\PSoC4/PWM_0_Int.c **** CY_ISR(PWM_0_Int_Interrupt)
 160:Generated_Source\PSoC4/PWM_0_Int.c **** {
  28              		.loc 1 160 0
  29              		.cfi_startproc
  30              		@ args = 0, pretend = 0, frame = 0
  31              		@ frame_needed = 0, uses_anonymous_args = 0
  32              		@ link register save eliminated.
 161:Generated_Source\PSoC4/PWM_0_Int.c ****     #ifdef PWM_0_Int_INTERRUPT_INTERRUPT_CALLBACK
 162:Generated_Source\PSoC4/PWM_0_Int.c ****         PWM_0_Int_Interrupt_InterruptCallback();
 163:Generated_Source\PSoC4/PWM_0_Int.c ****     #endif /* PWM_0_Int_INTERRUPT_INTERRUPT_CALLBACK */ 
 164:Generated_Source\PSoC4/PWM_0_Int.c **** 
 165:Generated_Source\PSoC4/PWM_0_Int.c ****     /*  Place your Interrupt code here. */
 166:Generated_Source\PSoC4/PWM_0_Int.c ****     /* `#START PWM_0_Int_Interrupt` */
 167:Generated_Source\PSoC4/PWM_0_Int.c **** 
 168:Generated_Source\PSoC4/PWM_0_Int.c ****     /* `#END` */
 169:Generated_Source\PSoC4/PWM_0_Int.c **** }
  33              		.loc 1 169 0
  34              		@ sp needed
  35 0000 7047     		bx	lr
  36              		.cfi_endproc
  37              	.LFE4:
  38              		.size	PWM_0_Int_Interrupt, .-PWM_0_Int_Interrupt
  39 0002 C046     		.section	.text.PWM_0_Int_SetVector,"ax",%progbits
  40              		.align	2
  41              		.global	PWM_0_Int_SetVector
  42              		.code	16
  43              		.thumb_func
  44              		.type	PWM_0_Int_SetVector, %function
  45              	PWM_0_Int_SetVector:
  46              	.LFB5:
 170:Generated_Source\PSoC4/PWM_0_Int.c **** 
 171:Generated_Source\PSoC4/PWM_0_Int.c **** 
 172:Generated_Source\PSoC4/PWM_0_Int.c **** /*******************************************************************************
 173:Generated_Source\PSoC4/PWM_0_Int.c **** * Function Name: PWM_0_Int_SetVector
 174:Generated_Source\PSoC4/PWM_0_Int.c **** ********************************************************************************
 175:Generated_Source\PSoC4/PWM_0_Int.c **** *
 176:Generated_Source\PSoC4/PWM_0_Int.c **** * Summary:
 177:Generated_Source\PSoC4/PWM_0_Int.c **** *   Change the ISR vector for the Interrupt. Note calling PWM_0_Int_Start
 178:Generated_Source\PSoC4/PWM_0_Int.c **** *   will override any effect this method would have had. To set the vector 
 179:Generated_Source\PSoC4/PWM_0_Int.c **** *   before the component has been started use PWM_0_Int_StartEx instead.
 180:Generated_Source\PSoC4/PWM_0_Int.c **** * 
 181:Generated_Source\PSoC4/PWM_0_Int.c **** *   When defining ISR functions, the CY_ISR and CY_ISR_PROTO macros should be 
 182:Generated_Source\PSoC4/PWM_0_Int.c **** *   used to provide consistent definition across compilers:
ARM GAS  C:\Users\JamesN4\AppData\Local\Temp\ccOnSHeI.s 			page 5


 183:Generated_Source\PSoC4/PWM_0_Int.c **** *
 184:Generated_Source\PSoC4/PWM_0_Int.c **** *   Function definition example:
 185:Generated_Source\PSoC4/PWM_0_Int.c **** *   CY_ISR(MyISR)
 186:Generated_Source\PSoC4/PWM_0_Int.c **** *   {
 187:Generated_Source\PSoC4/PWM_0_Int.c **** *   }
 188:Generated_Source\PSoC4/PWM_0_Int.c **** *
 189:Generated_Source\PSoC4/PWM_0_Int.c **** *   Function prototype example:
 190:Generated_Source\PSoC4/PWM_0_Int.c **** *     CY_ISR_PROTO(MyISR);
 191:Generated_Source\PSoC4/PWM_0_Int.c **** *
 192:Generated_Source\PSoC4/PWM_0_Int.c **** * Parameters:
 193:Generated_Source\PSoC4/PWM_0_Int.c **** *   address: Address of the ISR to set in the interrupt vector table.
 194:Generated_Source\PSoC4/PWM_0_Int.c **** *
 195:Generated_Source\PSoC4/PWM_0_Int.c **** * Return:
 196:Generated_Source\PSoC4/PWM_0_Int.c **** *   None
 197:Generated_Source\PSoC4/PWM_0_Int.c **** *
 198:Generated_Source\PSoC4/PWM_0_Int.c **** *******************************************************************************/
 199:Generated_Source\PSoC4/PWM_0_Int.c **** void PWM_0_Int_SetVector(cyisraddress address)
 200:Generated_Source\PSoC4/PWM_0_Int.c **** {
  47              		.loc 1 200 0
  48              		.cfi_startproc
  49              		@ args = 0, pretend = 0, frame = 0
  50              		@ frame_needed = 0, uses_anonymous_args = 0
  51              		@ link register save eliminated.
  52              	.LVL0:
 201:Generated_Source\PSoC4/PWM_0_Int.c ****     CyRamVectors[CYINT_IRQ_BASE + PWM_0_Int__INTC_NUMBER] = address;
  53              		.loc 1 201 0
  54 0000 8C23     		movs	r3, #140
  55 0002 014A     		ldr	r2, .L3
  56 0004 D050     		str	r0, [r2, r3]
 202:Generated_Source\PSoC4/PWM_0_Int.c **** }
  57              		.loc 1 202 0
  58              		@ sp needed
  59 0006 7047     		bx	lr
  60              	.L4:
  61              		.align	2
  62              	.L3:
  63 0008 00000000 		.word	CyRamVectors
  64              		.cfi_endproc
  65              	.LFE5:
  66              		.size	PWM_0_Int_SetVector, .-PWM_0_Int_SetVector
  67              		.section	.text.PWM_0_Int_GetVector,"ax",%progbits
  68              		.align	2
  69              		.global	PWM_0_Int_GetVector
  70              		.code	16
  71              		.thumb_func
  72              		.type	PWM_0_Int_GetVector, %function
  73              	PWM_0_Int_GetVector:
  74              	.LFB6:
 203:Generated_Source\PSoC4/PWM_0_Int.c **** 
 204:Generated_Source\PSoC4/PWM_0_Int.c **** 
 205:Generated_Source\PSoC4/PWM_0_Int.c **** /*******************************************************************************
 206:Generated_Source\PSoC4/PWM_0_Int.c **** * Function Name: PWM_0_Int_GetVector
 207:Generated_Source\PSoC4/PWM_0_Int.c **** ********************************************************************************
 208:Generated_Source\PSoC4/PWM_0_Int.c **** *
 209:Generated_Source\PSoC4/PWM_0_Int.c **** * Summary:
 210:Generated_Source\PSoC4/PWM_0_Int.c **** *   Gets the "address" of the current ISR vector for the Interrupt.
 211:Generated_Source\PSoC4/PWM_0_Int.c **** *
ARM GAS  C:\Users\JamesN4\AppData\Local\Temp\ccOnSHeI.s 			page 6


 212:Generated_Source\PSoC4/PWM_0_Int.c **** * Parameters:
 213:Generated_Source\PSoC4/PWM_0_Int.c **** *   None
 214:Generated_Source\PSoC4/PWM_0_Int.c **** *
 215:Generated_Source\PSoC4/PWM_0_Int.c **** * Return:
 216:Generated_Source\PSoC4/PWM_0_Int.c **** *   Address of the ISR in the interrupt vector table.
 217:Generated_Source\PSoC4/PWM_0_Int.c **** *
 218:Generated_Source\PSoC4/PWM_0_Int.c **** *******************************************************************************/
 219:Generated_Source\PSoC4/PWM_0_Int.c **** cyisraddress PWM_0_Int_GetVector(void)
 220:Generated_Source\PSoC4/PWM_0_Int.c **** {
  75              		.loc 1 220 0
  76              		.cfi_startproc
  77              		@ args = 0, pretend = 0, frame = 0
  78              		@ frame_needed = 0, uses_anonymous_args = 0
  79              		@ link register save eliminated.
 221:Generated_Source\PSoC4/PWM_0_Int.c ****     return CyRamVectors[CYINT_IRQ_BASE + PWM_0_Int__INTC_NUMBER];
  80              		.loc 1 221 0
  81 0000 8C23     		movs	r3, #140
  82 0002 014A     		ldr	r2, .L6
  83 0004 D058     		ldr	r0, [r2, r3]
 222:Generated_Source\PSoC4/PWM_0_Int.c **** }
  84              		.loc 1 222 0
  85              		@ sp needed
  86 0006 7047     		bx	lr
  87              	.L7:
  88              		.align	2
  89              	.L6:
  90 0008 00000000 		.word	CyRamVectors
  91              		.cfi_endproc
  92              	.LFE6:
  93              		.size	PWM_0_Int_GetVector, .-PWM_0_Int_GetVector
  94              		.section	.text.PWM_0_Int_SetPriority,"ax",%progbits
  95              		.align	2
  96              		.global	PWM_0_Int_SetPriority
  97              		.code	16
  98              		.thumb_func
  99              		.type	PWM_0_Int_SetPriority, %function
 100              	PWM_0_Int_SetPriority:
 101              	.LFB7:
 223:Generated_Source\PSoC4/PWM_0_Int.c **** 
 224:Generated_Source\PSoC4/PWM_0_Int.c **** 
 225:Generated_Source\PSoC4/PWM_0_Int.c **** /*******************************************************************************
 226:Generated_Source\PSoC4/PWM_0_Int.c **** * Function Name: PWM_0_Int_SetPriority
 227:Generated_Source\PSoC4/PWM_0_Int.c **** ********************************************************************************
 228:Generated_Source\PSoC4/PWM_0_Int.c **** *
 229:Generated_Source\PSoC4/PWM_0_Int.c **** * Summary:
 230:Generated_Source\PSoC4/PWM_0_Int.c **** *   Sets the Priority of the Interrupt. 
 231:Generated_Source\PSoC4/PWM_0_Int.c **** *
 232:Generated_Source\PSoC4/PWM_0_Int.c **** *   Note calling PWM_0_Int_Start or PWM_0_Int_StartEx will 
 233:Generated_Source\PSoC4/PWM_0_Int.c **** *   override any effect this API would have had. This API should only be called
 234:Generated_Source\PSoC4/PWM_0_Int.c **** *   after PWM_0_Int_Start or PWM_0_Int_StartEx has been called. 
 235:Generated_Source\PSoC4/PWM_0_Int.c **** *   To set the initial priority for the component, use the Design-Wide Resources
 236:Generated_Source\PSoC4/PWM_0_Int.c **** *   Interrupt Editor.
 237:Generated_Source\PSoC4/PWM_0_Int.c **** *
 238:Generated_Source\PSoC4/PWM_0_Int.c **** *   Note This API has no effect on Non-maskable interrupt NMI).
 239:Generated_Source\PSoC4/PWM_0_Int.c **** *
 240:Generated_Source\PSoC4/PWM_0_Int.c **** * Parameters:
 241:Generated_Source\PSoC4/PWM_0_Int.c **** *   priority: Priority of the interrupt, 0 being the highest priority
ARM GAS  C:\Users\JamesN4\AppData\Local\Temp\ccOnSHeI.s 			page 7


 242:Generated_Source\PSoC4/PWM_0_Int.c **** *             PSoC 3 and PSoC 5LP: Priority is from 0 to 7.
 243:Generated_Source\PSoC4/PWM_0_Int.c **** *             PSoC 4: Priority is from 0 to 3.
 244:Generated_Source\PSoC4/PWM_0_Int.c **** *
 245:Generated_Source\PSoC4/PWM_0_Int.c **** * Return:
 246:Generated_Source\PSoC4/PWM_0_Int.c **** *   None
 247:Generated_Source\PSoC4/PWM_0_Int.c **** *
 248:Generated_Source\PSoC4/PWM_0_Int.c **** *******************************************************************************/
 249:Generated_Source\PSoC4/PWM_0_Int.c **** void PWM_0_Int_SetPriority(uint8 priority)
 250:Generated_Source\PSoC4/PWM_0_Int.c **** {
 102              		.loc 1 250 0
 103              		.cfi_startproc
 104              		@ args = 0, pretend = 0, frame = 0
 105              		@ frame_needed = 0, uses_anonymous_args = 0
 106              	.LVL1:
 107 0000 10B5     		push	{r4, lr}
 108              		.cfi_def_cfa_offset 8
 109              		.cfi_offset 4, -8
 110              		.cfi_offset 14, -4
 111 0002 0400     		movs	r4, r0
 112              	.LVL2:
 251:Generated_Source\PSoC4/PWM_0_Int.c **** 	uint8 interruptState;
 252:Generated_Source\PSoC4/PWM_0_Int.c ****     uint32 priorityOffset = ((PWM_0_Int__INTC_NUMBER % 4u) * 8u) + 6u;
 253:Generated_Source\PSoC4/PWM_0_Int.c ****     
 254:Generated_Source\PSoC4/PWM_0_Int.c **** 	interruptState = CyEnterCriticalSection();
 113              		.loc 1 254 0
 114 0004 FFF7FEFF 		bl	CyEnterCriticalSection
 115              	.LVL3:
 255:Generated_Source\PSoC4/PWM_0_Int.c ****     *PWM_0_Int_INTC_PRIOR = (*PWM_0_Int_INTC_PRIOR & (uint32)(~PWM_0_Int__INTC_PRIOR_MASK)) |
 116              		.loc 1 255 0
 117 0008 044A     		ldr	r2, .L9
 118 000a 1368     		ldr	r3, [r2]
 119 000c 9B00     		lsls	r3, r3, #2
 120 000e 9B08     		lsrs	r3, r3, #2
 256:Generated_Source\PSoC4/PWM_0_Int.c ****                                     ((uint32)priority << priorityOffset);
 121              		.loc 1 256 0
 122 0010 A407     		lsls	r4, r4, #30
 255:Generated_Source\PSoC4/PWM_0_Int.c ****     *PWM_0_Int_INTC_PRIOR = (*PWM_0_Int_INTC_PRIOR & (uint32)(~PWM_0_Int__INTC_PRIOR_MASK)) |
 123              		.loc 1 255 0
 124 0012 1C43     		orrs	r4, r3
 125 0014 1460     		str	r4, [r2]
 257:Generated_Source\PSoC4/PWM_0_Int.c **** 	CyExitCriticalSection(interruptState);
 126              		.loc 1 257 0
 127 0016 FFF7FEFF 		bl	CyExitCriticalSection
 128              	.LVL4:
 258:Generated_Source\PSoC4/PWM_0_Int.c **** }
 129              		.loc 1 258 0
 130              		@ sp needed
 131 001a 10BD     		pop	{r4, pc}
 132              	.L10:
 133              		.align	2
 134              	.L9:
 135 001c 10E400E0 		.word	-536812528
 136              		.cfi_endproc
 137              	.LFE7:
 138              		.size	PWM_0_Int_SetPriority, .-PWM_0_Int_SetPriority
 139              		.section	.text.PWM_0_Int_GetPriority,"ax",%progbits
 140              		.align	2
ARM GAS  C:\Users\JamesN4\AppData\Local\Temp\ccOnSHeI.s 			page 8


 141              		.global	PWM_0_Int_GetPriority
 142              		.code	16
 143              		.thumb_func
 144              		.type	PWM_0_Int_GetPriority, %function
 145              	PWM_0_Int_GetPriority:
 146              	.LFB8:
 259:Generated_Source\PSoC4/PWM_0_Int.c **** 
 260:Generated_Source\PSoC4/PWM_0_Int.c **** 
 261:Generated_Source\PSoC4/PWM_0_Int.c **** /*******************************************************************************
 262:Generated_Source\PSoC4/PWM_0_Int.c **** * Function Name: PWM_0_Int_GetPriority
 263:Generated_Source\PSoC4/PWM_0_Int.c **** ********************************************************************************
 264:Generated_Source\PSoC4/PWM_0_Int.c **** *
 265:Generated_Source\PSoC4/PWM_0_Int.c **** * Summary:
 266:Generated_Source\PSoC4/PWM_0_Int.c **** *   Gets the Priority of the Interrupt.
 267:Generated_Source\PSoC4/PWM_0_Int.c **** *
 268:Generated_Source\PSoC4/PWM_0_Int.c **** * Parameters:
 269:Generated_Source\PSoC4/PWM_0_Int.c **** *   None
 270:Generated_Source\PSoC4/PWM_0_Int.c **** *
 271:Generated_Source\PSoC4/PWM_0_Int.c **** * Return:
 272:Generated_Source\PSoC4/PWM_0_Int.c **** *   Priority of the interrupt, 0 being the highest priority
 273:Generated_Source\PSoC4/PWM_0_Int.c **** *    PSoC 3 and PSoC 5LP: Priority is from 0 to 7.
 274:Generated_Source\PSoC4/PWM_0_Int.c **** *    PSoC 4: Priority is from 0 to 3.
 275:Generated_Source\PSoC4/PWM_0_Int.c **** *
 276:Generated_Source\PSoC4/PWM_0_Int.c **** *******************************************************************************/
 277:Generated_Source\PSoC4/PWM_0_Int.c **** uint8 PWM_0_Int_GetPriority(void)
 278:Generated_Source\PSoC4/PWM_0_Int.c **** {
 147              		.loc 1 278 0
 148              		.cfi_startproc
 149              		@ args = 0, pretend = 0, frame = 0
 150              		@ frame_needed = 0, uses_anonymous_args = 0
 151              		@ link register save eliminated.
 152              	.LVL5:
 279:Generated_Source\PSoC4/PWM_0_Int.c ****     uint32 priority;
 280:Generated_Source\PSoC4/PWM_0_Int.c **** 	uint32 priorityOffset = ((PWM_0_Int__INTC_NUMBER % 4u) * 8u) + 6u;
 281:Generated_Source\PSoC4/PWM_0_Int.c **** 
 282:Generated_Source\PSoC4/PWM_0_Int.c ****     priority = (*PWM_0_Int_INTC_PRIOR & PWM_0_Int__INTC_PRIOR_MASK) >> priorityOffset;
 153              		.loc 1 282 0
 154 0000 014B     		ldr	r3, .L12
 155 0002 1868     		ldr	r0, [r3]
 156              	.LVL6:
 283:Generated_Source\PSoC4/PWM_0_Int.c **** 
 284:Generated_Source\PSoC4/PWM_0_Int.c ****     return (uint8)priority;
 157              		.loc 1 284 0
 158 0004 800F     		lsrs	r0, r0, #30
 159              	.LVL7:
 285:Generated_Source\PSoC4/PWM_0_Int.c **** }
 160              		.loc 1 285 0
 161              		@ sp needed
 162 0006 7047     		bx	lr
 163              	.L13:
 164              		.align	2
 165              	.L12:
 166 0008 10E400E0 		.word	-536812528
 167              		.cfi_endproc
 168              	.LFE8:
 169              		.size	PWM_0_Int_GetPriority, .-PWM_0_Int_GetPriority
 170              		.section	.text.PWM_0_Int_Enable,"ax",%progbits
ARM GAS  C:\Users\JamesN4\AppData\Local\Temp\ccOnSHeI.s 			page 9


 171              		.align	2
 172              		.global	PWM_0_Int_Enable
 173              		.code	16
 174              		.thumb_func
 175              		.type	PWM_0_Int_Enable, %function
 176              	PWM_0_Int_Enable:
 177              	.LFB9:
 286:Generated_Source\PSoC4/PWM_0_Int.c **** 
 287:Generated_Source\PSoC4/PWM_0_Int.c **** 
 288:Generated_Source\PSoC4/PWM_0_Int.c **** /*******************************************************************************
 289:Generated_Source\PSoC4/PWM_0_Int.c **** * Function Name: PWM_0_Int_Enable
 290:Generated_Source\PSoC4/PWM_0_Int.c **** ********************************************************************************
 291:Generated_Source\PSoC4/PWM_0_Int.c **** *
 292:Generated_Source\PSoC4/PWM_0_Int.c **** * Summary:
 293:Generated_Source\PSoC4/PWM_0_Int.c **** *   Enables the interrupt to the interrupt controller. Do not call this function
 294:Generated_Source\PSoC4/PWM_0_Int.c **** *   unless ISR_Start() has been called or the functionality of the ISR_Start() 
 295:Generated_Source\PSoC4/PWM_0_Int.c **** *   function, which sets the vector and the priority, has been called.
 296:Generated_Source\PSoC4/PWM_0_Int.c **** *
 297:Generated_Source\PSoC4/PWM_0_Int.c **** * Parameters:
 298:Generated_Source\PSoC4/PWM_0_Int.c **** *   None
 299:Generated_Source\PSoC4/PWM_0_Int.c **** *
 300:Generated_Source\PSoC4/PWM_0_Int.c **** * Return:
 301:Generated_Source\PSoC4/PWM_0_Int.c **** *   None
 302:Generated_Source\PSoC4/PWM_0_Int.c **** *
 303:Generated_Source\PSoC4/PWM_0_Int.c **** *******************************************************************************/
 304:Generated_Source\PSoC4/PWM_0_Int.c **** void PWM_0_Int_Enable(void)
 305:Generated_Source\PSoC4/PWM_0_Int.c **** {
 178              		.loc 1 305 0
 179              		.cfi_startproc
 180              		@ args = 0, pretend = 0, frame = 0
 181              		@ frame_needed = 0, uses_anonymous_args = 0
 182              		@ link register save eliminated.
 306:Generated_Source\PSoC4/PWM_0_Int.c ****     /* Enable the general interrupt. */
 307:Generated_Source\PSoC4/PWM_0_Int.c ****     *PWM_0_Int_INTC_SET_EN = PWM_0_Int__INTC_MASK;
 183              		.loc 1 307 0
 184 0000 8022     		movs	r2, #128
 185 0002 1203     		lsls	r2, r2, #12
 186 0004 014B     		ldr	r3, .L15
 187 0006 1A60     		str	r2, [r3]
 308:Generated_Source\PSoC4/PWM_0_Int.c **** }
 188              		.loc 1 308 0
 189              		@ sp needed
 190 0008 7047     		bx	lr
 191              	.L16:
 192 000a C046     		.align	2
 193              	.L15:
 194 000c 00E100E0 		.word	-536813312
 195              		.cfi_endproc
 196              	.LFE9:
 197              		.size	PWM_0_Int_Enable, .-PWM_0_Int_Enable
 198              		.section	.text.PWM_0_Int_GetState,"ax",%progbits
 199              		.align	2
 200              		.global	PWM_0_Int_GetState
 201              		.code	16
 202              		.thumb_func
 203              		.type	PWM_0_Int_GetState, %function
 204              	PWM_0_Int_GetState:
ARM GAS  C:\Users\JamesN4\AppData\Local\Temp\ccOnSHeI.s 			page 10


 205              	.LFB10:
 309:Generated_Source\PSoC4/PWM_0_Int.c **** 
 310:Generated_Source\PSoC4/PWM_0_Int.c **** 
 311:Generated_Source\PSoC4/PWM_0_Int.c **** /*******************************************************************************
 312:Generated_Source\PSoC4/PWM_0_Int.c **** * Function Name: PWM_0_Int_GetState
 313:Generated_Source\PSoC4/PWM_0_Int.c **** ********************************************************************************
 314:Generated_Source\PSoC4/PWM_0_Int.c **** *
 315:Generated_Source\PSoC4/PWM_0_Int.c **** * Summary:
 316:Generated_Source\PSoC4/PWM_0_Int.c **** *   Gets the state (enabled, disabled) of the Interrupt.
 317:Generated_Source\PSoC4/PWM_0_Int.c **** *
 318:Generated_Source\PSoC4/PWM_0_Int.c **** * Parameters:
 319:Generated_Source\PSoC4/PWM_0_Int.c **** *   None
 320:Generated_Source\PSoC4/PWM_0_Int.c **** *
 321:Generated_Source\PSoC4/PWM_0_Int.c **** * Return:
 322:Generated_Source\PSoC4/PWM_0_Int.c **** *   1 if enabled, 0 if disabled.
 323:Generated_Source\PSoC4/PWM_0_Int.c **** *
 324:Generated_Source\PSoC4/PWM_0_Int.c **** *******************************************************************************/
 325:Generated_Source\PSoC4/PWM_0_Int.c **** uint8 PWM_0_Int_GetState(void)
 326:Generated_Source\PSoC4/PWM_0_Int.c **** {
 206              		.loc 1 326 0
 207              		.cfi_startproc
 208              		@ args = 0, pretend = 0, frame = 0
 209              		@ frame_needed = 0, uses_anonymous_args = 0
 210              		@ link register save eliminated.
 327:Generated_Source\PSoC4/PWM_0_Int.c ****     /* Get the state of the general interrupt. */
 328:Generated_Source\PSoC4/PWM_0_Int.c ****     return ((*PWM_0_Int_INTC_SET_EN & (uint32)PWM_0_Int__INTC_MASK) != 0u) ? 1u:0u;
 211              		.loc 1 328 0
 212 0000 034B     		ldr	r3, .L20
 213 0002 1B68     		ldr	r3, [r3]
 214 0004 1B03     		lsls	r3, r3, #12
 215 0006 01D5     		bpl	.L19
 216 0008 0120     		movs	r0, #1
 217 000a 00E0     		b	.L18
 218              	.L19:
 219 000c 0020     		movs	r0, #0
 220              	.L18:
 329:Generated_Source\PSoC4/PWM_0_Int.c **** }
 221              		.loc 1 329 0 discriminator 4
 222              		@ sp needed
 223 000e 7047     		bx	lr
 224              	.L21:
 225              		.align	2
 226              	.L20:
 227 0010 00E100E0 		.word	-536813312
 228              		.cfi_endproc
 229              	.LFE10:
 230              		.size	PWM_0_Int_GetState, .-PWM_0_Int_GetState
 231              		.section	.text.PWM_0_Int_Disable,"ax",%progbits
 232              		.align	2
 233              		.global	PWM_0_Int_Disable
 234              		.code	16
 235              		.thumb_func
 236              		.type	PWM_0_Int_Disable, %function
 237              	PWM_0_Int_Disable:
 238              	.LFB11:
 330:Generated_Source\PSoC4/PWM_0_Int.c **** 
 331:Generated_Source\PSoC4/PWM_0_Int.c **** 
ARM GAS  C:\Users\JamesN4\AppData\Local\Temp\ccOnSHeI.s 			page 11


 332:Generated_Source\PSoC4/PWM_0_Int.c **** /*******************************************************************************
 333:Generated_Source\PSoC4/PWM_0_Int.c **** * Function Name: PWM_0_Int_Disable
 334:Generated_Source\PSoC4/PWM_0_Int.c **** ********************************************************************************
 335:Generated_Source\PSoC4/PWM_0_Int.c **** *
 336:Generated_Source\PSoC4/PWM_0_Int.c **** * Summary:
 337:Generated_Source\PSoC4/PWM_0_Int.c **** *   Disables the Interrupt in the interrupt controller.
 338:Generated_Source\PSoC4/PWM_0_Int.c **** *
 339:Generated_Source\PSoC4/PWM_0_Int.c **** * Parameters:
 340:Generated_Source\PSoC4/PWM_0_Int.c **** *   None
 341:Generated_Source\PSoC4/PWM_0_Int.c **** *
 342:Generated_Source\PSoC4/PWM_0_Int.c **** * Return:
 343:Generated_Source\PSoC4/PWM_0_Int.c **** *   None
 344:Generated_Source\PSoC4/PWM_0_Int.c **** *
 345:Generated_Source\PSoC4/PWM_0_Int.c **** *******************************************************************************/
 346:Generated_Source\PSoC4/PWM_0_Int.c **** void PWM_0_Int_Disable(void)
 347:Generated_Source\PSoC4/PWM_0_Int.c **** {
 239              		.loc 1 347 0
 240              		.cfi_startproc
 241              		@ args = 0, pretend = 0, frame = 0
 242              		@ frame_needed = 0, uses_anonymous_args = 0
 243              		@ link register save eliminated.
 348:Generated_Source\PSoC4/PWM_0_Int.c ****     /* Disable the general interrupt. */
 349:Generated_Source\PSoC4/PWM_0_Int.c ****     *PWM_0_Int_INTC_CLR_EN = PWM_0_Int__INTC_MASK;
 244              		.loc 1 349 0
 245 0000 8022     		movs	r2, #128
 246 0002 1203     		lsls	r2, r2, #12
 247 0004 014B     		ldr	r3, .L23
 248 0006 1A60     		str	r2, [r3]
 350:Generated_Source\PSoC4/PWM_0_Int.c **** }
 249              		.loc 1 350 0
 250              		@ sp needed
 251 0008 7047     		bx	lr
 252              	.L24:
 253 000a C046     		.align	2
 254              	.L23:
 255 000c 80E100E0 		.word	-536813184
 256              		.cfi_endproc
 257              	.LFE11:
 258              		.size	PWM_0_Int_Disable, .-PWM_0_Int_Disable
 259              		.section	.text.PWM_0_Int_Start,"ax",%progbits
 260              		.align	2
 261              		.global	PWM_0_Int_Start
 262              		.code	16
 263              		.thumb_func
 264              		.type	PWM_0_Int_Start, %function
 265              	PWM_0_Int_Start:
 266              	.LFB1:
  57:Generated_Source\PSoC4/PWM_0_Int.c ****     /* For all we know the interrupt is active. */
 267              		.loc 1 57 0
 268              		.cfi_startproc
 269              		@ args = 0, pretend = 0, frame = 0
 270              		@ frame_needed = 0, uses_anonymous_args = 0
 271 0000 10B5     		push	{r4, lr}
 272              		.cfi_def_cfa_offset 8
 273              		.cfi_offset 4, -8
 274              		.cfi_offset 14, -4
  59:Generated_Source\PSoC4/PWM_0_Int.c **** 
ARM GAS  C:\Users\JamesN4\AppData\Local\Temp\ccOnSHeI.s 			page 12


 275              		.loc 1 59 0
 276 0002 FFF7FEFF 		bl	PWM_0_Int_Disable
 277              	.LVL8:
  62:Generated_Source\PSoC4/PWM_0_Int.c **** 
 278              		.loc 1 62 0
 279 0006 0448     		ldr	r0, .L26
 280 0008 FFF7FEFF 		bl	PWM_0_Int_SetVector
 281              	.LVL9:
  65:Generated_Source\PSoC4/PWM_0_Int.c **** 
 282              		.loc 1 65 0
 283 000c 0320     		movs	r0, #3
 284 000e FFF7FEFF 		bl	PWM_0_Int_SetPriority
 285              	.LVL10:
  68:Generated_Source\PSoC4/PWM_0_Int.c **** }
 286              		.loc 1 68 0
 287 0012 FFF7FEFF 		bl	PWM_0_Int_Enable
 288              	.LVL11:
  69:Generated_Source\PSoC4/PWM_0_Int.c **** 
 289              		.loc 1 69 0
 290              		@ sp needed
 291 0016 10BD     		pop	{r4, pc}
 292              	.L27:
 293              		.align	2
 294              	.L26:
 295 0018 00000000 		.word	PWM_0_Int_Interrupt
 296              		.cfi_endproc
 297              	.LFE1:
 298              		.size	PWM_0_Int_Start, .-PWM_0_Int_Start
 299              		.section	.text.PWM_0_Int_StartEx,"ax",%progbits
 300              		.align	2
 301              		.global	PWM_0_Int_StartEx
 302              		.code	16
 303              		.thumb_func
 304              		.type	PWM_0_Int_StartEx, %function
 305              	PWM_0_Int_StartEx:
 306              	.LFB2:
 100:Generated_Source\PSoC4/PWM_0_Int.c ****     /* For all we know the interrupt is active. */
 307              		.loc 1 100 0
 308              		.cfi_startproc
 309              		@ args = 0, pretend = 0, frame = 0
 310              		@ frame_needed = 0, uses_anonymous_args = 0
 311              	.LVL12:
 312 0000 10B5     		push	{r4, lr}
 313              		.cfi_def_cfa_offset 8
 314              		.cfi_offset 4, -8
 315              		.cfi_offset 14, -4
 316 0002 0400     		movs	r4, r0
 102:Generated_Source\PSoC4/PWM_0_Int.c **** 
 317              		.loc 1 102 0
 318 0004 FFF7FEFF 		bl	PWM_0_Int_Disable
 319              	.LVL13:
 105:Generated_Source\PSoC4/PWM_0_Int.c **** 
 320              		.loc 1 105 0
 321 0008 2000     		movs	r0, r4
 322 000a FFF7FEFF 		bl	PWM_0_Int_SetVector
 323              	.LVL14:
 108:Generated_Source\PSoC4/PWM_0_Int.c **** 
ARM GAS  C:\Users\JamesN4\AppData\Local\Temp\ccOnSHeI.s 			page 13


 324              		.loc 1 108 0
 325 000e 0320     		movs	r0, #3
 326 0010 FFF7FEFF 		bl	PWM_0_Int_SetPriority
 327              	.LVL15:
 111:Generated_Source\PSoC4/PWM_0_Int.c **** }
 328              		.loc 1 111 0
 329 0014 FFF7FEFF 		bl	PWM_0_Int_Enable
 330              	.LVL16:
 112:Generated_Source\PSoC4/PWM_0_Int.c **** 
 331              		.loc 1 112 0
 332              		@ sp needed
 333              	.LVL17:
 334 0018 10BD     		pop	{r4, pc}
 335              		.cfi_endproc
 336              	.LFE2:
 337              		.size	PWM_0_Int_StartEx, .-PWM_0_Int_StartEx
 338 001a C046     		.section	.text.PWM_0_Int_Stop,"ax",%progbits
 339              		.align	2
 340              		.global	PWM_0_Int_Stop
 341              		.code	16
 342              		.thumb_func
 343              		.type	PWM_0_Int_Stop, %function
 344              	PWM_0_Int_Stop:
 345              	.LFB3:
 130:Generated_Source\PSoC4/PWM_0_Int.c ****     /* Disable this interrupt. */
 346              		.loc 1 130 0
 347              		.cfi_startproc
 348              		@ args = 0, pretend = 0, frame = 0
 349              		@ frame_needed = 0, uses_anonymous_args = 0
 350 0000 10B5     		push	{r4, lr}
 351              		.cfi_def_cfa_offset 8
 352              		.cfi_offset 4, -8
 353              		.cfi_offset 14, -4
 132:Generated_Source\PSoC4/PWM_0_Int.c **** 
 354              		.loc 1 132 0
 355 0002 FFF7FEFF 		bl	PWM_0_Int_Disable
 356              	.LVL18:
 135:Generated_Source\PSoC4/PWM_0_Int.c **** }
 357              		.loc 1 135 0
 358 0006 0248     		ldr	r0, .L30
 359 0008 FFF7FEFF 		bl	PWM_0_Int_SetVector
 360              	.LVL19:
 136:Generated_Source\PSoC4/PWM_0_Int.c **** 
 361              		.loc 1 136 0
 362              		@ sp needed
 363 000c 10BD     		pop	{r4, pc}
 364              	.L31:
 365 000e C046     		.align	2
 366              	.L30:
 367 0010 00000000 		.word	IntDefaultHandler
 368              		.cfi_endproc
 369              	.LFE3:
 370              		.size	PWM_0_Int_Stop, .-PWM_0_Int_Stop
 371              		.section	.text.PWM_0_Int_SetPending,"ax",%progbits
 372              		.align	2
 373              		.global	PWM_0_Int_SetPending
 374              		.code	16
ARM GAS  C:\Users\JamesN4\AppData\Local\Temp\ccOnSHeI.s 			page 14


 375              		.thumb_func
 376              		.type	PWM_0_Int_SetPending, %function
 377              	PWM_0_Int_SetPending:
 378              	.LFB12:
 351:Generated_Source\PSoC4/PWM_0_Int.c **** 
 352:Generated_Source\PSoC4/PWM_0_Int.c **** 
 353:Generated_Source\PSoC4/PWM_0_Int.c **** /*******************************************************************************
 354:Generated_Source\PSoC4/PWM_0_Int.c **** * Function Name: PWM_0_Int_SetPending
 355:Generated_Source\PSoC4/PWM_0_Int.c **** ********************************************************************************
 356:Generated_Source\PSoC4/PWM_0_Int.c **** *
 357:Generated_Source\PSoC4/PWM_0_Int.c **** * Summary:
 358:Generated_Source\PSoC4/PWM_0_Int.c **** *   Causes the Interrupt to enter the pending state, a software method of
 359:Generated_Source\PSoC4/PWM_0_Int.c **** *   generating the interrupt.
 360:Generated_Source\PSoC4/PWM_0_Int.c **** *
 361:Generated_Source\PSoC4/PWM_0_Int.c **** * Parameters:
 362:Generated_Source\PSoC4/PWM_0_Int.c **** *   None
 363:Generated_Source\PSoC4/PWM_0_Int.c **** *
 364:Generated_Source\PSoC4/PWM_0_Int.c **** * Return:
 365:Generated_Source\PSoC4/PWM_0_Int.c **** *   None
 366:Generated_Source\PSoC4/PWM_0_Int.c **** *
 367:Generated_Source\PSoC4/PWM_0_Int.c **** * Side Effects:
 368:Generated_Source\PSoC4/PWM_0_Int.c **** *   If interrupts are enabled and the interrupt is set up properly, the ISR is
 369:Generated_Source\PSoC4/PWM_0_Int.c **** *   entered (depending on the priority of this interrupt and other pending 
 370:Generated_Source\PSoC4/PWM_0_Int.c **** *   interrupts).
 371:Generated_Source\PSoC4/PWM_0_Int.c **** *
 372:Generated_Source\PSoC4/PWM_0_Int.c **** *******************************************************************************/
 373:Generated_Source\PSoC4/PWM_0_Int.c **** void PWM_0_Int_SetPending(void)
 374:Generated_Source\PSoC4/PWM_0_Int.c **** {
 379              		.loc 1 374 0
 380              		.cfi_startproc
 381              		@ args = 0, pretend = 0, frame = 0
 382              		@ frame_needed = 0, uses_anonymous_args = 0
 383              		@ link register save eliminated.
 375:Generated_Source\PSoC4/PWM_0_Int.c ****     *PWM_0_Int_INTC_SET_PD = PWM_0_Int__INTC_MASK;
 384              		.loc 1 375 0
 385 0000 8022     		movs	r2, #128
 386 0002 1203     		lsls	r2, r2, #12
 387 0004 014B     		ldr	r3, .L33
 388 0006 1A60     		str	r2, [r3]
 376:Generated_Source\PSoC4/PWM_0_Int.c **** }
 389              		.loc 1 376 0
 390              		@ sp needed
 391 0008 7047     		bx	lr
 392              	.L34:
 393 000a C046     		.align	2
 394              	.L33:
 395 000c 00E200E0 		.word	-536813056
 396              		.cfi_endproc
 397              	.LFE12:
 398              		.size	PWM_0_Int_SetPending, .-PWM_0_Int_SetPending
 399              		.section	.text.PWM_0_Int_ClearPending,"ax",%progbits
 400              		.align	2
 401              		.global	PWM_0_Int_ClearPending
 402              		.code	16
 403              		.thumb_func
 404              		.type	PWM_0_Int_ClearPending, %function
 405              	PWM_0_Int_ClearPending:
ARM GAS  C:\Users\JamesN4\AppData\Local\Temp\ccOnSHeI.s 			page 15


 406              	.LFB13:
 377:Generated_Source\PSoC4/PWM_0_Int.c **** 
 378:Generated_Source\PSoC4/PWM_0_Int.c **** 
 379:Generated_Source\PSoC4/PWM_0_Int.c **** /*******************************************************************************
 380:Generated_Source\PSoC4/PWM_0_Int.c **** * Function Name: PWM_0_Int_ClearPending
 381:Generated_Source\PSoC4/PWM_0_Int.c **** ********************************************************************************
 382:Generated_Source\PSoC4/PWM_0_Int.c **** *
 383:Generated_Source\PSoC4/PWM_0_Int.c **** * Summary:
 384:Generated_Source\PSoC4/PWM_0_Int.c **** *   Clears a pending interrupt in the interrupt controller.
 385:Generated_Source\PSoC4/PWM_0_Int.c **** *
 386:Generated_Source\PSoC4/PWM_0_Int.c **** *   Note Some interrupt sources are clear-on-read and require the block 
 387:Generated_Source\PSoC4/PWM_0_Int.c **** *   interrupt/status register to be read/cleared with the appropriate block API 
 388:Generated_Source\PSoC4/PWM_0_Int.c **** *   (GPIO, UART, and so on). Otherwise the ISR will continue to remain in 
 389:Generated_Source\PSoC4/PWM_0_Int.c **** *   pending state even though the interrupt itself is cleared using this API.
 390:Generated_Source\PSoC4/PWM_0_Int.c **** *
 391:Generated_Source\PSoC4/PWM_0_Int.c **** * Parameters:
 392:Generated_Source\PSoC4/PWM_0_Int.c **** *   None
 393:Generated_Source\PSoC4/PWM_0_Int.c **** *
 394:Generated_Source\PSoC4/PWM_0_Int.c **** * Return:
 395:Generated_Source\PSoC4/PWM_0_Int.c **** *   None
 396:Generated_Source\PSoC4/PWM_0_Int.c **** *
 397:Generated_Source\PSoC4/PWM_0_Int.c **** *******************************************************************************/
 398:Generated_Source\PSoC4/PWM_0_Int.c **** void PWM_0_Int_ClearPending(void)
 399:Generated_Source\PSoC4/PWM_0_Int.c **** {
 407              		.loc 1 399 0
 408              		.cfi_startproc
 409              		@ args = 0, pretend = 0, frame = 0
 410              		@ frame_needed = 0, uses_anonymous_args = 0
 411              		@ link register save eliminated.
 400:Generated_Source\PSoC4/PWM_0_Int.c ****     *PWM_0_Int_INTC_CLR_PD = PWM_0_Int__INTC_MASK;
 412              		.loc 1 400 0
 413 0000 8022     		movs	r2, #128
 414 0002 1203     		lsls	r2, r2, #12
 415 0004 014B     		ldr	r3, .L36
 416 0006 1A60     		str	r2, [r3]
 401:Generated_Source\PSoC4/PWM_0_Int.c **** }
 417              		.loc 1 401 0
 418              		@ sp needed
 419 0008 7047     		bx	lr
 420              	.L37:
 421 000a C046     		.align	2
 422              	.L36:
 423 000c 80E200E0 		.word	-536812928
 424              		.cfi_endproc
 425              	.LFE13:
 426              		.size	PWM_0_Int_ClearPending, .-PWM_0_Int_ClearPending
 427              		.text
 428              	.Letext0:
 429              		.file 2 "Generated_Source\\PSoC4/cytypes.h"
 430              		.file 3 "Generated_Source\\PSoC4/CyLib.h"