ARM GAS  C:\Users\JamesN4\AppData\Local\Temp\cc78NrIU.s 			page 1


   1              		.syntax unified
   2              		.cpu cortex-m0
   3              		.fpu softvfp
   4              		.eabi_attribute 20, 1
   5              		.eabi_attribute 21, 1
   6              		.eabi_attribute 23, 3
   7              		.eabi_attribute 24, 1
   8              		.eabi_attribute 25, 1
   9              		.eabi_attribute 26, 1
  10              		.eabi_attribute 30, 1
  11              		.eabi_attribute 34, 0
  12              		.eabi_attribute 18, 4
  13              		.thumb
  14              		.syntax unified
  15              		.file	"Timer_Int.c"
  16              		.text
  17              	.Ltext0:
  18              		.cfi_sections	.debug_frame
  19              		.section	.text.Timer_Int_Interrupt,"ax",%progbits
  20              		.align	2
  21              		.global	Timer_Int_Interrupt
  22              		.code	16
  23              		.thumb_func
  24              		.type	Timer_Int_Interrupt, %function
  25              	Timer_Int_Interrupt:
  26              	.LFB4:
  27              		.file 1 "Generated_Source\\PSoC4\\Timer_Int.c"
   1:Generated_Source\PSoC4/Timer_Int.c **** /*******************************************************************************
   2:Generated_Source\PSoC4/Timer_Int.c **** * File Name: Timer_Int.c  
   3:Generated_Source\PSoC4/Timer_Int.c **** * Version 1.70
   4:Generated_Source\PSoC4/Timer_Int.c **** *
   5:Generated_Source\PSoC4/Timer_Int.c **** *  Description:
   6:Generated_Source\PSoC4/Timer_Int.c **** *   API for controlling the state of an interrupt.
   7:Generated_Source\PSoC4/Timer_Int.c **** *
   8:Generated_Source\PSoC4/Timer_Int.c **** *
   9:Generated_Source\PSoC4/Timer_Int.c **** *  Note:
  10:Generated_Source\PSoC4/Timer_Int.c **** *
  11:Generated_Source\PSoC4/Timer_Int.c **** ********************************************************************************
  12:Generated_Source\PSoC4/Timer_Int.c **** * Copyright 2008-2015, Cypress Semiconductor Corporation.  All rights reserved.
  13:Generated_Source\PSoC4/Timer_Int.c **** * You may use this file only in accordance with the license, terms, conditions, 
  14:Generated_Source\PSoC4/Timer_Int.c **** * disclaimers, and limitations in the end user license agreement accompanying 
  15:Generated_Source\PSoC4/Timer_Int.c **** * the software package with which this file was provided.
  16:Generated_Source\PSoC4/Timer_Int.c **** *******************************************************************************/
  17:Generated_Source\PSoC4/Timer_Int.c **** 
  18:Generated_Source\PSoC4/Timer_Int.c **** 
  19:Generated_Source\PSoC4/Timer_Int.c **** #include <cydevice_trm.h>
  20:Generated_Source\PSoC4/Timer_Int.c **** #include <CyLib.h>
  21:Generated_Source\PSoC4/Timer_Int.c **** #include <Timer_Int.h>
  22:Generated_Source\PSoC4/Timer_Int.c **** #include "cyapicallbacks.h"
  23:Generated_Source\PSoC4/Timer_Int.c **** 
  24:Generated_Source\PSoC4/Timer_Int.c **** #if !defined(Timer_Int__REMOVED) /* Check for removal by optimization */
  25:Generated_Source\PSoC4/Timer_Int.c **** 
  26:Generated_Source\PSoC4/Timer_Int.c **** /*******************************************************************************
  27:Generated_Source\PSoC4/Timer_Int.c **** *  Place your includes, defines and code here 
  28:Generated_Source\PSoC4/Timer_Int.c **** ********************************************************************************/
  29:Generated_Source\PSoC4/Timer_Int.c **** /* `#START Timer_Int_intc` */
  30:Generated_Source\PSoC4/Timer_Int.c **** 
ARM GAS  C:\Users\JamesN4\AppData\Local\Temp\cc78NrIU.s 			page 2


  31:Generated_Source\PSoC4/Timer_Int.c **** /* `#END` */
  32:Generated_Source\PSoC4/Timer_Int.c **** 
  33:Generated_Source\PSoC4/Timer_Int.c **** extern cyisraddress CyRamVectors[CYINT_IRQ_BASE + CY_NUM_INTERRUPTS];
  34:Generated_Source\PSoC4/Timer_Int.c **** 
  35:Generated_Source\PSoC4/Timer_Int.c **** /* Declared in startup, used to set unused interrupts to. */
  36:Generated_Source\PSoC4/Timer_Int.c **** CY_ISR_PROTO(IntDefaultHandler);
  37:Generated_Source\PSoC4/Timer_Int.c **** 
  38:Generated_Source\PSoC4/Timer_Int.c **** 
  39:Generated_Source\PSoC4/Timer_Int.c **** /*******************************************************************************
  40:Generated_Source\PSoC4/Timer_Int.c **** * Function Name: Timer_Int_Start
  41:Generated_Source\PSoC4/Timer_Int.c **** ********************************************************************************
  42:Generated_Source\PSoC4/Timer_Int.c **** *
  43:Generated_Source\PSoC4/Timer_Int.c **** * Summary:
  44:Generated_Source\PSoC4/Timer_Int.c **** *  Set up the interrupt and enable it. This function disables the interrupt, 
  45:Generated_Source\PSoC4/Timer_Int.c **** *  sets the default interrupt vector, sets the priority from the value in the
  46:Generated_Source\PSoC4/Timer_Int.c **** *  Design Wide Resources Interrupt Editor, then enables the interrupt to the 
  47:Generated_Source\PSoC4/Timer_Int.c **** *  interrupt controller.
  48:Generated_Source\PSoC4/Timer_Int.c **** *
  49:Generated_Source\PSoC4/Timer_Int.c **** * Parameters:  
  50:Generated_Source\PSoC4/Timer_Int.c **** *   None
  51:Generated_Source\PSoC4/Timer_Int.c **** *
  52:Generated_Source\PSoC4/Timer_Int.c **** * Return:
  53:Generated_Source\PSoC4/Timer_Int.c **** *   None
  54:Generated_Source\PSoC4/Timer_Int.c **** *
  55:Generated_Source\PSoC4/Timer_Int.c **** *******************************************************************************/
  56:Generated_Source\PSoC4/Timer_Int.c **** void Timer_Int_Start(void)
  57:Generated_Source\PSoC4/Timer_Int.c **** {
  58:Generated_Source\PSoC4/Timer_Int.c ****     /* For all we know the interrupt is active. */
  59:Generated_Source\PSoC4/Timer_Int.c ****     Timer_Int_Disable();
  60:Generated_Source\PSoC4/Timer_Int.c **** 
  61:Generated_Source\PSoC4/Timer_Int.c ****     /* Set the ISR to point to the Timer_Int Interrupt. */
  62:Generated_Source\PSoC4/Timer_Int.c ****     Timer_Int_SetVector(&Timer_Int_Interrupt);
  63:Generated_Source\PSoC4/Timer_Int.c **** 
  64:Generated_Source\PSoC4/Timer_Int.c ****     /* Set the priority. */
  65:Generated_Source\PSoC4/Timer_Int.c ****     Timer_Int_SetPriority((uint8)Timer_Int_INTC_PRIOR_NUMBER);
  66:Generated_Source\PSoC4/Timer_Int.c **** 
  67:Generated_Source\PSoC4/Timer_Int.c ****     /* Enable it. */
  68:Generated_Source\PSoC4/Timer_Int.c ****     Timer_Int_Enable();
  69:Generated_Source\PSoC4/Timer_Int.c **** }
  70:Generated_Source\PSoC4/Timer_Int.c **** 
  71:Generated_Source\PSoC4/Timer_Int.c **** 
  72:Generated_Source\PSoC4/Timer_Int.c **** /*******************************************************************************
  73:Generated_Source\PSoC4/Timer_Int.c **** * Function Name: Timer_Int_StartEx
  74:Generated_Source\PSoC4/Timer_Int.c **** ********************************************************************************
  75:Generated_Source\PSoC4/Timer_Int.c **** *
  76:Generated_Source\PSoC4/Timer_Int.c **** * Summary:
  77:Generated_Source\PSoC4/Timer_Int.c **** *  Sets up the interrupt and enables it. This function disables the interrupt,
  78:Generated_Source\PSoC4/Timer_Int.c **** *  sets the interrupt vector based on the address passed in, sets the priority 
  79:Generated_Source\PSoC4/Timer_Int.c **** *  from the value in the Design Wide Resources Interrupt Editor, then enables 
  80:Generated_Source\PSoC4/Timer_Int.c **** *  the interrupt to the interrupt controller.
  81:Generated_Source\PSoC4/Timer_Int.c **** *  
  82:Generated_Source\PSoC4/Timer_Int.c **** *  When defining ISR functions, the CY_ISR and CY_ISR_PROTO macros should be 
  83:Generated_Source\PSoC4/Timer_Int.c **** *  used to provide consistent definition across compilers:
  84:Generated_Source\PSoC4/Timer_Int.c **** *  
  85:Generated_Source\PSoC4/Timer_Int.c **** *  Function definition example:
  86:Generated_Source\PSoC4/Timer_Int.c **** *   CY_ISR(MyISR)
  87:Generated_Source\PSoC4/Timer_Int.c **** *   {
ARM GAS  C:\Users\JamesN4\AppData\Local\Temp\cc78NrIU.s 			page 3


  88:Generated_Source\PSoC4/Timer_Int.c **** *   }
  89:Generated_Source\PSoC4/Timer_Int.c **** *   Function prototype example:
  90:Generated_Source\PSoC4/Timer_Int.c **** *   CY_ISR_PROTO(MyISR);
  91:Generated_Source\PSoC4/Timer_Int.c **** *
  92:Generated_Source\PSoC4/Timer_Int.c **** * Parameters:  
  93:Generated_Source\PSoC4/Timer_Int.c **** *   address: Address of the ISR to set in the interrupt vector table.
  94:Generated_Source\PSoC4/Timer_Int.c **** *
  95:Generated_Source\PSoC4/Timer_Int.c **** * Return:
  96:Generated_Source\PSoC4/Timer_Int.c **** *   None
  97:Generated_Source\PSoC4/Timer_Int.c **** *
  98:Generated_Source\PSoC4/Timer_Int.c **** *******************************************************************************/
  99:Generated_Source\PSoC4/Timer_Int.c **** void Timer_Int_StartEx(cyisraddress address)
 100:Generated_Source\PSoC4/Timer_Int.c **** {
 101:Generated_Source\PSoC4/Timer_Int.c ****     /* For all we know the interrupt is active. */
 102:Generated_Source\PSoC4/Timer_Int.c ****     Timer_Int_Disable();
 103:Generated_Source\PSoC4/Timer_Int.c **** 
 104:Generated_Source\PSoC4/Timer_Int.c ****     /* Set the ISR to point to the Timer_Int Interrupt. */
 105:Generated_Source\PSoC4/Timer_Int.c ****     Timer_Int_SetVector(address);
 106:Generated_Source\PSoC4/Timer_Int.c **** 
 107:Generated_Source\PSoC4/Timer_Int.c ****     /* Set the priority. */
 108:Generated_Source\PSoC4/Timer_Int.c ****     Timer_Int_SetPriority((uint8)Timer_Int_INTC_PRIOR_NUMBER);
 109:Generated_Source\PSoC4/Timer_Int.c **** 
 110:Generated_Source\PSoC4/Timer_Int.c ****     /* Enable it. */
 111:Generated_Source\PSoC4/Timer_Int.c ****     Timer_Int_Enable();
 112:Generated_Source\PSoC4/Timer_Int.c **** }
 113:Generated_Source\PSoC4/Timer_Int.c **** 
 114:Generated_Source\PSoC4/Timer_Int.c **** 
 115:Generated_Source\PSoC4/Timer_Int.c **** /*******************************************************************************
 116:Generated_Source\PSoC4/Timer_Int.c **** * Function Name: Timer_Int_Stop
 117:Generated_Source\PSoC4/Timer_Int.c **** ********************************************************************************
 118:Generated_Source\PSoC4/Timer_Int.c **** *
 119:Generated_Source\PSoC4/Timer_Int.c **** * Summary:
 120:Generated_Source\PSoC4/Timer_Int.c **** *   Disables and removes the interrupt.
 121:Generated_Source\PSoC4/Timer_Int.c **** *
 122:Generated_Source\PSoC4/Timer_Int.c **** * Parameters:  
 123:Generated_Source\PSoC4/Timer_Int.c **** *   None
 124:Generated_Source\PSoC4/Timer_Int.c **** *
 125:Generated_Source\PSoC4/Timer_Int.c **** * Return:
 126:Generated_Source\PSoC4/Timer_Int.c **** *   None
 127:Generated_Source\PSoC4/Timer_Int.c **** *
 128:Generated_Source\PSoC4/Timer_Int.c **** *******************************************************************************/
 129:Generated_Source\PSoC4/Timer_Int.c **** void Timer_Int_Stop(void)
 130:Generated_Source\PSoC4/Timer_Int.c **** {
 131:Generated_Source\PSoC4/Timer_Int.c ****     /* Disable this interrupt. */
 132:Generated_Source\PSoC4/Timer_Int.c ****     Timer_Int_Disable();
 133:Generated_Source\PSoC4/Timer_Int.c **** 
 134:Generated_Source\PSoC4/Timer_Int.c ****     /* Set the ISR to point to the passive one. */
 135:Generated_Source\PSoC4/Timer_Int.c ****     Timer_Int_SetVector(&IntDefaultHandler);
 136:Generated_Source\PSoC4/Timer_Int.c **** }
 137:Generated_Source\PSoC4/Timer_Int.c **** 
 138:Generated_Source\PSoC4/Timer_Int.c **** 
 139:Generated_Source\PSoC4/Timer_Int.c **** /*******************************************************************************
 140:Generated_Source\PSoC4/Timer_Int.c **** * Function Name: Timer_Int_Interrupt
 141:Generated_Source\PSoC4/Timer_Int.c **** ********************************************************************************
 142:Generated_Source\PSoC4/Timer_Int.c **** *
 143:Generated_Source\PSoC4/Timer_Int.c **** * Summary:
 144:Generated_Source\PSoC4/Timer_Int.c **** *   The default Interrupt Service Routine for Timer_Int.
ARM GAS  C:\Users\JamesN4\AppData\Local\Temp\cc78NrIU.s 			page 4


 145:Generated_Source\PSoC4/Timer_Int.c **** *
 146:Generated_Source\PSoC4/Timer_Int.c **** *   Add custom code between the START and END comments to keep the next version
 147:Generated_Source\PSoC4/Timer_Int.c **** *   of this file from over-writing your code.
 148:Generated_Source\PSoC4/Timer_Int.c **** *
 149:Generated_Source\PSoC4/Timer_Int.c **** *   Note You may use either the default ISR by using this API, or you may define
 150:Generated_Source\PSoC4/Timer_Int.c **** *   your own separate ISR through ISR_StartEx().
 151:Generated_Source\PSoC4/Timer_Int.c **** *
 152:Generated_Source\PSoC4/Timer_Int.c **** * Parameters:  
 153:Generated_Source\PSoC4/Timer_Int.c **** *   None
 154:Generated_Source\PSoC4/Timer_Int.c **** *
 155:Generated_Source\PSoC4/Timer_Int.c **** * Return:
 156:Generated_Source\PSoC4/Timer_Int.c **** *   None
 157:Generated_Source\PSoC4/Timer_Int.c **** *
 158:Generated_Source\PSoC4/Timer_Int.c **** *******************************************************************************/
 159:Generated_Source\PSoC4/Timer_Int.c **** CY_ISR(Timer_Int_Interrupt)
 160:Generated_Source\PSoC4/Timer_Int.c **** {
  28              		.loc 1 160 0
  29              		.cfi_startproc
  30              		@ args = 0, pretend = 0, frame = 0
  31              		@ frame_needed = 0, uses_anonymous_args = 0
  32              		@ link register save eliminated.
 161:Generated_Source\PSoC4/Timer_Int.c ****     #ifdef Timer_Int_INTERRUPT_INTERRUPT_CALLBACK
 162:Generated_Source\PSoC4/Timer_Int.c ****         Timer_Int_Interrupt_InterruptCallback();
 163:Generated_Source\PSoC4/Timer_Int.c ****     #endif /* Timer_Int_INTERRUPT_INTERRUPT_CALLBACK */ 
 164:Generated_Source\PSoC4/Timer_Int.c **** 
 165:Generated_Source\PSoC4/Timer_Int.c ****     /*  Place your Interrupt code here. */
 166:Generated_Source\PSoC4/Timer_Int.c ****     /* `#START Timer_Int_Interrupt` */
 167:Generated_Source\PSoC4/Timer_Int.c **** 
 168:Generated_Source\PSoC4/Timer_Int.c ****     /* `#END` */
 169:Generated_Source\PSoC4/Timer_Int.c **** }
  33              		.loc 1 169 0
  34              		@ sp needed
  35 0000 7047     		bx	lr
  36              		.cfi_endproc
  37              	.LFE4:
  38              		.size	Timer_Int_Interrupt, .-Timer_Int_Interrupt
  39 0002 C046     		.section	.text.Timer_Int_SetVector,"ax",%progbits
  40              		.align	2
  41              		.global	Timer_Int_SetVector
  42              		.code	16
  43              		.thumb_func
  44              		.type	Timer_Int_SetVector, %function
  45              	Timer_Int_SetVector:
  46              	.LFB5:
 170:Generated_Source\PSoC4/Timer_Int.c **** 
 171:Generated_Source\PSoC4/Timer_Int.c **** 
 172:Generated_Source\PSoC4/Timer_Int.c **** /*******************************************************************************
 173:Generated_Source\PSoC4/Timer_Int.c **** * Function Name: Timer_Int_SetVector
 174:Generated_Source\PSoC4/Timer_Int.c **** ********************************************************************************
 175:Generated_Source\PSoC4/Timer_Int.c **** *
 176:Generated_Source\PSoC4/Timer_Int.c **** * Summary:
 177:Generated_Source\PSoC4/Timer_Int.c **** *   Change the ISR vector for the Interrupt. Note calling Timer_Int_Start
 178:Generated_Source\PSoC4/Timer_Int.c **** *   will override any effect this method would have had. To set the vector 
 179:Generated_Source\PSoC4/Timer_Int.c **** *   before the component has been started use Timer_Int_StartEx instead.
 180:Generated_Source\PSoC4/Timer_Int.c **** * 
 181:Generated_Source\PSoC4/Timer_Int.c **** *   When defining ISR functions, the CY_ISR and CY_ISR_PROTO macros should be 
 182:Generated_Source\PSoC4/Timer_Int.c **** *   used to provide consistent definition across compilers:
ARM GAS  C:\Users\JamesN4\AppData\Local\Temp\cc78NrIU.s 			page 5


 183:Generated_Source\PSoC4/Timer_Int.c **** *
 184:Generated_Source\PSoC4/Timer_Int.c **** *   Function definition example:
 185:Generated_Source\PSoC4/Timer_Int.c **** *   CY_ISR(MyISR)
 186:Generated_Source\PSoC4/Timer_Int.c **** *   {
 187:Generated_Source\PSoC4/Timer_Int.c **** *   }
 188:Generated_Source\PSoC4/Timer_Int.c **** *
 189:Generated_Source\PSoC4/Timer_Int.c **** *   Function prototype example:
 190:Generated_Source\PSoC4/Timer_Int.c **** *     CY_ISR_PROTO(MyISR);
 191:Generated_Source\PSoC4/Timer_Int.c **** *
 192:Generated_Source\PSoC4/Timer_Int.c **** * Parameters:
 193:Generated_Source\PSoC4/Timer_Int.c **** *   address: Address of the ISR to set in the interrupt vector table.
 194:Generated_Source\PSoC4/Timer_Int.c **** *
 195:Generated_Source\PSoC4/Timer_Int.c **** * Return:
 196:Generated_Source\PSoC4/Timer_Int.c **** *   None
 197:Generated_Source\PSoC4/Timer_Int.c **** *
 198:Generated_Source\PSoC4/Timer_Int.c **** *******************************************************************************/
 199:Generated_Source\PSoC4/Timer_Int.c **** void Timer_Int_SetVector(cyisraddress address)
 200:Generated_Source\PSoC4/Timer_Int.c **** {
  47              		.loc 1 200 0
  48              		.cfi_startproc
  49              		@ args = 0, pretend = 0, frame = 0
  50              		@ frame_needed = 0, uses_anonymous_args = 0
  51              		@ link register save eliminated.
  52              	.LVL0:
 201:Generated_Source\PSoC4/Timer_Int.c ****     CyRamVectors[CYINT_IRQ_BASE + Timer_Int__INTC_NUMBER] = address;
  53              		.loc 1 201 0
  54 0000 9423     		movs	r3, #148
  55 0002 014A     		ldr	r2, .L3
  56 0004 D050     		str	r0, [r2, r3]
 202:Generated_Source\PSoC4/Timer_Int.c **** }
  57              		.loc 1 202 0
  58              		@ sp needed
  59 0006 7047     		bx	lr
  60              	.L4:
  61              		.align	2
  62              	.L3:
  63 0008 00000000 		.word	CyRamVectors
  64              		.cfi_endproc
  65              	.LFE5:
  66              		.size	Timer_Int_SetVector, .-Timer_Int_SetVector
  67              		.section	.text.Timer_Int_GetVector,"ax",%progbits
  68              		.align	2
  69              		.global	Timer_Int_GetVector
  70              		.code	16
  71              		.thumb_func
  72              		.type	Timer_Int_GetVector, %function
  73              	Timer_Int_GetVector:
  74              	.LFB6:
 203:Generated_Source\PSoC4/Timer_Int.c **** 
 204:Generated_Source\PSoC4/Timer_Int.c **** 
 205:Generated_Source\PSoC4/Timer_Int.c **** /*******************************************************************************
 206:Generated_Source\PSoC4/Timer_Int.c **** * Function Name: Timer_Int_GetVector
 207:Generated_Source\PSoC4/Timer_Int.c **** ********************************************************************************
 208:Generated_Source\PSoC4/Timer_Int.c **** *
 209:Generated_Source\PSoC4/Timer_Int.c **** * Summary:
 210:Generated_Source\PSoC4/Timer_Int.c **** *   Gets the "address" of the current ISR vector for the Interrupt.
 211:Generated_Source\PSoC4/Timer_Int.c **** *
ARM GAS  C:\Users\JamesN4\AppData\Local\Temp\cc78NrIU.s 			page 6


 212:Generated_Source\PSoC4/Timer_Int.c **** * Parameters:
 213:Generated_Source\PSoC4/Timer_Int.c **** *   None
 214:Generated_Source\PSoC4/Timer_Int.c **** *
 215:Generated_Source\PSoC4/Timer_Int.c **** * Return:
 216:Generated_Source\PSoC4/Timer_Int.c **** *   Address of the ISR in the interrupt vector table.
 217:Generated_Source\PSoC4/Timer_Int.c **** *
 218:Generated_Source\PSoC4/Timer_Int.c **** *******************************************************************************/
 219:Generated_Source\PSoC4/Timer_Int.c **** cyisraddress Timer_Int_GetVector(void)
 220:Generated_Source\PSoC4/Timer_Int.c **** {
  75              		.loc 1 220 0
  76              		.cfi_startproc
  77              		@ args = 0, pretend = 0, frame = 0
  78              		@ frame_needed = 0, uses_anonymous_args = 0
  79              		@ link register save eliminated.
 221:Generated_Source\PSoC4/Timer_Int.c ****     return CyRamVectors[CYINT_IRQ_BASE + Timer_Int__INTC_NUMBER];
  80              		.loc 1 221 0
  81 0000 9423     		movs	r3, #148
  82 0002 014A     		ldr	r2, .L6
  83 0004 D058     		ldr	r0, [r2, r3]
 222:Generated_Source\PSoC4/Timer_Int.c **** }
  84              		.loc 1 222 0
  85              		@ sp needed
  86 0006 7047     		bx	lr
  87              	.L7:
  88              		.align	2
  89              	.L6:
  90 0008 00000000 		.word	CyRamVectors
  91              		.cfi_endproc
  92              	.LFE6:
  93              		.size	Timer_Int_GetVector, .-Timer_Int_GetVector
  94              		.section	.text.Timer_Int_SetPriority,"ax",%progbits
  95              		.align	2
  96              		.global	Timer_Int_SetPriority
  97              		.code	16
  98              		.thumb_func
  99              		.type	Timer_Int_SetPriority, %function
 100              	Timer_Int_SetPriority:
 101              	.LFB7:
 223:Generated_Source\PSoC4/Timer_Int.c **** 
 224:Generated_Source\PSoC4/Timer_Int.c **** 
 225:Generated_Source\PSoC4/Timer_Int.c **** /*******************************************************************************
 226:Generated_Source\PSoC4/Timer_Int.c **** * Function Name: Timer_Int_SetPriority
 227:Generated_Source\PSoC4/Timer_Int.c **** ********************************************************************************
 228:Generated_Source\PSoC4/Timer_Int.c **** *
 229:Generated_Source\PSoC4/Timer_Int.c **** * Summary:
 230:Generated_Source\PSoC4/Timer_Int.c **** *   Sets the Priority of the Interrupt. 
 231:Generated_Source\PSoC4/Timer_Int.c **** *
 232:Generated_Source\PSoC4/Timer_Int.c **** *   Note calling Timer_Int_Start or Timer_Int_StartEx will 
 233:Generated_Source\PSoC4/Timer_Int.c **** *   override any effect this API would have had. This API should only be called
 234:Generated_Source\PSoC4/Timer_Int.c **** *   after Timer_Int_Start or Timer_Int_StartEx has been called. 
 235:Generated_Source\PSoC4/Timer_Int.c **** *   To set the initial priority for the component, use the Design-Wide Resources
 236:Generated_Source\PSoC4/Timer_Int.c **** *   Interrupt Editor.
 237:Generated_Source\PSoC4/Timer_Int.c **** *
 238:Generated_Source\PSoC4/Timer_Int.c **** *   Note This API has no effect on Non-maskable interrupt NMI).
 239:Generated_Source\PSoC4/Timer_Int.c **** *
 240:Generated_Source\PSoC4/Timer_Int.c **** * Parameters:
 241:Generated_Source\PSoC4/Timer_Int.c **** *   priority: Priority of the interrupt, 0 being the highest priority
ARM GAS  C:\Users\JamesN4\AppData\Local\Temp\cc78NrIU.s 			page 7


 242:Generated_Source\PSoC4/Timer_Int.c **** *             PSoC 3 and PSoC 5LP: Priority is from 0 to 7.
 243:Generated_Source\PSoC4/Timer_Int.c **** *             PSoC 4: Priority is from 0 to 3.
 244:Generated_Source\PSoC4/Timer_Int.c **** *
 245:Generated_Source\PSoC4/Timer_Int.c **** * Return:
 246:Generated_Source\PSoC4/Timer_Int.c **** *   None
 247:Generated_Source\PSoC4/Timer_Int.c **** *
 248:Generated_Source\PSoC4/Timer_Int.c **** *******************************************************************************/
 249:Generated_Source\PSoC4/Timer_Int.c **** void Timer_Int_SetPriority(uint8 priority)
 250:Generated_Source\PSoC4/Timer_Int.c **** {
 102              		.loc 1 250 0
 103              		.cfi_startproc
 104              		@ args = 0, pretend = 0, frame = 0
 105              		@ frame_needed = 0, uses_anonymous_args = 0
 106              	.LVL1:
 107 0000 10B5     		push	{r4, lr}
 108              		.cfi_def_cfa_offset 8
 109              		.cfi_offset 4, -8
 110              		.cfi_offset 14, -4
 111 0002 0400     		movs	r4, r0
 112              	.LVL2:
 251:Generated_Source\PSoC4/Timer_Int.c **** 	uint8 interruptState;
 252:Generated_Source\PSoC4/Timer_Int.c ****     uint32 priorityOffset = ((Timer_Int__INTC_NUMBER % 4u) * 8u) + 6u;
 253:Generated_Source\PSoC4/Timer_Int.c ****     
 254:Generated_Source\PSoC4/Timer_Int.c **** 	interruptState = CyEnterCriticalSection();
 113              		.loc 1 254 0
 114 0004 FFF7FEFF 		bl	CyEnterCriticalSection
 115              	.LVL3:
 255:Generated_Source\PSoC4/Timer_Int.c ****     *Timer_Int_INTC_PRIOR = (*Timer_Int_INTC_PRIOR & (uint32)(~Timer_Int__INTC_PRIOR_MASK)) |
 116              		.loc 1 255 0
 117 0008 044A     		ldr	r2, .L9
 118 000a 1168     		ldr	r1, [r2]
 119 000c 044B     		ldr	r3, .L9+4
 120 000e 0B40     		ands	r3, r1
 256:Generated_Source\PSoC4/Timer_Int.c ****                                     ((uint32)priority << priorityOffset);
 121              		.loc 1 256 0
 122 0010 A403     		lsls	r4, r4, #14
 255:Generated_Source\PSoC4/Timer_Int.c ****     *Timer_Int_INTC_PRIOR = (*Timer_Int_INTC_PRIOR & (uint32)(~Timer_Int__INTC_PRIOR_MASK)) |
 123              		.loc 1 255 0
 124 0012 1C43     		orrs	r4, r3
 125 0014 1460     		str	r4, [r2]
 257:Generated_Source\PSoC4/Timer_Int.c **** 	CyExitCriticalSection(interruptState);
 126              		.loc 1 257 0
 127 0016 FFF7FEFF 		bl	CyExitCriticalSection
 128              	.LVL4:
 258:Generated_Source\PSoC4/Timer_Int.c **** }
 129              		.loc 1 258 0
 130              		@ sp needed
 131 001a 10BD     		pop	{r4, pc}
 132              	.L10:
 133              		.align	2
 134              	.L9:
 135 001c 14E400E0 		.word	-536812524
 136 0020 FF3FFFFF 		.word	-49153
 137              		.cfi_endproc
 138              	.LFE7:
 139              		.size	Timer_Int_SetPriority, .-Timer_Int_SetPriority
 140              		.section	.text.Timer_Int_GetPriority,"ax",%progbits
ARM GAS  C:\Users\JamesN4\AppData\Local\Temp\cc78NrIU.s 			page 8


 141              		.align	2
 142              		.global	Timer_Int_GetPriority
 143              		.code	16
 144              		.thumb_func
 145              		.type	Timer_Int_GetPriority, %function
 146              	Timer_Int_GetPriority:
 147              	.LFB8:
 259:Generated_Source\PSoC4/Timer_Int.c **** 
 260:Generated_Source\PSoC4/Timer_Int.c **** 
 261:Generated_Source\PSoC4/Timer_Int.c **** /*******************************************************************************
 262:Generated_Source\PSoC4/Timer_Int.c **** * Function Name: Timer_Int_GetPriority
 263:Generated_Source\PSoC4/Timer_Int.c **** ********************************************************************************
 264:Generated_Source\PSoC4/Timer_Int.c **** *
 265:Generated_Source\PSoC4/Timer_Int.c **** * Summary:
 266:Generated_Source\PSoC4/Timer_Int.c **** *   Gets the Priority of the Interrupt.
 267:Generated_Source\PSoC4/Timer_Int.c **** *
 268:Generated_Source\PSoC4/Timer_Int.c **** * Parameters:
 269:Generated_Source\PSoC4/Timer_Int.c **** *   None
 270:Generated_Source\PSoC4/Timer_Int.c **** *
 271:Generated_Source\PSoC4/Timer_Int.c **** * Return:
 272:Generated_Source\PSoC4/Timer_Int.c **** *   Priority of the interrupt, 0 being the highest priority
 273:Generated_Source\PSoC4/Timer_Int.c **** *    PSoC 3 and PSoC 5LP: Priority is from 0 to 7.
 274:Generated_Source\PSoC4/Timer_Int.c **** *    PSoC 4: Priority is from 0 to 3.
 275:Generated_Source\PSoC4/Timer_Int.c **** *
 276:Generated_Source\PSoC4/Timer_Int.c **** *******************************************************************************/
 277:Generated_Source\PSoC4/Timer_Int.c **** uint8 Timer_Int_GetPriority(void)
 278:Generated_Source\PSoC4/Timer_Int.c **** {
 148              		.loc 1 278 0
 149              		.cfi_startproc
 150              		@ args = 0, pretend = 0, frame = 0
 151              		@ frame_needed = 0, uses_anonymous_args = 0
 152              		@ link register save eliminated.
 153              	.LVL5:
 279:Generated_Source\PSoC4/Timer_Int.c ****     uint32 priority;
 280:Generated_Source\PSoC4/Timer_Int.c **** 	uint32 priorityOffset = ((Timer_Int__INTC_NUMBER % 4u) * 8u) + 6u;
 281:Generated_Source\PSoC4/Timer_Int.c **** 
 282:Generated_Source\PSoC4/Timer_Int.c ****     priority = (*Timer_Int_INTC_PRIOR & Timer_Int__INTC_PRIOR_MASK) >> priorityOffset;
 154              		.loc 1 282 0
 155 0000 024B     		ldr	r3, .L12
 156 0002 1868     		ldr	r0, [r3]
 157 0004 800B     		lsrs	r0, r0, #14
 158              	.LVL6:
 283:Generated_Source\PSoC4/Timer_Int.c **** 
 284:Generated_Source\PSoC4/Timer_Int.c ****     return (uint8)priority;
 159              		.loc 1 284 0
 160 0006 0323     		movs	r3, #3
 161 0008 1840     		ands	r0, r3
 162              	.LVL7:
 285:Generated_Source\PSoC4/Timer_Int.c **** }
 163              		.loc 1 285 0
 164              		@ sp needed
 165 000a 7047     		bx	lr
 166              	.L13:
 167              		.align	2
 168              	.L12:
 169 000c 14E400E0 		.word	-536812524
 170              		.cfi_endproc
ARM GAS  C:\Users\JamesN4\AppData\Local\Temp\cc78NrIU.s 			page 9


 171              	.LFE8:
 172              		.size	Timer_Int_GetPriority, .-Timer_Int_GetPriority
 173              		.section	.text.Timer_Int_Enable,"ax",%progbits
 174              		.align	2
 175              		.global	Timer_Int_Enable
 176              		.code	16
 177              		.thumb_func
 178              		.type	Timer_Int_Enable, %function
 179              	Timer_Int_Enable:
 180              	.LFB9:
 286:Generated_Source\PSoC4/Timer_Int.c **** 
 287:Generated_Source\PSoC4/Timer_Int.c **** 
 288:Generated_Source\PSoC4/Timer_Int.c **** /*******************************************************************************
 289:Generated_Source\PSoC4/Timer_Int.c **** * Function Name: Timer_Int_Enable
 290:Generated_Source\PSoC4/Timer_Int.c **** ********************************************************************************
 291:Generated_Source\PSoC4/Timer_Int.c **** *
 292:Generated_Source\PSoC4/Timer_Int.c **** * Summary:
 293:Generated_Source\PSoC4/Timer_Int.c **** *   Enables the interrupt to the interrupt controller. Do not call this function
 294:Generated_Source\PSoC4/Timer_Int.c **** *   unless ISR_Start() has been called or the functionality of the ISR_Start() 
 295:Generated_Source\PSoC4/Timer_Int.c **** *   function, which sets the vector and the priority, has been called.
 296:Generated_Source\PSoC4/Timer_Int.c **** *
 297:Generated_Source\PSoC4/Timer_Int.c **** * Parameters:
 298:Generated_Source\PSoC4/Timer_Int.c **** *   None
 299:Generated_Source\PSoC4/Timer_Int.c **** *
 300:Generated_Source\PSoC4/Timer_Int.c **** * Return:
 301:Generated_Source\PSoC4/Timer_Int.c **** *   None
 302:Generated_Source\PSoC4/Timer_Int.c **** *
 303:Generated_Source\PSoC4/Timer_Int.c **** *******************************************************************************/
 304:Generated_Source\PSoC4/Timer_Int.c **** void Timer_Int_Enable(void)
 305:Generated_Source\PSoC4/Timer_Int.c **** {
 181              		.loc 1 305 0
 182              		.cfi_startproc
 183              		@ args = 0, pretend = 0, frame = 0
 184              		@ frame_needed = 0, uses_anonymous_args = 0
 185              		@ link register save eliminated.
 306:Generated_Source\PSoC4/Timer_Int.c ****     /* Enable the general interrupt. */
 307:Generated_Source\PSoC4/Timer_Int.c ****     *Timer_Int_INTC_SET_EN = Timer_Int__INTC_MASK;
 186              		.loc 1 307 0
 187 0000 8022     		movs	r2, #128
 188 0002 9203     		lsls	r2, r2, #14
 189 0004 014B     		ldr	r3, .L15
 190 0006 1A60     		str	r2, [r3]
 308:Generated_Source\PSoC4/Timer_Int.c **** }
 191              		.loc 1 308 0
 192              		@ sp needed
 193 0008 7047     		bx	lr
 194              	.L16:
 195 000a C046     		.align	2
 196              	.L15:
 197 000c 00E100E0 		.word	-536813312
 198              		.cfi_endproc
 199              	.LFE9:
 200              		.size	Timer_Int_Enable, .-Timer_Int_Enable
 201              		.section	.text.Timer_Int_GetState,"ax",%progbits
 202              		.align	2
 203              		.global	Timer_Int_GetState
 204              		.code	16
ARM GAS  C:\Users\JamesN4\AppData\Local\Temp\cc78NrIU.s 			page 10


 205              		.thumb_func
 206              		.type	Timer_Int_GetState, %function
 207              	Timer_Int_GetState:
 208              	.LFB10:
 309:Generated_Source\PSoC4/Timer_Int.c **** 
 310:Generated_Source\PSoC4/Timer_Int.c **** 
 311:Generated_Source\PSoC4/Timer_Int.c **** /*******************************************************************************
 312:Generated_Source\PSoC4/Timer_Int.c **** * Function Name: Timer_Int_GetState
 313:Generated_Source\PSoC4/Timer_Int.c **** ********************************************************************************
 314:Generated_Source\PSoC4/Timer_Int.c **** *
 315:Generated_Source\PSoC4/Timer_Int.c **** * Summary:
 316:Generated_Source\PSoC4/Timer_Int.c **** *   Gets the state (enabled, disabled) of the Interrupt.
 317:Generated_Source\PSoC4/Timer_Int.c **** *
 318:Generated_Source\PSoC4/Timer_Int.c **** * Parameters:
 319:Generated_Source\PSoC4/Timer_Int.c **** *   None
 320:Generated_Source\PSoC4/Timer_Int.c **** *
 321:Generated_Source\PSoC4/Timer_Int.c **** * Return:
 322:Generated_Source\PSoC4/Timer_Int.c **** *   1 if enabled, 0 if disabled.
 323:Generated_Source\PSoC4/Timer_Int.c **** *
 324:Generated_Source\PSoC4/Timer_Int.c **** *******************************************************************************/
 325:Generated_Source\PSoC4/Timer_Int.c **** uint8 Timer_Int_GetState(void)
 326:Generated_Source\PSoC4/Timer_Int.c **** {
 209              		.loc 1 326 0
 210              		.cfi_startproc
 211              		@ args = 0, pretend = 0, frame = 0
 212              		@ frame_needed = 0, uses_anonymous_args = 0
 213              		@ link register save eliminated.
 327:Generated_Source\PSoC4/Timer_Int.c ****     /* Get the state of the general interrupt. */
 328:Generated_Source\PSoC4/Timer_Int.c ****     return ((*Timer_Int_INTC_SET_EN & (uint32)Timer_Int__INTC_MASK) != 0u) ? 1u:0u;
 214              		.loc 1 328 0
 215 0000 034B     		ldr	r3, .L20
 216 0002 1B68     		ldr	r3, [r3]
 217 0004 9B02     		lsls	r3, r3, #10
 218 0006 01D5     		bpl	.L19
 219 0008 0120     		movs	r0, #1
 220 000a 00E0     		b	.L18
 221              	.L19:
 222 000c 0020     		movs	r0, #0
 223              	.L18:
 329:Generated_Source\PSoC4/Timer_Int.c **** }
 224              		.loc 1 329 0 discriminator 4
 225              		@ sp needed
 226 000e 7047     		bx	lr
 227              	.L21:
 228              		.align	2
 229              	.L20:
 230 0010 00E100E0 		.word	-536813312
 231              		.cfi_endproc
 232              	.LFE10:
 233              		.size	Timer_Int_GetState, .-Timer_Int_GetState
 234              		.section	.text.Timer_Int_Disable,"ax",%progbits
 235              		.align	2
 236              		.global	Timer_Int_Disable
 237              		.code	16
 238              		.thumb_func
 239              		.type	Timer_Int_Disable, %function
 240              	Timer_Int_Disable:
ARM GAS  C:\Users\JamesN4\AppData\Local\Temp\cc78NrIU.s 			page 11


 241              	.LFB11:
 330:Generated_Source\PSoC4/Timer_Int.c **** 
 331:Generated_Source\PSoC4/Timer_Int.c **** 
 332:Generated_Source\PSoC4/Timer_Int.c **** /*******************************************************************************
 333:Generated_Source\PSoC4/Timer_Int.c **** * Function Name: Timer_Int_Disable
 334:Generated_Source\PSoC4/Timer_Int.c **** ********************************************************************************
 335:Generated_Source\PSoC4/Timer_Int.c **** *
 336:Generated_Source\PSoC4/Timer_Int.c **** * Summary:
 337:Generated_Source\PSoC4/Timer_Int.c **** *   Disables the Interrupt in the interrupt controller.
 338:Generated_Source\PSoC4/Timer_Int.c **** *
 339:Generated_Source\PSoC4/Timer_Int.c **** * Parameters:
 340:Generated_Source\PSoC4/Timer_Int.c **** *   None
 341:Generated_Source\PSoC4/Timer_Int.c **** *
 342:Generated_Source\PSoC4/Timer_Int.c **** * Return:
 343:Generated_Source\PSoC4/Timer_Int.c **** *   None
 344:Generated_Source\PSoC4/Timer_Int.c **** *
 345:Generated_Source\PSoC4/Timer_Int.c **** *******************************************************************************/
 346:Generated_Source\PSoC4/Timer_Int.c **** void Timer_Int_Disable(void)
 347:Generated_Source\PSoC4/Timer_Int.c **** {
 242              		.loc 1 347 0
 243              		.cfi_startproc
 244              		@ args = 0, pretend = 0, frame = 0
 245              		@ frame_needed = 0, uses_anonymous_args = 0
 246              		@ link register save eliminated.
 348:Generated_Source\PSoC4/Timer_Int.c ****     /* Disable the general interrupt. */
 349:Generated_Source\PSoC4/Timer_Int.c ****     *Timer_Int_INTC_CLR_EN = Timer_Int__INTC_MASK;
 247              		.loc 1 349 0
 248 0000 8022     		movs	r2, #128
 249 0002 9203     		lsls	r2, r2, #14
 250 0004 014B     		ldr	r3, .L23
 251 0006 1A60     		str	r2, [r3]
 350:Generated_Source\PSoC4/Timer_Int.c **** }
 252              		.loc 1 350 0
 253              		@ sp needed
 254 0008 7047     		bx	lr
 255              	.L24:
 256 000a C046     		.align	2
 257              	.L23:
 258 000c 80E100E0 		.word	-536813184
 259              		.cfi_endproc
 260              	.LFE11:
 261              		.size	Timer_Int_Disable, .-Timer_Int_Disable
 262              		.section	.text.Timer_Int_Start,"ax",%progbits
 263              		.align	2
 264              		.global	Timer_Int_Start
 265              		.code	16
 266              		.thumb_func
 267              		.type	Timer_Int_Start, %function
 268              	Timer_Int_Start:
 269              	.LFB1:
  57:Generated_Source\PSoC4/Timer_Int.c ****     /* For all we know the interrupt is active. */
 270              		.loc 1 57 0
 271              		.cfi_startproc
 272              		@ args = 0, pretend = 0, frame = 0
 273              		@ frame_needed = 0, uses_anonymous_args = 0
 274 0000 10B5     		push	{r4, lr}
 275              		.cfi_def_cfa_offset 8
ARM GAS  C:\Users\JamesN4\AppData\Local\Temp\cc78NrIU.s 			page 12


 276              		.cfi_offset 4, -8
 277              		.cfi_offset 14, -4
  59:Generated_Source\PSoC4/Timer_Int.c **** 
 278              		.loc 1 59 0
 279 0002 FFF7FEFF 		bl	Timer_Int_Disable
 280              	.LVL8:
  62:Generated_Source\PSoC4/Timer_Int.c **** 
 281              		.loc 1 62 0
 282 0006 0448     		ldr	r0, .L26
 283 0008 FFF7FEFF 		bl	Timer_Int_SetVector
 284              	.LVL9:
  65:Generated_Source\PSoC4/Timer_Int.c **** 
 285              		.loc 1 65 0
 286 000c 0320     		movs	r0, #3
 287 000e FFF7FEFF 		bl	Timer_Int_SetPriority
 288              	.LVL10:
  68:Generated_Source\PSoC4/Timer_Int.c **** }
 289              		.loc 1 68 0
 290 0012 FFF7FEFF 		bl	Timer_Int_Enable
 291              	.LVL11:
  69:Generated_Source\PSoC4/Timer_Int.c **** 
 292              		.loc 1 69 0
 293              		@ sp needed
 294 0016 10BD     		pop	{r4, pc}
 295              	.L27:
 296              		.align	2
 297              	.L26:
 298 0018 00000000 		.word	Timer_Int_Interrupt
 299              		.cfi_endproc
 300              	.LFE1:
 301              		.size	Timer_Int_Start, .-Timer_Int_Start
 302              		.section	.text.Timer_Int_StartEx,"ax",%progbits
 303              		.align	2
 304              		.global	Timer_Int_StartEx
 305              		.code	16
 306              		.thumb_func
 307              		.type	Timer_Int_StartEx, %function
 308              	Timer_Int_StartEx:
 309              	.LFB2:
 100:Generated_Source\PSoC4/Timer_Int.c ****     /* For all we know the interrupt is active. */
 310              		.loc 1 100 0
 311              		.cfi_startproc
 312              		@ args = 0, pretend = 0, frame = 0
 313              		@ frame_needed = 0, uses_anonymous_args = 0
 314              	.LVL12:
 315 0000 10B5     		push	{r4, lr}
 316              		.cfi_def_cfa_offset 8
 317              		.cfi_offset 4, -8
 318              		.cfi_offset 14, -4
 319 0002 0400     		movs	r4, r0
 102:Generated_Source\PSoC4/Timer_Int.c **** 
 320              		.loc 1 102 0
 321 0004 FFF7FEFF 		bl	Timer_Int_Disable
 322              	.LVL13:
 105:Generated_Source\PSoC4/Timer_Int.c **** 
 323              		.loc 1 105 0
 324 0008 2000     		movs	r0, r4
ARM GAS  C:\Users\JamesN4\AppData\Local\Temp\cc78NrIU.s 			page 13


 325 000a FFF7FEFF 		bl	Timer_Int_SetVector
 326              	.LVL14:
 108:Generated_Source\PSoC4/Timer_Int.c **** 
 327              		.loc 1 108 0
 328 000e 0320     		movs	r0, #3
 329 0010 FFF7FEFF 		bl	Timer_Int_SetPriority
 330              	.LVL15:
 111:Generated_Source\PSoC4/Timer_Int.c **** }
 331              		.loc 1 111 0
 332 0014 FFF7FEFF 		bl	Timer_Int_Enable
 333              	.LVL16:
 112:Generated_Source\PSoC4/Timer_Int.c **** 
 334              		.loc 1 112 0
 335              		@ sp needed
 336              	.LVL17:
 337 0018 10BD     		pop	{r4, pc}
 338              		.cfi_endproc
 339              	.LFE2:
 340              		.size	Timer_Int_StartEx, .-Timer_Int_StartEx
 341 001a C046     		.section	.text.Timer_Int_Stop,"ax",%progbits
 342              		.align	2
 343              		.global	Timer_Int_Stop
 344              		.code	16
 345              		.thumb_func
 346              		.type	Timer_Int_Stop, %function
 347              	Timer_Int_Stop:
 348              	.LFB3:
 130:Generated_Source\PSoC4/Timer_Int.c ****     /* Disable this interrupt. */
 349              		.loc 1 130 0
 350              		.cfi_startproc
 351              		@ args = 0, pretend = 0, frame = 0
 352              		@ frame_needed = 0, uses_anonymous_args = 0
 353 0000 10B5     		push	{r4, lr}
 354              		.cfi_def_cfa_offset 8
 355              		.cfi_offset 4, -8
 356              		.cfi_offset 14, -4
 132:Generated_Source\PSoC4/Timer_Int.c **** 
 357              		.loc 1 132 0
 358 0002 FFF7FEFF 		bl	Timer_Int_Disable
 359              	.LVL18:
 135:Generated_Source\PSoC4/Timer_Int.c **** }
 360              		.loc 1 135 0
 361 0006 0248     		ldr	r0, .L30
 362 0008 FFF7FEFF 		bl	Timer_Int_SetVector
 363              	.LVL19:
 136:Generated_Source\PSoC4/Timer_Int.c **** 
 364              		.loc 1 136 0
 365              		@ sp needed
 366 000c 10BD     		pop	{r4, pc}
 367              	.L31:
 368 000e C046     		.align	2
 369              	.L30:
 370 0010 00000000 		.word	IntDefaultHandler
 371              		.cfi_endproc
 372              	.LFE3:
 373              		.size	Timer_Int_Stop, .-Timer_Int_Stop
 374              		.section	.text.Timer_Int_SetPending,"ax",%progbits
ARM GAS  C:\Users\JamesN4\AppData\Local\Temp\cc78NrIU.s 			page 14


 375              		.align	2
 376              		.global	Timer_Int_SetPending
 377              		.code	16
 378              		.thumb_func
 379              		.type	Timer_Int_SetPending, %function
 380              	Timer_Int_SetPending:
 381              	.LFB12:
 351:Generated_Source\PSoC4/Timer_Int.c **** 
 352:Generated_Source\PSoC4/Timer_Int.c **** 
 353:Generated_Source\PSoC4/Timer_Int.c **** /*******************************************************************************
 354:Generated_Source\PSoC4/Timer_Int.c **** * Function Name: Timer_Int_SetPending
 355:Generated_Source\PSoC4/Timer_Int.c **** ********************************************************************************
 356:Generated_Source\PSoC4/Timer_Int.c **** *
 357:Generated_Source\PSoC4/Timer_Int.c **** * Summary:
 358:Generated_Source\PSoC4/Timer_Int.c **** *   Causes the Interrupt to enter the pending state, a software method of
 359:Generated_Source\PSoC4/Timer_Int.c **** *   generating the interrupt.
 360:Generated_Source\PSoC4/Timer_Int.c **** *
 361:Generated_Source\PSoC4/Timer_Int.c **** * Parameters:
 362:Generated_Source\PSoC4/Timer_Int.c **** *   None
 363:Generated_Source\PSoC4/Timer_Int.c **** *
 364:Generated_Source\PSoC4/Timer_Int.c **** * Return:
 365:Generated_Source\PSoC4/Timer_Int.c **** *   None
 366:Generated_Source\PSoC4/Timer_Int.c **** *
 367:Generated_Source\PSoC4/Timer_Int.c **** * Side Effects:
 368:Generated_Source\PSoC4/Timer_Int.c **** *   If interrupts are enabled and the interrupt is set up properly, the ISR is
 369:Generated_Source\PSoC4/Timer_Int.c **** *   entered (depending on the priority of this interrupt and other pending 
 370:Generated_Source\PSoC4/Timer_Int.c **** *   interrupts).
 371:Generated_Source\PSoC4/Timer_Int.c **** *
 372:Generated_Source\PSoC4/Timer_Int.c **** *******************************************************************************/
 373:Generated_Source\PSoC4/Timer_Int.c **** void Timer_Int_SetPending(void)
 374:Generated_Source\PSoC4/Timer_Int.c **** {
 382              		.loc 1 374 0
 383              		.cfi_startproc
 384              		@ args = 0, pretend = 0, frame = 0
 385              		@ frame_needed = 0, uses_anonymous_args = 0
 386              		@ link register save eliminated.
 375:Generated_Source\PSoC4/Timer_Int.c ****     *Timer_Int_INTC_SET_PD = Timer_Int__INTC_MASK;
 387              		.loc 1 375 0
 388 0000 8022     		movs	r2, #128
 389 0002 9203     		lsls	r2, r2, #14
 390 0004 014B     		ldr	r3, .L33
 391 0006 1A60     		str	r2, [r3]
 376:Generated_Source\PSoC4/Timer_Int.c **** }
 392              		.loc 1 376 0
 393              		@ sp needed
 394 0008 7047     		bx	lr
 395              	.L34:
 396 000a C046     		.align	2
 397              	.L33:
 398 000c 00E200E0 		.word	-536813056
 399              		.cfi_endproc
 400              	.LFE12:
 401              		.size	Timer_Int_SetPending, .-Timer_Int_SetPending
 402              		.section	.text.Timer_Int_ClearPending,"ax",%progbits
 403              		.align	2
 404              		.global	Timer_Int_ClearPending
 405              		.code	16
ARM GAS  C:\Users\JamesN4\AppData\Local\Temp\cc78NrIU.s 			page 15


 406              		.thumb_func
 407              		.type	Timer_Int_ClearPending, %function
 408              	Timer_Int_ClearPending:
 409              	.LFB13:
 377:Generated_Source\PSoC4/Timer_Int.c **** 
 378:Generated_Source\PSoC4/Timer_Int.c **** 
 379:Generated_Source\PSoC4/Timer_Int.c **** /*******************************************************************************
 380:Generated_Source\PSoC4/Timer_Int.c **** * Function Name: Timer_Int_ClearPending
 381:Generated_Source\PSoC4/Timer_Int.c **** ********************************************************************************
 382:Generated_Source\PSoC4/Timer_Int.c **** *
 383:Generated_Source\PSoC4/Timer_Int.c **** * Summary:
 384:Generated_Source\PSoC4/Timer_Int.c **** *   Clears a pending interrupt in the interrupt controller.
 385:Generated_Source\PSoC4/Timer_Int.c **** *
 386:Generated_Source\PSoC4/Timer_Int.c **** *   Note Some interrupt sources are clear-on-read and require the block 
 387:Generated_Source\PSoC4/Timer_Int.c **** *   interrupt/status register to be read/cleared with the appropriate block API 
 388:Generated_Source\PSoC4/Timer_Int.c **** *   (GPIO, UART, and so on). Otherwise the ISR will continue to remain in 
 389:Generated_Source\PSoC4/Timer_Int.c **** *   pending state even though the interrupt itself is cleared using this API.
 390:Generated_Source\PSoC4/Timer_Int.c **** *
 391:Generated_Source\PSoC4/Timer_Int.c **** * Parameters:
 392:Generated_Source\PSoC4/Timer_Int.c **** *   None
 393:Generated_Source\PSoC4/Timer_Int.c **** *
 394:Generated_Source\PSoC4/Timer_Int.c **** * Return:
 395:Generated_Source\PSoC4/Timer_Int.c **** *   None
 396:Generated_Source\PSoC4/Timer_Int.c **** *
 397:Generated_Source\PSoC4/Timer_Int.c **** *******************************************************************************/
 398:Generated_Source\PSoC4/Timer_Int.c **** void Timer_Int_ClearPending(void)
 399:Generated_Source\PSoC4/Timer_Int.c **** {
 410              		.loc 1 399 0
 411              		.cfi_startproc
 412              		@ args = 0, pretend = 0, frame = 0
 413              		@ frame_needed = 0, uses_anonymous_args = 0
 414              		@ link register save eliminated.
 400:Generated_Source\PSoC4/Timer_Int.c ****     *Timer_Int_INTC_CLR_PD = Timer_Int__INTC_MASK;
 415              		.loc 1 400 0
 416 0000 8022     		movs	r2, #128
 417 0002 9203     		lsls	r2, r2, #14
 418 0004 014B     		ldr	r3, .L36
 419 0006 1A60     		str	r2, [r3]
 401:Generated_Source\PSoC4/Timer_Int.c **** }
 420              		.loc 1 401 0
 421              		@ sp needed
 422 0008 7047     		bx	lr
 423              	.L37:
 424 000a C046     		.align	2
 425              	.L36:
 426 000c 80E200E0 		.word	-536812928
 427              		.cfi_endproc
 428              	.LFE13:
 429              		.size	Timer_Int_ClearPending, .-Timer_Int_ClearPending
 430              		.text
 431              	.Letext0:
 432              		.file 2 "Generated_Source\\PSoC4/cytypes.h"
 433              		.file 3 "Generated_Source\\PSoC4/CyLib.h"